; Listing generated by Microsoft (R) Optimizing Compiler Version 19.34.31935.0 

	TITLE	C:\Users\chris\Documents\GitHub\zlib\contrib\vstudio\vc14\x86\TestZlibDebug\Tmp\inflate.obj
	.686P
	.XMM
	include listing.inc
	.model	flat

INCLUDELIB MSVCRTD
INCLUDELIB OLDNAMES

CONST	SEGMENT
?lenfix@?1??fixedtables@@9@9 DB 060H			; `fixedtables'::`2'::lenfix
	DB	07H
	DW	00H
	DB	00H
	DB	08H
	DW	050H
	DB	00H
	DB	08H
	DW	010H
	DB	014H
	DB	08H
	DW	073H
	DB	012H
	DB	07H
	DW	01fH
	DB	00H
	DB	08H
	DW	070H
	DB	00H
	DB	08H
	DW	030H
	DB	00H
	DB	09H
	DW	0c0H
	DB	010H
	DB	07H
	DW	0aH
	DB	00H
	DB	08H
	DW	060H
	DB	00H
	DB	08H
	DW	020H
	DB	00H
	DB	09H
	DW	0a0H
	DB	00H
	DB	08H
	DW	00H
	DB	00H
	DB	08H
	DW	080H
	DB	00H
	DB	08H
	DW	040H
	DB	00H
	DB	09H
	DW	0e0H
	DB	010H
	DB	07H
	DW	06H
	DB	00H
	DB	08H
	DW	058H
	DB	00H
	DB	08H
	DW	018H
	DB	00H
	DB	09H
	DW	090H
	DB	013H
	DB	07H
	DW	03bH
	DB	00H
	DB	08H
	DW	078H
	DB	00H
	DB	08H
	DW	038H
	DB	00H
	DB	09H
	DW	0d0H
	DB	011H
	DB	07H
	DW	011H
	DB	00H
	DB	08H
	DW	068H
	DB	00H
	DB	08H
	DW	028H
	DB	00H
	DB	09H
	DW	0b0H
	DB	00H
	DB	08H
	DW	08H
	DB	00H
	DB	08H
	DW	088H
	DB	00H
	DB	08H
	DW	048H
	DB	00H
	DB	09H
	DW	0f0H
	DB	010H
	DB	07H
	DW	04H
	DB	00H
	DB	08H
	DW	054H
	DB	00H
	DB	08H
	DW	014H
	DB	015H
	DB	08H
	DW	0e3H
	DB	013H
	DB	07H
	DW	02bH
	DB	00H
	DB	08H
	DW	074H
	DB	00H
	DB	08H
	DW	034H
	DB	00H
	DB	09H
	DW	0c8H
	DB	011H
	DB	07H
	DW	0dH
	DB	00H
	DB	08H
	DW	064H
	DB	00H
	DB	08H
	DW	024H
	DB	00H
	DB	09H
	DW	0a8H
	DB	00H
	DB	08H
	DW	04H
	DB	00H
	DB	08H
	DW	084H
	DB	00H
	DB	08H
	DW	044H
	DB	00H
	DB	09H
	DW	0e8H
	DB	010H
	DB	07H
	DW	08H
	DB	00H
	DB	08H
	DW	05cH
	DB	00H
	DB	08H
	DW	01cH
	DB	00H
	DB	09H
	DW	098H
	DB	014H
	DB	07H
	DW	053H
	DB	00H
	DB	08H
	DW	07cH
	DB	00H
	DB	08H
	DW	03cH
	DB	00H
	DB	09H
	DW	0d8H
	DB	012H
	DB	07H
	DW	017H
	DB	00H
	DB	08H
	DW	06cH
	DB	00H
	DB	08H
	DW	02cH
	DB	00H
	DB	09H
	DW	0b8H
	DB	00H
	DB	08H
	DW	0cH
	DB	00H
	DB	08H
	DW	08cH
	DB	00H
	DB	08H
	DW	04cH
	DB	00H
	DB	09H
	DW	0f8H
	DB	010H
	DB	07H
	DW	03H
	DB	00H
	DB	08H
	DW	052H
	DB	00H
	DB	08H
	DW	012H
	DB	015H
	DB	08H
	DW	0a3H
	DB	013H
	DB	07H
	DW	023H
	DB	00H
	DB	08H
	DW	072H
	DB	00H
	DB	08H
	DW	032H
	DB	00H
	DB	09H
	DW	0c4H
	DB	011H
	DB	07H
	DW	0bH
	DB	00H
	DB	08H
	DW	062H
	DB	00H
	DB	08H
	DW	022H
	DB	00H
	DB	09H
	DW	0a4H
	DB	00H
	DB	08H
	DW	02H
	DB	00H
	DB	08H
	DW	082H
	DB	00H
	DB	08H
	DW	042H
	DB	00H
	DB	09H
	DW	0e4H
	DB	010H
	DB	07H
	DW	07H
	DB	00H
	DB	08H
	DW	05aH
	DB	00H
	DB	08H
	DW	01aH
	DB	00H
	DB	09H
	DW	094H
	DB	014H
	DB	07H
	DW	043H
	DB	00H
	DB	08H
	DW	07aH
	DB	00H
	DB	08H
	DW	03aH
	DB	00H
	DB	09H
	DW	0d4H
	DB	012H
	DB	07H
	DW	013H
	DB	00H
	DB	08H
	DW	06aH
	DB	00H
	DB	08H
	DW	02aH
	DB	00H
	DB	09H
	DW	0b4H
	DB	00H
	DB	08H
	DW	0aH
	DB	00H
	DB	08H
	DW	08aH
	DB	00H
	DB	08H
	DW	04aH
	DB	00H
	DB	09H
	DW	0f4H
	DB	010H
	DB	07H
	DW	05H
	DB	00H
	DB	08H
	DW	056H
	DB	00H
	DB	08H
	DW	016H
	DB	040H
	DB	08H
	DW	00H
	DB	013H
	DB	07H
	DW	033H
	DB	00H
	DB	08H
	DW	076H
	DB	00H
	DB	08H
	DW	036H
	DB	00H
	DB	09H
	DW	0ccH
	DB	011H
	DB	07H
	DW	0fH
	DB	00H
	DB	08H
	DW	066H
	DB	00H
	DB	08H
	DW	026H
	DB	00H
	DB	09H
	DW	0acH
	DB	00H
	DB	08H
	DW	06H
	DB	00H
	DB	08H
	DW	086H
	DB	00H
	DB	08H
	DW	046H
	DB	00H
	DB	09H
	DW	0ecH
	DB	010H
	DB	07H
	DW	09H
	DB	00H
	DB	08H
	DW	05eH
	DB	00H
	DB	08H
	DW	01eH
	DB	00H
	DB	09H
	DW	09cH
	DB	014H
	DB	07H
	DW	063H
	DB	00H
	DB	08H
	DW	07eH
	DB	00H
	DB	08H
	DW	03eH
	DB	00H
	DB	09H
	DW	0dcH
	DB	012H
	DB	07H
	DW	01bH
	DB	00H
	DB	08H
	DW	06eH
	DB	00H
	DB	08H
	DW	02eH
	DB	00H
	DB	09H
	DW	0bcH
	DB	00H
	DB	08H
	DW	0eH
	DB	00H
	DB	08H
	DW	08eH
	DB	00H
	DB	08H
	DW	04eH
	DB	00H
	DB	09H
	DW	0fcH
	DB	060H
	DB	07H
	DW	00H
	DB	00H
	DB	08H
	DW	051H
	DB	00H
	DB	08H
	DW	011H
	DB	015H
	DB	08H
	DW	083H
	DB	012H
	DB	07H
	DW	01fH
	DB	00H
	DB	08H
	DW	071H
	DB	00H
	DB	08H
	DW	031H
	DB	00H
	DB	09H
	DW	0c2H
	DB	010H
	DB	07H
	DW	0aH
	DB	00H
	DB	08H
	DW	061H
	DB	00H
	DB	08H
	DW	021H
	DB	00H
	DB	09H
	DW	0a2H
	DB	00H
	DB	08H
	DW	01H
	DB	00H
	DB	08H
	DW	081H
	DB	00H
	DB	08H
	DW	041H
	DB	00H
	DB	09H
	DW	0e2H
	DB	010H
	DB	07H
	DW	06H
	DB	00H
	DB	08H
	DW	059H
	DB	00H
	DB	08H
	DW	019H
	DB	00H
	DB	09H
	DW	092H
	DB	013H
	DB	07H
	DW	03bH
	DB	00H
	DB	08H
	DW	079H
	DB	00H
	DB	08H
	DW	039H
	DB	00H
	DB	09H
	DW	0d2H
	DB	011H
	DB	07H
	DW	011H
	DB	00H
	DB	08H
	DW	069H
	DB	00H
	DB	08H
	DW	029H
	DB	00H
	DB	09H
	DW	0b2H
	DB	00H
	DB	08H
	DW	09H
	DB	00H
	DB	08H
	DW	089H
	DB	00H
	DB	08H
	DW	049H
	DB	00H
	DB	09H
	DW	0f2H
	DB	010H
	DB	07H
	DW	04H
	DB	00H
	DB	08H
	DW	055H
	DB	00H
	DB	08H
	DW	015H
	DB	010H
	DB	08H
	DW	0102H
	DB	013H
	DB	07H
	DW	02bH
	DB	00H
	DB	08H
	DW	075H
	DB	00H
	DB	08H
	DW	035H
	DB	00H
	DB	09H
	DW	0caH
	DB	011H
	DB	07H
	DW	0dH
	DB	00H
	DB	08H
	DW	065H
	DB	00H
	DB	08H
	DW	025H
	DB	00H
	DB	09H
	DW	0aaH
	DB	00H
	DB	08H
	DW	05H
	DB	00H
	DB	08H
	DW	085H
	DB	00H
	DB	08H
	DW	045H
	DB	00H
	DB	09H
	DW	0eaH
	DB	010H
	DB	07H
	DW	08H
	DB	00H
	DB	08H
	DW	05dH
	DB	00H
	DB	08H
	DW	01dH
	DB	00H
	DB	09H
	DW	09aH
	DB	014H
	DB	07H
	DW	053H
	DB	00H
	DB	08H
	DW	07dH
	DB	00H
	DB	08H
	DW	03dH
	DB	00H
	DB	09H
	DW	0daH
	DB	012H
	DB	07H
	DW	017H
	DB	00H
	DB	08H
	DW	06dH
	DB	00H
	DB	08H
	DW	02dH
	DB	00H
	DB	09H
	DW	0baH
	DB	00H
	DB	08H
	DW	0dH
	DB	00H
	DB	08H
	DW	08dH
	DB	00H
	DB	08H
	DW	04dH
	DB	00H
	DB	09H
	DW	0faH
	DB	010H
	DB	07H
	DW	03H
	DB	00H
	DB	08H
	DW	053H
	DB	00H
	DB	08H
	DW	013H
	DB	015H
	DB	08H
	DW	0c3H
	DB	013H
	DB	07H
	DW	023H
	DB	00H
	DB	08H
	DW	073H
	DB	00H
	DB	08H
	DW	033H
	DB	00H
	DB	09H
	DW	0c6H
	DB	011H
	DB	07H
	DW	0bH
	DB	00H
	DB	08H
	DW	063H
	DB	00H
	DB	08H
	DW	023H
	DB	00H
	DB	09H
	DW	0a6H
	DB	00H
	DB	08H
	DW	03H
	DB	00H
	DB	08H
	DW	083H
	DB	00H
	DB	08H
	DW	043H
	DB	00H
	DB	09H
	DW	0e6H
	DB	010H
	DB	07H
	DW	07H
	DB	00H
	DB	08H
	DW	05bH
	DB	00H
	DB	08H
	DW	01bH
	DB	00H
	DB	09H
	DW	096H
	DB	014H
	DB	07H
	DW	043H
	DB	00H
	DB	08H
	DW	07bH
	DB	00H
	DB	08H
	DW	03bH
	DB	00H
	DB	09H
	DW	0d6H
	DB	012H
	DB	07H
	DW	013H
	DB	00H
	DB	08H
	DW	06bH
	DB	00H
	DB	08H
	DW	02bH
	DB	00H
	DB	09H
	DW	0b6H
	DB	00H
	DB	08H
	DW	0bH
	DB	00H
	DB	08H
	DW	08bH
	DB	00H
	DB	08H
	DW	04bH
	DB	00H
	DB	09H
	DW	0f6H
	DB	010H
	DB	07H
	DW	05H
	DB	00H
	DB	08H
	DW	057H
	DB	00H
	DB	08H
	DW	017H
	DB	040H
	DB	08H
	DW	00H
	DB	013H
	DB	07H
	DW	033H
	DB	00H
	DB	08H
	DW	077H
	DB	00H
	DB	08H
	DW	037H
	DB	00H
	DB	09H
	DW	0ceH
	DB	011H
	DB	07H
	DW	0fH
	DB	00H
	DB	08H
	DW	067H
	DB	00H
	DB	08H
	DW	027H
	DB	00H
	DB	09H
	DW	0aeH
	DB	00H
	DB	08H
	DW	07H
	DB	00H
	DB	08H
	DW	087H
	DB	00H
	DB	08H
	DW	047H
	DB	00H
	DB	09H
	DW	0eeH
	DB	010H
	DB	07H
	DW	09H
	DB	00H
	DB	08H
	DW	05fH
	DB	00H
	DB	08H
	DW	01fH
	DB	00H
	DB	09H
	DW	09eH
	DB	014H
	DB	07H
	DW	063H
	DB	00H
	DB	08H
	DW	07fH
	DB	00H
	DB	08H
	DW	03fH
	DB	00H
	DB	09H
	DW	0deH
	DB	012H
	DB	07H
	DW	01bH
	DB	00H
	DB	08H
	DW	06fH
	DB	00H
	DB	08H
	DW	02fH
	DB	00H
	DB	09H
	DW	0beH
	DB	00H
	DB	08H
	DW	0fH
	DB	00H
	DB	08H
	DW	08fH
	DB	00H
	DB	08H
	DW	04fH
	DB	00H
	DB	09H
	DW	0feH
	DB	060H
	DB	07H
	DW	00H
	DB	00H
	DB	08H
	DW	050H
	DB	00H
	DB	08H
	DW	010H
	DB	014H
	DB	08H
	DW	073H
	DB	012H
	DB	07H
	DW	01fH
	DB	00H
	DB	08H
	DW	070H
	DB	00H
	DB	08H
	DW	030H
	DB	00H
	DB	09H
	DW	0c1H
	DB	010H
	DB	07H
	DW	0aH
	DB	00H
	DB	08H
	DW	060H
	DB	00H
	DB	08H
	DW	020H
	DB	00H
	DB	09H
	DW	0a1H
	DB	00H
	DB	08H
	DW	00H
	DB	00H
	DB	08H
	DW	080H
	DB	00H
	DB	08H
	DW	040H
	DB	00H
	DB	09H
	DW	0e1H
	DB	010H
	DB	07H
	DW	06H
	DB	00H
	DB	08H
	DW	058H
	DB	00H
	DB	08H
	DW	018H
	DB	00H
	DB	09H
	DW	091H
	DB	013H
	DB	07H
	DW	03bH
	DB	00H
	DB	08H
	DW	078H
	DB	00H
	DB	08H
	DW	038H
	DB	00H
	DB	09H
	DW	0d1H
	DB	011H
	DB	07H
	DW	011H
	DB	00H
	DB	08H
	DW	068H
	DB	00H
	DB	08H
	DW	028H
	DB	00H
	DB	09H
	DW	0b1H
	DB	00H
	DB	08H
	DW	08H
	DB	00H
	DB	08H
	DW	088H
	DB	00H
	DB	08H
	DW	048H
	DB	00H
	DB	09H
	DW	0f1H
	DB	010H
	DB	07H
	DW	04H
	DB	00H
	DB	08H
	DW	054H
	DB	00H
	DB	08H
	DW	014H
	DB	015H
	DB	08H
	DW	0e3H
	DB	013H
	DB	07H
	DW	02bH
	DB	00H
	DB	08H
	DW	074H
	DB	00H
	DB	08H
	DW	034H
	DB	00H
	DB	09H
	DW	0c9H
	DB	011H
	DB	07H
	DW	0dH
	DB	00H
	DB	08H
	DW	064H
	DB	00H
	DB	08H
	DW	024H
	DB	00H
	DB	09H
	DW	0a9H
	DB	00H
	DB	08H
	DW	04H
	DB	00H
	DB	08H
	DW	084H
	DB	00H
	DB	08H
	DW	044H
	DB	00H
	DB	09H
	DW	0e9H
	DB	010H
	DB	07H
	DW	08H
	DB	00H
	DB	08H
	DW	05cH
	DB	00H
	DB	08H
	DW	01cH
	DB	00H
	DB	09H
	DW	099H
	DB	014H
	DB	07H
	DW	053H
	DB	00H
	DB	08H
	DW	07cH
	DB	00H
	DB	08H
	DW	03cH
	DB	00H
	DB	09H
	DW	0d9H
	DB	012H
	DB	07H
	DW	017H
	DB	00H
	DB	08H
	DW	06cH
	DB	00H
	DB	08H
	DW	02cH
	DB	00H
	DB	09H
	DW	0b9H
	DB	00H
	DB	08H
	DW	0cH
	DB	00H
	DB	08H
	DW	08cH
	DB	00H
	DB	08H
	DW	04cH
	DB	00H
	DB	09H
	DW	0f9H
	DB	010H
	DB	07H
	DW	03H
	DB	00H
	DB	08H
	DW	052H
	DB	00H
	DB	08H
	DW	012H
	DB	015H
	DB	08H
	DW	0a3H
	DB	013H
	DB	07H
	DW	023H
	DB	00H
	DB	08H
	DW	072H
	DB	00H
	DB	08H
	DW	032H
	DB	00H
	DB	09H
	DW	0c5H
	DB	011H
	DB	07H
	DW	0bH
	DB	00H
	DB	08H
	DW	062H
	DB	00H
	DB	08H
	DW	022H
	DB	00H
	DB	09H
	DW	0a5H
	DB	00H
	DB	08H
	DW	02H
	DB	00H
	DB	08H
	DW	082H
	DB	00H
	DB	08H
	DW	042H
	DB	00H
	DB	09H
	DW	0e5H
	DB	010H
	DB	07H
	DW	07H
	DB	00H
	DB	08H
	DW	05aH
	DB	00H
	DB	08H
	DW	01aH
	DB	00H
	DB	09H
	DW	095H
	DB	014H
	DB	07H
	DW	043H
	DB	00H
	DB	08H
	DW	07aH
	DB	00H
	DB	08H
	DW	03aH
	DB	00H
	DB	09H
	DW	0d5H
	DB	012H
	DB	07H
	DW	013H
	DB	00H
	DB	08H
	DW	06aH
	DB	00H
	DB	08H
	DW	02aH
	DB	00H
	DB	09H
	DW	0b5H
	DB	00H
	DB	08H
	DW	0aH
	DB	00H
	DB	08H
	DW	08aH
	DB	00H
	DB	08H
	DW	04aH
	DB	00H
	DB	09H
	DW	0f5H
	DB	010H
	DB	07H
	DW	05H
	DB	00H
	DB	08H
	DW	056H
	DB	00H
	DB	08H
	DW	016H
	DB	040H
	DB	08H
	DW	00H
	DB	013H
	DB	07H
	DW	033H
	DB	00H
	DB	08H
	DW	076H
	DB	00H
	DB	08H
	DW	036H
	DB	00H
	DB	09H
	DW	0cdH
	DB	011H
	DB	07H
	DW	0fH
	DB	00H
	DB	08H
	DW	066H
	DB	00H
	DB	08H
	DW	026H
	DB	00H
	DB	09H
	DW	0adH
	DB	00H
	DB	08H
	DW	06H
	DB	00H
	DB	08H
	DW	086H
	DB	00H
	DB	08H
	DW	046H
	DB	00H
	DB	09H
	DW	0edH
	DB	010H
	DB	07H
	DW	09H
	DB	00H
	DB	08H
	DW	05eH
	DB	00H
	DB	08H
	DW	01eH
	DB	00H
	DB	09H
	DW	09dH
	DB	014H
	DB	07H
	DW	063H
	DB	00H
	DB	08H
	DW	07eH
	DB	00H
	DB	08H
	DW	03eH
	DB	00H
	DB	09H
	DW	0ddH
	DB	012H
	DB	07H
	DW	01bH
	DB	00H
	DB	08H
	DW	06eH
	DB	00H
	DB	08H
	DW	02eH
	DB	00H
	DB	09H
	DW	0bdH
	DB	00H
	DB	08H
	DW	0eH
	DB	00H
	DB	08H
	DW	08eH
	DB	00H
	DB	08H
	DW	04eH
	DB	00H
	DB	09H
	DW	0fdH
	DB	060H
	DB	07H
	DW	00H
	DB	00H
	DB	08H
	DW	051H
	DB	00H
	DB	08H
	DW	011H
	DB	015H
	DB	08H
	DW	083H
	DB	012H
	DB	07H
	DW	01fH
	DB	00H
	DB	08H
	DW	071H
	DB	00H
	DB	08H
	DW	031H
	DB	00H
	DB	09H
	DW	0c3H
	DB	010H
	DB	07H
	DW	0aH
	DB	00H
	DB	08H
	DW	061H
	DB	00H
	DB	08H
	DW	021H
	DB	00H
	DB	09H
	DW	0a3H
	DB	00H
	DB	08H
	DW	01H
	DB	00H
	DB	08H
	DW	081H
	DB	00H
	DB	08H
	DW	041H
	DB	00H
	DB	09H
	DW	0e3H
	DB	010H
	DB	07H
	DW	06H
	DB	00H
	DB	08H
	DW	059H
	DB	00H
	DB	08H
	DW	019H
	DB	00H
	DB	09H
	DW	093H
	DB	013H
	DB	07H
	DW	03bH
	DB	00H
	DB	08H
	DW	079H
	DB	00H
	DB	08H
	DW	039H
	DB	00H
	DB	09H
	DW	0d3H
	DB	011H
	DB	07H
	DW	011H
	DB	00H
	DB	08H
	DW	069H
	DB	00H
	DB	08H
	DW	029H
	DB	00H
	DB	09H
	DW	0b3H
	DB	00H
	DB	08H
	DW	09H
	DB	00H
	DB	08H
	DW	089H
	DB	00H
	DB	08H
	DW	049H
	DB	00H
	DB	09H
	DW	0f3H
	DB	010H
	DB	07H
	DW	04H
	DB	00H
	DB	08H
	DW	055H
	DB	00H
	DB	08H
	DW	015H
	DB	010H
	DB	08H
	DW	0102H
	DB	013H
	DB	07H
	DW	02bH
	DB	00H
	DB	08H
	DW	075H
	DB	00H
	DB	08H
	DW	035H
	DB	00H
	DB	09H
	DW	0cbH
	DB	011H
	DB	07H
	DW	0dH
	DB	00H
	DB	08H
	DW	065H
	DB	00H
	DB	08H
	DW	025H
	DB	00H
	DB	09H
	DW	0abH
	DB	00H
	DB	08H
	DW	05H
	DB	00H
	DB	08H
	DW	085H
	DB	00H
	DB	08H
	DW	045H
	DB	00H
	DB	09H
	DW	0ebH
	DB	010H
	DB	07H
	DW	08H
	DB	00H
	DB	08H
	DW	05dH
	DB	00H
	DB	08H
	DW	01dH
	DB	00H
	DB	09H
	DW	09bH
	DB	014H
	DB	07H
	DW	053H
	DB	00H
	DB	08H
	DW	07dH
	DB	00H
	DB	08H
	DW	03dH
	DB	00H
	DB	09H
	DW	0dbH
	DB	012H
	DB	07H
	DW	017H
	DB	00H
	DB	08H
	DW	06dH
	DB	00H
	DB	08H
	DW	02dH
	DB	00H
	DB	09H
	DW	0bbH
	DB	00H
	DB	08H
	DW	0dH
	DB	00H
	DB	08H
	DW	08dH
	DB	00H
	DB	08H
	DW	04dH
	DB	00H
	DB	09H
	DW	0fbH
	DB	010H
	DB	07H
	DW	03H
	DB	00H
	DB	08H
	DW	053H
	DB	00H
	DB	08H
	DW	013H
	DB	015H
	DB	08H
	DW	0c3H
	DB	013H
	DB	07H
	DW	023H
	DB	00H
	DB	08H
	DW	073H
	DB	00H
	DB	08H
	DW	033H
	DB	00H
	DB	09H
	DW	0c7H
	DB	011H
	DB	07H
	DW	0bH
	DB	00H
	DB	08H
	DW	063H
	DB	00H
	DB	08H
	DW	023H
	DB	00H
	DB	09H
	DW	0a7H
	DB	00H
	DB	08H
	DW	03H
	DB	00H
	DB	08H
	DW	083H
	DB	00H
	DB	08H
	DW	043H
	DB	00H
	DB	09H
	DW	0e7H
	DB	010H
	DB	07H
	DW	07H
	DB	00H
	DB	08H
	DW	05bH
	DB	00H
	DB	08H
	DW	01bH
	DB	00H
	DB	09H
	DW	097H
	DB	014H
	DB	07H
	DW	043H
	DB	00H
	DB	08H
	DW	07bH
	DB	00H
	DB	08H
	DW	03bH
	DB	00H
	DB	09H
	DW	0d7H
	DB	012H
	DB	07H
	DW	013H
	DB	00H
	DB	08H
	DW	06bH
	DB	00H
	DB	08H
	DW	02bH
	DB	00H
	DB	09H
	DW	0b7H
	DB	00H
	DB	08H
	DW	0bH
	DB	00H
	DB	08H
	DW	08bH
	DB	00H
	DB	08H
	DW	04bH
	DB	00H
	DB	09H
	DW	0f7H
	DB	010H
	DB	07H
	DW	05H
	DB	00H
	DB	08H
	DW	057H
	DB	00H
	DB	08H
	DW	017H
	DB	040H
	DB	08H
	DW	00H
	DB	013H
	DB	07H
	DW	033H
	DB	00H
	DB	08H
	DW	077H
	DB	00H
	DB	08H
	DW	037H
	DB	00H
	DB	09H
	DW	0cfH
	DB	011H
	DB	07H
	DW	0fH
	DB	00H
	DB	08H
	DW	067H
	DB	00H
	DB	08H
	DW	027H
	DB	00H
	DB	09H
	DW	0afH
	DB	00H
	DB	08H
	DW	07H
	DB	00H
	DB	08H
	DW	087H
	DB	00H
	DB	08H
	DW	047H
	DB	00H
	DB	09H
	DW	0efH
	DB	010H
	DB	07H
	DW	09H
	DB	00H
	DB	08H
	DW	05fH
	DB	00H
	DB	08H
	DW	01fH
	DB	00H
	DB	09H
	DW	09fH
	DB	014H
	DB	07H
	DW	063H
	DB	00H
	DB	08H
	DW	07fH
	DB	00H
	DB	08H
	DW	03fH
	DB	00H
	DB	09H
	DW	0dfH
	DB	012H
	DB	07H
	DW	01bH
	DB	00H
	DB	08H
	DW	06fH
	DB	00H
	DB	08H
	DW	02fH
	DB	00H
	DB	09H
	DW	0bfH
	DB	00H
	DB	08H
	DW	0fH
	DB	00H
	DB	08H
	DW	08fH
	DB	00H
	DB	08H
	DW	04fH
	DB	00H
	DB	09H
	DW	0ffH
?distfix@?1??fixedtables@@9@9 DB 010H			; `fixedtables'::`2'::distfix
	DB	05H
	DW	01H
	DB	017H
	DB	05H
	DW	0101H
	DB	013H
	DB	05H
	DW	011H
	DB	01bH
	DB	05H
	DW	01001H
	DB	011H
	DB	05H
	DW	05H
	DB	019H
	DB	05H
	DW	0401H
	DB	015H
	DB	05H
	DW	041H
	DB	01dH
	DB	05H
	DW	04001H
	DB	010H
	DB	05H
	DW	03H
	DB	018H
	DB	05H
	DW	0201H
	DB	014H
	DB	05H
	DW	021H
	DB	01cH
	DB	05H
	DW	02001H
	DB	012H
	DB	05H
	DW	09H
	DB	01aH
	DB	05H
	DW	0801H
	DB	016H
	DB	05H
	DW	081H
	DB	040H
	DB	05H
	DW	00H
	DB	010H
	DB	05H
	DW	02H
	DB	017H
	DB	05H
	DW	0181H
	DB	013H
	DB	05H
	DW	019H
	DB	01bH
	DB	05H
	DW	01801H
	DB	011H
	DB	05H
	DW	07H
	DB	019H
	DB	05H
	DW	0601H
	DB	015H
	DB	05H
	DW	061H
	DB	01dH
	DB	05H
	DW	06001H
	DB	010H
	DB	05H
	DW	04H
	DB	018H
	DB	05H
	DW	0301H
	DB	014H
	DB	05H
	DW	031H
	DB	01cH
	DB	05H
	DW	03001H
	DB	012H
	DB	05H
	DW	0dH
	DB	01aH
	DB	05H
	DW	0c01H
	DB	016H
	DB	05H
	DW	0c1H
	DB	040H
	DB	05H
	DW	00H
?order@?1??inflate@@9@9 DW 010H				; `inflate'::`2'::order
	DW	011H
	DW	012H
	DW	00H
	DW	08H
	DW	07H
	DW	09H
	DW	06H
	DW	0aH
	DW	05H
	DW	0bH
	DW	04H
	DW	0cH
	DW	03H
	DW	0dH
	DW	02H
	DW	0eH
	DW	01H
	DW	0fH
CONST	ENDS
PUBLIC	_inflate@8
PUBLIC	_inflateEnd@4
PUBLIC	_inflateSetDictionary@12
PUBLIC	_inflateGetDictionary@12
PUBLIC	_inflateSync@4
PUBLIC	_inflateCopy@8
PUBLIC	_inflateReset@4
PUBLIC	_inflateReset2@8
PUBLIC	_inflatePrime@12
PUBLIC	_inflateMark@4
PUBLIC	_inflateGetHeader@8
PUBLIC	_inflateInit_@12
PUBLIC	_inflateInit2_@16
PUBLIC	_inflateSyncPoint@4
PUBLIC	_inflateUndermine@8
PUBLIC	_inflateValidate@8
PUBLIC	_inflateCodesUsed@4
PUBLIC	_inflateResetKeep@4
EXTRN	_memcpy:PROC
EXTRN	_adler32@12:PROC
EXTRN	_crc32@12:PROC
EXTRN	_zcalloc:PROC
EXTRN	_zcfree:PROC
EXTRN	_inflate_table:PROC
EXTRN	_inflate_fast:PROC
_DATA	SEGMENT
$SG43511 DB	'1.2.13.1-motley', 00H
$SG44071 DB	'incorrect header check', 00H
	ORG $+1
$SG44073 DB	'unknown compression method', 00H
	ORG $+1
$SG44077 DB	'invalid window size', 00H
$SG44081 DB	'unknown compression method', 00H
	ORG $+1
$SG44083 DB	'unknown header flags set', 00H
	ORG $+3
$SG44130 DB	'header crc mismatch', 00H
$SG44147 DB	'invalid block type', 00H
	ORG $+1
$SG44151 DB	'invalid stored block lengths', 00H
	ORG $+3
$SG44163 DB	'too many length or distance symbols', 00H
$SG44167 DB	'invalid code lengths set', 00H
	ORG $+3
$SG44177 DB	'invalid bit length repeat', 00H
	ORG $+2
$SG44183 DB	'invalid bit length repeat', 00H
	ORG $+2
$SG44186 DB	'invalid code -- missing end-of-block', 00H
	ORG $+3
$SG44188 DB	'invalid literal/lengths set', 00H
$SG44190 DB	'invalid distances set', 00H
	ORG $+2
$SG44204 DB	'invalid literal/length code', 00H
$SG44215 DB	'invalid distance code', 00H
	ORG $+2
$SG44225 DB	'invalid distance too far back', 00H
	ORG $+2
$SG44238 DB	'incorrect data check', 00H
	ORG $+3
$SG44243 DB	'incorrect length check', 00H
_DATA	ENDS
; Function compile flags: /Odtp
; File C:\Users\chris\Documents\GitHub\zlib\inflate.c
_TEXT	SEGMENT
tv70 = -12						; size = 4
_next$ = -8						; size = 4
_got$ = -4						; size = 4
_have$ = 8						; size = 4
_buf$ = 12						; size = 4
_len$ = 16						; size = 4
_syncsearch PROC

; 1408 : {

	push	ebp
	mov	ebp, esp
	sub	esp, 12					; 0000000cH

; 1409 :     unsigned got;
; 1410 :     unsigned next;
; 1411 : 
; 1412 :     got = *have;

	mov	eax, DWORD PTR _have$[ebp]
	mov	ecx, DWORD PTR [eax]
	mov	DWORD PTR _got$[ebp], ecx

; 1413 :     next = 0;

	mov	DWORD PTR _next$[ebp], 0
$LN2@syncsearch:

; 1414 :     while (next < len && got < 4) {

	mov	edx, DWORD PTR _next$[ebp]
	cmp	edx, DWORD PTR _len$[ebp]
	jae	SHORT $LN3@syncsearch
	cmp	DWORD PTR _got$[ebp], 4
	jae	SHORT $LN3@syncsearch

; 1415 :         if ((int)(buf[next]) == (got < 2 ? 0 : 0xff))

	cmp	DWORD PTR _got$[ebp], 2
	jae	SHORT $LN9@syncsearch
	mov	DWORD PTR tv70[ebp], 0
	jmp	SHORT $LN10@syncsearch
$LN9@syncsearch:
	mov	DWORD PTR tv70[ebp], 255		; 000000ffH
$LN10@syncsearch:
	mov	eax, DWORD PTR _buf$[ebp]
	add	eax, DWORD PTR _next$[ebp]
	movzx	ecx, BYTE PTR [eax]
	cmp	ecx, DWORD PTR tv70[ebp]
	jne	SHORT $LN4@syncsearch

; 1416 :             got++;

	mov	edx, DWORD PTR _got$[ebp]
	add	edx, 1
	mov	DWORD PTR _got$[ebp], edx
	jmp	SHORT $LN5@syncsearch
$LN4@syncsearch:

; 1417 :         else if (buf[next])

	mov	eax, DWORD PTR _buf$[ebp]
	add	eax, DWORD PTR _next$[ebp]
	movzx	ecx, BYTE PTR [eax]
	test	ecx, ecx
	je	SHORT $LN6@syncsearch

; 1418 :             got = 0;

	mov	DWORD PTR _got$[ebp], 0
	jmp	SHORT $LN5@syncsearch
$LN6@syncsearch:

; 1419 :         else
; 1420 :             got = 4 - got;

	mov	edx, 4
	sub	edx, DWORD PTR _got$[ebp]
	mov	DWORD PTR _got$[ebp], edx
$LN5@syncsearch:

; 1421 :         next++;

	mov	eax, DWORD PTR _next$[ebp]
	add	eax, 1
	mov	DWORD PTR _next$[ebp], eax

; 1422 :     }

	jmp	SHORT $LN2@syncsearch
$LN3@syncsearch:

; 1423 :     *have = got;

	mov	ecx, DWORD PTR _have$[ebp]
	mov	edx, DWORD PTR _got$[ebp]
	mov	DWORD PTR [ecx], edx

; 1424 :     return next;

	mov	eax, DWORD PTR _next$[ebp]

; 1425 : }

	mov	esp, ebp
	pop	ebp
	ret	0
_syncsearch ENDP
_TEXT	ENDS
; Function compile flags: /Odtp
; File C:\Users\chris\Documents\GitHub\zlib\inflate.c
_TEXT	SEGMENT
_dist$ = -8						; size = 4
_state$ = -4						; size = 4
_strm$ = 8						; size = 4
_end$ = 12						; size = 4
_copy$ = 16						; size = 4
_updatewindow PROC

; 403  : {

	push	ebp
	mov	ebp, esp
	sub	esp, 8

; 404  :     struct inflate_state FAR *state;
; 405  :     unsigned dist;
; 406  : 
; 407  :     state = (struct inflate_state FAR *)strm->state;

	mov	eax, DWORD PTR _strm$[ebp]
	mov	ecx, DWORD PTR [eax+28]
	mov	DWORD PTR _state$[ebp], ecx

; 408  : 
; 409  :     /* if it hasn't been done already, allocate space for the window */
; 410  :     if (state->window == Z_NULL) {

	mov	edx, DWORD PTR _state$[ebp]
	cmp	DWORD PTR [edx+56], 0
	jne	SHORT $LN2@updatewind

; 411  :         state->window = (unsigned char FAR *)

	push	1
	mov	eax, DWORD PTR _state$[ebp]
	mov	edx, 1
	mov	ecx, DWORD PTR [eax+40]
	shl	edx, cl
	push	edx
	mov	eax, DWORD PTR _strm$[ebp]
	mov	ecx, DWORD PTR [eax+40]
	push	ecx
	mov	edx, DWORD PTR _strm$[ebp]
	mov	eax, DWORD PTR [edx+32]
	call	eax
	add	esp, 12					; 0000000cH
	mov	ecx, DWORD PTR _state$[ebp]
	mov	DWORD PTR [ecx+56], eax

; 412  :                         ZALLOC(strm, 1U << state->wbits,
; 413  :                                sizeof(unsigned char));
; 414  :         if (state->window == Z_NULL) return 1;

	mov	edx, DWORD PTR _state$[ebp]
	cmp	DWORD PTR [edx+56], 0
	jne	SHORT $LN2@updatewind
	mov	eax, 1
	jmp	$LN1@updatewind
$LN2@updatewind:

; 415  :     }
; 416  : 
; 417  :     /* if window not in use yet, initialize */
; 418  :     if (state->wsize == 0) {

	mov	eax, DWORD PTR _state$[ebp]
	cmp	DWORD PTR [eax+44], 0
	jne	SHORT $LN4@updatewind

; 419  :         state->wsize = 1U << state->wbits;

	mov	ecx, DWORD PTR _state$[ebp]
	mov	edx, 1
	mov	ecx, DWORD PTR [ecx+40]
	shl	edx, cl
	mov	eax, DWORD PTR _state$[ebp]
	mov	DWORD PTR [eax+44], edx

; 420  :         state->wnext = 0;

	mov	ecx, DWORD PTR _state$[ebp]
	mov	DWORD PTR [ecx+52], 0

; 421  :         state->whave = 0;

	mov	edx, DWORD PTR _state$[ebp]
	mov	DWORD PTR [edx+48], 0
$LN4@updatewind:

; 422  :     }
; 423  : 
; 424  :     /* copy state->wsize or less output bytes into the circular window */
; 425  :     if (copy >= state->wsize) {

	mov	eax, DWORD PTR _state$[ebp]
	mov	ecx, DWORD PTR _copy$[ebp]
	cmp	ecx, DWORD PTR [eax+44]
	jb	SHORT $LN5@updatewind

; 426  :         zmemcpy(state->window, end - state->wsize, state->wsize);

	mov	edx, DWORD PTR _state$[ebp]
	mov	eax, DWORD PTR [edx+44]
	push	eax
	mov	ecx, DWORD PTR _state$[ebp]
	mov	edx, DWORD PTR _end$[ebp]
	sub	edx, DWORD PTR [ecx+44]
	push	edx
	mov	eax, DWORD PTR _state$[ebp]
	mov	ecx, DWORD PTR [eax+56]
	push	ecx
	call	_memcpy
	add	esp, 12					; 0000000cH

; 427  :         state->wnext = 0;

	mov	edx, DWORD PTR _state$[ebp]
	mov	DWORD PTR [edx+52], 0

; 428  :         state->whave = state->wsize;

	mov	eax, DWORD PTR _state$[ebp]
	mov	ecx, DWORD PTR _state$[ebp]
	mov	edx, DWORD PTR [ecx+44]
	mov	DWORD PTR [eax+48], edx

; 429  :     }

	jmp	$LN6@updatewind
$LN5@updatewind:

; 430  :     else {
; 431  :         dist = state->wsize - state->wnext;

	mov	eax, DWORD PTR _state$[ebp]
	mov	ecx, DWORD PTR _state$[ebp]
	mov	edx, DWORD PTR [eax+44]
	sub	edx, DWORD PTR [ecx+52]
	mov	DWORD PTR _dist$[ebp], edx

; 432  :         if (dist > copy) dist = copy;

	mov	eax, DWORD PTR _dist$[ebp]
	cmp	eax, DWORD PTR _copy$[ebp]
	jbe	SHORT $LN7@updatewind
	mov	ecx, DWORD PTR _copy$[ebp]
	mov	DWORD PTR _dist$[ebp], ecx
$LN7@updatewind:

; 433  :         zmemcpy(state->window + state->wnext, end - copy, dist);

	mov	edx, DWORD PTR _dist$[ebp]
	push	edx
	mov	eax, DWORD PTR _end$[ebp]
	sub	eax, DWORD PTR _copy$[ebp]
	push	eax
	mov	ecx, DWORD PTR _state$[ebp]
	mov	edx, DWORD PTR [ecx+56]
	mov	eax, DWORD PTR _state$[ebp]
	add	edx, DWORD PTR [eax+52]
	push	edx
	call	_memcpy
	add	esp, 12					; 0000000cH

; 434  :         copy -= dist;

	mov	ecx, DWORD PTR _copy$[ebp]
	sub	ecx, DWORD PTR _dist$[ebp]
	mov	DWORD PTR _copy$[ebp], ecx

; 435  :         if (copy) {

	je	SHORT $LN8@updatewind

; 436  :             zmemcpy(state->window, end - copy, copy);

	mov	edx, DWORD PTR _copy$[ebp]
	push	edx
	mov	eax, DWORD PTR _end$[ebp]
	sub	eax, DWORD PTR _copy$[ebp]
	push	eax
	mov	ecx, DWORD PTR _state$[ebp]
	mov	edx, DWORD PTR [ecx+56]
	push	edx
	call	_memcpy
	add	esp, 12					; 0000000cH

; 437  :             state->wnext = copy;

	mov	eax, DWORD PTR _state$[ebp]
	mov	ecx, DWORD PTR _copy$[ebp]
	mov	DWORD PTR [eax+52], ecx

; 438  :             state->whave = state->wsize;

	mov	edx, DWORD PTR _state$[ebp]
	mov	eax, DWORD PTR _state$[ebp]
	mov	ecx, DWORD PTR [eax+44]
	mov	DWORD PTR [edx+48], ecx

; 439  :         }

	jmp	SHORT $LN6@updatewind
$LN8@updatewind:

; 440  :         else {
; 441  :             state->wnext += dist;

	mov	edx, DWORD PTR _state$[ebp]
	mov	eax, DWORD PTR [edx+52]
	add	eax, DWORD PTR _dist$[ebp]
	mov	ecx, DWORD PTR _state$[ebp]
	mov	DWORD PTR [ecx+52], eax

; 442  :             if (state->wnext == state->wsize) state->wnext = 0;

	mov	edx, DWORD PTR _state$[ebp]
	mov	eax, DWORD PTR _state$[ebp]
	mov	ecx, DWORD PTR [edx+52]
	cmp	ecx, DWORD PTR [eax+44]
	jne	SHORT $LN10@updatewind
	mov	edx, DWORD PTR _state$[ebp]
	mov	DWORD PTR [edx+52], 0
$LN10@updatewind:

; 443  :             if (state->whave < state->wsize) state->whave += dist;

	mov	eax, DWORD PTR _state$[ebp]
	mov	ecx, DWORD PTR _state$[ebp]
	mov	edx, DWORD PTR [eax+48]
	cmp	edx, DWORD PTR [ecx+44]
	jae	SHORT $LN6@updatewind
	mov	eax, DWORD PTR _state$[ebp]
	mov	ecx, DWORD PTR [eax+48]
	add	ecx, DWORD PTR _dist$[ebp]
	mov	edx, DWORD PTR _state$[ebp]
	mov	DWORD PTR [edx+48], ecx
$LN6@updatewind:

; 444  :         }
; 445  :     }
; 446  :     return 0;

	xor	eax, eax
$LN1@updatewind:

; 447  : }

	mov	esp, ebp
	pop	ebp
	ret	0
_updatewindow ENDP
_TEXT	ENDS
; Function compile flags: /Odtp
; File C:\Users\chris\Documents\GitHub\zlib\inflate.c
_TEXT	SEGMENT
_state$ = 8						; size = 4
_fixedtables PROC

; 283  : {

	push	ebp
	mov	ebp, esp

; 284  : #ifdef BUILDFIXED
; 285  :     static int virgin = 1;
; 286  :     static code *lenfix, *distfix;
; 287  :     static code fixed[544];
; 288  : 
; 289  :     /* build fixed huffman tables if first call (may not be thread safe) */
; 290  :     if (virgin) {
; 291  :         unsigned sym, bits;
; 292  :         static code *next;
; 293  : 
; 294  :         /* literal/length table */
; 295  :         sym = 0;
; 296  :         while (sym < 144) state->lens[sym++] = 8;
; 297  :         while (sym < 256) state->lens[sym++] = 9;
; 298  :         while (sym < 280) state->lens[sym++] = 7;
; 299  :         while (sym < 288) state->lens[sym++] = 8;
; 300  :         next = fixed;
; 301  :         lenfix = next;
; 302  :         bits = 9;
; 303  :         inflate_table(LENS, state->lens, 288, &(next), &(bits), state->work);
; 304  : 
; 305  :         /* distance table */
; 306  :         sym = 0;
; 307  :         while (sym < 32) state->lens[sym++] = 5;
; 308  :         distfix = next;
; 309  :         bits = 5;
; 310  :         inflate_table(DISTS, state->lens, 32, &(next), &(bits), state->work);
; 311  : 
; 312  :         /* do this just once */
; 313  :         virgin = 0;
; 314  :     }
; 315  : #else /* !BUILDFIXED */
; 316  : #   include "inffixed.h"
; 317  : #endif /* BUILDFIXED */
; 318  :     state->lencode = lenfix;

	mov	eax, DWORD PTR _state$[ebp]
	mov	DWORD PTR [eax+80], OFFSET ?lenfix@?1??fixedtables@@9@9

; 319  :     state->lenbits = 9;

	mov	ecx, DWORD PTR _state$[ebp]
	mov	DWORD PTR [ecx+88], 9

; 320  :     state->distcode = distfix;

	mov	edx, DWORD PTR _state$[ebp]
	mov	DWORD PTR [edx+84], OFFSET ?distfix@?1??fixedtables@@9@9

; 321  :     state->distbits = 5;

	mov	eax, DWORD PTR _state$[ebp]
	mov	DWORD PTR [eax+92], 5

; 322  : }

	pop	ebp
	ret	0
_fixedtables ENDP
_TEXT	ENDS
; Function compile flags: /Odtp
; File C:\Users\chris\Documents\GitHub\zlib\inflate.c
_TEXT	SEGMENT
_state$ = -4						; size = 4
_strm$ = 8						; size = 4
_inflateStateCheck PROC

; 107  : {

	push	ebp
	mov	ebp, esp
	push	ecx

; 108  :     struct inflate_state FAR *state;
; 109  :     if (strm == Z_NULL ||
; 110  :         strm->zalloc == (alloc_func)0 || strm->zfree == (free_func)0)

	cmp	DWORD PTR _strm$[ebp], 0
	je	SHORT $LN3@inflateSta
	mov	eax, DWORD PTR _strm$[ebp]
	cmp	DWORD PTR [eax+32], 0
	je	SHORT $LN3@inflateSta
	mov	ecx, DWORD PTR _strm$[ebp]
	cmp	DWORD PTR [ecx+36], 0
	jne	SHORT $LN2@inflateSta
$LN3@inflateSta:

; 111  :         return 1;

	mov	eax, 1
	jmp	SHORT $LN1@inflateSta
$LN2@inflateSta:

; 112  :     state = (struct inflate_state FAR *)strm->state;

	mov	edx, DWORD PTR _strm$[ebp]
	mov	eax, DWORD PTR [edx+28]
	mov	DWORD PTR _state$[ebp], eax

; 113  :     if (state == Z_NULL || state->strm != strm ||
; 114  :         state->mode < HEAD || state->mode > SYNC)

	cmp	DWORD PTR _state$[ebp], 0
	je	SHORT $LN5@inflateSta
	mov	ecx, DWORD PTR _state$[ebp]
	mov	edx, DWORD PTR [ecx]
	cmp	edx, DWORD PTR _strm$[ebp]
	jne	SHORT $LN5@inflateSta
	mov	eax, DWORD PTR _state$[ebp]
	cmp	DWORD PTR [eax+4], 16180		; 00003f34H
	jl	SHORT $LN5@inflateSta
	mov	ecx, DWORD PTR _state$[ebp]
	cmp	DWORD PTR [ecx+4], 16211		; 00003f53H
	jle	SHORT $LN4@inflateSta
$LN5@inflateSta:

; 115  :         return 1;

	mov	eax, 1
	jmp	SHORT $LN1@inflateSta
$LN4@inflateSta:

; 116  :     return 0;

	xor	eax, eax
$LN1@inflateSta:

; 117  : }

	mov	esp, ebp
	pop	ebp
	ret	0
_inflateStateCheck ENDP
_TEXT	ENDS
; Function compile flags: /Odtp
; File C:\Users\chris\Documents\GitHub\zlib\inflate.c
_TEXT	SEGMENT
tv88 = -8						; size = 4
_state$ = -4						; size = 4
_strm$ = 8						; size = 4
_inflateResetKeep@4 PROC

; 121  : {

	push	ebp
	mov	ebp, esp
	sub	esp, 8

; 122  :     struct inflate_state FAR *state;
; 123  : 
; 124  :     if (inflateStateCheck(strm)) return Z_STREAM_ERROR;

	mov	eax, DWORD PTR _strm$[ebp]
	push	eax
	call	_inflateStateCheck
	add	esp, 4
	test	eax, eax
	je	SHORT $LN2@inflateRes
	mov	eax, -2					; fffffffeH
	jmp	$LN1@inflateRes
$LN2@inflateRes:

; 125  :     state = (struct inflate_state FAR *)strm->state;

	mov	ecx, DWORD PTR _strm$[ebp]
	mov	edx, DWORD PTR [ecx+28]
	mov	DWORD PTR _state$[ebp], edx

; 126  :     strm->total_in = strm->total_out = state->total = 0;

	mov	eax, DWORD PTR _state$[ebp]
	mov	DWORD PTR [eax+32], 0
	mov	ecx, DWORD PTR _strm$[ebp]
	mov	DWORD PTR [ecx+20], 0
	mov	edx, DWORD PTR _strm$[ebp]
	mov	DWORD PTR [edx+8], 0

; 127  :     strm->msg = Z_NULL;

	mov	eax, DWORD PTR _strm$[ebp]
	mov	DWORD PTR [eax+24], 0

; 128  :     if (state->wrap)        /* to support ill-conceived Java test suite */

	mov	ecx, DWORD PTR _state$[ebp]
	cmp	DWORD PTR [ecx+12], 0
	je	SHORT $LN3@inflateRes

; 129  :         strm->adler = state->wrap & 1;

	mov	edx, DWORD PTR _state$[ebp]
	mov	eax, DWORD PTR [edx+12]
	and	eax, 1
	mov	ecx, DWORD PTR _strm$[ebp]
	mov	DWORD PTR [ecx+48], eax
$LN3@inflateRes:

; 130  :     state->mode = HEAD;

	mov	edx, DWORD PTR _state$[ebp]
	mov	DWORD PTR [edx+4], 16180		; 00003f34H

; 131  :     state->last = 0;

	mov	eax, DWORD PTR _state$[ebp]
	mov	DWORD PTR [eax+8], 0

; 132  :     state->havedict = 0;

	mov	ecx, DWORD PTR _state$[ebp]
	mov	DWORD PTR [ecx+16], 0

; 133  :     state->flags = -1;

	mov	edx, DWORD PTR _state$[ebp]
	mov	DWORD PTR [edx+20], -1

; 134  :     state->dmax = 32768U;

	mov	eax, DWORD PTR _state$[ebp]
	mov	DWORD PTR [eax+24], 32768		; 00008000H

; 135  :     state->head = Z_NULL;

	mov	ecx, DWORD PTR _state$[ebp]
	mov	DWORD PTR [ecx+36], 0

; 136  :     state->hold = 0;

	mov	edx, DWORD PTR _state$[ebp]
	mov	DWORD PTR [edx+60], 0

; 137  :     state->bits = 0;

	mov	eax, DWORD PTR _state$[ebp]
	mov	DWORD PTR [eax+64], 0

; 138  :     state->lencode = state->distcode = state->next = state->codes;

	mov	ecx, DWORD PTR _state$[ebp]
	add	ecx, 1332				; 00000534H
	mov	DWORD PTR tv88[ebp], ecx
	mov	edx, DWORD PTR _state$[ebp]
	mov	eax, DWORD PTR tv88[ebp]
	mov	DWORD PTR [edx+112], eax
	mov	ecx, DWORD PTR _state$[ebp]
	mov	edx, DWORD PTR tv88[ebp]
	mov	DWORD PTR [ecx+84], edx
	mov	eax, DWORD PTR _state$[ebp]
	mov	ecx, DWORD PTR tv88[ebp]
	mov	DWORD PTR [eax+80], ecx

; 139  :     state->sane = 1;

	mov	edx, DWORD PTR _state$[ebp]
	mov	DWORD PTR [edx+7108], 1

; 140  :     state->back = -1;

	mov	eax, DWORD PTR _state$[ebp]
	mov	DWORD PTR [eax+7112], -1

; 141  :     Tracev((stderr, "inflate: reset\n"));
; 142  :     return Z_OK;

	xor	eax, eax
$LN1@inflateRes:

; 143  : }

	mov	esp, ebp
	pop	ebp
	ret	4
_inflateResetKeep@4 ENDP
_TEXT	ENDS
; Function compile flags: /Odtp
; File C:\Users\chris\Documents\GitHub\zlib\inflate.c
_TEXT	SEGMENT
_state$ = -4						; size = 4
_strm$ = 8						; size = 4
_inflateCodesUsed@4 PROC

; 1590 : {

	push	ebp
	mov	ebp, esp
	push	ecx

; 1591 :     struct inflate_state FAR *state;
; 1592 :     if (inflateStateCheck(strm)) return (unsigned long)-1;

	mov	eax, DWORD PTR _strm$[ebp]
	push	eax
	call	_inflateStateCheck
	add	esp, 4
	test	eax, eax
	je	SHORT $LN2@inflateCod
	or	eax, -1
	jmp	SHORT $LN1@inflateCod
$LN2@inflateCod:

; 1593 :     state = (struct inflate_state FAR *)strm->state;

	mov	ecx, DWORD PTR _strm$[ebp]
	mov	edx, DWORD PTR [ecx+28]
	mov	DWORD PTR _state$[ebp], edx

; 1594 :     return (unsigned long)(state->next - state->codes);

	mov	eax, DWORD PTR _state$[ebp]
	add	eax, 1332				; 00000534H
	mov	ecx, DWORD PTR _state$[ebp]
	mov	edx, DWORD PTR [ecx+112]
	sub	edx, eax
	sar	edx, 2
	mov	eax, edx
$LN1@inflateCod:

; 1595 : }

	mov	esp, ebp
	pop	ebp
	ret	4
_inflateCodesUsed@4 ENDP
_TEXT	ENDS
; Function compile flags: /Odtp
; File C:\Users\chris\Documents\GitHub\zlib\inflate.c
_TEXT	SEGMENT
_state$ = -4						; size = 4
_strm$ = 8						; size = 4
_check$ = 12						; size = 4
_inflateValidate@8 PROC

; 1563 : {

	push	ebp
	mov	ebp, esp
	push	ecx

; 1564 :     struct inflate_state FAR *state;
; 1565 : 
; 1566 :     if (inflateStateCheck(strm)) return Z_STREAM_ERROR;

	mov	eax, DWORD PTR _strm$[ebp]
	push	eax
	call	_inflateStateCheck
	add	esp, 4
	test	eax, eax
	je	SHORT $LN2@inflateVal
	mov	eax, -2					; fffffffeH
	jmp	SHORT $LN1@inflateVal
$LN2@inflateVal:

; 1567 :     state = (struct inflate_state FAR *)strm->state;

	mov	ecx, DWORD PTR _strm$[ebp]
	mov	edx, DWORD PTR [ecx+28]
	mov	DWORD PTR _state$[ebp], edx

; 1568 :     if (check && state->wrap)

	cmp	DWORD PTR _check$[ebp], 0
	je	SHORT $LN3@inflateVal
	mov	eax, DWORD PTR _state$[ebp]
	cmp	DWORD PTR [eax+12], 0
	je	SHORT $LN3@inflateVal

; 1569 :         state->wrap |= 4;

	mov	ecx, DWORD PTR _state$[ebp]
	mov	edx, DWORD PTR [ecx+12]
	or	edx, 4
	mov	eax, DWORD PTR _state$[ebp]
	mov	DWORD PTR [eax+12], edx
	jmp	SHORT $LN4@inflateVal
$LN3@inflateVal:

; 1570 :     else
; 1571 :         state->wrap &= ~4;

	mov	ecx, DWORD PTR _state$[ebp]
	mov	edx, DWORD PTR [ecx+12]
	and	edx, -5					; fffffffbH
	mov	eax, DWORD PTR _state$[ebp]
	mov	DWORD PTR [eax+12], edx
$LN4@inflateVal:

; 1572 :     return Z_OK;

	xor	eax, eax
$LN1@inflateVal:

; 1573 : }

	mov	esp, ebp
	pop	ebp
	ret	8
_inflateValidate@8 ENDP
_TEXT	ENDS
; Function compile flags: /Odtp
; File C:\Users\chris\Documents\GitHub\zlib\inflate.c
_TEXT	SEGMENT
_state$ = -4						; size = 4
_strm$ = 8						; size = 4
_subvert$ = 12						; size = 4
_inflateUndermine@8 PROC

; 1545 : {

	push	ebp
	mov	ebp, esp
	push	ecx

; 1546 :     struct inflate_state FAR *state;
; 1547 : 
; 1548 :     if (inflateStateCheck(strm)) return Z_STREAM_ERROR;

	mov	eax, DWORD PTR _strm$[ebp]
	push	eax
	call	_inflateStateCheck
	add	esp, 4
	test	eax, eax
	je	SHORT $LN2@inflateUnd
	mov	eax, -2					; fffffffeH
	jmp	SHORT $LN1@inflateUnd
$LN2@inflateUnd:

; 1549 :     state = (struct inflate_state FAR *)strm->state;

	mov	ecx, DWORD PTR _strm$[ebp]
	mov	edx, DWORD PTR [ecx+28]
	mov	DWORD PTR _state$[ebp], edx

; 1550 : #ifdef INFLATE_ALLOW_INVALID_DISTANCE_TOOFAR_ARRR
; 1551 :     state->sane = !subvert;
; 1552 :     return Z_OK;
; 1553 : #else
; 1554 :     (void)subvert;
; 1555 :     state->sane = 1;

	mov	eax, DWORD PTR _state$[ebp]
	mov	DWORD PTR [eax+7108], 1

; 1556 :     return Z_DATA_ERROR;

	mov	eax, -3					; fffffffdH
$LN1@inflateUnd:

; 1557 : #endif
; 1558 : }

	mov	esp, ebp
	pop	ebp
	ret	8
_inflateUndermine@8 ENDP
_TEXT	ENDS
; Function compile flags: /Odtp
; File C:\Users\chris\Documents\GitHub\zlib\inflate.c
_TEXT	SEGMENT
tv72 = -8						; size = 4
_state$ = -4						; size = 4
_strm$ = 8						; size = 4
_inflateSyncPoint@4 PROC

; 1487 : {

	push	ebp
	mov	ebp, esp
	sub	esp, 8

; 1488 :     struct inflate_state FAR *state;
; 1489 : 
; 1490 :     if (inflateStateCheck(strm)) return Z_STREAM_ERROR;

	mov	eax, DWORD PTR _strm$[ebp]
	push	eax
	call	_inflateStateCheck
	add	esp, 4
	test	eax, eax
	je	SHORT $LN2@inflateSyn
	mov	eax, -2					; fffffffeH
	jmp	SHORT $LN1@inflateSyn
$LN2@inflateSyn:

; 1491 :     state = (struct inflate_state FAR *)strm->state;

	mov	ecx, DWORD PTR _strm$[ebp]
	mov	edx, DWORD PTR [ecx+28]
	mov	DWORD PTR _state$[ebp], edx

; 1492 :     return state->mode == STORED && state->bits == 0;

	mov	eax, DWORD PTR _state$[ebp]
	cmp	DWORD PTR [eax+4], 16193		; 00003f41H
	jne	SHORT $LN4@inflateSyn
	mov	ecx, DWORD PTR _state$[ebp]
	cmp	DWORD PTR [ecx+64], 0
	jne	SHORT $LN4@inflateSyn
	mov	DWORD PTR tv72[ebp], 1
	jmp	SHORT $LN5@inflateSyn
$LN4@inflateSyn:
	mov	DWORD PTR tv72[ebp], 0
$LN5@inflateSyn:
	mov	eax, DWORD PTR tv72[ebp]
$LN1@inflateSyn:

; 1493 : }

	mov	esp, ebp
	pop	ebp
	ret	4
_inflateSyncPoint@4 ENDP
_TEXT	ENDS
; Function compile flags: /Odtp
; File C:\Users\chris\Documents\GitHub\zlib\inflate.c
_TEXT	SEGMENT
_ret$ = -8						; size = 4
_state$ = -4						; size = 4
_strm$ = 8						; size = 4
_windowBits$ = 12					; size = 4
_version$ = 16						; size = 4
_stream_size$ = 20					; size = 4
_inflateInit2_@16 PROC

; 203  : {

	push	ebp
	mov	ebp, esp
	sub	esp, 8

; 204  :     int ret;
; 205  :     struct inflate_state FAR *state;
; 206  : 
; 207  :     if (version == Z_NULL || version[0] != ZLIB_VERSION[0] ||

	cmp	DWORD PTR _version$[ebp], 0
	je	SHORT $LN3@inflateIni
	mov	eax, 1
	imul	ecx, eax, 0
	mov	edx, DWORD PTR _version$[ebp]
	movsx	eax, BYTE PTR [edx+ecx]
	mov	ecx, 1
	imul	edx, ecx, 0
	movsx	ecx, BYTE PTR $SG43511[edx]
	cmp	eax, ecx
	jne	SHORT $LN3@inflateIni
	cmp	DWORD PTR _stream_size$[ebp], 56	; 00000038H
	je	SHORT $LN2@inflateIni
$LN3@inflateIni:

; 208  :         stream_size != (int)(sizeof(z_stream)))
; 209  :         return Z_VERSION_ERROR;

	mov	eax, -6					; fffffffaH
	jmp	$LN1@inflateIni
$LN2@inflateIni:

; 210  :     if (strm == Z_NULL) return Z_STREAM_ERROR;

	cmp	DWORD PTR _strm$[ebp], 0
	jne	SHORT $LN4@inflateIni
	mov	eax, -2					; fffffffeH
	jmp	$LN1@inflateIni
$LN4@inflateIni:

; 211  :     strm->msg = Z_NULL;                 /* in case we return an error */

	mov	edx, DWORD PTR _strm$[ebp]
	mov	DWORD PTR [edx+24], 0

; 212  :     if (strm->zalloc == (alloc_func)0) {

	mov	eax, DWORD PTR _strm$[ebp]
	cmp	DWORD PTR [eax+32], 0
	jne	SHORT $LN5@inflateIni

; 213  : #ifdef Z_SOLO
; 214  :         return Z_STREAM_ERROR;
; 215  : #else
; 216  :         strm->zalloc = zcalloc;

	mov	ecx, DWORD PTR _strm$[ebp]
	mov	DWORD PTR [ecx+32], OFFSET _zcalloc

; 217  :         strm->opaque = (voidpf)0;

	mov	edx, DWORD PTR _strm$[ebp]
	mov	DWORD PTR [edx+40], 0
$LN5@inflateIni:

; 218  : #endif
; 219  :     }
; 220  :     if (strm->zfree == (free_func)0)

	mov	eax, DWORD PTR _strm$[ebp]
	cmp	DWORD PTR [eax+36], 0
	jne	SHORT $LN6@inflateIni

; 221  : #ifdef Z_SOLO
; 222  :         return Z_STREAM_ERROR;
; 223  : #else
; 224  :         strm->zfree = zcfree;

	mov	ecx, DWORD PTR _strm$[ebp]
	mov	DWORD PTR [ecx+36], OFFSET _zcfree
$LN6@inflateIni:

; 225  : #endif
; 226  :     state = (struct inflate_state FAR *)

	push	7120					; 00001bd0H
	push	1
	mov	edx, DWORD PTR _strm$[ebp]
	mov	eax, DWORD PTR [edx+40]
	push	eax
	mov	ecx, DWORD PTR _strm$[ebp]
	mov	edx, DWORD PTR [ecx+32]
	call	edx
	add	esp, 12					; 0000000cH
	mov	DWORD PTR _state$[ebp], eax

; 227  :             ZALLOC(strm, 1, sizeof(struct inflate_state));
; 228  :     if (state == Z_NULL) return Z_MEM_ERROR;

	cmp	DWORD PTR _state$[ebp], 0
	jne	SHORT $LN7@inflateIni
	mov	eax, -4					; fffffffcH
	jmp	SHORT $LN1@inflateIni
$LN7@inflateIni:

; 229  :     Tracev((stderr, "inflate: allocated\n"));
; 230  :     strm->state = (struct internal_state FAR *)state;

	mov	eax, DWORD PTR _strm$[ebp]
	mov	ecx, DWORD PTR _state$[ebp]
	mov	DWORD PTR [eax+28], ecx

; 231  :     state->strm = strm;

	mov	edx, DWORD PTR _state$[ebp]
	mov	eax, DWORD PTR _strm$[ebp]
	mov	DWORD PTR [edx], eax

; 232  :     state->window = Z_NULL;

	mov	ecx, DWORD PTR _state$[ebp]
	mov	DWORD PTR [ecx+56], 0

; 233  :     state->mode = HEAD;     /* to pass state test in inflateReset2() */

	mov	edx, DWORD PTR _state$[ebp]
	mov	DWORD PTR [edx+4], 16180		; 00003f34H

; 234  :     ret = inflateReset2(strm, windowBits);

	mov	eax, DWORD PTR _windowBits$[ebp]
	push	eax
	mov	ecx, DWORD PTR _strm$[ebp]
	push	ecx
	call	_inflateReset2@8
	mov	DWORD PTR _ret$[ebp], eax

; 235  :     if (ret != Z_OK) {

	cmp	DWORD PTR _ret$[ebp], 0
	je	SHORT $LN8@inflateIni

; 236  :         ZFREE(strm, state);

	mov	edx, DWORD PTR _state$[ebp]
	push	edx
	mov	eax, DWORD PTR _strm$[ebp]
	mov	ecx, DWORD PTR [eax+40]
	push	ecx
	mov	edx, DWORD PTR _strm$[ebp]
	mov	eax, DWORD PTR [edx+36]
	call	eax
	add	esp, 8

; 237  :         strm->state = Z_NULL;

	mov	ecx, DWORD PTR _strm$[ebp]
	mov	DWORD PTR [ecx+28], 0
$LN8@inflateIni:

; 238  :     }
; 239  :     return ret;

	mov	eax, DWORD PTR _ret$[ebp]
$LN1@inflateIni:

; 240  : }

	mov	esp, ebp
	pop	ebp
	ret	16					; 00000010H
_inflateInit2_@16 ENDP
_TEXT	ENDS
; Function compile flags: /Odtp
; File C:\Users\chris\Documents\GitHub\zlib\inflate.c
_TEXT	SEGMENT
_strm$ = 8						; size = 4
_version$ = 12						; size = 4
_stream_size$ = 16					; size = 4
_inflateInit_@12 PROC

; 246  : {

	push	ebp
	mov	ebp, esp

; 247  :     return inflateInit2_(strm, DEF_WBITS, version, stream_size);

	mov	eax, DWORD PTR _stream_size$[ebp]
	push	eax
	mov	ecx, DWORD PTR _version$[ebp]
	push	ecx
	push	15					; 0000000fH
	mov	edx, DWORD PTR _strm$[ebp]
	push	edx
	call	_inflateInit2_@16

; 248  : }

	pop	ebp
	ret	12					; 0000000cH
_inflateInit_@12 ENDP
_TEXT	ENDS
; Function compile flags: /Odtp
; File C:\Users\chris\Documents\GitHub\zlib\inflate.c
_TEXT	SEGMENT
_state$ = -4						; size = 4
_strm$ = 8						; size = 4
_head$ = 12						; size = 4
_inflateGetHeader@8 PROC

; 1379 : {

	push	ebp
	mov	ebp, esp
	push	ecx

; 1380 :     struct inflate_state FAR *state;
; 1381 : 
; 1382 :     /* check state */
; 1383 :     if (inflateStateCheck(strm)) return Z_STREAM_ERROR;

	mov	eax, DWORD PTR _strm$[ebp]
	push	eax
	call	_inflateStateCheck
	add	esp, 4
	test	eax, eax
	je	SHORT $LN2@inflateGet
	mov	eax, -2					; fffffffeH
	jmp	SHORT $LN1@inflateGet
$LN2@inflateGet:

; 1384 :     state = (struct inflate_state FAR *)strm->state;

	mov	ecx, DWORD PTR _strm$[ebp]
	mov	edx, DWORD PTR [ecx+28]
	mov	DWORD PTR _state$[ebp], edx

; 1385 :     if ((state->wrap & 2) == 0) return Z_STREAM_ERROR;

	mov	eax, DWORD PTR _state$[ebp]
	mov	ecx, DWORD PTR [eax+12]
	and	ecx, 2
	jne	SHORT $LN3@inflateGet
	mov	eax, -2					; fffffffeH
	jmp	SHORT $LN1@inflateGet
$LN3@inflateGet:

; 1386 : 
; 1387 :     /* save header structure */
; 1388 :     state->head = head;

	mov	edx, DWORD PTR _state$[ebp]
	mov	eax, DWORD PTR _head$[ebp]
	mov	DWORD PTR [edx+36], eax

; 1389 :     head->done = 0;

	mov	ecx, DWORD PTR _head$[ebp]
	mov	DWORD PTR [ecx+48], 0

; 1390 :     return Z_OK;

	xor	eax, eax
$LN1@inflateGet:

; 1391 : }

	mov	esp, ebp
	pop	ebp
	ret	8
_inflateGetHeader@8 ENDP
_TEXT	ENDS
; Function compile flags: /Odtp
; File C:\Users\chris\Documents\GitHub\zlib\inflate.c
_TEXT	SEGMENT
tv79 = -12						; size = 4
tv78 = -8						; size = 4
_state$ = -4						; size = 4
_strm$ = 8						; size = 4
_inflateMark@4 PROC

; 1577 : {

	push	ebp
	mov	ebp, esp
	sub	esp, 12					; 0000000cH

; 1578 :     struct inflate_state FAR *state;
; 1579 : 
; 1580 :     if (inflateStateCheck(strm))

	mov	eax, DWORD PTR _strm$[ebp]
	push	eax
	call	_inflateStateCheck
	add	esp, 4
	test	eax, eax
	je	SHORT $LN2@inflateMar

; 1581 :         return -(1L << 16);

	mov	eax, -65536				; ffff0000H
	jmp	SHORT $LN1@inflateMar
$LN2@inflateMar:

; 1582 :     state = (struct inflate_state FAR *)strm->state;

	mov	ecx, DWORD PTR _strm$[ebp]
	mov	edx, DWORD PTR [ecx+28]
	mov	DWORD PTR _state$[ebp], edx

; 1583 :     return (long)(((unsigned long)((long)state->back)) << 16) +

	mov	eax, DWORD PTR _state$[ebp]
	cmp	DWORD PTR [eax+4], 16195		; 00003f43H
	jne	SHORT $LN6@inflateMar
	mov	ecx, DWORD PTR _state$[ebp]
	mov	edx, DWORD PTR [ecx+68]
	mov	DWORD PTR tv79[ebp], edx
	jmp	SHORT $LN7@inflateMar
$LN6@inflateMar:
	mov	eax, DWORD PTR _state$[ebp]
	cmp	DWORD PTR [eax+4], 16204		; 00003f4cH
	jne	SHORT $LN4@inflateMar
	mov	ecx, DWORD PTR _state$[ebp]
	mov	edx, DWORD PTR _state$[ebp]
	mov	eax, DWORD PTR [ecx+7116]
	sub	eax, DWORD PTR [edx+68]
	mov	DWORD PTR tv78[ebp], eax
	jmp	SHORT $LN5@inflateMar
$LN4@inflateMar:
	mov	DWORD PTR tv78[ebp], 0
$LN5@inflateMar:
	mov	ecx, DWORD PTR tv78[ebp]
	mov	DWORD PTR tv79[ebp], ecx
$LN7@inflateMar:
	mov	edx, DWORD PTR _state$[ebp]
	mov	eax, DWORD PTR [edx+7112]
	shl	eax, 16					; 00000010H
	add	eax, DWORD PTR tv79[ebp]
$LN1@inflateMar:

; 1584 :         (state->mode == COPY ? state->length :
; 1585 :             (state->mode == MATCH ? state->was - state->length : 0));
; 1586 : }

	mov	esp, ebp
	pop	ebp
	ret	4
_inflateMark@4 ENDP
_TEXT	ENDS
; Function compile flags: /Odtp
; File C:\Users\chris\Documents\GitHub\zlib\inflate.c
_TEXT	SEGMENT
_state$ = -4						; size = 4
_strm$ = 8						; size = 4
_bits$ = 12						; size = 4
_value$ = 16						; size = 4
_inflatePrime@12 PROC

; 254  : {

	push	ebp
	mov	ebp, esp
	push	ecx

; 255  :     struct inflate_state FAR *state;
; 256  : 
; 257  :     if (inflateStateCheck(strm)) return Z_STREAM_ERROR;

	mov	eax, DWORD PTR _strm$[ebp]
	push	eax
	call	_inflateStateCheck
	add	esp, 4
	test	eax, eax
	je	SHORT $LN2@inflatePri
	mov	eax, -2					; fffffffeH
	jmp	SHORT $LN1@inflatePri
$LN2@inflatePri:

; 258  :     state = (struct inflate_state FAR *)strm->state;

	mov	ecx, DWORD PTR _strm$[ebp]
	mov	edx, DWORD PTR [ecx+28]
	mov	DWORD PTR _state$[ebp], edx

; 259  :     if (bits < 0) {

	cmp	DWORD PTR _bits$[ebp], 0
	jge	SHORT $LN3@inflatePri

; 260  :         state->hold = 0;

	mov	eax, DWORD PTR _state$[ebp]
	mov	DWORD PTR [eax+60], 0

; 261  :         state->bits = 0;

	mov	ecx, DWORD PTR _state$[ebp]
	mov	DWORD PTR [ecx+64], 0

; 262  :         return Z_OK;

	xor	eax, eax
	jmp	SHORT $LN1@inflatePri
$LN3@inflatePri:

; 263  :     }
; 264  :     if (bits > 16 || state->bits + (uInt)bits > 32) return Z_STREAM_ERROR;

	cmp	DWORD PTR _bits$[ebp], 16		; 00000010H
	jg	SHORT $LN5@inflatePri
	mov	edx, DWORD PTR _state$[ebp]
	mov	eax, DWORD PTR [edx+64]
	add	eax, DWORD PTR _bits$[ebp]
	cmp	eax, 32					; 00000020H
	jbe	SHORT $LN4@inflatePri
$LN5@inflatePri:
	mov	eax, -2					; fffffffeH
	jmp	SHORT $LN1@inflatePri
$LN4@inflatePri:

; 265  :     value &= (1L << bits) - 1;

	mov	edx, 1
	mov	ecx, DWORD PTR _bits$[ebp]
	shl	edx, cl
	sub	edx, 1
	and	edx, DWORD PTR _value$[ebp]
	mov	DWORD PTR _value$[ebp], edx

; 266  :     state->hold += (unsigned)value << state->bits;

	mov	eax, DWORD PTR _state$[ebp]
	mov	edx, DWORD PTR _value$[ebp]
	mov	ecx, DWORD PTR [eax+64]
	shl	edx, cl
	mov	eax, DWORD PTR _state$[ebp]
	add	edx, DWORD PTR [eax+60]
	mov	ecx, DWORD PTR _state$[ebp]
	mov	DWORD PTR [ecx+60], edx

; 267  :     state->bits += (uInt)bits;

	mov	edx, DWORD PTR _state$[ebp]
	mov	eax, DWORD PTR [edx+64]
	add	eax, DWORD PTR _bits$[ebp]
	mov	ecx, DWORD PTR _state$[ebp]
	mov	DWORD PTR [ecx+64], eax

; 268  :     return Z_OK;

	xor	eax, eax
$LN1@inflatePri:

; 269  : }

	mov	esp, ebp
	pop	ebp
	ret	12					; 0000000cH
_inflatePrime@12 ENDP
_TEXT	ENDS
; Function compile flags: /Odtp
; File C:\Users\chris\Documents\GitHub\zlib\inflate.c
_TEXT	SEGMENT
_wrap$ = -8						; size = 4
_state$ = -4						; size = 4
_strm$ = 8						; size = 4
_windowBits$ = 12					; size = 4
_inflateReset2@8 PROC

; 161  : {

	push	ebp
	mov	ebp, esp
	sub	esp, 8

; 162  :     int wrap;
; 163  :     struct inflate_state FAR *state;
; 164  : 
; 165  :     /* get the state */
; 166  :     if (inflateStateCheck(strm)) return Z_STREAM_ERROR;

	mov	eax, DWORD PTR _strm$[ebp]
	push	eax
	call	_inflateStateCheck
	add	esp, 4
	test	eax, eax
	je	SHORT $LN2@inflateRes
	mov	eax, -2					; fffffffeH
	jmp	$LN1@inflateRes
$LN2@inflateRes:

; 167  :     state = (struct inflate_state FAR *)strm->state;

	mov	ecx, DWORD PTR _strm$[ebp]
	mov	edx, DWORD PTR [ecx+28]
	mov	DWORD PTR _state$[ebp], edx

; 168  : 
; 169  :     /* extract wrap request from windowBits parameter */
; 170  :     if (windowBits < 0) {

	cmp	DWORD PTR _windowBits$[ebp], 0
	jge	SHORT $LN3@inflateRes

; 171  :         if (windowBits < -15)

	cmp	DWORD PTR _windowBits$[ebp], -15	; fffffff1H
	jge	SHORT $LN5@inflateRes

; 172  :             return Z_STREAM_ERROR;

	mov	eax, -2					; fffffffeH
	jmp	$LN1@inflateRes
$LN5@inflateRes:

; 173  :         wrap = 0;

	mov	DWORD PTR _wrap$[ebp], 0

; 174  :         windowBits = -windowBits;

	mov	eax, DWORD PTR _windowBits$[ebp]
	neg	eax
	mov	DWORD PTR _windowBits$[ebp], eax

; 175  :     }

	jmp	SHORT $LN4@inflateRes
$LN3@inflateRes:

; 176  :     else {
; 177  :         wrap = (windowBits >> 4) + 5;

	mov	ecx, DWORD PTR _windowBits$[ebp]
	sar	ecx, 4
	add	ecx, 5
	mov	DWORD PTR _wrap$[ebp], ecx

; 178  : #ifdef GUNZIP
; 179  :         if (windowBits < 48)

	cmp	DWORD PTR _windowBits$[ebp], 48		; 00000030H
	jge	SHORT $LN4@inflateRes

; 180  :             windowBits &= 15;

	mov	edx, DWORD PTR _windowBits$[ebp]
	and	edx, 15					; 0000000fH
	mov	DWORD PTR _windowBits$[ebp], edx
$LN4@inflateRes:

; 181  : #endif
; 182  :     }
; 183  : 
; 184  :     /* set number of window bits, free window if different */
; 185  :     if (windowBits && (windowBits < 8 || windowBits > 15))

	cmp	DWORD PTR _windowBits$[ebp], 0
	je	SHORT $LN7@inflateRes
	cmp	DWORD PTR _windowBits$[ebp], 8
	jl	SHORT $LN8@inflateRes
	cmp	DWORD PTR _windowBits$[ebp], 15		; 0000000fH
	jle	SHORT $LN7@inflateRes
$LN8@inflateRes:

; 186  :         return Z_STREAM_ERROR;

	mov	eax, -2					; fffffffeH
	jmp	SHORT $LN1@inflateRes
$LN7@inflateRes:

; 187  :     if (state->window != Z_NULL && state->wbits != (unsigned)windowBits) {

	mov	eax, DWORD PTR _state$[ebp]
	cmp	DWORD PTR [eax+56], 0
	je	SHORT $LN9@inflateRes
	mov	ecx, DWORD PTR _state$[ebp]
	mov	edx, DWORD PTR [ecx+40]
	cmp	edx, DWORD PTR _windowBits$[ebp]
	je	SHORT $LN9@inflateRes

; 188  :         ZFREE(strm, state->window);

	mov	eax, DWORD PTR _state$[ebp]
	mov	ecx, DWORD PTR [eax+56]
	push	ecx
	mov	edx, DWORD PTR _strm$[ebp]
	mov	eax, DWORD PTR [edx+40]
	push	eax
	mov	ecx, DWORD PTR _strm$[ebp]
	mov	edx, DWORD PTR [ecx+36]
	call	edx
	add	esp, 8

; 189  :         state->window = Z_NULL;

	mov	eax, DWORD PTR _state$[ebp]
	mov	DWORD PTR [eax+56], 0
$LN9@inflateRes:

; 190  :     }
; 191  : 
; 192  :     /* update state and reset the rest of it */
; 193  :     state->wrap = wrap;

	mov	ecx, DWORD PTR _state$[ebp]
	mov	edx, DWORD PTR _wrap$[ebp]
	mov	DWORD PTR [ecx+12], edx

; 194  :     state->wbits = (unsigned)windowBits;

	mov	eax, DWORD PTR _state$[ebp]
	mov	ecx, DWORD PTR _windowBits$[ebp]
	mov	DWORD PTR [eax+40], ecx

; 195  :     return inflateReset(strm);

	mov	edx, DWORD PTR _strm$[ebp]
	push	edx
	call	_inflateReset@4
$LN1@inflateRes:

; 196  : }

	mov	esp, ebp
	pop	ebp
	ret	8
_inflateReset2@8 ENDP
_TEXT	ENDS
; Function compile flags: /Odtp
; File C:\Users\chris\Documents\GitHub\zlib\inflate.c
_TEXT	SEGMENT
_state$ = -4						; size = 4
_strm$ = 8						; size = 4
_inflateReset@4 PROC

; 147  : {

	push	ebp
	mov	ebp, esp
	push	ecx

; 148  :     struct inflate_state FAR *state;
; 149  : 
; 150  :     if (inflateStateCheck(strm)) return Z_STREAM_ERROR;

	mov	eax, DWORD PTR _strm$[ebp]
	push	eax
	call	_inflateStateCheck
	add	esp, 4
	test	eax, eax
	je	SHORT $LN2@inflateRes
	mov	eax, -2					; fffffffeH
	jmp	SHORT $LN1@inflateRes
$LN2@inflateRes:

; 151  :     state = (struct inflate_state FAR *)strm->state;

	mov	ecx, DWORD PTR _strm$[ebp]
	mov	edx, DWORD PTR [ecx+28]
	mov	DWORD PTR _state$[ebp], edx

; 152  :     state->wsize = 0;

	mov	eax, DWORD PTR _state$[ebp]
	mov	DWORD PTR [eax+44], 0

; 153  :     state->whave = 0;

	mov	ecx, DWORD PTR _state$[ebp]
	mov	DWORD PTR [ecx+48], 0

; 154  :     state->wnext = 0;

	mov	edx, DWORD PTR _state$[ebp]
	mov	DWORD PTR [edx+52], 0

; 155  :     return inflateResetKeep(strm);

	mov	eax, DWORD PTR _strm$[ebp]
	push	eax
	call	_inflateResetKeep@4
$LN1@inflateRes:

; 156  : }

	mov	esp, ebp
	pop	ebp
	ret	4
_inflateReset@4 ENDP
_TEXT	ENDS
; Function compile flags: /Odtp
; File C:\Users\chris\Documents\GitHub\zlib\inflate.c
_TEXT	SEGMENT
_wsize$ = -16						; size = 4
_window$ = -12						; size = 4
_copy$ = -8						; size = 4
_state$ = -4						; size = 4
_dest$ = 8						; size = 4
_source$ = 12						; size = 4
_inflateCopy@8 PROC

; 1498 : {

	push	ebp
	mov	ebp, esp
	sub	esp, 16					; 00000010H

; 1499 :     struct inflate_state FAR *state;
; 1500 :     struct inflate_state FAR *copy;
; 1501 :     unsigned char FAR *window;
; 1502 :     unsigned wsize;
; 1503 : 
; 1504 :     /* check input */
; 1505 :     if (inflateStateCheck(source) || dest == Z_NULL)

	mov	eax, DWORD PTR _source$[ebp]
	push	eax
	call	_inflateStateCheck
	add	esp, 4
	test	eax, eax
	jne	SHORT $LN3@inflateCop
	cmp	DWORD PTR _dest$[ebp], 0
	jne	SHORT $LN2@inflateCop
$LN3@inflateCop:

; 1506 :         return Z_STREAM_ERROR;

	mov	eax, -2					; fffffffeH
	jmp	$LN1@inflateCop
$LN2@inflateCop:

; 1507 :     state = (struct inflate_state FAR *)source->state;

	mov	ecx, DWORD PTR _source$[ebp]
	mov	edx, DWORD PTR [ecx+28]
	mov	DWORD PTR _state$[ebp], edx

; 1508 : 
; 1509 :     /* allocate space */
; 1510 :     copy = (struct inflate_state FAR *)

	push	7120					; 00001bd0H
	push	1
	mov	eax, DWORD PTR _source$[ebp]
	mov	ecx, DWORD PTR [eax+40]
	push	ecx
	mov	edx, DWORD PTR _source$[ebp]
	mov	eax, DWORD PTR [edx+32]
	call	eax
	add	esp, 12					; 0000000cH
	mov	DWORD PTR _copy$[ebp], eax

; 1511 :            ZALLOC(source, 1, sizeof(struct inflate_state));
; 1512 :     if (copy == Z_NULL) return Z_MEM_ERROR;

	cmp	DWORD PTR _copy$[ebp], 0
	jne	SHORT $LN4@inflateCop
	mov	eax, -4					; fffffffcH
	jmp	$LN1@inflateCop
$LN4@inflateCop:

; 1513 :     window = Z_NULL;

	mov	DWORD PTR _window$[ebp], 0

; 1514 :     if (state->window != Z_NULL) {

	mov	ecx, DWORD PTR _state$[ebp]
	cmp	DWORD PTR [ecx+56], 0
	je	SHORT $LN5@inflateCop

; 1515 :         window = (unsigned char FAR *)

	push	1
	mov	edx, DWORD PTR _state$[ebp]
	mov	eax, 1
	mov	ecx, DWORD PTR [edx+40]
	shl	eax, cl
	push	eax
	mov	ecx, DWORD PTR _source$[ebp]
	mov	edx, DWORD PTR [ecx+40]
	push	edx
	mov	eax, DWORD PTR _source$[ebp]
	mov	ecx, DWORD PTR [eax+32]
	call	ecx
	add	esp, 12					; 0000000cH
	mov	DWORD PTR _window$[ebp], eax

; 1516 :                  ZALLOC(source, 1U << state->wbits, sizeof(unsigned char));
; 1517 :         if (window == Z_NULL) {

	cmp	DWORD PTR _window$[ebp], 0
	jne	SHORT $LN5@inflateCop

; 1518 :             ZFREE(source, copy);

	mov	edx, DWORD PTR _copy$[ebp]
	push	edx
	mov	eax, DWORD PTR _source$[ebp]
	mov	ecx, DWORD PTR [eax+40]
	push	ecx
	mov	edx, DWORD PTR _source$[ebp]
	mov	eax, DWORD PTR [edx+36]
	call	eax
	add	esp, 8

; 1519 :             return Z_MEM_ERROR;

	mov	eax, -4					; fffffffcH
	jmp	$LN1@inflateCop
$LN5@inflateCop:

; 1520 :         }
; 1521 :     }
; 1522 : 
; 1523 :     /* copy state */
; 1524 :     zmemcpy((voidpf)dest, (voidpf)source, sizeof(z_stream));

	push	56					; 00000038H
	mov	ecx, DWORD PTR _source$[ebp]
	push	ecx
	mov	edx, DWORD PTR _dest$[ebp]
	push	edx
	call	_memcpy
	add	esp, 12					; 0000000cH

; 1525 :     zmemcpy((voidpf)copy, (voidpf)state, sizeof(struct inflate_state));

	push	7120					; 00001bd0H
	mov	eax, DWORD PTR _state$[ebp]
	push	eax
	mov	ecx, DWORD PTR _copy$[ebp]
	push	ecx
	call	_memcpy
	add	esp, 12					; 0000000cH

; 1526 :     copy->strm = dest;

	mov	edx, DWORD PTR _copy$[ebp]
	mov	eax, DWORD PTR _dest$[ebp]
	mov	DWORD PTR [edx], eax

; 1527 :     if (state->lencode >= state->codes &&

	mov	ecx, DWORD PTR _state$[ebp]
	add	ecx, 1332				; 00000534H
	mov	edx, DWORD PTR _state$[ebp]
	cmp	DWORD PTR [edx+80], ecx
	jb	SHORT $LN7@inflateCop
	mov	eax, DWORD PTR _state$[ebp]
	add	eax, 7104				; 00001bc0H
	mov	ecx, DWORD PTR _state$[ebp]
	cmp	DWORD PTR [ecx+80], eax
	ja	SHORT $LN7@inflateCop

; 1528 :         state->lencode <= state->codes + ENOUGH - 1) {
; 1529 :         copy->lencode = copy->codes + (state->lencode - state->codes);

	mov	edx, DWORD PTR _state$[ebp]
	add	edx, 1332				; 00000534H
	mov	eax, DWORD PTR _state$[ebp]
	mov	ecx, DWORD PTR [eax+80]
	sub	ecx, edx
	sar	ecx, 2
	mov	edx, DWORD PTR _copy$[ebp]
	lea	eax, DWORD PTR [edx+ecx*4+1332]
	mov	ecx, DWORD PTR _copy$[ebp]
	mov	DWORD PTR [ecx+80], eax

; 1530 :         copy->distcode = copy->codes + (state->distcode - state->codes);

	mov	edx, DWORD PTR _state$[ebp]
	add	edx, 1332				; 00000534H
	mov	eax, DWORD PTR _state$[ebp]
	mov	ecx, DWORD PTR [eax+84]
	sub	ecx, edx
	sar	ecx, 2
	mov	edx, DWORD PTR _copy$[ebp]
	lea	eax, DWORD PTR [edx+ecx*4+1332]
	mov	ecx, DWORD PTR _copy$[ebp]
	mov	DWORD PTR [ecx+84], eax
$LN7@inflateCop:

; 1531 :     }
; 1532 :     copy->next = copy->codes + (state->next - state->codes);

	mov	edx, DWORD PTR _state$[ebp]
	add	edx, 1332				; 00000534H
	mov	eax, DWORD PTR _state$[ebp]
	mov	ecx, DWORD PTR [eax+112]
	sub	ecx, edx
	sar	ecx, 2
	mov	edx, DWORD PTR _copy$[ebp]
	lea	eax, DWORD PTR [edx+ecx*4+1332]
	mov	ecx, DWORD PTR _copy$[ebp]
	mov	DWORD PTR [ecx+112], eax

; 1533 :     if (window != Z_NULL) {

	cmp	DWORD PTR _window$[ebp], 0
	je	SHORT $LN8@inflateCop

; 1534 :         wsize = 1U << state->wbits;

	mov	edx, DWORD PTR _state$[ebp]
	mov	eax, 1
	mov	ecx, DWORD PTR [edx+40]
	shl	eax, cl
	mov	DWORD PTR _wsize$[ebp], eax

; 1535 :         zmemcpy(window, state->window, wsize);

	mov	ecx, DWORD PTR _wsize$[ebp]
	push	ecx
	mov	edx, DWORD PTR _state$[ebp]
	mov	eax, DWORD PTR [edx+56]
	push	eax
	mov	ecx, DWORD PTR _window$[ebp]
	push	ecx
	call	_memcpy
	add	esp, 12					; 0000000cH
$LN8@inflateCop:

; 1536 :     }
; 1537 :     copy->window = window;

	mov	edx, DWORD PTR _copy$[ebp]
	mov	eax, DWORD PTR _window$[ebp]
	mov	DWORD PTR [edx+56], eax

; 1538 :     dest->state = (struct internal_state FAR *)copy;

	mov	ecx, DWORD PTR _dest$[ebp]
	mov	edx, DWORD PTR _copy$[ebp]
	mov	DWORD PTR [ecx+28], edx

; 1539 :     return Z_OK;

	xor	eax, eax
$LN1@inflateCop:

; 1540 : }

	mov	esp, ebp
	pop	ebp
	ret	8
_inflateCopy@8 ENDP
_TEXT	ENDS
; Function compile flags: /Odtp
; File C:\Users\chris\Documents\GitHub\zlib\inflate.c
_TEXT	SEGMENT
_flags$ = -24						; size = 4
_out$ = -20						; size = 4
_in$ = -16						; size = 4
_buf$ = -12						; size = 4
_len$ = -8						; size = 4
_state$ = -4						; size = 4
_strm$ = 8						; size = 4
_inflateSync@4 PROC

; 1429 : {

	push	ebp
	mov	ebp, esp
	sub	esp, 24					; 00000018H

; 1430 :     unsigned len;               /* number of bytes to look at or looked at */
; 1431 :     int flags;                  /* temporary to save header status */
; 1432 :     unsigned long in, out;      /* temporary to save total_in and total_out */
; 1433 :     unsigned char buf[4];       /* to restore bit buffer to byte string */
; 1434 :     struct inflate_state FAR *state;
; 1435 : 
; 1436 :     /* check parameters */
; 1437 :     if (inflateStateCheck(strm)) return Z_STREAM_ERROR;

	mov	eax, DWORD PTR _strm$[ebp]
	push	eax
	call	_inflateStateCheck
	add	esp, 4
	test	eax, eax
	je	SHORT $LN4@inflateSyn
	mov	eax, -2					; fffffffeH
	jmp	$LN1@inflateSyn
$LN4@inflateSyn:

; 1438 :     state = (struct inflate_state FAR *)strm->state;

	mov	ecx, DWORD PTR _strm$[ebp]
	mov	edx, DWORD PTR [ecx+28]
	mov	DWORD PTR _state$[ebp], edx

; 1439 :     if (strm->avail_in == 0 && state->bits < 8) return Z_BUF_ERROR;

	mov	eax, DWORD PTR _strm$[ebp]
	cmp	DWORD PTR [eax+4], 0
	jne	SHORT $LN5@inflateSyn
	mov	ecx, DWORD PTR _state$[ebp]
	cmp	DWORD PTR [ecx+64], 8
	jae	SHORT $LN5@inflateSyn
	mov	eax, -5					; fffffffbH
	jmp	$LN1@inflateSyn
$LN5@inflateSyn:

; 1440 : 
; 1441 :     /* if first time, start search in bit buffer */
; 1442 :     if (state->mode != SYNC) {

	mov	edx, DWORD PTR _state$[ebp]
	cmp	DWORD PTR [edx+4], 16211		; 00003f53H
	je	$LN6@inflateSyn

; 1443 :         state->mode = SYNC;

	mov	eax, DWORD PTR _state$[ebp]
	mov	DWORD PTR [eax+4], 16211		; 00003f53H

; 1444 :         state->hold <<= state->bits & 7;

	mov	ecx, DWORD PTR _state$[ebp]
	mov	ecx, DWORD PTR [ecx+64]
	and	ecx, 7
	mov	edx, DWORD PTR _state$[ebp]
	mov	eax, DWORD PTR [edx+60]
	shl	eax, cl
	mov	ecx, DWORD PTR _state$[ebp]
	mov	DWORD PTR [ecx+60], eax

; 1445 :         state->bits -= state->bits & 7;

	mov	edx, DWORD PTR _state$[ebp]
	mov	eax, DWORD PTR [edx+64]
	and	eax, 7
	mov	ecx, DWORD PTR _state$[ebp]
	mov	edx, DWORD PTR [ecx+64]
	sub	edx, eax
	mov	eax, DWORD PTR _state$[ebp]
	mov	DWORD PTR [eax+64], edx

; 1446 :         len = 0;

	mov	DWORD PTR _len$[ebp], 0
$LN2@inflateSyn:

; 1447 :         while (state->bits >= 8) {

	mov	ecx, DWORD PTR _state$[ebp]
	cmp	DWORD PTR [ecx+64], 8
	jb	SHORT $LN3@inflateSyn

; 1448 :             buf[len++] = (unsigned char)(state->hold);

	mov	edx, DWORD PTR _len$[ebp]
	mov	eax, DWORD PTR _state$[ebp]
	mov	cl, BYTE PTR [eax+60]
	mov	BYTE PTR _buf$[ebp+edx], cl
	mov	edx, DWORD PTR _len$[ebp]
	add	edx, 1
	mov	DWORD PTR _len$[ebp], edx

; 1449 :             state->hold >>= 8;

	mov	eax, DWORD PTR _state$[ebp]
	mov	ecx, DWORD PTR [eax+60]
	shr	ecx, 8
	mov	edx, DWORD PTR _state$[ebp]
	mov	DWORD PTR [edx+60], ecx

; 1450 :             state->bits -= 8;

	mov	eax, DWORD PTR _state$[ebp]
	mov	ecx, DWORD PTR [eax+64]
	sub	ecx, 8
	mov	edx, DWORD PTR _state$[ebp]
	mov	DWORD PTR [edx+64], ecx

; 1451 :         }

	jmp	SHORT $LN2@inflateSyn
$LN3@inflateSyn:

; 1452 :         state->have = 0;

	mov	eax, DWORD PTR _state$[ebp]
	mov	DWORD PTR [eax+108], 0

; 1453 :         syncsearch(&(state->have), buf, len);

	mov	ecx, DWORD PTR _len$[ebp]
	push	ecx
	lea	edx, DWORD PTR _buf$[ebp]
	push	edx
	mov	eax, DWORD PTR _state$[ebp]
	add	eax, 108				; 0000006cH
	push	eax
	call	_syncsearch
	add	esp, 12					; 0000000cH
$LN6@inflateSyn:

; 1454 :     }
; 1455 : 
; 1456 :     /* search available input */
; 1457 :     len = syncsearch(&(state->have), strm->next_in, strm->avail_in);

	mov	ecx, DWORD PTR _strm$[ebp]
	mov	edx, DWORD PTR [ecx+4]
	push	edx
	mov	eax, DWORD PTR _strm$[ebp]
	mov	ecx, DWORD PTR [eax]
	push	ecx
	mov	edx, DWORD PTR _state$[ebp]
	add	edx, 108				; 0000006cH
	push	edx
	call	_syncsearch
	add	esp, 12					; 0000000cH
	mov	DWORD PTR _len$[ebp], eax

; 1458 :     strm->avail_in -= len;

	mov	eax, DWORD PTR _strm$[ebp]
	mov	ecx, DWORD PTR [eax+4]
	sub	ecx, DWORD PTR _len$[ebp]
	mov	edx, DWORD PTR _strm$[ebp]
	mov	DWORD PTR [edx+4], ecx

; 1459 :     strm->next_in += len;

	mov	eax, DWORD PTR _strm$[ebp]
	mov	ecx, DWORD PTR [eax]
	add	ecx, DWORD PTR _len$[ebp]
	mov	edx, DWORD PTR _strm$[ebp]
	mov	DWORD PTR [edx], ecx

; 1460 :     strm->total_in += len;

	mov	eax, DWORD PTR _strm$[ebp]
	mov	ecx, DWORD PTR [eax+8]
	add	ecx, DWORD PTR _len$[ebp]
	mov	edx, DWORD PTR _strm$[ebp]
	mov	DWORD PTR [edx+8], ecx

; 1461 : 
; 1462 :     /* return no joy or set up to restart inflate() on a new block */
; 1463 :     if (state->have != 4) return Z_DATA_ERROR;

	mov	eax, DWORD PTR _state$[ebp]
	cmp	DWORD PTR [eax+108], 4
	je	SHORT $LN7@inflateSyn
	mov	eax, -3					; fffffffdH
	jmp	SHORT $LN1@inflateSyn
$LN7@inflateSyn:

; 1464 :     if (state->flags == -1)

	mov	ecx, DWORD PTR _state$[ebp]
	cmp	DWORD PTR [ecx+20], -1
	jne	SHORT $LN8@inflateSyn

; 1465 :         state->wrap = 0;    /* if no header yet, treat as raw */

	mov	edx, DWORD PTR _state$[ebp]
	mov	DWORD PTR [edx+12], 0
	jmp	SHORT $LN9@inflateSyn
$LN8@inflateSyn:

; 1466 :     else
; 1467 :         state->wrap &= ~4;  /* no point in computing a check value now */

	mov	eax, DWORD PTR _state$[ebp]
	mov	ecx, DWORD PTR [eax+12]
	and	ecx, -5					; fffffffbH
	mov	edx, DWORD PTR _state$[ebp]
	mov	DWORD PTR [edx+12], ecx
$LN9@inflateSyn:

; 1468 :     flags = state->flags;

	mov	eax, DWORD PTR _state$[ebp]
	mov	ecx, DWORD PTR [eax+20]
	mov	DWORD PTR _flags$[ebp], ecx

; 1469 :     in = strm->total_in;  out = strm->total_out;

	mov	edx, DWORD PTR _strm$[ebp]
	mov	eax, DWORD PTR [edx+8]
	mov	DWORD PTR _in$[ebp], eax
	mov	ecx, DWORD PTR _strm$[ebp]
	mov	edx, DWORD PTR [ecx+20]
	mov	DWORD PTR _out$[ebp], edx

; 1470 :     inflateReset(strm);

	mov	eax, DWORD PTR _strm$[ebp]
	push	eax
	call	_inflateReset@4

; 1471 :     strm->total_in = in;  strm->total_out = out;

	mov	ecx, DWORD PTR _strm$[ebp]
	mov	edx, DWORD PTR _in$[ebp]
	mov	DWORD PTR [ecx+8], edx
	mov	eax, DWORD PTR _strm$[ebp]
	mov	ecx, DWORD PTR _out$[ebp]
	mov	DWORD PTR [eax+20], ecx

; 1472 :     state->flags = flags;

	mov	edx, DWORD PTR _state$[ebp]
	mov	eax, DWORD PTR _flags$[ebp]
	mov	DWORD PTR [edx+20], eax

; 1473 :     state->mode = TYPE;

	mov	ecx, DWORD PTR _state$[ebp]
	mov	DWORD PTR [ecx+4], 16191		; 00003f3fH

; 1474 :     return Z_OK;

	xor	eax, eax
$LN1@inflateSyn:

; 1475 : }

	mov	esp, ebp
	pop	ebp
	ret	4
_inflateSync@4 ENDP
_TEXT	ENDS
; Function compile flags: /Odtp
; File C:\Users\chris\Documents\GitHub\zlib\inflate.c
_TEXT	SEGMENT
_state$ = -4						; size = 4
_strm$ = 8						; size = 4
_dictionary$ = 12					; size = 4
_dictLength$ = 16					; size = 4
_inflateGetDictionary@12 PROC

; 1322 : {

	push	ebp
	mov	ebp, esp
	push	ecx

; 1323 :     struct inflate_state FAR *state;
; 1324 : 
; 1325 :     /* check state */
; 1326 :     if (inflateStateCheck(strm)) return Z_STREAM_ERROR;

	mov	eax, DWORD PTR _strm$[ebp]
	push	eax
	call	_inflateStateCheck
	add	esp, 4
	test	eax, eax
	je	SHORT $LN2@inflateGet
	mov	eax, -2					; fffffffeH
	jmp	SHORT $LN1@inflateGet
$LN2@inflateGet:

; 1327 :     state = (struct inflate_state FAR *)strm->state;

	mov	ecx, DWORD PTR _strm$[ebp]
	mov	edx, DWORD PTR [ecx+28]
	mov	DWORD PTR _state$[ebp], edx

; 1328 : 
; 1329 :     /* copy dictionary */
; 1330 :     if (state->whave && dictionary != Z_NULL) {

	mov	eax, DWORD PTR _state$[ebp]
	cmp	DWORD PTR [eax+48], 0
	je	SHORT $LN3@inflateGet
	cmp	DWORD PTR _dictionary$[ebp], 0
	je	SHORT $LN3@inflateGet

; 1331 :         zmemcpy(dictionary, state->window + state->wnext,

	mov	ecx, DWORD PTR _state$[ebp]
	mov	edx, DWORD PTR _state$[ebp]
	mov	eax, DWORD PTR [ecx+48]
	sub	eax, DWORD PTR [edx+52]
	push	eax
	mov	ecx, DWORD PTR _state$[ebp]
	mov	edx, DWORD PTR [ecx+56]
	mov	eax, DWORD PTR _state$[ebp]
	add	edx, DWORD PTR [eax+52]
	push	edx
	mov	ecx, DWORD PTR _dictionary$[ebp]
	push	ecx
	call	_memcpy
	add	esp, 12					; 0000000cH

; 1332 :                 state->whave - state->wnext);
; 1333 :         zmemcpy(dictionary + state->whave - state->wnext,

	mov	edx, DWORD PTR _state$[ebp]
	mov	eax, DWORD PTR [edx+52]
	push	eax
	mov	ecx, DWORD PTR _state$[ebp]
	mov	edx, DWORD PTR [ecx+56]
	push	edx
	mov	eax, DWORD PTR _state$[ebp]
	mov	ecx, DWORD PTR _dictionary$[ebp]
	add	ecx, DWORD PTR [eax+48]
	mov	edx, DWORD PTR _state$[ebp]
	sub	ecx, DWORD PTR [edx+52]
	push	ecx
	call	_memcpy
	add	esp, 12					; 0000000cH
$LN3@inflateGet:

; 1334 :                 state->window, state->wnext);
; 1335 :     }
; 1336 :     if (dictLength != Z_NULL)

	cmp	DWORD PTR _dictLength$[ebp], 0
	je	SHORT $LN4@inflateGet

; 1337 :         *dictLength = state->whave;

	mov	eax, DWORD PTR _dictLength$[ebp]
	mov	ecx, DWORD PTR _state$[ebp]
	mov	edx, DWORD PTR [ecx+48]
	mov	DWORD PTR [eax], edx
$LN4@inflateGet:

; 1338 :     return Z_OK;

	xor	eax, eax
$LN1@inflateGet:

; 1339 : }

	mov	esp, ebp
	pop	ebp
	ret	12					; 0000000cH
_inflateGetDictionary@12 ENDP
_TEXT	ENDS
; Function compile flags: /Odtp
; File C:\Users\chris\Documents\GitHub\zlib\inflate.c
_TEXT	SEGMENT
_ret$ = -12						; size = 4
_dictid$ = -8						; size = 4
_state$ = -4						; size = 4
_strm$ = 8						; size = 4
_dictionary$ = 12					; size = 4
_dictLength$ = 16					; size = 4
_inflateSetDictionary@12 PROC

; 1345 : {

	push	ebp
	mov	ebp, esp
	sub	esp, 12					; 0000000cH

; 1346 :     struct inflate_state FAR *state;
; 1347 :     unsigned long dictid;
; 1348 :     int ret;
; 1349 : 
; 1350 :     /* check state */
; 1351 :     if (inflateStateCheck(strm)) return Z_STREAM_ERROR;

	mov	eax, DWORD PTR _strm$[ebp]
	push	eax
	call	_inflateStateCheck
	add	esp, 4
	test	eax, eax
	je	SHORT $LN2@inflateSet
	mov	eax, -2					; fffffffeH
	jmp	$LN1@inflateSet
$LN2@inflateSet:

; 1352 :     state = (struct inflate_state FAR *)strm->state;

	mov	ecx, DWORD PTR _strm$[ebp]
	mov	edx, DWORD PTR [ecx+28]
	mov	DWORD PTR _state$[ebp], edx

; 1353 :     if (state->wrap != 0 && state->mode != DICT)

	mov	eax, DWORD PTR _state$[ebp]
	cmp	DWORD PTR [eax+12], 0
	je	SHORT $LN3@inflateSet
	mov	ecx, DWORD PTR _state$[ebp]
	cmp	DWORD PTR [ecx+4], 16190		; 00003f3eH
	je	SHORT $LN3@inflateSet

; 1354 :         return Z_STREAM_ERROR;

	mov	eax, -2					; fffffffeH
	jmp	SHORT $LN1@inflateSet
$LN3@inflateSet:

; 1355 : 
; 1356 :     /* check for correct dictionary identifier */
; 1357 :     if (state->mode == DICT) {

	mov	edx, DWORD PTR _state$[ebp]
	cmp	DWORD PTR [edx+4], 16190		; 00003f3eH
	jne	SHORT $LN4@inflateSet

; 1358 :         dictid = adler32(0L, Z_NULL, 0);

	push	0
	push	0
	push	0
	call	_adler32@12
	mov	DWORD PTR _dictid$[ebp], eax

; 1359 :         dictid = adler32(dictid, dictionary, dictLength);

	mov	eax, DWORD PTR _dictLength$[ebp]
	push	eax
	mov	ecx, DWORD PTR _dictionary$[ebp]
	push	ecx
	mov	edx, DWORD PTR _dictid$[ebp]
	push	edx
	call	_adler32@12
	mov	DWORD PTR _dictid$[ebp], eax

; 1360 :         if (dictid != state->check)

	mov	eax, DWORD PTR _state$[ebp]
	mov	ecx, DWORD PTR _dictid$[ebp]
	cmp	ecx, DWORD PTR [eax+28]
	je	SHORT $LN4@inflateSet

; 1361 :             return Z_DATA_ERROR;

	mov	eax, -3					; fffffffdH
	jmp	SHORT $LN1@inflateSet
$LN4@inflateSet:

; 1362 :     }
; 1363 : 
; 1364 :     /* copy dictionary to window using updatewindow(), which will amend the
; 1365 :        existing dictionary if appropriate */
; 1366 :     ret = updatewindow(strm, dictionary + dictLength, dictLength);

	mov	edx, DWORD PTR _dictLength$[ebp]
	push	edx
	mov	eax, DWORD PTR _dictionary$[ebp]
	add	eax, DWORD PTR _dictLength$[ebp]
	push	eax
	mov	ecx, DWORD PTR _strm$[ebp]
	push	ecx
	call	_updatewindow
	add	esp, 12					; 0000000cH
	mov	DWORD PTR _ret$[ebp], eax

; 1367 :     if (ret) {

	cmp	DWORD PTR _ret$[ebp], 0
	je	SHORT $LN6@inflateSet

; 1368 :         state->mode = MEM;

	mov	edx, DWORD PTR _state$[ebp]
	mov	DWORD PTR [edx+4], 16210		; 00003f52H

; 1369 :         return Z_MEM_ERROR;

	mov	eax, -4					; fffffffcH
	jmp	SHORT $LN1@inflateSet
$LN6@inflateSet:

; 1370 :     }
; 1371 :     state->havedict = 1;

	mov	eax, DWORD PTR _state$[ebp]
	mov	DWORD PTR [eax+16], 1

; 1372 :     Tracev((stderr, "inflate:   dictionary set\n"));
; 1373 :     return Z_OK;

	xor	eax, eax
$LN1@inflateSet:

; 1374 : }

	mov	esp, ebp
	pop	ebp
	ret	12					; 0000000cH
_inflateSetDictionary@12 ENDP
_TEXT	ENDS
; Function compile flags: /Odtp
; File C:\Users\chris\Documents\GitHub\zlib\inflate.c
_TEXT	SEGMENT
_state$ = -4						; size = 4
_strm$ = 8						; size = 4
_inflateEnd@4 PROC

; 1306 : {

	push	ebp
	mov	ebp, esp
	push	ecx

; 1307 :     struct inflate_state FAR *state;
; 1308 :     if (inflateStateCheck(strm))

	mov	eax, DWORD PTR _strm$[ebp]
	push	eax
	call	_inflateStateCheck
	add	esp, 4
	test	eax, eax
	je	SHORT $LN2@inflateEnd

; 1309 :         return Z_STREAM_ERROR;

	mov	eax, -2					; fffffffeH
	jmp	SHORT $LN1@inflateEnd
$LN2@inflateEnd:

; 1310 :     state = (struct inflate_state FAR *)strm->state;

	mov	ecx, DWORD PTR _strm$[ebp]
	mov	edx, DWORD PTR [ecx+28]
	mov	DWORD PTR _state$[ebp], edx

; 1311 :     if (state->window != Z_NULL) ZFREE(strm, state->window);

	mov	eax, DWORD PTR _state$[ebp]
	cmp	DWORD PTR [eax+56], 0
	je	SHORT $LN3@inflateEnd
	mov	ecx, DWORD PTR _state$[ebp]
	mov	edx, DWORD PTR [ecx+56]
	push	edx
	mov	eax, DWORD PTR _strm$[ebp]
	mov	ecx, DWORD PTR [eax+40]
	push	ecx
	mov	edx, DWORD PTR _strm$[ebp]
	mov	eax, DWORD PTR [edx+36]
	call	eax
	add	esp, 8
$LN3@inflateEnd:

; 1312 :     ZFREE(strm, strm->state);

	mov	ecx, DWORD PTR _strm$[ebp]
	mov	edx, DWORD PTR [ecx+28]
	push	edx
	mov	eax, DWORD PTR _strm$[ebp]
	mov	ecx, DWORD PTR [eax+40]
	push	ecx
	mov	edx, DWORD PTR _strm$[ebp]
	mov	eax, DWORD PTR [edx+36]
	call	eax
	add	esp, 8

; 1313 :     strm->state = Z_NULL;

	mov	ecx, DWORD PTR _strm$[ebp]
	mov	DWORD PTR [ecx+28], 0

; 1314 :     Tracev((stderr, "inflate: end\n"));
; 1315 :     return Z_OK;

	xor	eax, eax
$LN1@inflateEnd:

; 1316 : }

	mov	esp, ebp
	pop	ebp
	ret	4
_inflateEnd@4 ENDP
_TEXT	ENDS
; Function compile flags: /Odtp
; File C:\Users\chris\Documents\GitHub\zlib\inflate.c
_TEXT	SEGMENT
tv912 = -124						; size = 4
tv1429 = -120						; size = 4
tv1423 = -116						; size = 4
tv1419 = -112						; size = 4
tv1322 = -108						; size = 4
tv630 = -104						; size = 4
tv599 = -100						; size = 4
tv585 = -96						; size = 4
tv558 = -92						; size = 4
tv403 = -88						; size = 4
tv202 = -84						; size = 4
tv195 = -80						; size = 4
tv1414 = -76						; size = 4
tv1305 = -72						; size = 4
_in$ = -68						; size = 4
tv85 = -64						; size = 4
_from$ = -60						; size = 4
_ret$ = -56						; size = 4
_put$ = -52						; size = 4
_hbuf$ = -48						; size = 4
_last$ = -44						; size = 4
_left$ = -40						; size = 4
_len$ = -36						; size = 4
_out$ = -32						; size = 4
_here$ = -28						; size = 4
_copy$ = -24						; size = 4
_next$ = -20						; size = 4
_have$ = -16						; size = 4
_bits$ = -12						; size = 4
_hold$ = -8						; size = 4
_state$ = -4						; size = 4
_strm$ = 8						; size = 4
_flush$ = 12						; size = 4
_inflate@8 PROC

; 628  : {

	push	ebp
	mov	ebp, esp
	sub	esp, 124				; 0000007cH

; 629  :     struct inflate_state FAR *state;
; 630  :     z_const unsigned char FAR *next;    /* next input */
; 631  :     unsigned char FAR *put;     /* next output */
; 632  :     unsigned have, left;        /* available input and output */
; 633  :     unsigned long hold;         /* bit buffer */
; 634  :     unsigned bits;              /* bits in bit buffer */
; 635  :     unsigned in, out;           /* save starting available input and output */
; 636  :     unsigned copy;              /* number of stored or match bytes to copy */
; 637  :     unsigned char FAR *from;    /* where to copy match bytes from */
; 638  :     code here;                  /* current decoding table entry */
; 639  :     code last;                  /* parent table entry */
; 640  :     unsigned len;               /* length to copy for repeats, bits to drop */
; 641  :     int ret;                    /* return code */
; 642  : #ifdef GUNZIP
; 643  :     unsigned char hbuf[4];      /* buffer for gzip header crc calculation */
; 644  : #endif
; 645  :     static const unsigned short order[19] = /* permutation of code lengths */
; 646  :         {16, 17, 18, 0, 8, 7, 9, 6, 10, 5, 11, 4, 12, 3, 13, 2, 14, 1, 15};
; 647  : 
; 648  :     if (inflateStateCheck(strm) || strm->next_out == Z_NULL ||

	mov	eax, DWORD PTR _strm$[ebp]
	push	eax
	call	_inflateStateCheck
	add	esp, 4
	test	eax, eax
	jne	SHORT $LN333@inflate
	mov	ecx, DWORD PTR _strm$[ebp]
	cmp	DWORD PTR [ecx+12], 0
	je	SHORT $LN333@inflate
	mov	edx, DWORD PTR _strm$[ebp]
	cmp	DWORD PTR [edx], 0
	jne	SHORT $LN332@inflate
	mov	eax, DWORD PTR _strm$[ebp]
	cmp	DWORD PTR [eax+4], 0
	je	SHORT $LN332@inflate
$LN333@inflate:

; 649  :         (strm->next_in == Z_NULL && strm->avail_in != 0))
; 650  :         return Z_STREAM_ERROR;

	mov	eax, -2					; fffffffeH
	jmp	$LN1@inflate
$LN332@inflate:

; 651  : 
; 652  :     state = (struct inflate_state FAR *)strm->state;

	mov	ecx, DWORD PTR _strm$[ebp]
	mov	edx, DWORD PTR [ecx+28]
	mov	DWORD PTR _state$[ebp], edx

; 653  :     if (state->mode == TYPE) state->mode = TYPEDO;      /* skip check */

	mov	eax, DWORD PTR _state$[ebp]
	cmp	DWORD PTR [eax+4], 16191		; 00003f3fH
	jne	SHORT $LN4@inflate
	mov	ecx, DWORD PTR _state$[ebp]
	mov	DWORD PTR [ecx+4], 16192		; 00003f40H
$LN4@inflate:

; 654  :     LOAD();

	mov	edx, DWORD PTR _strm$[ebp]
	mov	eax, DWORD PTR [edx+12]
	mov	DWORD PTR _put$[ebp], eax
	mov	ecx, DWORD PTR _strm$[ebp]
	mov	edx, DWORD PTR [ecx+16]
	mov	DWORD PTR _left$[ebp], edx
	mov	eax, DWORD PTR _strm$[ebp]
	mov	ecx, DWORD PTR [eax]
	mov	DWORD PTR _next$[ebp], ecx
	mov	edx, DWORD PTR _strm$[ebp]
	mov	eax, DWORD PTR [edx+4]
	mov	DWORD PTR _have$[ebp], eax
	mov	ecx, DWORD PTR _state$[ebp]
	mov	edx, DWORD PTR [ecx+60]
	mov	DWORD PTR _hold$[ebp], edx
	mov	eax, DWORD PTR _state$[ebp]
	mov	ecx, DWORD PTR [eax+64]
	mov	DWORD PTR _bits$[ebp], ecx
	xor	edx, edx
	jne	SHORT $LN4@inflate

; 655  :     in = have;

	mov	eax, DWORD PTR _have$[ebp]
	mov	DWORD PTR _in$[ebp], eax

; 656  :     out = left;

	mov	ecx, DWORD PTR _left$[ebp]
	mov	DWORD PTR _out$[ebp], ecx

; 657  :     ret = Z_OK;

	mov	DWORD PTR _ret$[ebp], 0
$LN7@inflate:

; 658  :     for (;;)
; 659  :         switch (state->mode) {

	mov	edx, DWORD PTR _state$[ebp]
	mov	eax, DWORD PTR [edx+4]
	mov	DWORD PTR tv85[ebp], eax
	mov	ecx, DWORD PTR tv85[ebp]
	sub	ecx, 16180				; 00003f34H
	mov	DWORD PTR tv85[ebp], ecx
	cmp	DWORD PTR tv85[ebp], 31			; 0000001fH
	ja	$LN500@inflate
	mov	edx, DWORD PTR tv85[ebp]
	jmp	DWORD PTR $LN526@inflate[edx*4]
$LN335@inflate:

; 660  :         case HEAD:
; 661  :             if (state->wrap == 0) {

	mov	eax, DWORD PTR _state$[ebp]
	cmp	DWORD PTR [eax+12], 0
	jne	SHORT $LN13@inflate

; 662  :                 state->mode = TYPEDO;

	mov	ecx, DWORD PTR _state$[ebp]
	mov	DWORD PTR [ecx+4], 16192		; 00003f40H

; 663  :                 break;

	jmp	$LN8@inflate
$LN13@inflate:

; 664  :             }
; 665  :             NEEDBITS(16);

	cmp	DWORD PTR _bits$[ebp], 16		; 00000010H
	jae	SHORT $LN10@inflate
$LN17@inflate:
	cmp	DWORD PTR _have$[ebp], 0
	jne	SHORT $LN337@inflate
	jmp	$inf_leave$528
$LN337@inflate:
	mov	edx, DWORD PTR _have$[ebp]
	sub	edx, 1
	mov	DWORD PTR _have$[ebp], edx
	mov	eax, DWORD PTR _next$[ebp]
	movzx	edx, BYTE PTR [eax]
	mov	ecx, DWORD PTR _bits$[ebp]
	shl	edx, cl
	add	edx, DWORD PTR _hold$[ebp]
	mov	DWORD PTR _hold$[ebp], edx
	mov	eax, DWORD PTR _next$[ebp]
	add	eax, 1
	mov	DWORD PTR _next$[ebp], eax
	mov	ecx, DWORD PTR _bits$[ebp]
	add	ecx, 8
	mov	DWORD PTR _bits$[ebp], ecx
	xor	edx, edx
	jne	SHORT $LN17@inflate
	jmp	SHORT $LN13@inflate
$LN10@inflate:
	xor	eax, eax
	jne	SHORT $LN13@inflate

; 666  : #ifdef GUNZIP
; 667  :             if ((state->wrap & 2) && hold == 0x8b1f) {  /* gzip header */

	mov	ecx, DWORD PTR _state$[ebp]
	mov	edx, DWORD PTR [ecx+12]
	and	edx, 2
	je	$LN338@inflate
	cmp	DWORD PTR _hold$[ebp], 35615		; 00008b1fH
	jne	$LN338@inflate

; 668  :                 if (state->wbits == 0)

	mov	eax, DWORD PTR _state$[ebp]
	cmp	DWORD PTR [eax+40], 0
	jne	SHORT $LN339@inflate

; 669  :                     state->wbits = 15;

	mov	ecx, DWORD PTR _state$[ebp]
	mov	DWORD PTR [ecx+40], 15			; 0000000fH
$LN339@inflate:

; 670  :                 state->check = crc32(0L, Z_NULL, 0);

	push	0
	push	0
	push	0
	call	_crc32@12
	mov	edx, DWORD PTR _state$[ebp]
	mov	DWORD PTR [edx+28], eax
$LN20@inflate:

; 671  :                 CRC2(state->check, hold);

	mov	eax, 1
	imul	ecx, eax, 0
	mov	dl, BYTE PTR _hold$[ebp]
	mov	BYTE PTR _hbuf$[ebp+ecx], dl
	mov	eax, DWORD PTR _hold$[ebp]
	shr	eax, 8
	mov	ecx, 1
	shl	ecx, 0
	mov	BYTE PTR _hbuf$[ebp+ecx], al
	push	2
	lea	edx, DWORD PTR _hbuf$[ebp]
	push	edx
	mov	eax, DWORD PTR _state$[ebp]
	mov	ecx, DWORD PTR [eax+28]
	push	ecx
	call	_crc32@12
	mov	edx, DWORD PTR _state$[ebp]
	mov	DWORD PTR [edx+28], eax
	xor	eax, eax
	jne	SHORT $LN20@inflate
$LN23@inflate:

; 672  :                 INITBITS();

	mov	DWORD PTR _hold$[ebp], 0
	mov	DWORD PTR _bits$[ebp], 0
	xor	ecx, ecx
	jne	SHORT $LN23@inflate

; 673  :                 state->mode = FLAGS;

	mov	edx, DWORD PTR _state$[ebp]
	mov	DWORD PTR [edx+4], 16181		; 00003f35H

; 674  :                 break;

	jmp	$LN8@inflate
$LN338@inflate:

; 675  :             }
; 676  :             if (state->head != Z_NULL)

	mov	eax, DWORD PTR _state$[ebp]
	cmp	DWORD PTR [eax+36], 0
	je	SHORT $LN340@inflate

; 677  :                 state->head->done = -1;

	mov	ecx, DWORD PTR _state$[ebp]
	mov	edx, DWORD PTR [ecx+36]
	mov	DWORD PTR [edx+48], -1
$LN340@inflate:

; 678  :             if (!(state->wrap & 1) ||   /* check if zlib header allowed */

	mov	eax, DWORD PTR _state$[ebp]
	mov	ecx, DWORD PTR [eax+12]
	and	ecx, 1
	je	SHORT $LN342@inflate
	mov	eax, DWORD PTR _hold$[ebp]
	and	eax, 255				; 000000ffH
	shl	eax, 8
	mov	edx, DWORD PTR _hold$[ebp]
	shr	edx, 8
	add	eax, edx
	xor	edx, edx
	mov	ecx, 31					; 0000001fH
	div	ecx
	test	edx, edx
	je	SHORT $LN341@inflate
$LN342@inflate:

; 679  : #else
; 680  :             if (
; 681  : #endif
; 682  :                 ((BITS(8) << 8) + (hold >> 8)) % 31) {
; 683  :                 strm->msg = (char *)"incorrect header check";

	mov	edx, DWORD PTR _strm$[ebp]
	mov	DWORD PTR [edx+24], OFFSET $SG44071

; 684  :                 state->mode = BAD;

	mov	eax, DWORD PTR _state$[ebp]
	mov	DWORD PTR [eax+4], 16209		; 00003f51H

; 685  :                 break;

	jmp	$LN8@inflate
$LN341@inflate:

; 686  :             }
; 687  :             if (BITS(4) != Z_DEFLATED) {

	mov	ecx, DWORD PTR _hold$[ebp]
	and	ecx, 15					; 0000000fH
	cmp	ecx, 8
	je	SHORT $LN26@inflate

; 688  :                 strm->msg = (char *)"unknown compression method";

	mov	edx, DWORD PTR _strm$[ebp]
	mov	DWORD PTR [edx+24], OFFSET $SG44073

; 689  :                 state->mode = BAD;

	mov	eax, DWORD PTR _state$[ebp]
	mov	DWORD PTR [eax+4], 16209		; 00003f51H

; 690  :                 break;

	jmp	$LN8@inflate
$LN26@inflate:

; 691  :             }
; 692  :             DROPBITS(4);

	mov	ecx, DWORD PTR _hold$[ebp]
	shr	ecx, 4
	mov	DWORD PTR _hold$[ebp], ecx
	mov	edx, DWORD PTR _bits$[ebp]
	sub	edx, 4
	mov	DWORD PTR _bits$[ebp], edx
	xor	eax, eax
	jne	SHORT $LN26@inflate

; 693  :             len = BITS(4) + 8;

	mov	ecx, DWORD PTR _hold$[ebp]
	and	ecx, 15					; 0000000fH
	add	ecx, 8
	mov	DWORD PTR _len$[ebp], ecx

; 694  :             if (state->wbits == 0)

	mov	edx, DWORD PTR _state$[ebp]
	cmp	DWORD PTR [edx+40], 0
	jne	SHORT $LN344@inflate

; 695  :                 state->wbits = len;

	mov	eax, DWORD PTR _state$[ebp]
	mov	ecx, DWORD PTR _len$[ebp]
	mov	DWORD PTR [eax+40], ecx
$LN344@inflate:

; 696  :             if (len > 15 || len > state->wbits) {

	cmp	DWORD PTR _len$[ebp], 15		; 0000000fH
	ja	SHORT $LN346@inflate
	mov	edx, DWORD PTR _state$[ebp]
	mov	eax, DWORD PTR _len$[ebp]
	cmp	eax, DWORD PTR [edx+40]
	jbe	SHORT $LN345@inflate
$LN346@inflate:

; 697  :                 strm->msg = (char *)"invalid window size";

	mov	ecx, DWORD PTR _strm$[ebp]
	mov	DWORD PTR [ecx+24], OFFSET $SG44077

; 698  :                 state->mode = BAD;

	mov	edx, DWORD PTR _state$[ebp]
	mov	DWORD PTR [edx+4], 16209		; 00003f51H

; 699  :                 break;

	jmp	$LN8@inflate
$LN345@inflate:

; 700  :             }
; 701  :             state->dmax = 1U << len;

	mov	eax, 1
	mov	ecx, DWORD PTR _len$[ebp]
	shl	eax, cl
	mov	ecx, DWORD PTR _state$[ebp]
	mov	DWORD PTR [ecx+24], eax

; 702  :             state->flags = 0;               /* indicate zlib header */

	mov	edx, DWORD PTR _state$[ebp]
	mov	DWORD PTR [edx+20], 0

; 703  :             Tracev((stderr, "inflate:   zlib header ok\n"));
; 704  :             strm->adler = state->check = adler32(0L, Z_NULL, 0);

	push	0
	push	0
	push	0
	call	_adler32@12
	mov	DWORD PTR tv195[ebp], eax
	mov	eax, DWORD PTR _state$[ebp]
	mov	ecx, DWORD PTR tv195[ebp]
	mov	DWORD PTR [eax+28], ecx
	mov	edx, DWORD PTR _strm$[ebp]
	mov	eax, DWORD PTR tv195[ebp]
	mov	DWORD PTR [edx+48], eax

; 705  :             state->mode = hold & 0x200 ? DICTID : TYPE;

	mov	ecx, DWORD PTR _hold$[ebp]
	and	ecx, 512				; 00000200H
	je	SHORT $LN510@inflate
	mov	DWORD PTR tv202[ebp], 16189		; 00003f3dH
	jmp	SHORT $LN511@inflate
$LN510@inflate:
	mov	DWORD PTR tv202[ebp], 16191		; 00003f3fH
$LN511@inflate:
	mov	edx, DWORD PTR _state$[ebp]
	mov	eax, DWORD PTR tv202[ebp]
	mov	DWORD PTR [edx+4], eax
$LN29@inflate:

; 706  :             INITBITS();

	mov	DWORD PTR _hold$[ebp], 0
	mov	DWORD PTR _bits$[ebp], 0
	xor	ecx, ecx
	jne	SHORT $LN29@inflate

; 707  :             break;

	jmp	$LN8@inflate
$LN33@inflate:

; 708  : #ifdef GUNZIP
; 709  :         case FLAGS:
; 710  :             NEEDBITS(16);

	cmp	DWORD PTR _bits$[ebp], 16		; 00000010H
	jae	SHORT $LN30@inflate
$LN37@inflate:
	cmp	DWORD PTR _have$[ebp], 0
	jne	SHORT $LN348@inflate
	jmp	$inf_leave$528
$LN348@inflate:
	mov	edx, DWORD PTR _have$[ebp]
	sub	edx, 1
	mov	DWORD PTR _have$[ebp], edx
	mov	eax, DWORD PTR _next$[ebp]
	movzx	edx, BYTE PTR [eax]
	mov	ecx, DWORD PTR _bits$[ebp]
	shl	edx, cl
	add	edx, DWORD PTR _hold$[ebp]
	mov	DWORD PTR _hold$[ebp], edx
	mov	eax, DWORD PTR _next$[ebp]
	add	eax, 1
	mov	DWORD PTR _next$[ebp], eax
	mov	ecx, DWORD PTR _bits$[ebp]
	add	ecx, 8
	mov	DWORD PTR _bits$[ebp], ecx
	xor	edx, edx
	jne	SHORT $LN37@inflate
	jmp	SHORT $LN33@inflate
$LN30@inflate:
	xor	eax, eax
	jne	SHORT $LN33@inflate

; 711  :             state->flags = (int)(hold);

	mov	ecx, DWORD PTR _state$[ebp]
	mov	edx, DWORD PTR _hold$[ebp]
	mov	DWORD PTR [ecx+20], edx

; 712  :             if ((state->flags & 0xff) != Z_DEFLATED) {

	mov	eax, DWORD PTR _state$[ebp]
	mov	ecx, DWORD PTR [eax+20]
	and	ecx, 255				; 000000ffH
	cmp	ecx, 8
	je	SHORT $LN349@inflate

; 713  :                 strm->msg = (char *)"unknown compression method";

	mov	edx, DWORD PTR _strm$[ebp]
	mov	DWORD PTR [edx+24], OFFSET $SG44081

; 714  :                 state->mode = BAD;

	mov	eax, DWORD PTR _state$[ebp]
	mov	DWORD PTR [eax+4], 16209		; 00003f51H

; 715  :                 break;

	jmp	$LN8@inflate
$LN349@inflate:

; 716  :             }
; 717  :             if (state->flags & 0xe000) {

	mov	ecx, DWORD PTR _state$[ebp]
	mov	edx, DWORD PTR [ecx+20]
	and	edx, 57344				; 0000e000H
	je	SHORT $LN350@inflate

; 718  :                 strm->msg = (char *)"unknown header flags set";

	mov	eax, DWORD PTR _strm$[ebp]
	mov	DWORD PTR [eax+24], OFFSET $SG44083

; 719  :                 state->mode = BAD;

	mov	ecx, DWORD PTR _state$[ebp]
	mov	DWORD PTR [ecx+4], 16209		; 00003f51H

; 720  :                 break;

	jmp	$LN8@inflate
$LN350@inflate:

; 721  :             }
; 722  :             if (state->head != Z_NULL)

	mov	edx, DWORD PTR _state$[ebp]
	cmp	DWORD PTR [edx+36], 0
	je	SHORT $LN351@inflate

; 723  :                 state->head->text = (int)((hold >> 8) & 1);

	mov	eax, DWORD PTR _hold$[ebp]
	shr	eax, 8
	and	eax, 1
	mov	ecx, DWORD PTR _state$[ebp]
	mov	edx, DWORD PTR [ecx+36]
	mov	DWORD PTR [edx], eax
$LN351@inflate:

; 724  :             if ((state->flags & 0x0200) && (state->wrap & 4))

	mov	eax, DWORD PTR _state$[ebp]
	mov	ecx, DWORD PTR [eax+20]
	and	ecx, 512				; 00000200H
	je	SHORT $LN43@inflate
	mov	edx, DWORD PTR _state$[ebp]
	mov	eax, DWORD PTR [edx+12]
	and	eax, 4
	je	SHORT $LN43@inflate
$LN40@inflate:

; 725  :                 CRC2(state->check, hold);

	mov	ecx, 1
	imul	edx, ecx, 0
	mov	al, BYTE PTR _hold$[ebp]
	mov	BYTE PTR _hbuf$[ebp+edx], al
	mov	ecx, DWORD PTR _hold$[ebp]
	shr	ecx, 8
	mov	edx, 1
	shl	edx, 0
	mov	BYTE PTR _hbuf$[ebp+edx], cl
	push	2
	lea	eax, DWORD PTR _hbuf$[ebp]
	push	eax
	mov	ecx, DWORD PTR _state$[ebp]
	mov	edx, DWORD PTR [ecx+28]
	push	edx
	call	_crc32@12
	mov	ecx, DWORD PTR _state$[ebp]
	mov	DWORD PTR [ecx+28], eax
	xor	edx, edx
	jne	SHORT $LN40@inflate
$LN43@inflate:

; 726  :             INITBITS();

	mov	DWORD PTR _hold$[ebp], 0
	mov	DWORD PTR _bits$[ebp], 0
	xor	eax, eax
	jne	SHORT $LN43@inflate

; 727  :             state->mode = TIME;

	mov	ecx, DWORD PTR _state$[ebp]
	mov	DWORD PTR [ecx+4], 16182		; 00003f36H
$LN47@inflate:

; 728  :                 /* fallthrough */
; 729  :         case TIME:
; 730  :             NEEDBITS(32);

	cmp	DWORD PTR _bits$[ebp], 32		; 00000020H
	jae	SHORT $LN44@inflate
$LN51@inflate:
	cmp	DWORD PTR _have$[ebp], 0
	jne	SHORT $LN354@inflate
	jmp	$inf_leave$528
$LN354@inflate:
	mov	edx, DWORD PTR _have$[ebp]
	sub	edx, 1
	mov	DWORD PTR _have$[ebp], edx
	mov	eax, DWORD PTR _next$[ebp]
	movzx	edx, BYTE PTR [eax]
	mov	ecx, DWORD PTR _bits$[ebp]
	shl	edx, cl
	add	edx, DWORD PTR _hold$[ebp]
	mov	DWORD PTR _hold$[ebp], edx
	mov	eax, DWORD PTR _next$[ebp]
	add	eax, 1
	mov	DWORD PTR _next$[ebp], eax
	mov	ecx, DWORD PTR _bits$[ebp]
	add	ecx, 8
	mov	DWORD PTR _bits$[ebp], ecx
	xor	edx, edx
	jne	SHORT $LN51@inflate
	jmp	SHORT $LN47@inflate
$LN44@inflate:
	xor	eax, eax
	jne	SHORT $LN47@inflate

; 731  :             if (state->head != Z_NULL)

	mov	ecx, DWORD PTR _state$[ebp]
	cmp	DWORD PTR [ecx+36], 0
	je	SHORT $LN355@inflate

; 732  :                 state->head->time = hold;

	mov	edx, DWORD PTR _state$[ebp]
	mov	eax, DWORD PTR [edx+36]
	mov	ecx, DWORD PTR _hold$[ebp]
	mov	DWORD PTR [eax+4], ecx
$LN355@inflate:

; 733  :             if ((state->flags & 0x0200) && (state->wrap & 4))

	mov	edx, DWORD PTR _state$[ebp]
	mov	eax, DWORD PTR [edx+20]
	and	eax, 512				; 00000200H
	je	SHORT $LN57@inflate
	mov	ecx, DWORD PTR _state$[ebp]
	mov	edx, DWORD PTR [ecx+12]
	and	edx, 4
	je	SHORT $LN57@inflate
$LN54@inflate:

; 734  :                 CRC4(state->check, hold);

	mov	eax, 1
	imul	ecx, eax, 0
	mov	dl, BYTE PTR _hold$[ebp]
	mov	BYTE PTR _hbuf$[ebp+ecx], dl
	mov	eax, DWORD PTR _hold$[ebp]
	shr	eax, 8
	mov	ecx, 1
	shl	ecx, 0
	mov	BYTE PTR _hbuf$[ebp+ecx], al
	mov	edx, DWORD PTR _hold$[ebp]
	shr	edx, 16					; 00000010H
	mov	eax, 1
	shl	eax, 1
	mov	BYTE PTR _hbuf$[ebp+eax], dl
	mov	ecx, DWORD PTR _hold$[ebp]
	shr	ecx, 24					; 00000018H
	mov	edx, 1
	imul	eax, edx, 3
	mov	BYTE PTR _hbuf$[ebp+eax], cl
	push	4
	lea	ecx, DWORD PTR _hbuf$[ebp]
	push	ecx
	mov	edx, DWORD PTR _state$[ebp]
	mov	eax, DWORD PTR [edx+28]
	push	eax
	call	_crc32@12
	mov	ecx, DWORD PTR _state$[ebp]
	mov	DWORD PTR [ecx+28], eax
	xor	edx, edx
	jne	SHORT $LN54@inflate
$LN57@inflate:

; 735  :             INITBITS();

	mov	DWORD PTR _hold$[ebp], 0
	mov	DWORD PTR _bits$[ebp], 0
	xor	eax, eax
	jne	SHORT $LN57@inflate

; 736  :             state->mode = OS;

	mov	ecx, DWORD PTR _state$[ebp]
	mov	DWORD PTR [ecx+4], 16183		; 00003f37H
$LN61@inflate:

; 737  :                 /* fallthrough */
; 738  :         case OS:
; 739  :             NEEDBITS(16);

	cmp	DWORD PTR _bits$[ebp], 16		; 00000010H
	jae	SHORT $LN58@inflate
$LN65@inflate:
	cmp	DWORD PTR _have$[ebp], 0
	jne	SHORT $LN358@inflate
	jmp	$inf_leave$528
$LN358@inflate:
	mov	edx, DWORD PTR _have$[ebp]
	sub	edx, 1
	mov	DWORD PTR _have$[ebp], edx
	mov	eax, DWORD PTR _next$[ebp]
	movzx	edx, BYTE PTR [eax]
	mov	ecx, DWORD PTR _bits$[ebp]
	shl	edx, cl
	add	edx, DWORD PTR _hold$[ebp]
	mov	DWORD PTR _hold$[ebp], edx
	mov	eax, DWORD PTR _next$[ebp]
	add	eax, 1
	mov	DWORD PTR _next$[ebp], eax
	mov	ecx, DWORD PTR _bits$[ebp]
	add	ecx, 8
	mov	DWORD PTR _bits$[ebp], ecx
	xor	edx, edx
	jne	SHORT $LN65@inflate
	jmp	SHORT $LN61@inflate
$LN58@inflate:
	xor	eax, eax
	jne	SHORT $LN61@inflate

; 740  :             if (state->head != Z_NULL) {

	mov	ecx, DWORD PTR _state$[ebp]
	cmp	DWORD PTR [ecx+36], 0
	je	SHORT $LN359@inflate

; 741  :                 state->head->xflags = (int)(hold & 0xff);

	mov	edx, DWORD PTR _hold$[ebp]
	and	edx, 255				; 000000ffH
	mov	eax, DWORD PTR _state$[ebp]
	mov	ecx, DWORD PTR [eax+36]
	mov	DWORD PTR [ecx+8], edx

; 742  :                 state->head->os = (int)(hold >> 8);

	mov	edx, DWORD PTR _hold$[ebp]
	shr	edx, 8
	mov	eax, DWORD PTR _state$[ebp]
	mov	ecx, DWORD PTR [eax+36]
	mov	DWORD PTR [ecx+12], edx
$LN359@inflate:

; 743  :             }
; 744  :             if ((state->flags & 0x0200) && (state->wrap & 4))

	mov	edx, DWORD PTR _state$[ebp]
	mov	eax, DWORD PTR [edx+20]
	and	eax, 512				; 00000200H
	je	SHORT $LN71@inflate
	mov	ecx, DWORD PTR _state$[ebp]
	mov	edx, DWORD PTR [ecx+12]
	and	edx, 4
	je	SHORT $LN71@inflate
$LN68@inflate:

; 745  :                 CRC2(state->check, hold);

	mov	eax, 1
	imul	ecx, eax, 0
	mov	dl, BYTE PTR _hold$[ebp]
	mov	BYTE PTR _hbuf$[ebp+ecx], dl
	mov	eax, DWORD PTR _hold$[ebp]
	shr	eax, 8
	mov	ecx, 1
	shl	ecx, 0
	mov	BYTE PTR _hbuf$[ebp+ecx], al
	push	2
	lea	edx, DWORD PTR _hbuf$[ebp]
	push	edx
	mov	eax, DWORD PTR _state$[ebp]
	mov	ecx, DWORD PTR [eax+28]
	push	ecx
	call	_crc32@12
	mov	edx, DWORD PTR _state$[ebp]
	mov	DWORD PTR [edx+28], eax
	xor	eax, eax
	jne	SHORT $LN68@inflate
$LN71@inflate:

; 746  :             INITBITS();

	mov	DWORD PTR _hold$[ebp], 0
	mov	DWORD PTR _bits$[ebp], 0
	xor	ecx, ecx
	jne	SHORT $LN71@inflate

; 747  :             state->mode = EXLEN;

	mov	edx, DWORD PTR _state$[ebp]
	mov	DWORD PTR [edx+4], 16184		; 00003f38H
$LN361@inflate:

; 748  :                 /* fallthrough */
; 749  :         case EXLEN:
; 750  :             if (state->flags & 0x0400) {

	mov	eax, DWORD PTR _state$[ebp]
	mov	ecx, DWORD PTR [eax+20]
	and	ecx, 1024				; 00000400H
	je	$LN362@inflate
$LN75@inflate:

; 751  :                 NEEDBITS(16);

	cmp	DWORD PTR _bits$[ebp], 16		; 00000010H
	jae	SHORT $LN72@inflate
$LN79@inflate:
	cmp	DWORD PTR _have$[ebp], 0
	jne	SHORT $LN364@inflate
	jmp	$inf_leave$528
$LN364@inflate:
	mov	edx, DWORD PTR _have$[ebp]
	sub	edx, 1
	mov	DWORD PTR _have$[ebp], edx
	mov	eax, DWORD PTR _next$[ebp]
	movzx	edx, BYTE PTR [eax]
	mov	ecx, DWORD PTR _bits$[ebp]
	shl	edx, cl
	add	edx, DWORD PTR _hold$[ebp]
	mov	DWORD PTR _hold$[ebp], edx
	mov	eax, DWORD PTR _next$[ebp]
	add	eax, 1
	mov	DWORD PTR _next$[ebp], eax
	mov	ecx, DWORD PTR _bits$[ebp]
	add	ecx, 8
	mov	DWORD PTR _bits$[ebp], ecx
	xor	edx, edx
	jne	SHORT $LN79@inflate
	jmp	SHORT $LN75@inflate
$LN72@inflate:
	xor	eax, eax
	jne	SHORT $LN75@inflate

; 752  :                 state->length = (unsigned)(hold);

	mov	ecx, DWORD PTR _state$[ebp]
	mov	edx, DWORD PTR _hold$[ebp]
	mov	DWORD PTR [ecx+68], edx

; 753  :                 if (state->head != Z_NULL)

	mov	eax, DWORD PTR _state$[ebp]
	cmp	DWORD PTR [eax+36], 0
	je	SHORT $LN365@inflate

; 754  :                     state->head->extra_len = (unsigned)hold;

	mov	ecx, DWORD PTR _state$[ebp]
	mov	edx, DWORD PTR [ecx+36]
	mov	eax, DWORD PTR _hold$[ebp]
	mov	DWORD PTR [edx+20], eax
$LN365@inflate:

; 755  :                 if ((state->flags & 0x0200) && (state->wrap & 4))

	mov	ecx, DWORD PTR _state$[ebp]
	mov	edx, DWORD PTR [ecx+20]
	and	edx, 512				; 00000200H
	je	SHORT $LN85@inflate
	mov	eax, DWORD PTR _state$[ebp]
	mov	ecx, DWORD PTR [eax+12]
	and	ecx, 4
	je	SHORT $LN85@inflate
$LN82@inflate:

; 756  :                     CRC2(state->check, hold);

	mov	edx, 1
	imul	eax, edx, 0
	mov	cl, BYTE PTR _hold$[ebp]
	mov	BYTE PTR _hbuf$[ebp+eax], cl
	mov	edx, DWORD PTR _hold$[ebp]
	shr	edx, 8
	mov	eax, 1
	shl	eax, 0
	mov	BYTE PTR _hbuf$[ebp+eax], dl
	push	2
	lea	ecx, DWORD PTR _hbuf$[ebp]
	push	ecx
	mov	edx, DWORD PTR _state$[ebp]
	mov	eax, DWORD PTR [edx+28]
	push	eax
	call	_crc32@12
	mov	ecx, DWORD PTR _state$[ebp]
	mov	DWORD PTR [ecx+28], eax
	xor	edx, edx
	jne	SHORT $LN82@inflate
$LN85@inflate:

; 757  :                 INITBITS();

	mov	DWORD PTR _hold$[ebp], 0
	mov	DWORD PTR _bits$[ebp], 0
	xor	eax, eax
	jne	SHORT $LN85@inflate

; 758  :             }

	jmp	SHORT $LN363@inflate
$LN362@inflate:

; 759  :             else if (state->head != Z_NULL)

	mov	ecx, DWORD PTR _state$[ebp]
	cmp	DWORD PTR [ecx+36], 0
	je	SHORT $LN363@inflate

; 760  :                 state->head->extra = Z_NULL;

	mov	edx, DWORD PTR _state$[ebp]
	mov	eax, DWORD PTR [edx+36]
	mov	DWORD PTR [eax+16], 0
$LN363@inflate:

; 761  :             state->mode = EXTRA;

	mov	ecx, DWORD PTR _state$[ebp]
	mov	DWORD PTR [ecx+4], 16185		; 00003f39H
$LN368@inflate:

; 762  :                 /* fallthrough */
; 763  :         case EXTRA:
; 764  :             if (state->flags & 0x0400) {

	mov	edx, DWORD PTR _state$[ebp]
	mov	eax, DWORD PTR [edx+20]
	and	eax, 1024				; 00000400H
	je	$LN369@inflate

; 765  :                 copy = state->length;

	mov	ecx, DWORD PTR _state$[ebp]
	mov	edx, DWORD PTR [ecx+68]
	mov	DWORD PTR _copy$[ebp], edx

; 766  :                 if (copy > have) copy = have;

	mov	eax, DWORD PTR _copy$[ebp]
	cmp	eax, DWORD PTR _have$[ebp]
	jbe	SHORT $LN370@inflate
	mov	ecx, DWORD PTR _have$[ebp]
	mov	DWORD PTR _copy$[ebp], ecx
$LN370@inflate:

; 767  :                 if (copy) {

	cmp	DWORD PTR _copy$[ebp], 0
	je	$LN371@inflate

; 768  :                     if (state->head != Z_NULL &&
; 769  :                         state->head->extra != Z_NULL &&

	mov	edx, DWORD PTR _state$[ebp]
	cmp	DWORD PTR [edx+36], 0
	je	SHORT $LN372@inflate
	mov	eax, DWORD PTR _state$[ebp]
	mov	ecx, DWORD PTR [eax+36]
	cmp	DWORD PTR [ecx+16], 0
	je	SHORT $LN372@inflate
	mov	edx, DWORD PTR _state$[ebp]
	mov	eax, DWORD PTR [edx+36]
	mov	ecx, DWORD PTR _state$[ebp]
	mov	edx, DWORD PTR [eax+20]
	sub	edx, DWORD PTR [ecx+68]
	mov	DWORD PTR _len$[ebp], edx
	mov	eax, DWORD PTR _state$[ebp]
	mov	ecx, DWORD PTR [eax+36]
	mov	edx, DWORD PTR _len$[ebp]
	cmp	edx, DWORD PTR [ecx+24]
	jae	SHORT $LN372@inflate

; 770  :                         (len = state->head->extra_len - state->length) <
; 771  :                             state->head->extra_max) {
; 772  :                         zmemcpy(state->head->extra + len, next,

	mov	eax, DWORD PTR _len$[ebp]
	add	eax, DWORD PTR _copy$[ebp]
	mov	ecx, DWORD PTR _state$[ebp]
	mov	edx, DWORD PTR [ecx+36]
	cmp	eax, DWORD PTR [edx+24]
	jbe	SHORT $LN512@inflate
	mov	eax, DWORD PTR _state$[ebp]
	mov	ecx, DWORD PTR [eax+36]
	mov	edx, DWORD PTR [ecx+24]
	sub	edx, DWORD PTR _len$[ebp]
	mov	DWORD PTR tv403[ebp], edx
	jmp	SHORT $LN513@inflate
$LN512@inflate:
	mov	eax, DWORD PTR _copy$[ebp]
	mov	DWORD PTR tv403[ebp], eax
$LN513@inflate:
	mov	ecx, DWORD PTR tv403[ebp]
	push	ecx
	mov	edx, DWORD PTR _next$[ebp]
	push	edx
	mov	eax, DWORD PTR _state$[ebp]
	mov	ecx, DWORD PTR [eax+36]
	mov	edx, DWORD PTR [ecx+16]
	add	edx, DWORD PTR _len$[ebp]
	push	edx
	call	_memcpy
	add	esp, 12					; 0000000cH
$LN372@inflate:

; 773  :                                 len + copy > state->head->extra_max ?
; 774  :                                 state->head->extra_max - len : copy);
; 775  :                     }
; 776  :                     if ((state->flags & 0x0200) && (state->wrap & 4))

	mov	eax, DWORD PTR _state$[ebp]
	mov	ecx, DWORD PTR [eax+20]
	and	ecx, 512				; 00000200H
	je	SHORT $LN373@inflate
	mov	edx, DWORD PTR _state$[ebp]
	mov	eax, DWORD PTR [edx+12]
	and	eax, 4
	je	SHORT $LN373@inflate

; 777  :                         state->check = crc32(state->check, next, copy);

	mov	ecx, DWORD PTR _copy$[ebp]
	push	ecx
	mov	edx, DWORD PTR _next$[ebp]
	push	edx
	mov	eax, DWORD PTR _state$[ebp]
	mov	ecx, DWORD PTR [eax+28]
	push	ecx
	call	_crc32@12
	mov	edx, DWORD PTR _state$[ebp]
	mov	DWORD PTR [edx+28], eax
$LN373@inflate:

; 778  :                     have -= copy;

	mov	eax, DWORD PTR _have$[ebp]
	sub	eax, DWORD PTR _copy$[ebp]
	mov	DWORD PTR _have$[ebp], eax

; 779  :                     next += copy;

	mov	ecx, DWORD PTR _next$[ebp]
	add	ecx, DWORD PTR _copy$[ebp]
	mov	DWORD PTR _next$[ebp], ecx

; 780  :                     state->length -= copy;

	mov	edx, DWORD PTR _state$[ebp]
	mov	eax, DWORD PTR [edx+68]
	sub	eax, DWORD PTR _copy$[ebp]
	mov	ecx, DWORD PTR _state$[ebp]
	mov	DWORD PTR [ecx+68], eax
$LN371@inflate:

; 781  :                 }
; 782  :                 if (state->length) goto inf_leave;

	mov	edx, DWORD PTR _state$[ebp]
	cmp	DWORD PTR [edx+68], 0
	je	SHORT $LN369@inflate
	jmp	$inf_leave$528
$LN369@inflate:

; 783  :             }
; 784  :             state->length = 0;

	mov	eax, DWORD PTR _state$[ebp]
	mov	DWORD PTR [eax+68], 0

; 785  :             state->mode = NAME;

	mov	ecx, DWORD PTR _state$[ebp]
	mov	DWORD PTR [ecx+4], 16186		; 00003f3aH
$LN375@inflate:

; 786  :                 /* fallthrough */
; 787  :         case NAME:
; 788  :             if (state->flags & 0x0800) {

	mov	edx, DWORD PTR _state$[ebp]
	mov	eax, DWORD PTR [edx+20]
	and	eax, 2048				; 00000800H
	je	$LN376@inflate

; 789  :                 if (have == 0) goto inf_leave;

	cmp	DWORD PTR _have$[ebp], 0
	jne	SHORT $LN378@inflate
	jmp	$inf_leave$528
$LN378@inflate:

; 790  :                 copy = 0;

	mov	DWORD PTR _copy$[ebp], 0
$LN88@inflate:

; 791  :                 do {
; 792  :                     len = (unsigned)(next[copy++]);

	mov	ecx, DWORD PTR _next$[ebp]
	add	ecx, DWORD PTR _copy$[ebp]
	movzx	edx, BYTE PTR [ecx]
	mov	DWORD PTR _len$[ebp], edx
	mov	eax, DWORD PTR _copy$[ebp]
	add	eax, 1
	mov	DWORD PTR _copy$[ebp], eax

; 793  :                     if (state->head != Z_NULL &&
; 794  :                             state->head->name != Z_NULL &&

	mov	ecx, DWORD PTR _state$[ebp]
	cmp	DWORD PTR [ecx+36], 0
	je	SHORT $LN86@inflate
	mov	edx, DWORD PTR _state$[ebp]
	mov	eax, DWORD PTR [edx+36]
	cmp	DWORD PTR [eax+28], 0
	je	SHORT $LN86@inflate
	mov	ecx, DWORD PTR _state$[ebp]
	mov	edx, DWORD PTR [ecx+36]
	mov	eax, DWORD PTR _state$[ebp]
	mov	ecx, DWORD PTR [eax+68]
	cmp	ecx, DWORD PTR [edx+32]
	jae	SHORT $LN86@inflate

; 795  :                             state->length < state->head->name_max)
; 796  :                         state->head->name[state->length++] = (Bytef)len;

	mov	edx, DWORD PTR _state$[ebp]
	mov	eax, DWORD PTR [edx+36]
	mov	ecx, DWORD PTR _state$[ebp]
	mov	edx, DWORD PTR [ecx+68]
	mov	eax, DWORD PTR [eax+28]
	mov	cl, BYTE PTR _len$[ebp]
	mov	BYTE PTR [eax+edx], cl
	mov	edx, DWORD PTR _state$[ebp]
	mov	eax, DWORD PTR [edx+68]
	add	eax, 1
	mov	ecx, DWORD PTR _state$[ebp]
	mov	DWORD PTR [ecx+68], eax
$LN86@inflate:

; 797  :                 } while (len && copy < have);

	cmp	DWORD PTR _len$[ebp], 0
	je	SHORT $LN87@inflate
	mov	edx, DWORD PTR _copy$[ebp]
	cmp	edx, DWORD PTR _have$[ebp]
	jb	SHORT $LN88@inflate
$LN87@inflate:

; 798  :                 if ((state->flags & 0x0200) && (state->wrap & 4))

	mov	eax, DWORD PTR _state$[ebp]
	mov	ecx, DWORD PTR [eax+20]
	and	ecx, 512				; 00000200H
	je	SHORT $LN381@inflate
	mov	edx, DWORD PTR _state$[ebp]
	mov	eax, DWORD PTR [edx+12]
	and	eax, 4
	je	SHORT $LN381@inflate

; 799  :                     state->check = crc32(state->check, next, copy);

	mov	ecx, DWORD PTR _copy$[ebp]
	push	ecx
	mov	edx, DWORD PTR _next$[ebp]
	push	edx
	mov	eax, DWORD PTR _state$[ebp]
	mov	ecx, DWORD PTR [eax+28]
	push	ecx
	call	_crc32@12
	mov	edx, DWORD PTR _state$[ebp]
	mov	DWORD PTR [edx+28], eax
$LN381@inflate:

; 800  :                 have -= copy;

	mov	eax, DWORD PTR _have$[ebp]
	sub	eax, DWORD PTR _copy$[ebp]
	mov	DWORD PTR _have$[ebp], eax

; 801  :                 next += copy;

	mov	ecx, DWORD PTR _next$[ebp]
	add	ecx, DWORD PTR _copy$[ebp]
	mov	DWORD PTR _next$[ebp], ecx

; 802  :                 if (len) goto inf_leave;

	cmp	DWORD PTR _len$[ebp], 0
	je	SHORT $LN382@inflate
	jmp	$inf_leave$528
$LN382@inflate:

; 803  :             }

	jmp	SHORT $LN377@inflate
$LN376@inflate:

; 804  :             else if (state->head != Z_NULL)

	mov	edx, DWORD PTR _state$[ebp]
	cmp	DWORD PTR [edx+36], 0
	je	SHORT $LN377@inflate

; 805  :                 state->head->name = Z_NULL;

	mov	eax, DWORD PTR _state$[ebp]
	mov	ecx, DWORD PTR [eax+36]
	mov	DWORD PTR [ecx+28], 0
$LN377@inflate:

; 806  :             state->length = 0;

	mov	edx, DWORD PTR _state$[ebp]
	mov	DWORD PTR [edx+68], 0

; 807  :             state->mode = COMMENT;

	mov	eax, DWORD PTR _state$[ebp]
	mov	DWORD PTR [eax+4], 16187		; 00003f3bH
$LN384@inflate:

; 808  :                 /* fallthrough */
; 809  :         case COMMENT:
; 810  :             if (state->flags & 0x1000) {

	mov	ecx, DWORD PTR _state$[ebp]
	mov	edx, DWORD PTR [ecx+20]
	and	edx, 4096				; 00001000H
	je	$LN385@inflate

; 811  :                 if (have == 0) goto inf_leave;

	cmp	DWORD PTR _have$[ebp], 0
	jne	SHORT $LN387@inflate
	jmp	$inf_leave$528
$LN387@inflate:

; 812  :                 copy = 0;

	mov	DWORD PTR _copy$[ebp], 0
$LN91@inflate:

; 813  :                 do {
; 814  :                     len = (unsigned)(next[copy++]);

	mov	eax, DWORD PTR _next$[ebp]
	add	eax, DWORD PTR _copy$[ebp]
	movzx	ecx, BYTE PTR [eax]
	mov	DWORD PTR _len$[ebp], ecx
	mov	edx, DWORD PTR _copy$[ebp]
	add	edx, 1
	mov	DWORD PTR _copy$[ebp], edx

; 815  :                     if (state->head != Z_NULL &&
; 816  :                             state->head->comment != Z_NULL &&

	mov	eax, DWORD PTR _state$[ebp]
	cmp	DWORD PTR [eax+36], 0
	je	SHORT $LN89@inflate
	mov	ecx, DWORD PTR _state$[ebp]
	mov	edx, DWORD PTR [ecx+36]
	cmp	DWORD PTR [edx+36], 0
	je	SHORT $LN89@inflate
	mov	eax, DWORD PTR _state$[ebp]
	mov	ecx, DWORD PTR [eax+36]
	mov	edx, DWORD PTR _state$[ebp]
	mov	eax, DWORD PTR [edx+68]
	cmp	eax, DWORD PTR [ecx+40]
	jae	SHORT $LN89@inflate

; 817  :                             state->length < state->head->comm_max)
; 818  :                         state->head->comment[state->length++] = (Bytef)len;

	mov	ecx, DWORD PTR _state$[ebp]
	mov	edx, DWORD PTR [ecx+36]
	mov	eax, DWORD PTR _state$[ebp]
	mov	ecx, DWORD PTR [eax+68]
	mov	edx, DWORD PTR [edx+36]
	mov	al, BYTE PTR _len$[ebp]
	mov	BYTE PTR [edx+ecx], al
	mov	ecx, DWORD PTR _state$[ebp]
	mov	edx, DWORD PTR [ecx+68]
	add	edx, 1
	mov	eax, DWORD PTR _state$[ebp]
	mov	DWORD PTR [eax+68], edx
$LN89@inflate:

; 819  :                 } while (len && copy < have);

	cmp	DWORD PTR _len$[ebp], 0
	je	SHORT $LN90@inflate
	mov	ecx, DWORD PTR _copy$[ebp]
	cmp	ecx, DWORD PTR _have$[ebp]
	jb	SHORT $LN91@inflate
$LN90@inflate:

; 820  :                 if ((state->flags & 0x0200) && (state->wrap & 4))

	mov	edx, DWORD PTR _state$[ebp]
	mov	eax, DWORD PTR [edx+20]
	and	eax, 512				; 00000200H
	je	SHORT $LN390@inflate
	mov	ecx, DWORD PTR _state$[ebp]
	mov	edx, DWORD PTR [ecx+12]
	and	edx, 4
	je	SHORT $LN390@inflate

; 821  :                     state->check = crc32(state->check, next, copy);

	mov	eax, DWORD PTR _copy$[ebp]
	push	eax
	mov	ecx, DWORD PTR _next$[ebp]
	push	ecx
	mov	edx, DWORD PTR _state$[ebp]
	mov	eax, DWORD PTR [edx+28]
	push	eax
	call	_crc32@12
	mov	ecx, DWORD PTR _state$[ebp]
	mov	DWORD PTR [ecx+28], eax
$LN390@inflate:

; 822  :                 have -= copy;

	mov	edx, DWORD PTR _have$[ebp]
	sub	edx, DWORD PTR _copy$[ebp]
	mov	DWORD PTR _have$[ebp], edx

; 823  :                 next += copy;

	mov	eax, DWORD PTR _next$[ebp]
	add	eax, DWORD PTR _copy$[ebp]
	mov	DWORD PTR _next$[ebp], eax

; 824  :                 if (len) goto inf_leave;

	cmp	DWORD PTR _len$[ebp], 0
	je	SHORT $LN391@inflate
	jmp	$inf_leave$528
$LN391@inflate:

; 825  :             }

	jmp	SHORT $LN386@inflate
$LN385@inflate:

; 826  :             else if (state->head != Z_NULL)

	mov	ecx, DWORD PTR _state$[ebp]
	cmp	DWORD PTR [ecx+36], 0
	je	SHORT $LN386@inflate

; 827  :                 state->head->comment = Z_NULL;

	mov	edx, DWORD PTR _state$[ebp]
	mov	eax, DWORD PTR [edx+36]
	mov	DWORD PTR [eax+36], 0
$LN386@inflate:

; 828  :             state->mode = HCRC;

	mov	ecx, DWORD PTR _state$[ebp]
	mov	DWORD PTR [ecx+4], 16188		; 00003f3cH
$LN393@inflate:

; 829  :                 /* fallthrough */
; 830  :         case HCRC:
; 831  :             if (state->flags & 0x0200) {

	mov	edx, DWORD PTR _state$[ebp]
	mov	eax, DWORD PTR [edx+20]
	and	eax, 512				; 00000200H
	je	$LN394@inflate
$LN95@inflate:

; 832  :                 NEEDBITS(16);

	cmp	DWORD PTR _bits$[ebp], 16		; 00000010H
	jae	SHORT $LN92@inflate
$LN99@inflate:
	cmp	DWORD PTR _have$[ebp], 0
	jne	SHORT $LN395@inflate
	jmp	$inf_leave$528
$LN395@inflate:
	mov	ecx, DWORD PTR _have$[ebp]
	sub	ecx, 1
	mov	DWORD PTR _have$[ebp], ecx
	mov	edx, DWORD PTR _next$[ebp]
	movzx	eax, BYTE PTR [edx]
	mov	ecx, DWORD PTR _bits$[ebp]
	shl	eax, cl
	add	eax, DWORD PTR _hold$[ebp]
	mov	DWORD PTR _hold$[ebp], eax
	mov	ecx, DWORD PTR _next$[ebp]
	add	ecx, 1
	mov	DWORD PTR _next$[ebp], ecx
	mov	edx, DWORD PTR _bits$[ebp]
	add	edx, 8
	mov	DWORD PTR _bits$[ebp], edx
	xor	eax, eax
	jne	SHORT $LN99@inflate
	jmp	SHORT $LN95@inflate
$LN92@inflate:
	xor	ecx, ecx
	jne	SHORT $LN95@inflate

; 833  :                 if ((state->wrap & 4) && hold != (state->check & 0xffff)) {

	mov	edx, DWORD PTR _state$[ebp]
	mov	eax, DWORD PTR [edx+12]
	and	eax, 4
	je	SHORT $LN102@inflate
	mov	ecx, DWORD PTR _state$[ebp]
	mov	edx, DWORD PTR [ecx+28]
	and	edx, 65535				; 0000ffffH
	cmp	DWORD PTR _hold$[ebp], edx
	je	SHORT $LN102@inflate

; 834  :                     strm->msg = (char *)"header crc mismatch";

	mov	eax, DWORD PTR _strm$[ebp]
	mov	DWORD PTR [eax+24], OFFSET $SG44130

; 835  :                     state->mode = BAD;

	mov	ecx, DWORD PTR _state$[ebp]
	mov	DWORD PTR [ecx+4], 16209		; 00003f51H

; 836  :                     break;

	jmp	$LN8@inflate
$LN102@inflate:

; 837  :                 }
; 838  :                 INITBITS();

	mov	DWORD PTR _hold$[ebp], 0
	mov	DWORD PTR _bits$[ebp], 0
	xor	edx, edx
	jne	SHORT $LN102@inflate
$LN394@inflate:

; 839  :             }
; 840  :             if (state->head != Z_NULL) {

	mov	eax, DWORD PTR _state$[ebp]
	cmp	DWORD PTR [eax+36], 0
	je	SHORT $LN397@inflate

; 841  :                 state->head->hcrc = (int)((state->flags >> 9) & 1);

	mov	ecx, DWORD PTR _state$[ebp]
	mov	edx, DWORD PTR [ecx+20]
	sar	edx, 9
	and	edx, 1
	mov	eax, DWORD PTR _state$[ebp]
	mov	ecx, DWORD PTR [eax+36]
	mov	DWORD PTR [ecx+44], edx

; 842  :                 state->head->done = 1;

	mov	edx, DWORD PTR _state$[ebp]
	mov	eax, DWORD PTR [edx+36]
	mov	DWORD PTR [eax+48], 1
$LN397@inflate:

; 843  :             }
; 844  :             strm->adler = state->check = crc32(0L, Z_NULL, 0);

	push	0
	push	0
	push	0
	call	_crc32@12
	mov	DWORD PTR tv558[ebp], eax
	mov	ecx, DWORD PTR _state$[ebp]
	mov	edx, DWORD PTR tv558[ebp]
	mov	DWORD PTR [ecx+28], edx
	mov	eax, DWORD PTR _strm$[ebp]
	mov	ecx, DWORD PTR tv558[ebp]
	mov	DWORD PTR [eax+48], ecx

; 845  :             state->mode = TYPE;

	mov	edx, DWORD PTR _state$[ebp]
	mov	DWORD PTR [edx+4], 16191		; 00003f3fH

; 846  :             break;

	jmp	$LN8@inflate
$LN106@inflate:

; 847  : #endif
; 848  :         case DICTID:
; 849  :             NEEDBITS(32);

	cmp	DWORD PTR _bits$[ebp], 32		; 00000020H
	jae	SHORT $LN103@inflate
$LN110@inflate:
	cmp	DWORD PTR _have$[ebp], 0
	jne	SHORT $LN399@inflate
	jmp	$inf_leave$528
$LN399@inflate:
	mov	eax, DWORD PTR _have$[ebp]
	sub	eax, 1
	mov	DWORD PTR _have$[ebp], eax
	mov	ecx, DWORD PTR _next$[ebp]
	movzx	edx, BYTE PTR [ecx]
	mov	ecx, DWORD PTR _bits$[ebp]
	shl	edx, cl
	add	edx, DWORD PTR _hold$[ebp]
	mov	DWORD PTR _hold$[ebp], edx
	mov	eax, DWORD PTR _next$[ebp]
	add	eax, 1
	mov	DWORD PTR _next$[ebp], eax
	mov	ecx, DWORD PTR _bits$[ebp]
	add	ecx, 8
	mov	DWORD PTR _bits$[ebp], ecx
	xor	edx, edx
	jne	SHORT $LN110@inflate
	jmp	SHORT $LN106@inflate
$LN103@inflate:
	xor	eax, eax
	jne	SHORT $LN106@inflate

; 850  :             strm->adler = state->check = ZSWAP32(hold);

	mov	ecx, DWORD PTR _hold$[ebp]
	shr	ecx, 24					; 00000018H
	and	ecx, 255				; 000000ffH
	mov	edx, DWORD PTR _hold$[ebp]
	shr	edx, 8
	and	edx, 65280				; 0000ff00H
	add	ecx, edx
	mov	eax, DWORD PTR _hold$[ebp]
	and	eax, 65280				; 0000ff00H
	shl	eax, 8
	add	ecx, eax
	mov	edx, DWORD PTR _hold$[ebp]
	and	edx, 255				; 000000ffH
	shl	edx, 24					; 00000018H
	add	ecx, edx
	mov	DWORD PTR tv585[ebp], ecx
	mov	eax, DWORD PTR _state$[ebp]
	mov	ecx, DWORD PTR tv585[ebp]
	mov	DWORD PTR [eax+28], ecx
	mov	edx, DWORD PTR _strm$[ebp]
	mov	eax, DWORD PTR tv585[ebp]
	mov	DWORD PTR [edx+48], eax
$LN113@inflate:

; 851  :             INITBITS();

	mov	DWORD PTR _hold$[ebp], 0
	mov	DWORD PTR _bits$[ebp], 0
	xor	ecx, ecx
	jne	SHORT $LN113@inflate

; 852  :             state->mode = DICT;

	mov	edx, DWORD PTR _state$[ebp]
	mov	DWORD PTR [edx+4], 16190		; 00003f3eH
$LN400@inflate:

; 853  :                 /* fallthrough */
; 854  :         case DICT:
; 855  :             if (state->havedict == 0) {

	mov	eax, DWORD PTR _state$[ebp]
	cmp	DWORD PTR [eax+16], 0
	jne	SHORT $LN401@inflate
$LN116@inflate:

; 856  :                 RESTORE();

	mov	ecx, DWORD PTR _strm$[ebp]
	mov	edx, DWORD PTR _put$[ebp]
	mov	DWORD PTR [ecx+12], edx
	mov	eax, DWORD PTR _strm$[ebp]
	mov	ecx, DWORD PTR _left$[ebp]
	mov	DWORD PTR [eax+16], ecx
	mov	edx, DWORD PTR _strm$[ebp]
	mov	eax, DWORD PTR _next$[ebp]
	mov	DWORD PTR [edx], eax
	mov	ecx, DWORD PTR _strm$[ebp]
	mov	edx, DWORD PTR _have$[ebp]
	mov	DWORD PTR [ecx+4], edx
	mov	eax, DWORD PTR _state$[ebp]
	mov	ecx, DWORD PTR _hold$[ebp]
	mov	DWORD PTR [eax+60], ecx
	mov	edx, DWORD PTR _state$[ebp]
	mov	eax, DWORD PTR _bits$[ebp]
	mov	DWORD PTR [edx+64], eax
	xor	ecx, ecx
	jne	SHORT $LN116@inflate

; 857  :                 return Z_NEED_DICT;

	mov	eax, 2
	jmp	$LN1@inflate
$LN401@inflate:

; 858  :             }
; 859  :             strm->adler = state->check = adler32(0L, Z_NULL, 0);

	push	0
	push	0
	push	0
	call	_adler32@12
	mov	DWORD PTR tv599[ebp], eax
	mov	edx, DWORD PTR _state$[ebp]
	mov	eax, DWORD PTR tv599[ebp]
	mov	DWORD PTR [edx+28], eax
	mov	ecx, DWORD PTR _strm$[ebp]
	mov	edx, DWORD PTR tv599[ebp]
	mov	DWORD PTR [ecx+48], edx

; 860  :             state->mode = TYPE;

	mov	eax, DWORD PTR _state$[ebp]
	mov	DWORD PTR [eax+4], 16191		; 00003f3fH
$LN402@inflate:

; 861  :                 /* fallthrough */
; 862  :         case TYPE:
; 863  :             if (flush == Z_BLOCK || flush == Z_TREES) goto inf_leave;

	cmp	DWORD PTR _flush$[ebp], 5
	je	SHORT $LN404@inflate
	cmp	DWORD PTR _flush$[ebp], 6
	jne	SHORT $LN405@inflate
$LN404@inflate:
	jmp	$inf_leave$528
$LN405@inflate:

; 864  :                 /* fallthrough */
; 865  :         case TYPEDO:
; 866  :             if (state->last) {

	mov	ecx, DWORD PTR _state$[ebp]
	cmp	DWORD PTR [ecx+8], 0
	je	SHORT $LN123@inflate
$LN119@inflate:

; 867  :                 BYTEBITS();

	mov	ecx, DWORD PTR _bits$[ebp]
	and	ecx, 7
	mov	edx, DWORD PTR _hold$[ebp]
	shr	edx, cl
	mov	DWORD PTR _hold$[ebp], edx
	mov	eax, DWORD PTR _bits$[ebp]
	and	eax, 7
	mov	ecx, DWORD PTR _bits$[ebp]
	sub	ecx, eax
	mov	DWORD PTR _bits$[ebp], ecx
	xor	edx, edx
	jne	SHORT $LN119@inflate

; 868  :                 state->mode = CHECK;

	mov	eax, DWORD PTR _state$[ebp]
	mov	DWORD PTR [eax+4], 16206		; 00003f4eH

; 869  :                 break;

	jmp	$LN8@inflate
$LN123@inflate:

; 870  :             }
; 871  :             NEEDBITS(3);

	cmp	DWORD PTR _bits$[ebp], 3
	jae	SHORT $LN120@inflate
$LN127@inflate:
	cmp	DWORD PTR _have$[ebp], 0
	jne	SHORT $LN407@inflate
	jmp	$inf_leave$528
$LN407@inflate:
	mov	ecx, DWORD PTR _have$[ebp]
	sub	ecx, 1
	mov	DWORD PTR _have$[ebp], ecx
	mov	edx, DWORD PTR _next$[ebp]
	movzx	eax, BYTE PTR [edx]
	mov	ecx, DWORD PTR _bits$[ebp]
	shl	eax, cl
	add	eax, DWORD PTR _hold$[ebp]
	mov	DWORD PTR _hold$[ebp], eax
	mov	ecx, DWORD PTR _next$[ebp]
	add	ecx, 1
	mov	DWORD PTR _next$[ebp], ecx
	mov	edx, DWORD PTR _bits$[ebp]
	add	edx, 8
	mov	DWORD PTR _bits$[ebp], edx
	xor	eax, eax
	jne	SHORT $LN127@inflate
	jmp	SHORT $LN123@inflate
$LN120@inflate:
	xor	ecx, ecx
	jne	SHORT $LN123@inflate

; 872  :             state->last = BITS(1);

	mov	edx, DWORD PTR _hold$[ebp]
	and	edx, 1
	mov	eax, DWORD PTR _state$[ebp]
	mov	DWORD PTR [eax+8], edx
$LN130@inflate:

; 873  :             DROPBITS(1);

	mov	ecx, DWORD PTR _hold$[ebp]
	shr	ecx, 1
	mov	DWORD PTR _hold$[ebp], ecx
	mov	edx, DWORD PTR _bits$[ebp]
	sub	edx, 1
	mov	DWORD PTR _bits$[ebp], edx
	xor	eax, eax
	jne	SHORT $LN130@inflate

; 874  :             switch (BITS(2)) {

	mov	ecx, DWORD PTR _hold$[ebp]
	and	ecx, 3
	mov	DWORD PTR tv630[ebp], ecx
	cmp	DWORD PTR tv630[ebp], 3
	ja	SHORT $LN138@inflate
	mov	edx, DWORD PTR tv630[ebp]
	jmp	DWORD PTR $LN527@inflate[edx*4]
$LN408@inflate:

; 875  :             case 0:                             /* stored block */
; 876  :                 Tracev((stderr, "inflate:     stored block%s\n",
; 877  :                         state->last ? " (last)" : ""));
; 878  :                 state->mode = STORED;

	mov	eax, DWORD PTR _state$[ebp]
	mov	DWORD PTR [eax+4], 16193		; 00003f41H

; 879  :                 break;

	jmp	SHORT $LN138@inflate
$LN409@inflate:

; 880  :             case 1:                             /* fixed block */
; 881  :                 fixedtables(state);

	mov	ecx, DWORD PTR _state$[ebp]
	push	ecx
	call	_fixedtables
	add	esp, 4

; 882  :                 Tracev((stderr, "inflate:     fixed codes block%s\n",
; 883  :                         state->last ? " (last)" : ""));
; 884  :                 state->mode = LEN_;             /* decode codes */

	mov	edx, DWORD PTR _state$[ebp]
	mov	DWORD PTR [edx+4], 16199		; 00003f47H

; 885  :                 if (flush == Z_TREES) {

	cmp	DWORD PTR _flush$[ebp], 6
	jne	SHORT $LN410@inflate
$LN135@inflate:

; 886  :                     DROPBITS(2);

	mov	eax, DWORD PTR _hold$[ebp]
	shr	eax, 2
	mov	DWORD PTR _hold$[ebp], eax
	mov	ecx, DWORD PTR _bits$[ebp]
	sub	ecx, 2
	mov	DWORD PTR _bits$[ebp], ecx
	xor	edx, edx
	jne	SHORT $LN135@inflate

; 887  :                     goto inf_leave;

	jmp	$inf_leave$528
$LN410@inflate:

; 888  :                 }
; 889  :                 break;

	jmp	SHORT $LN138@inflate
$LN411@inflate:

; 890  :             case 2:                             /* dynamic block */
; 891  :                 Tracev((stderr, "inflate:     dynamic codes block%s\n",
; 892  :                         state->last ? " (last)" : ""));
; 893  :                 state->mode = TABLE;

	mov	eax, DWORD PTR _state$[ebp]
	mov	DWORD PTR [eax+4], 16196		; 00003f44H

; 894  :                 break;

	jmp	SHORT $LN138@inflate
$LN412@inflate:

; 895  :             case 3:
; 896  :                 strm->msg = (char *)"invalid block type";

	mov	ecx, DWORD PTR _strm$[ebp]
	mov	DWORD PTR [ecx+24], OFFSET $SG44147

; 897  :                 state->mode = BAD;

	mov	edx, DWORD PTR _state$[ebp]
	mov	DWORD PTR [edx+4], 16209		; 00003f51H
$LN138@inflate:

; 898  :             }
; 899  :             DROPBITS(2);

	mov	eax, DWORD PTR _hold$[ebp]
	shr	eax, 2
	mov	DWORD PTR _hold$[ebp], eax
	mov	ecx, DWORD PTR _bits$[ebp]
	sub	ecx, 2
	mov	DWORD PTR _bits$[ebp], ecx
	xor	edx, edx
	jne	SHORT $LN138@inflate

; 900  :             break;

	jmp	$LN8@inflate
$LN141@inflate:

; 901  :         case STORED:
; 902  :             BYTEBITS();                         /* go to byte boundary */

	mov	ecx, DWORD PTR _bits$[ebp]
	and	ecx, 7
	mov	eax, DWORD PTR _hold$[ebp]
	shr	eax, cl
	mov	DWORD PTR _hold$[ebp], eax
	mov	ecx, DWORD PTR _bits$[ebp]
	and	ecx, 7
	mov	edx, DWORD PTR _bits$[ebp]
	sub	edx, ecx
	mov	DWORD PTR _bits$[ebp], edx
	xor	eax, eax
	jne	SHORT $LN141@inflate
$LN145@inflate:

; 903  :             NEEDBITS(32);

	cmp	DWORD PTR _bits$[ebp], 32		; 00000020H
	jae	SHORT $LN142@inflate
$LN149@inflate:
	cmp	DWORD PTR _have$[ebp], 0
	jne	SHORT $LN414@inflate
	jmp	$inf_leave$528
$LN414@inflate:
	mov	ecx, DWORD PTR _have$[ebp]
	sub	ecx, 1
	mov	DWORD PTR _have$[ebp], ecx
	mov	edx, DWORD PTR _next$[ebp]
	movzx	eax, BYTE PTR [edx]
	mov	ecx, DWORD PTR _bits$[ebp]
	shl	eax, cl
	add	eax, DWORD PTR _hold$[ebp]
	mov	DWORD PTR _hold$[ebp], eax
	mov	ecx, DWORD PTR _next$[ebp]
	add	ecx, 1
	mov	DWORD PTR _next$[ebp], ecx
	mov	edx, DWORD PTR _bits$[ebp]
	add	edx, 8
	mov	DWORD PTR _bits$[ebp], edx
	xor	eax, eax
	jne	SHORT $LN149@inflate
	jmp	SHORT $LN145@inflate
$LN142@inflate:
	xor	ecx, ecx
	jne	SHORT $LN145@inflate

; 904  :             if ((hold & 0xffff) != ((hold >> 16) ^ 0xffff)) {

	mov	edx, DWORD PTR _hold$[ebp]
	and	edx, 65535				; 0000ffffH
	mov	eax, DWORD PTR _hold$[ebp]
	shr	eax, 16					; 00000010H
	xor	eax, 65535				; 0000ffffH
	cmp	edx, eax
	je	SHORT $LN415@inflate

; 905  :                 strm->msg = (char *)"invalid stored block lengths";

	mov	ecx, DWORD PTR _strm$[ebp]
	mov	DWORD PTR [ecx+24], OFFSET $SG44151

; 906  :                 state->mode = BAD;

	mov	edx, DWORD PTR _state$[ebp]
	mov	DWORD PTR [edx+4], 16209		; 00003f51H

; 907  :                 break;

	jmp	$LN8@inflate
$LN415@inflate:

; 908  :             }
; 909  :             state->length = (unsigned)hold & 0xffff;

	mov	eax, DWORD PTR _hold$[ebp]
	and	eax, 65535				; 0000ffffH
	mov	ecx, DWORD PTR _state$[ebp]
	mov	DWORD PTR [ecx+68], eax
$LN152@inflate:

; 910  :             Tracev((stderr, "inflate:       stored length %u\n",
; 911  :                     state->length));
; 912  :             INITBITS();

	mov	DWORD PTR _hold$[ebp], 0
	mov	DWORD PTR _bits$[ebp], 0
	xor	edx, edx
	jne	SHORT $LN152@inflate

; 913  :             state->mode = COPY_;

	mov	eax, DWORD PTR _state$[ebp]
	mov	DWORD PTR [eax+4], 16194		; 00003f42H

; 914  :             if (flush == Z_TREES) goto inf_leave;

	cmp	DWORD PTR _flush$[ebp], 6
	jne	SHORT $LN417@inflate
	jmp	$inf_leave$528
$LN417@inflate:

; 915  :                 /* fallthrough */
; 916  :         case COPY_:
; 917  :             state->mode = COPY;

	mov	ecx, DWORD PTR _state$[ebp]
	mov	DWORD PTR [ecx+4], 16195		; 00003f43H
$LN418@inflate:

; 918  :                 /* fallthrough */
; 919  :         case COPY:
; 920  :             copy = state->length;

	mov	edx, DWORD PTR _state$[ebp]
	mov	eax, DWORD PTR [edx+68]
	mov	DWORD PTR _copy$[ebp], eax

; 921  :             if (copy) {

	cmp	DWORD PTR _copy$[ebp], 0
	je	SHORT $LN419@inflate

; 922  :                 if (copy > have) copy = have;

	mov	ecx, DWORD PTR _copy$[ebp]
	cmp	ecx, DWORD PTR _have$[ebp]
	jbe	SHORT $LN420@inflate
	mov	edx, DWORD PTR _have$[ebp]
	mov	DWORD PTR _copy$[ebp], edx
$LN420@inflate:

; 923  :                 if (copy > left) copy = left;

	mov	eax, DWORD PTR _copy$[ebp]
	cmp	eax, DWORD PTR _left$[ebp]
	jbe	SHORT $LN421@inflate
	mov	ecx, DWORD PTR _left$[ebp]
	mov	DWORD PTR _copy$[ebp], ecx
$LN421@inflate:

; 924  :                 if (copy == 0) goto inf_leave;

	cmp	DWORD PTR _copy$[ebp], 0
	jne	SHORT $LN422@inflate
	jmp	$inf_leave$528
$LN422@inflate:

; 925  :                 zmemcpy(put, next, copy);

	mov	edx, DWORD PTR _copy$[ebp]
	push	edx
	mov	eax, DWORD PTR _next$[ebp]
	push	eax
	mov	ecx, DWORD PTR _put$[ebp]
	push	ecx
	call	_memcpy
	add	esp, 12					; 0000000cH

; 926  :                 have -= copy;

	mov	edx, DWORD PTR _have$[ebp]
	sub	edx, DWORD PTR _copy$[ebp]
	mov	DWORD PTR _have$[ebp], edx

; 927  :                 next += copy;

	mov	eax, DWORD PTR _next$[ebp]
	add	eax, DWORD PTR _copy$[ebp]
	mov	DWORD PTR _next$[ebp], eax

; 928  :                 left -= copy;

	mov	ecx, DWORD PTR _left$[ebp]
	sub	ecx, DWORD PTR _copy$[ebp]
	mov	DWORD PTR _left$[ebp], ecx

; 929  :                 put += copy;

	mov	edx, DWORD PTR _put$[ebp]
	add	edx, DWORD PTR _copy$[ebp]
	mov	DWORD PTR _put$[ebp], edx

; 930  :                 state->length -= copy;

	mov	eax, DWORD PTR _state$[ebp]
	mov	ecx, DWORD PTR [eax+68]
	sub	ecx, DWORD PTR _copy$[ebp]
	mov	edx, DWORD PTR _state$[ebp]
	mov	DWORD PTR [edx+68], ecx

; 931  :                 break;

	jmp	$LN8@inflate
$LN419@inflate:

; 932  :             }
; 933  :             Tracev((stderr, "inflate:       stored end\n"));
; 934  :             state->mode = TYPE;

	mov	eax, DWORD PTR _state$[ebp]
	mov	DWORD PTR [eax+4], 16191		; 00003f3fH

; 935  :             break;

	jmp	$LN8@inflate
$LN156@inflate:

; 936  :         case TABLE:
; 937  :             NEEDBITS(14);

	cmp	DWORD PTR _bits$[ebp], 14		; 0000000eH
	jae	SHORT $LN153@inflate
$LN160@inflate:
	cmp	DWORD PTR _have$[ebp], 0
	jne	SHORT $LN424@inflate
	jmp	$inf_leave$528
$LN424@inflate:
	mov	ecx, DWORD PTR _have$[ebp]
	sub	ecx, 1
	mov	DWORD PTR _have$[ebp], ecx
	mov	edx, DWORD PTR _next$[ebp]
	movzx	eax, BYTE PTR [edx]
	mov	ecx, DWORD PTR _bits$[ebp]
	shl	eax, cl
	add	eax, DWORD PTR _hold$[ebp]
	mov	DWORD PTR _hold$[ebp], eax
	mov	ecx, DWORD PTR _next$[ebp]
	add	ecx, 1
	mov	DWORD PTR _next$[ebp], ecx
	mov	edx, DWORD PTR _bits$[ebp]
	add	edx, 8
	mov	DWORD PTR _bits$[ebp], edx
	xor	eax, eax
	jne	SHORT $LN160@inflate
	jmp	SHORT $LN156@inflate
$LN153@inflate:
	xor	ecx, ecx
	jne	SHORT $LN156@inflate

; 938  :             state->nlen = BITS(5) + 257;

	mov	edx, DWORD PTR _hold$[ebp]
	and	edx, 31					; 0000001fH
	add	edx, 257				; 00000101H
	mov	eax, DWORD PTR _state$[ebp]
	mov	DWORD PTR [eax+100], edx
$LN163@inflate:

; 939  :             DROPBITS(5);

	mov	ecx, DWORD PTR _hold$[ebp]
	shr	ecx, 5
	mov	DWORD PTR _hold$[ebp], ecx
	mov	edx, DWORD PTR _bits$[ebp]
	sub	edx, 5
	mov	DWORD PTR _bits$[ebp], edx
	xor	eax, eax
	jne	SHORT $LN163@inflate

; 940  :             state->ndist = BITS(5) + 1;

	mov	ecx, DWORD PTR _hold$[ebp]
	and	ecx, 31					; 0000001fH
	add	ecx, 1
	mov	edx, DWORD PTR _state$[ebp]
	mov	DWORD PTR [edx+104], ecx
$LN166@inflate:

; 941  :             DROPBITS(5);

	mov	eax, DWORD PTR _hold$[ebp]
	shr	eax, 5
	mov	DWORD PTR _hold$[ebp], eax
	mov	ecx, DWORD PTR _bits$[ebp]
	sub	ecx, 5
	mov	DWORD PTR _bits$[ebp], ecx
	xor	edx, edx
	jne	SHORT $LN166@inflate

; 942  :             state->ncode = BITS(4) + 4;

	mov	eax, DWORD PTR _hold$[ebp]
	and	eax, 15					; 0000000fH
	add	eax, 4
	mov	ecx, DWORD PTR _state$[ebp]
	mov	DWORD PTR [ecx+96], eax
$LN169@inflate:

; 943  :             DROPBITS(4);

	mov	edx, DWORD PTR _hold$[ebp]
	shr	edx, 4
	mov	DWORD PTR _hold$[ebp], edx
	mov	eax, DWORD PTR _bits$[ebp]
	sub	eax, 4
	mov	DWORD PTR _bits$[ebp], eax
	xor	ecx, ecx
	jne	SHORT $LN169@inflate

; 944  : #ifndef PKZIP_BUG_WORKAROUND
; 945  :             if (state->nlen > 286 || state->ndist > 30) {

	mov	edx, DWORD PTR _state$[ebp]
	cmp	DWORD PTR [edx+100], 286		; 0000011eH
	ja	SHORT $LN426@inflate
	mov	eax, DWORD PTR _state$[ebp]
	cmp	DWORD PTR [eax+104], 30			; 0000001eH
	jbe	SHORT $LN425@inflate
$LN426@inflate:

; 946  :                 strm->msg = (char *)"too many length or distance symbols";

	mov	ecx, DWORD PTR _strm$[ebp]
	mov	DWORD PTR [ecx+24], OFFSET $SG44163

; 947  :                 state->mode = BAD;

	mov	edx, DWORD PTR _state$[ebp]
	mov	DWORD PTR [edx+4], 16209		; 00003f51H

; 948  :                 break;

	jmp	$LN8@inflate
$LN425@inflate:

; 949  :             }
; 950  : #endif
; 951  :             Tracev((stderr, "inflate:       table sizes ok\n"));
; 952  :             state->have = 0;

	mov	eax, DWORD PTR _state$[ebp]
	mov	DWORD PTR [eax+108], 0

; 953  :             state->mode = LENLENS;

	mov	ecx, DWORD PTR _state$[ebp]
	mov	DWORD PTR [ecx+4], 16197		; 00003f45H
$LN170@inflate:

; 954  :                 /* fallthrough */
; 955  :         case LENLENS:
; 956  :             while (state->have < state->ncode) {

	mov	edx, DWORD PTR _state$[ebp]
	mov	eax, DWORD PTR _state$[ebp]
	mov	ecx, DWORD PTR [edx+108]
	cmp	ecx, DWORD PTR [eax+96]
	jae	$LN183@inflate
$LN175@inflate:

; 957  :                 NEEDBITS(3);

	cmp	DWORD PTR _bits$[ebp], 3
	jae	SHORT $LN172@inflate
$LN179@inflate:
	cmp	DWORD PTR _have$[ebp], 0
	jne	SHORT $LN428@inflate
	jmp	$inf_leave$528
$LN428@inflate:
	mov	edx, DWORD PTR _have$[ebp]
	sub	edx, 1
	mov	DWORD PTR _have$[ebp], edx
	mov	eax, DWORD PTR _next$[ebp]
	movzx	edx, BYTE PTR [eax]
	mov	ecx, DWORD PTR _bits$[ebp]
	shl	edx, cl
	add	edx, DWORD PTR _hold$[ebp]
	mov	DWORD PTR _hold$[ebp], edx
	mov	eax, DWORD PTR _next$[ebp]
	add	eax, 1
	mov	DWORD PTR _next$[ebp], eax
	mov	ecx, DWORD PTR _bits$[ebp]
	add	ecx, 8
	mov	DWORD PTR _bits$[ebp], ecx
	xor	edx, edx
	jne	SHORT $LN179@inflate
	jmp	SHORT $LN175@inflate
$LN172@inflate:
	xor	eax, eax
	jne	SHORT $LN175@inflate

; 958  :                 state->lens[order[state->have++]] = (unsigned short)BITS(3);

	mov	ecx, DWORD PTR _hold$[ebp]
	and	ecx, 7
	mov	edx, DWORD PTR _state$[ebp]
	mov	eax, DWORD PTR [edx+108]
	movzx	edx, WORD PTR ?order@?1??inflate@@9@9[eax*2]
	mov	eax, DWORD PTR _state$[ebp]
	mov	WORD PTR [eax+edx*2+116], cx
	mov	ecx, DWORD PTR _state$[ebp]
	mov	edx, DWORD PTR [ecx+108]
	add	edx, 1
	mov	eax, DWORD PTR _state$[ebp]
	mov	DWORD PTR [eax+108], edx
$LN182@inflate:

; 959  :                 DROPBITS(3);

	mov	ecx, DWORD PTR _hold$[ebp]
	shr	ecx, 3
	mov	DWORD PTR _hold$[ebp], ecx
	mov	edx, DWORD PTR _bits$[ebp]
	sub	edx, 3
	mov	DWORD PTR _bits$[ebp], edx
	xor	eax, eax
	jne	SHORT $LN182@inflate

; 960  :             }

	jmp	$LN170@inflate
$LN183@inflate:

; 961  :             while (state->have < 19)

	mov	ecx, DWORD PTR _state$[ebp]
	cmp	DWORD PTR [ecx+108], 19			; 00000013H
	jae	SHORT $LN184@inflate

; 962  :                 state->lens[order[state->have++]] = 0;

	mov	edx, DWORD PTR _state$[ebp]
	mov	eax, DWORD PTR [edx+108]
	movzx	ecx, WORD PTR ?order@?1??inflate@@9@9[eax*2]
	xor	edx, edx
	mov	eax, DWORD PTR _state$[ebp]
	mov	WORD PTR [eax+ecx*2+116], dx
	mov	ecx, DWORD PTR _state$[ebp]
	mov	edx, DWORD PTR [ecx+108]
	add	edx, 1
	mov	eax, DWORD PTR _state$[ebp]
	mov	DWORD PTR [eax+108], edx
	jmp	SHORT $LN183@inflate
$LN184@inflate:

; 963  :             state->next = state->codes;

	mov	ecx, DWORD PTR _state$[ebp]
	add	ecx, 1332				; 00000534H
	mov	edx, DWORD PTR _state$[ebp]
	mov	DWORD PTR [edx+112], ecx

; 964  :             state->lencode = (const code FAR *)(state->next);

	mov	eax, DWORD PTR _state$[ebp]
	mov	ecx, DWORD PTR _state$[ebp]
	mov	edx, DWORD PTR [ecx+112]
	mov	DWORD PTR [eax+80], edx

; 965  :             state->lenbits = 7;

	mov	eax, DWORD PTR _state$[ebp]
	mov	DWORD PTR [eax+88], 7

; 966  :             ret = inflate_table(CODES, state->lens, 19, &(state->next),

	mov	ecx, DWORD PTR _state$[ebp]
	add	ecx, 756				; 000002f4H
	push	ecx
	mov	edx, DWORD PTR _state$[ebp]
	add	edx, 88					; 00000058H
	push	edx
	mov	eax, DWORD PTR _state$[ebp]
	add	eax, 112				; 00000070H
	push	eax
	push	19					; 00000013H
	mov	ecx, DWORD PTR _state$[ebp]
	add	ecx, 116				; 00000074H
	push	ecx
	push	0
	call	_inflate_table
	add	esp, 24					; 00000018H
	mov	DWORD PTR _ret$[ebp], eax

; 967  :                                 &(state->lenbits), state->work);
; 968  :             if (ret) {

	cmp	DWORD PTR _ret$[ebp], 0
	je	SHORT $LN429@inflate

; 969  :                 strm->msg = (char *)"invalid code lengths set";

	mov	edx, DWORD PTR _strm$[ebp]
	mov	DWORD PTR [edx+24], OFFSET $SG44167

; 970  :                 state->mode = BAD;

	mov	eax, DWORD PTR _state$[ebp]
	mov	DWORD PTR [eax+4], 16209		; 00003f51H

; 971  :                 break;

	jmp	$LN8@inflate
$LN429@inflate:

; 972  :             }
; 973  :             Tracev((stderr, "inflate:       code lengths ok\n"));
; 974  :             state->have = 0;

	mov	ecx, DWORD PTR _state$[ebp]
	mov	DWORD PTR [ecx+108], 0

; 975  :             state->mode = CODELENS;

	mov	edx, DWORD PTR _state$[ebp]
	mov	DWORD PTR [edx+4], 16198		; 00003f46H
$LN185@inflate:

; 976  :                 /* fallthrough */
; 977  :         case CODELENS:
; 978  :             while (state->have < state->nlen + state->ndist) {

	mov	eax, DWORD PTR _state$[ebp]
	mov	ecx, DWORD PTR [eax+100]
	mov	edx, DWORD PTR _state$[ebp]
	add	ecx, DWORD PTR [edx+104]
	mov	eax, DWORD PTR _state$[ebp]
	cmp	DWORD PTR [eax+108], ecx
	jae	$LN186@inflate
$LN189@inflate:

; 979  :                 for (;;) {
; 980  :                     here = state->lencode[BITS(state->lenbits)];

	mov	ecx, DWORD PTR _state$[ebp]
	mov	edx, 1
	mov	ecx, DWORD PTR [ecx+88]
	shl	edx, cl
	sub	edx, 1
	and	edx, DWORD PTR _hold$[ebp]
	mov	eax, DWORD PTR _state$[ebp]
	mov	ecx, DWORD PTR [eax+80]
	mov	edx, DWORD PTR [ecx+edx*4]
	mov	DWORD PTR _here$[ebp], edx

; 981  :                     if ((unsigned)(here.bits) <= bits) break;

	movzx	eax, BYTE PTR _here$[ebp+1]
	cmp	eax, DWORD PTR _bits$[ebp]
	ja	SHORT $LN192@inflate
	jmp	SHORT $LN188@inflate
$LN192@inflate:

; 982  :                     PULLBYTE();

	cmp	DWORD PTR _have$[ebp], 0
	jne	SHORT $LN432@inflate
	jmp	$inf_leave$528
$LN432@inflate:
	mov	ecx, DWORD PTR _have$[ebp]
	sub	ecx, 1
	mov	DWORD PTR _have$[ebp], ecx
	mov	edx, DWORD PTR _next$[ebp]
	movzx	eax, BYTE PTR [edx]
	mov	ecx, DWORD PTR _bits$[ebp]
	shl	eax, cl
	add	eax, DWORD PTR _hold$[ebp]
	mov	DWORD PTR _hold$[ebp], eax
	mov	ecx, DWORD PTR _next$[ebp]
	add	ecx, 1
	mov	DWORD PTR _next$[ebp], ecx
	mov	edx, DWORD PTR _bits$[ebp]
	add	edx, 8
	mov	DWORD PTR _bits$[ebp], edx
	xor	eax, eax
	jne	SHORT $LN192@inflate

; 983  :                 }

	jmp	SHORT $LN189@inflate
$LN188@inflate:

; 984  :                 if (here.val < 16) {

	movzx	ecx, WORD PTR _here$[ebp+2]
	cmp	ecx, 16					; 00000010H
	jge	SHORT $LN433@inflate
$LN195@inflate:

; 985  :                     DROPBITS(here.bits);

	movzx	ecx, BYTE PTR _here$[ebp+1]
	mov	edx, DWORD PTR _hold$[ebp]
	shr	edx, cl
	mov	DWORD PTR _hold$[ebp], edx
	movzx	eax, BYTE PTR _here$[ebp+1]
	mov	ecx, DWORD PTR _bits$[ebp]
	sub	ecx, eax
	mov	DWORD PTR _bits$[ebp], ecx
	xor	edx, edx
	jne	SHORT $LN195@inflate

; 986  :                     state->lens[state->have++] = here.val;

	mov	eax, DWORD PTR _state$[ebp]
	mov	ecx, DWORD PTR [eax+108]
	mov	edx, DWORD PTR _state$[ebp]
	mov	ax, WORD PTR _here$[ebp+2]
	mov	WORD PTR [edx+ecx*2+116], ax
	mov	ecx, DWORD PTR _state$[ebp]
	mov	edx, DWORD PTR [ecx+108]
	add	edx, 1
	mov	eax, DWORD PTR _state$[ebp]
	mov	DWORD PTR [eax+108], edx

; 987  :                 }

	jmp	$LN434@inflate
$LN433@inflate:

; 988  :                 else {
; 989  :                     if (here.val == 16) {

	movzx	ecx, WORD PTR _here$[ebp+2]
	cmp	ecx, 16					; 00000010H
	jne	$LN435@inflate
$LN199@inflate:

; 990  :                         NEEDBITS(here.bits + 2);

	movzx	edx, BYTE PTR _here$[ebp+1]
	add	edx, 2
	cmp	DWORD PTR _bits$[ebp], edx
	jae	SHORT $LN196@inflate
$LN203@inflate:
	cmp	DWORD PTR _have$[ebp], 0
	jne	SHORT $LN437@inflate
	jmp	$inf_leave$528
$LN437@inflate:
	mov	eax, DWORD PTR _have$[ebp]
	sub	eax, 1
	mov	DWORD PTR _have$[ebp], eax
	mov	ecx, DWORD PTR _next$[ebp]
	movzx	edx, BYTE PTR [ecx]
	mov	ecx, DWORD PTR _bits$[ebp]
	shl	edx, cl
	add	edx, DWORD PTR _hold$[ebp]
	mov	DWORD PTR _hold$[ebp], edx
	mov	eax, DWORD PTR _next$[ebp]
	add	eax, 1
	mov	DWORD PTR _next$[ebp], eax
	mov	ecx, DWORD PTR _bits$[ebp]
	add	ecx, 8
	mov	DWORD PTR _bits$[ebp], ecx
	xor	edx, edx
	jne	SHORT $LN203@inflate
	jmp	SHORT $LN199@inflate
$LN196@inflate:
	xor	eax, eax
	jne	SHORT $LN199@inflate
$LN206@inflate:

; 991  :                         DROPBITS(here.bits);

	movzx	ecx, BYTE PTR _here$[ebp+1]
	mov	edx, DWORD PTR _hold$[ebp]
	shr	edx, cl
	mov	DWORD PTR _hold$[ebp], edx
	movzx	eax, BYTE PTR _here$[ebp+1]
	mov	ecx, DWORD PTR _bits$[ebp]
	sub	ecx, eax
	mov	DWORD PTR _bits$[ebp], ecx
	xor	edx, edx
	jne	SHORT $LN206@inflate

; 992  :                         if (state->have == 0) {

	mov	eax, DWORD PTR _state$[ebp]
	cmp	DWORD PTR [eax+108], 0
	jne	SHORT $LN438@inflate

; 993  :                             strm->msg = (char *)"invalid bit length repeat";

	mov	ecx, DWORD PTR _strm$[ebp]
	mov	DWORD PTR [ecx+24], OFFSET $SG44177

; 994  :                             state->mode = BAD;

	mov	edx, DWORD PTR _state$[ebp]
	mov	DWORD PTR [edx+4], 16209		; 00003f51H

; 995  :                             break;

	jmp	$LN186@inflate
$LN438@inflate:

; 996  :                         }
; 997  :                         len = state->lens[state->have - 1];

	mov	eax, DWORD PTR _state$[ebp]
	mov	ecx, DWORD PTR [eax+108]
	mov	edx, DWORD PTR _state$[ebp]
	movzx	eax, WORD PTR [edx+ecx*2+114]
	mov	DWORD PTR _len$[ebp], eax

; 998  :                         copy = 3 + BITS(2);

	mov	ecx, DWORD PTR _hold$[ebp]
	and	ecx, 3
	add	ecx, 3
	mov	DWORD PTR _copy$[ebp], ecx
$LN209@inflate:

; 999  :                         DROPBITS(2);

	mov	edx, DWORD PTR _hold$[ebp]
	shr	edx, 2
	mov	DWORD PTR _hold$[ebp], edx
	mov	eax, DWORD PTR _bits$[ebp]
	sub	eax, 2
	mov	DWORD PTR _bits$[ebp], eax
	xor	ecx, ecx
	jne	SHORT $LN209@inflate

; 1000 :                     }

	jmp	$LN436@inflate
$LN435@inflate:

; 1001 :                     else if (here.val == 17) {

	movzx	edx, WORD PTR _here$[ebp+2]
	cmp	edx, 17					; 00000011H
	jne	$LN227@inflate
$LN213@inflate:

; 1002 :                         NEEDBITS(here.bits + 3);

	movzx	eax, BYTE PTR _here$[ebp+1]
	add	eax, 3
	cmp	DWORD PTR _bits$[ebp], eax
	jae	SHORT $LN210@inflate
$LN217@inflate:
	cmp	DWORD PTR _have$[ebp], 0
	jne	SHORT $LN441@inflate
	jmp	$inf_leave$528
$LN441@inflate:
	mov	ecx, DWORD PTR _have$[ebp]
	sub	ecx, 1
	mov	DWORD PTR _have$[ebp], ecx
	mov	edx, DWORD PTR _next$[ebp]
	movzx	eax, BYTE PTR [edx]
	mov	ecx, DWORD PTR _bits$[ebp]
	shl	eax, cl
	add	eax, DWORD PTR _hold$[ebp]
	mov	DWORD PTR _hold$[ebp], eax
	mov	ecx, DWORD PTR _next$[ebp]
	add	ecx, 1
	mov	DWORD PTR _next$[ebp], ecx
	mov	edx, DWORD PTR _bits$[ebp]
	add	edx, 8
	mov	DWORD PTR _bits$[ebp], edx
	xor	eax, eax
	jne	SHORT $LN217@inflate
	jmp	SHORT $LN213@inflate
$LN210@inflate:
	xor	ecx, ecx
	jne	SHORT $LN213@inflate
$LN220@inflate:

; 1003 :                         DROPBITS(here.bits);

	movzx	ecx, BYTE PTR _here$[ebp+1]
	mov	edx, DWORD PTR _hold$[ebp]
	shr	edx, cl
	mov	DWORD PTR _hold$[ebp], edx
	movzx	eax, BYTE PTR _here$[ebp+1]
	mov	ecx, DWORD PTR _bits$[ebp]
	sub	ecx, eax
	mov	DWORD PTR _bits$[ebp], ecx
	xor	edx, edx
	jne	SHORT $LN220@inflate

; 1004 :                         len = 0;

	mov	DWORD PTR _len$[ebp], 0

; 1005 :                         copy = 3 + BITS(3);

	mov	eax, DWORD PTR _hold$[ebp]
	and	eax, 7
	add	eax, 3
	mov	DWORD PTR _copy$[ebp], eax
$LN223@inflate:

; 1006 :                         DROPBITS(3);

	mov	ecx, DWORD PTR _hold$[ebp]
	shr	ecx, 3
	mov	DWORD PTR _hold$[ebp], ecx
	mov	edx, DWORD PTR _bits$[ebp]
	sub	edx, 3
	mov	DWORD PTR _bits$[ebp], edx
	xor	eax, eax
	jne	SHORT $LN223@inflate

; 1007 :                     }

	jmp	$LN436@inflate
$LN227@inflate:

; 1008 :                     else {
; 1009 :                         NEEDBITS(here.bits + 7);

	movzx	ecx, BYTE PTR _here$[ebp+1]
	add	ecx, 7
	cmp	DWORD PTR _bits$[ebp], ecx
	jae	SHORT $LN224@inflate
$LN231@inflate:
	cmp	DWORD PTR _have$[ebp], 0
	jne	SHORT $LN442@inflate
	jmp	$inf_leave$528
$LN442@inflate:
	mov	edx, DWORD PTR _have$[ebp]
	sub	edx, 1
	mov	DWORD PTR _have$[ebp], edx
	mov	eax, DWORD PTR _next$[ebp]
	movzx	edx, BYTE PTR [eax]
	mov	ecx, DWORD PTR _bits$[ebp]
	shl	edx, cl
	add	edx, DWORD PTR _hold$[ebp]
	mov	DWORD PTR _hold$[ebp], edx
	mov	eax, DWORD PTR _next$[ebp]
	add	eax, 1
	mov	DWORD PTR _next$[ebp], eax
	mov	ecx, DWORD PTR _bits$[ebp]
	add	ecx, 8
	mov	DWORD PTR _bits$[ebp], ecx
	xor	edx, edx
	jne	SHORT $LN231@inflate
	jmp	SHORT $LN227@inflate
$LN224@inflate:
	xor	eax, eax
	jne	SHORT $LN227@inflate
$LN234@inflate:

; 1010 :                         DROPBITS(here.bits);

	movzx	ecx, BYTE PTR _here$[ebp+1]
	mov	edx, DWORD PTR _hold$[ebp]
	shr	edx, cl
	mov	DWORD PTR _hold$[ebp], edx
	movzx	eax, BYTE PTR _here$[ebp+1]
	mov	ecx, DWORD PTR _bits$[ebp]
	sub	ecx, eax
	mov	DWORD PTR _bits$[ebp], ecx
	xor	edx, edx
	jne	SHORT $LN234@inflate

; 1011 :                         len = 0;

	mov	DWORD PTR _len$[ebp], 0

; 1012 :                         copy = 11 + BITS(7);

	mov	eax, DWORD PTR _hold$[ebp]
	and	eax, 127				; 0000007fH
	add	eax, 11					; 0000000bH
	mov	DWORD PTR _copy$[ebp], eax
$LN237@inflate:

; 1013 :                         DROPBITS(7);

	mov	ecx, DWORD PTR _hold$[ebp]
	shr	ecx, 7
	mov	DWORD PTR _hold$[ebp], ecx
	mov	edx, DWORD PTR _bits$[ebp]
	sub	edx, 7
	mov	DWORD PTR _bits$[ebp], edx
	xor	eax, eax
	jne	SHORT $LN237@inflate
$LN436@inflate:

; 1014 :                     }
; 1015 :                     if (state->have + copy > state->nlen + state->ndist) {

	mov	ecx, DWORD PTR _state$[ebp]
	mov	edx, DWORD PTR [ecx+108]
	add	edx, DWORD PTR _copy$[ebp]
	mov	eax, DWORD PTR _state$[ebp]
	mov	ecx, DWORD PTR [eax+100]
	mov	eax, DWORD PTR _state$[ebp]
	add	ecx, DWORD PTR [eax+104]
	cmp	edx, ecx
	jbe	SHORT $LN238@inflate

; 1016 :                         strm->msg = (char *)"invalid bit length repeat";

	mov	ecx, DWORD PTR _strm$[ebp]
	mov	DWORD PTR [ecx+24], OFFSET $SG44183

; 1017 :                         state->mode = BAD;

	mov	edx, DWORD PTR _state$[ebp]
	mov	DWORD PTR [edx+4], 16209		; 00003f51H

; 1018 :                         break;

	jmp	SHORT $LN186@inflate
$LN238@inflate:

; 1019 :                     }
; 1020 :                     while (copy--)

	mov	eax, DWORD PTR _copy$[ebp]
	mov	DWORD PTR tv912[ebp], eax
	mov	ecx, DWORD PTR _copy$[ebp]
	sub	ecx, 1
	mov	DWORD PTR _copy$[ebp], ecx
	cmp	DWORD PTR tv912[ebp], 0
	je	SHORT $LN434@inflate

; 1021 :                         state->lens[state->have++] = (unsigned short)len;

	mov	edx, DWORD PTR _state$[ebp]
	mov	eax, DWORD PTR [edx+108]
	mov	ecx, DWORD PTR _state$[ebp]
	mov	dx, WORD PTR _len$[ebp]
	mov	WORD PTR [ecx+eax*2+116], dx
	mov	eax, DWORD PTR _state$[ebp]
	mov	ecx, DWORD PTR [eax+108]
	add	ecx, 1
	mov	edx, DWORD PTR _state$[ebp]
	mov	DWORD PTR [edx+108], ecx
	jmp	SHORT $LN238@inflate
$LN434@inflate:

; 1022 :                 }
; 1023 :             }

	jmp	$LN185@inflate
$LN186@inflate:

; 1024 : 
; 1025 :             /* handle error breaks in while */
; 1026 :             if (state->mode == BAD) break;

	mov	eax, DWORD PTR _state$[ebp]
	cmp	DWORD PTR [eax+4], 16209		; 00003f51H
	jne	SHORT $LN444@inflate
	jmp	$LN8@inflate
$LN444@inflate:

; 1027 : 
; 1028 :             /* check for end-of-block code (better have one) */
; 1029 :             if (state->lens[256] == 0) {

	mov	ecx, 2
	shl	ecx, 8
	mov	edx, DWORD PTR _state$[ebp]
	movzx	eax, WORD PTR [edx+ecx+116]
	test	eax, eax
	jne	SHORT $LN445@inflate

; 1030 :                 strm->msg = (char *)"invalid code -- missing end-of-block";

	mov	ecx, DWORD PTR _strm$[ebp]
	mov	DWORD PTR [ecx+24], OFFSET $SG44186

; 1031 :                 state->mode = BAD;

	mov	edx, DWORD PTR _state$[ebp]
	mov	DWORD PTR [edx+4], 16209		; 00003f51H

; 1032 :                 break;

	jmp	$LN8@inflate
$LN445@inflate:

; 1033 :             }
; 1034 : 
; 1035 :             /* build code tables -- note: do not change the lenbits or distbits
; 1036 :                values here (9 and 6) without reading the comments in inftrees.h
; 1037 :                concerning the ENOUGH constants, which depend on those values */
; 1038 :             state->next = state->codes;

	mov	eax, DWORD PTR _state$[ebp]
	add	eax, 1332				; 00000534H
	mov	ecx, DWORD PTR _state$[ebp]
	mov	DWORD PTR [ecx+112], eax

; 1039 :             state->lencode = (const code FAR *)(state->next);

	mov	edx, DWORD PTR _state$[ebp]
	mov	eax, DWORD PTR _state$[ebp]
	mov	ecx, DWORD PTR [eax+112]
	mov	DWORD PTR [edx+80], ecx

; 1040 :             state->lenbits = 9;

	mov	edx, DWORD PTR _state$[ebp]
	mov	DWORD PTR [edx+88], 9

; 1041 :             ret = inflate_table(LENS, state->lens, state->nlen, &(state->next),

	mov	eax, DWORD PTR _state$[ebp]
	add	eax, 756				; 000002f4H
	push	eax
	mov	ecx, DWORD PTR _state$[ebp]
	add	ecx, 88					; 00000058H
	push	ecx
	mov	edx, DWORD PTR _state$[ebp]
	add	edx, 112				; 00000070H
	push	edx
	mov	eax, DWORD PTR _state$[ebp]
	mov	ecx, DWORD PTR [eax+100]
	push	ecx
	mov	edx, DWORD PTR _state$[ebp]
	add	edx, 116				; 00000074H
	push	edx
	push	1
	call	_inflate_table
	add	esp, 24					; 00000018H
	mov	DWORD PTR _ret$[ebp], eax

; 1042 :                                 &(state->lenbits), state->work);
; 1043 :             if (ret) {

	cmp	DWORD PTR _ret$[ebp], 0
	je	SHORT $LN446@inflate

; 1044 :                 strm->msg = (char *)"invalid literal/lengths set";

	mov	eax, DWORD PTR _strm$[ebp]
	mov	DWORD PTR [eax+24], OFFSET $SG44188

; 1045 :                 state->mode = BAD;

	mov	ecx, DWORD PTR _state$[ebp]
	mov	DWORD PTR [ecx+4], 16209		; 00003f51H

; 1046 :                 break;

	jmp	$LN8@inflate
$LN446@inflate:

; 1047 :             }
; 1048 :             state->distcode = (const code FAR *)(state->next);

	mov	edx, DWORD PTR _state$[ebp]
	mov	eax, DWORD PTR _state$[ebp]
	mov	ecx, DWORD PTR [eax+112]
	mov	DWORD PTR [edx+84], ecx

; 1049 :             state->distbits = 6;

	mov	edx, DWORD PTR _state$[ebp]
	mov	DWORD PTR [edx+92], 6

; 1050 :             ret = inflate_table(DISTS, state->lens + state->nlen, state->ndist,

	mov	eax, DWORD PTR _state$[ebp]
	add	eax, 756				; 000002f4H
	push	eax
	mov	ecx, DWORD PTR _state$[ebp]
	add	ecx, 92					; 0000005cH
	push	ecx
	mov	edx, DWORD PTR _state$[ebp]
	add	edx, 112				; 00000070H
	push	edx
	mov	eax, DWORD PTR _state$[ebp]
	mov	ecx, DWORD PTR [eax+104]
	push	ecx
	mov	edx, DWORD PTR _state$[ebp]
	mov	eax, DWORD PTR [edx+100]
	mov	ecx, DWORD PTR _state$[ebp]
	lea	edx, DWORD PTR [ecx+eax*2+116]
	push	edx
	push	2
	call	_inflate_table
	add	esp, 24					; 00000018H
	mov	DWORD PTR _ret$[ebp], eax

; 1051 :                             &(state->next), &(state->distbits), state->work);
; 1052 :             if (ret) {

	cmp	DWORD PTR _ret$[ebp], 0
	je	SHORT $LN447@inflate

; 1053 :                 strm->msg = (char *)"invalid distances set";

	mov	eax, DWORD PTR _strm$[ebp]
	mov	DWORD PTR [eax+24], OFFSET $SG44190

; 1054 :                 state->mode = BAD;

	mov	ecx, DWORD PTR _state$[ebp]
	mov	DWORD PTR [ecx+4], 16209		; 00003f51H

; 1055 :                 break;

	jmp	$LN8@inflate
$LN447@inflate:

; 1056 :             }
; 1057 :             Tracev((stderr, "inflate:       codes ok\n"));
; 1058 :             state->mode = LEN_;

	mov	edx, DWORD PTR _state$[ebp]
	mov	DWORD PTR [edx+4], 16199		; 00003f47H

; 1059 :             if (flush == Z_TREES) goto inf_leave;

	cmp	DWORD PTR _flush$[ebp], 6
	jne	SHORT $LN449@inflate
	jmp	$inf_leave$528
$LN449@inflate:

; 1060 :                 /* fallthrough */
; 1061 :         case LEN_:
; 1062 :             state->mode = LEN;

	mov	eax, DWORD PTR _state$[ebp]
	mov	DWORD PTR [eax+4], 16200		; 00003f48H
$LN450@inflate:

; 1063 :                 /* fallthrough */
; 1064 :         case LEN:
; 1065 :             if (have >= 6 && left >= 258) {

	cmp	DWORD PTR _have$[ebp], 6
	jb	$LN451@inflate
	cmp	DWORD PTR _left$[ebp], 258		; 00000102H
	jb	$LN451@inflate
$LN242@inflate:

; 1066 :                 RESTORE();

	mov	ecx, DWORD PTR _strm$[ebp]
	mov	edx, DWORD PTR _put$[ebp]
	mov	DWORD PTR [ecx+12], edx
	mov	eax, DWORD PTR _strm$[ebp]
	mov	ecx, DWORD PTR _left$[ebp]
	mov	DWORD PTR [eax+16], ecx
	mov	edx, DWORD PTR _strm$[ebp]
	mov	eax, DWORD PTR _next$[ebp]
	mov	DWORD PTR [edx], eax
	mov	ecx, DWORD PTR _strm$[ebp]
	mov	edx, DWORD PTR _have$[ebp]
	mov	DWORD PTR [ecx+4], edx
	mov	eax, DWORD PTR _state$[ebp]
	mov	ecx, DWORD PTR _hold$[ebp]
	mov	DWORD PTR [eax+60], ecx
	mov	edx, DWORD PTR _state$[ebp]
	mov	eax, DWORD PTR _bits$[ebp]
	mov	DWORD PTR [edx+64], eax
	xor	ecx, ecx
	jne	SHORT $LN242@inflate

; 1067 :                 inflate_fast(strm, out);

	mov	edx, DWORD PTR _out$[ebp]
	push	edx
	mov	eax, DWORD PTR _strm$[ebp]
	push	eax
	call	_inflate_fast
	add	esp, 8
$LN245@inflate:

; 1068 :                 LOAD();

	mov	ecx, DWORD PTR _strm$[ebp]
	mov	edx, DWORD PTR [ecx+12]
	mov	DWORD PTR _put$[ebp], edx
	mov	eax, DWORD PTR _strm$[ebp]
	mov	ecx, DWORD PTR [eax+16]
	mov	DWORD PTR _left$[ebp], ecx
	mov	edx, DWORD PTR _strm$[ebp]
	mov	eax, DWORD PTR [edx]
	mov	DWORD PTR _next$[ebp], eax
	mov	ecx, DWORD PTR _strm$[ebp]
	mov	edx, DWORD PTR [ecx+4]
	mov	DWORD PTR _have$[ebp], edx
	mov	eax, DWORD PTR _state$[ebp]
	mov	ecx, DWORD PTR [eax+60]
	mov	DWORD PTR _hold$[ebp], ecx
	mov	edx, DWORD PTR _state$[ebp]
	mov	eax, DWORD PTR [edx+64]
	mov	DWORD PTR _bits$[ebp], eax
	xor	ecx, ecx
	jne	SHORT $LN245@inflate

; 1069 :                 if (state->mode == TYPE)

	mov	edx, DWORD PTR _state$[ebp]
	cmp	DWORD PTR [edx+4], 16191		; 00003f3fH
	jne	SHORT $LN452@inflate

; 1070 :                     state->back = -1;

	mov	eax, DWORD PTR _state$[ebp]
	mov	DWORD PTR [eax+7112], -1
$LN452@inflate:

; 1071 :                 break;

	jmp	$LN8@inflate
$LN451@inflate:

; 1072 :             }
; 1073 :             state->back = 0;

	mov	ecx, DWORD PTR _state$[ebp]
	mov	DWORD PTR [ecx+7112], 0
$LN248@inflate:

; 1074 :             for (;;) {
; 1075 :                 here = state->lencode[BITS(state->lenbits)];

	mov	edx, DWORD PTR _state$[ebp]
	mov	eax, 1
	mov	ecx, DWORD PTR [edx+88]
	shl	eax, cl
	sub	eax, 1
	and	eax, DWORD PTR _hold$[ebp]
	mov	ecx, DWORD PTR _state$[ebp]
	mov	edx, DWORD PTR [ecx+80]
	mov	eax, DWORD PTR [edx+eax*4]
	mov	DWORD PTR _here$[ebp], eax

; 1076 :                 if ((unsigned)(here.bits) <= bits) break;

	movzx	ecx, BYTE PTR _here$[ebp+1]
	cmp	ecx, DWORD PTR _bits$[ebp]
	ja	SHORT $LN251@inflate
	jmp	SHORT $LN247@inflate
$LN251@inflate:

; 1077 :                 PULLBYTE();

	cmp	DWORD PTR _have$[ebp], 0
	jne	SHORT $LN454@inflate
	jmp	$inf_leave$528
$LN454@inflate:
	mov	edx, DWORD PTR _have$[ebp]
	sub	edx, 1
	mov	DWORD PTR _have$[ebp], edx
	mov	eax, DWORD PTR _next$[ebp]
	movzx	edx, BYTE PTR [eax]
	mov	ecx, DWORD PTR _bits$[ebp]
	shl	edx, cl
	add	edx, DWORD PTR _hold$[ebp]
	mov	DWORD PTR _hold$[ebp], edx
	mov	eax, DWORD PTR _next$[ebp]
	add	eax, 1
	mov	DWORD PTR _next$[ebp], eax
	mov	ecx, DWORD PTR _bits$[ebp]
	add	ecx, 8
	mov	DWORD PTR _bits$[ebp], ecx
	xor	edx, edx
	jne	SHORT $LN251@inflate

; 1078 :             }

	jmp	SHORT $LN248@inflate
$LN247@inflate:

; 1079 :             if (here.op && (here.op & 0xf0) == 0) {

	movzx	eax, BYTE PTR _here$[ebp]
	test	eax, eax
	je	$LN263@inflate
	movzx	ecx, BYTE PTR _here$[ebp]
	and	ecx, 240				; 000000f0H
	jne	$LN263@inflate

; 1080 :                 last = here;

	mov	edx, DWORD PTR _here$[ebp]
	mov	DWORD PTR _last$[ebp], edx
$LN254@inflate:

; 1081 :                 for (;;) {
; 1082 :                     here = state->lencode[last.val +

	movzx	eax, WORD PTR _last$[ebp+2]
	movzx	ecx, BYTE PTR _last$[ebp+1]
	movzx	edx, BYTE PTR _last$[ebp]
	add	ecx, edx
	mov	edx, 1
	shl	edx, cl
	sub	edx, 1
	and	edx, DWORD PTR _hold$[ebp]
	movzx	ecx, BYTE PTR _last$[ebp+1]
	shr	edx, cl
	add	eax, edx
	mov	ecx, DWORD PTR _state$[ebp]
	mov	edx, DWORD PTR [ecx+80]
	mov	eax, DWORD PTR [edx+eax*4]
	mov	DWORD PTR _here$[ebp], eax

; 1083 :                             (BITS(last.bits + last.op) >> last.bits)];
; 1084 :                     if ((unsigned)(last.bits + here.bits) <= bits) break;

	movzx	ecx, BYTE PTR _last$[ebp+1]
	movzx	edx, BYTE PTR _here$[ebp+1]
	add	ecx, edx
	cmp	ecx, DWORD PTR _bits$[ebp]
	ja	SHORT $LN257@inflate
	jmp	SHORT $LN260@inflate
$LN257@inflate:

; 1085 :                     PULLBYTE();

	cmp	DWORD PTR _have$[ebp], 0
	jne	SHORT $LN457@inflate
	jmp	$inf_leave$528
$LN457@inflate:
	mov	eax, DWORD PTR _have$[ebp]
	sub	eax, 1
	mov	DWORD PTR _have$[ebp], eax
	mov	ecx, DWORD PTR _next$[ebp]
	movzx	edx, BYTE PTR [ecx]
	mov	ecx, DWORD PTR _bits$[ebp]
	shl	edx, cl
	add	edx, DWORD PTR _hold$[ebp]
	mov	DWORD PTR _hold$[ebp], edx
	mov	eax, DWORD PTR _next$[ebp]
	add	eax, 1
	mov	DWORD PTR _next$[ebp], eax
	mov	ecx, DWORD PTR _bits$[ebp]
	add	ecx, 8
	mov	DWORD PTR _bits$[ebp], ecx
	xor	edx, edx
	jne	SHORT $LN257@inflate

; 1086 :                 }

	jmp	SHORT $LN254@inflate
$LN260@inflate:

; 1087 :                 DROPBITS(last.bits);

	movzx	ecx, BYTE PTR _last$[ebp+1]
	mov	eax, DWORD PTR _hold$[ebp]
	shr	eax, cl
	mov	DWORD PTR _hold$[ebp], eax
	movzx	ecx, BYTE PTR _last$[ebp+1]
	mov	edx, DWORD PTR _bits$[ebp]
	sub	edx, ecx
	mov	DWORD PTR _bits$[ebp], edx
	xor	eax, eax
	jne	SHORT $LN260@inflate

; 1088 :                 state->back += last.bits;

	movzx	ecx, BYTE PTR _last$[ebp+1]
	mov	edx, DWORD PTR _state$[ebp]
	add	ecx, DWORD PTR [edx+7112]
	mov	eax, DWORD PTR _state$[ebp]
	mov	DWORD PTR [eax+7112], ecx
$LN263@inflate:

; 1089 :             }
; 1090 :             DROPBITS(here.bits);

	movzx	ecx, BYTE PTR _here$[ebp+1]
	mov	edx, DWORD PTR _hold$[ebp]
	shr	edx, cl
	mov	DWORD PTR _hold$[ebp], edx
	movzx	eax, BYTE PTR _here$[ebp+1]
	mov	ecx, DWORD PTR _bits$[ebp]
	sub	ecx, eax
	mov	DWORD PTR _bits$[ebp], ecx
	xor	edx, edx
	jne	SHORT $LN263@inflate

; 1091 :             state->back += here.bits;

	movzx	eax, BYTE PTR _here$[ebp+1]
	mov	ecx, DWORD PTR _state$[ebp]
	add	eax, DWORD PTR [ecx+7112]
	mov	edx, DWORD PTR _state$[ebp]
	mov	DWORD PTR [edx+7112], eax

; 1092 :             state->length = (unsigned)here.val;

	movzx	eax, WORD PTR _here$[ebp+2]
	mov	ecx, DWORD PTR _state$[ebp]
	mov	DWORD PTR [ecx+68], eax

; 1093 :             if ((int)(here.op) == 0) {

	movzx	edx, BYTE PTR _here$[ebp]
	test	edx, edx
	jne	SHORT $LN458@inflate

; 1094 :                 Tracevv((stderr, here.val >= 0x20 && here.val < 0x7f ?
; 1095 :                         "inflate:         literal '%c'\n" :
; 1096 :                         "inflate:         literal 0x%02x\n", here.val));
; 1097 :                 state->mode = LIT;

	mov	eax, DWORD PTR _state$[ebp]
	mov	DWORD PTR [eax+4], 16205		; 00003f4dH

; 1098 :                 break;

	jmp	$LN8@inflate
$LN458@inflate:

; 1099 :             }
; 1100 :             if (here.op & 32) {

	movzx	ecx, BYTE PTR _here$[ebp]
	and	ecx, 32					; 00000020H
	je	SHORT $LN459@inflate

; 1101 :                 Tracevv((stderr, "inflate:         end of block\n"));
; 1102 :                 state->back = -1;

	mov	edx, DWORD PTR _state$[ebp]
	mov	DWORD PTR [edx+7112], -1

; 1103 :                 state->mode = TYPE;

	mov	eax, DWORD PTR _state$[ebp]
	mov	DWORD PTR [eax+4], 16191		; 00003f3fH

; 1104 :                 break;

	jmp	$LN8@inflate
$LN459@inflate:

; 1105 :             }
; 1106 :             if (here.op & 64) {

	movzx	ecx, BYTE PTR _here$[ebp]
	and	ecx, 64					; 00000040H
	je	SHORT $LN460@inflate

; 1107 :                 strm->msg = (char *)"invalid literal/length code";

	mov	edx, DWORD PTR _strm$[ebp]
	mov	DWORD PTR [edx+24], OFFSET $SG44204

; 1108 :                 state->mode = BAD;

	mov	eax, DWORD PTR _state$[ebp]
	mov	DWORD PTR [eax+4], 16209		; 00003f51H

; 1109 :                 break;

	jmp	$LN8@inflate
$LN460@inflate:

; 1110 :             }
; 1111 :             state->extra = (unsigned)(here.op) & 15;

	movzx	ecx, BYTE PTR _here$[ebp]
	and	ecx, 15					; 0000000fH
	mov	edx, DWORD PTR _state$[ebp]
	mov	DWORD PTR [edx+76], ecx

; 1112 :             state->mode = LENEXT;

	mov	eax, DWORD PTR _state$[ebp]
	mov	DWORD PTR [eax+4], 16201		; 00003f49H
$LN461@inflate:

; 1113 :                 /* fallthrough */
; 1114 :         case LENEXT:
; 1115 :             if (state->extra) {

	mov	ecx, DWORD PTR _state$[ebp]
	cmp	DWORD PTR [ecx+76], 0
	je	$LN462@inflate
$LN267@inflate:

; 1116 :                 NEEDBITS(state->extra);

	mov	edx, DWORD PTR _state$[ebp]
	mov	eax, DWORD PTR _bits$[ebp]
	cmp	eax, DWORD PTR [edx+76]
	jae	SHORT $LN264@inflate
$LN271@inflate:
	cmp	DWORD PTR _have$[ebp], 0
	jne	SHORT $LN463@inflate
	jmp	$inf_leave$528
$LN463@inflate:
	mov	ecx, DWORD PTR _have$[ebp]
	sub	ecx, 1
	mov	DWORD PTR _have$[ebp], ecx
	mov	edx, DWORD PTR _next$[ebp]
	movzx	eax, BYTE PTR [edx]
	mov	ecx, DWORD PTR _bits$[ebp]
	shl	eax, cl
	add	eax, DWORD PTR _hold$[ebp]
	mov	DWORD PTR _hold$[ebp], eax
	mov	ecx, DWORD PTR _next$[ebp]
	add	ecx, 1
	mov	DWORD PTR _next$[ebp], ecx
	mov	edx, DWORD PTR _bits$[ebp]
	add	edx, 8
	mov	DWORD PTR _bits$[ebp], edx
	xor	eax, eax
	jne	SHORT $LN271@inflate
	jmp	SHORT $LN267@inflate
$LN264@inflate:
	xor	ecx, ecx
	jne	SHORT $LN267@inflate

; 1117 :                 state->length += BITS(state->extra);

	mov	edx, DWORD PTR _state$[ebp]
	mov	eax, 1
	mov	ecx, DWORD PTR [edx+76]
	shl	eax, cl
	sub	eax, 1
	and	eax, DWORD PTR _hold$[ebp]
	mov	ecx, DWORD PTR _state$[ebp]
	add	eax, DWORD PTR [ecx+68]
	mov	edx, DWORD PTR _state$[ebp]
	mov	DWORD PTR [edx+68], eax
$LN274@inflate:

; 1118 :                 DROPBITS(state->extra);

	mov	eax, DWORD PTR _state$[ebp]
	mov	edx, DWORD PTR _hold$[ebp]
	mov	ecx, DWORD PTR [eax+76]
	shr	edx, cl
	mov	DWORD PTR _hold$[ebp], edx
	mov	eax, DWORD PTR _state$[ebp]
	mov	ecx, DWORD PTR _bits$[ebp]
	sub	ecx, DWORD PTR [eax+76]
	mov	DWORD PTR _bits$[ebp], ecx
	xor	edx, edx
	jne	SHORT $LN274@inflate

; 1119 :                 state->back += state->extra;

	mov	eax, DWORD PTR _state$[ebp]
	mov	ecx, DWORD PTR [eax+7112]
	mov	edx, DWORD PTR _state$[ebp]
	add	ecx, DWORD PTR [edx+76]
	mov	eax, DWORD PTR _state$[ebp]
	mov	DWORD PTR [eax+7112], ecx
$LN462@inflate:

; 1120 :             }
; 1121 :             Tracevv((stderr, "inflate:         length %u\n", state->length));
; 1122 :             state->was = state->length;

	mov	ecx, DWORD PTR _state$[ebp]
	mov	edx, DWORD PTR _state$[ebp]
	mov	eax, DWORD PTR [edx+68]
	mov	DWORD PTR [ecx+7116], eax

; 1123 :             state->mode = DIST;

	mov	ecx, DWORD PTR _state$[ebp]
	mov	DWORD PTR [ecx+4], 16202		; 00003f4aH
$LN277@inflate:

; 1124 :                 /* fallthrough */
; 1125 :         case DIST:
; 1126 :             for (;;) {
; 1127 :                 here = state->distcode[BITS(state->distbits)];

	mov	edx, DWORD PTR _state$[ebp]
	mov	eax, 1
	mov	ecx, DWORD PTR [edx+92]
	shl	eax, cl
	sub	eax, 1
	and	eax, DWORD PTR _hold$[ebp]
	mov	ecx, DWORD PTR _state$[ebp]
	mov	edx, DWORD PTR [ecx+84]
	mov	eax, DWORD PTR [edx+eax*4]
	mov	DWORD PTR _here$[ebp], eax

; 1128 :                 if ((unsigned)(here.bits) <= bits) break;

	movzx	ecx, BYTE PTR _here$[ebp+1]
	cmp	ecx, DWORD PTR _bits$[ebp]
	ja	SHORT $LN280@inflate
	jmp	SHORT $LN276@inflate
$LN280@inflate:

; 1129 :                 PULLBYTE();

	cmp	DWORD PTR _have$[ebp], 0
	jne	SHORT $LN466@inflate
	jmp	$inf_leave$528
$LN466@inflate:
	mov	edx, DWORD PTR _have$[ebp]
	sub	edx, 1
	mov	DWORD PTR _have$[ebp], edx
	mov	eax, DWORD PTR _next$[ebp]
	movzx	edx, BYTE PTR [eax]
	mov	ecx, DWORD PTR _bits$[ebp]
	shl	edx, cl
	add	edx, DWORD PTR _hold$[ebp]
	mov	DWORD PTR _hold$[ebp], edx
	mov	eax, DWORD PTR _next$[ebp]
	add	eax, 1
	mov	DWORD PTR _next$[ebp], eax
	mov	ecx, DWORD PTR _bits$[ebp]
	add	ecx, 8
	mov	DWORD PTR _bits$[ebp], ecx
	xor	edx, edx
	jne	SHORT $LN280@inflate

; 1130 :             }

	jmp	SHORT $LN277@inflate
$LN276@inflate:

; 1131 :             if ((here.op & 0xf0) == 0) {

	movzx	eax, BYTE PTR _here$[ebp]
	and	eax, 240				; 000000f0H
	jne	$LN292@inflate

; 1132 :                 last = here;

	mov	ecx, DWORD PTR _here$[ebp]
	mov	DWORD PTR _last$[ebp], ecx
$LN283@inflate:

; 1133 :                 for (;;) {
; 1134 :                     here = state->distcode[last.val +

	movzx	edx, WORD PTR _last$[ebp+2]
	movzx	ecx, BYTE PTR _last$[ebp+1]
	movzx	eax, BYTE PTR _last$[ebp]
	add	ecx, eax
	mov	eax, 1
	shl	eax, cl
	sub	eax, 1
	and	eax, DWORD PTR _hold$[ebp]
	movzx	ecx, BYTE PTR _last$[ebp+1]
	shr	eax, cl
	add	edx, eax
	mov	ecx, DWORD PTR _state$[ebp]
	mov	eax, DWORD PTR [ecx+84]
	mov	ecx, DWORD PTR [eax+edx*4]
	mov	DWORD PTR _here$[ebp], ecx

; 1135 :                             (BITS(last.bits + last.op) >> last.bits)];
; 1136 :                     if ((unsigned)(last.bits + here.bits) <= bits) break;

	movzx	edx, BYTE PTR _last$[ebp+1]
	movzx	eax, BYTE PTR _here$[ebp+1]
	add	edx, eax
	cmp	edx, DWORD PTR _bits$[ebp]
	ja	SHORT $LN286@inflate
	jmp	SHORT $LN289@inflate
$LN286@inflate:

; 1137 :                     PULLBYTE();

	cmp	DWORD PTR _have$[ebp], 0
	jne	SHORT $LN469@inflate
	jmp	$inf_leave$528
$LN469@inflate:
	mov	ecx, DWORD PTR _have$[ebp]
	sub	ecx, 1
	mov	DWORD PTR _have$[ebp], ecx
	mov	edx, DWORD PTR _next$[ebp]
	movzx	eax, BYTE PTR [edx]
	mov	ecx, DWORD PTR _bits$[ebp]
	shl	eax, cl
	add	eax, DWORD PTR _hold$[ebp]
	mov	DWORD PTR _hold$[ebp], eax
	mov	ecx, DWORD PTR _next$[ebp]
	add	ecx, 1
	mov	DWORD PTR _next$[ebp], ecx
	mov	edx, DWORD PTR _bits$[ebp]
	add	edx, 8
	mov	DWORD PTR _bits$[ebp], edx
	xor	eax, eax
	jne	SHORT $LN286@inflate

; 1138 :                 }

	jmp	SHORT $LN283@inflate
$LN289@inflate:

; 1139 :                 DROPBITS(last.bits);

	movzx	ecx, BYTE PTR _last$[ebp+1]
	mov	edx, DWORD PTR _hold$[ebp]
	shr	edx, cl
	mov	DWORD PTR _hold$[ebp], edx
	movzx	eax, BYTE PTR _last$[ebp+1]
	mov	ecx, DWORD PTR _bits$[ebp]
	sub	ecx, eax
	mov	DWORD PTR _bits$[ebp], ecx
	xor	edx, edx
	jne	SHORT $LN289@inflate

; 1140 :                 state->back += last.bits;

	movzx	eax, BYTE PTR _last$[ebp+1]
	mov	ecx, DWORD PTR _state$[ebp]
	add	eax, DWORD PTR [ecx+7112]
	mov	edx, DWORD PTR _state$[ebp]
	mov	DWORD PTR [edx+7112], eax
$LN292@inflate:

; 1141 :             }
; 1142 :             DROPBITS(here.bits);

	movzx	ecx, BYTE PTR _here$[ebp+1]
	mov	eax, DWORD PTR _hold$[ebp]
	shr	eax, cl
	mov	DWORD PTR _hold$[ebp], eax
	movzx	ecx, BYTE PTR _here$[ebp+1]
	mov	edx, DWORD PTR _bits$[ebp]
	sub	edx, ecx
	mov	DWORD PTR _bits$[ebp], edx
	xor	eax, eax
	jne	SHORT $LN292@inflate

; 1143 :             state->back += here.bits;

	movzx	ecx, BYTE PTR _here$[ebp+1]
	mov	edx, DWORD PTR _state$[ebp]
	add	ecx, DWORD PTR [edx+7112]
	mov	eax, DWORD PTR _state$[ebp]
	mov	DWORD PTR [eax+7112], ecx

; 1144 :             if (here.op & 64) {

	movzx	ecx, BYTE PTR _here$[ebp]
	and	ecx, 64					; 00000040H
	je	SHORT $LN470@inflate

; 1145 :                 strm->msg = (char *)"invalid distance code";

	mov	edx, DWORD PTR _strm$[ebp]
	mov	DWORD PTR [edx+24], OFFSET $SG44215

; 1146 :                 state->mode = BAD;

	mov	eax, DWORD PTR _state$[ebp]
	mov	DWORD PTR [eax+4], 16209		; 00003f51H

; 1147 :                 break;

	jmp	$LN8@inflate
$LN470@inflate:

; 1148 :             }
; 1149 :             state->offset = (unsigned)here.val;

	movzx	ecx, WORD PTR _here$[ebp+2]
	mov	edx, DWORD PTR _state$[ebp]
	mov	DWORD PTR [edx+72], ecx

; 1150 :             state->extra = (unsigned)(here.op) & 15;

	movzx	eax, BYTE PTR _here$[ebp]
	and	eax, 15					; 0000000fH
	mov	ecx, DWORD PTR _state$[ebp]
	mov	DWORD PTR [ecx+76], eax

; 1151 :             state->mode = DISTEXT;

	mov	edx, DWORD PTR _state$[ebp]
	mov	DWORD PTR [edx+4], 16203		; 00003f4bH
$LN471@inflate:

; 1152 :                 /* fallthrough */
; 1153 :         case DISTEXT:
; 1154 :             if (state->extra) {

	mov	eax, DWORD PTR _state$[ebp]
	cmp	DWORD PTR [eax+76], 0
	je	$LN472@inflate
$LN296@inflate:

; 1155 :                 NEEDBITS(state->extra);

	mov	ecx, DWORD PTR _state$[ebp]
	mov	edx, DWORD PTR _bits$[ebp]
	cmp	edx, DWORD PTR [ecx+76]
	jae	SHORT $LN293@inflate
$LN300@inflate:
	cmp	DWORD PTR _have$[ebp], 0
	jne	SHORT $LN473@inflate
	jmp	$inf_leave$528
$LN473@inflate:
	mov	eax, DWORD PTR _have$[ebp]
	sub	eax, 1
	mov	DWORD PTR _have$[ebp], eax
	mov	ecx, DWORD PTR _next$[ebp]
	movzx	edx, BYTE PTR [ecx]
	mov	ecx, DWORD PTR _bits$[ebp]
	shl	edx, cl
	add	edx, DWORD PTR _hold$[ebp]
	mov	DWORD PTR _hold$[ebp], edx
	mov	eax, DWORD PTR _next$[ebp]
	add	eax, 1
	mov	DWORD PTR _next$[ebp], eax
	mov	ecx, DWORD PTR _bits$[ebp]
	add	ecx, 8
	mov	DWORD PTR _bits$[ebp], ecx
	xor	edx, edx
	jne	SHORT $LN300@inflate
	jmp	SHORT $LN296@inflate
$LN293@inflate:
	xor	eax, eax
	jne	SHORT $LN296@inflate

; 1156 :                 state->offset += BITS(state->extra);

	mov	ecx, DWORD PTR _state$[ebp]
	mov	edx, 1
	mov	ecx, DWORD PTR [ecx+76]
	shl	edx, cl
	sub	edx, 1
	and	edx, DWORD PTR _hold$[ebp]
	mov	eax, DWORD PTR _state$[ebp]
	add	edx, DWORD PTR [eax+72]
	mov	ecx, DWORD PTR _state$[ebp]
	mov	DWORD PTR [ecx+72], edx
$LN303@inflate:

; 1157 :                 DROPBITS(state->extra);

	mov	edx, DWORD PTR _state$[ebp]
	mov	eax, DWORD PTR _hold$[ebp]
	mov	ecx, DWORD PTR [edx+76]
	shr	eax, cl
	mov	DWORD PTR _hold$[ebp], eax
	mov	ecx, DWORD PTR _state$[ebp]
	mov	edx, DWORD PTR _bits$[ebp]
	sub	edx, DWORD PTR [ecx+76]
	mov	DWORD PTR _bits$[ebp], edx
	xor	eax, eax
	jne	SHORT $LN303@inflate

; 1158 :                 state->back += state->extra;

	mov	ecx, DWORD PTR _state$[ebp]
	mov	edx, DWORD PTR [ecx+7112]
	mov	eax, DWORD PTR _state$[ebp]
	add	edx, DWORD PTR [eax+76]
	mov	ecx, DWORD PTR _state$[ebp]
	mov	DWORD PTR [ecx+7112], edx
$LN472@inflate:

; 1159 :             }
; 1160 : #ifdef INFLATE_STRICT
; 1161 :             if (state->offset > state->dmax) {
; 1162 :                 strm->msg = (char *)"invalid distance too far back";
; 1163 :                 state->mode = BAD;
; 1164 :                 break;
; 1165 :             }
; 1166 : #endif
; 1167 :             Tracevv((stderr, "inflate:         distance %u\n", state->offset));
; 1168 :             state->mode = MATCH;

	mov	edx, DWORD PTR _state$[ebp]
	mov	DWORD PTR [edx+4], 16204		; 00003f4cH
$LN474@inflate:

; 1169 :                 /* fallthrough */
; 1170 :         case MATCH:
; 1171 :             if (left == 0) goto inf_leave;

	cmp	DWORD PTR _left$[ebp], 0
	jne	SHORT $LN475@inflate
	jmp	$inf_leave$528
$LN475@inflate:

; 1172 :             copy = out - left;

	mov	eax, DWORD PTR _out$[ebp]
	sub	eax, DWORD PTR _left$[ebp]
	mov	DWORD PTR _copy$[ebp], eax

; 1173 :             if (state->offset > copy) {         /* copy from window */

	mov	ecx, DWORD PTR _state$[ebp]
	mov	edx, DWORD PTR [ecx+72]
	cmp	edx, DWORD PTR _copy$[ebp]
	jbe	$LN476@inflate

; 1174 :                 copy = state->offset - copy;

	mov	eax, DWORD PTR _state$[ebp]
	mov	ecx, DWORD PTR [eax+72]
	sub	ecx, DWORD PTR _copy$[ebp]
	mov	DWORD PTR _copy$[ebp], ecx

; 1175 :                 if (copy > state->whave) {

	mov	edx, DWORD PTR _state$[ebp]
	mov	eax, DWORD PTR _copy$[ebp]
	cmp	eax, DWORD PTR [edx+48]
	jbe	SHORT $LN478@inflate

; 1176 :                     if (state->sane) {

	mov	ecx, DWORD PTR _state$[ebp]
	cmp	DWORD PTR [ecx+7108], 0
	je	SHORT $LN478@inflate

; 1177 :                         strm->msg = (char *)"invalid distance too far back";

	mov	edx, DWORD PTR _strm$[ebp]
	mov	DWORD PTR [edx+24], OFFSET $SG44225

; 1178 :                         state->mode = BAD;

	mov	eax, DWORD PTR _state$[ebp]
	mov	DWORD PTR [eax+4], 16209		; 00003f51H

; 1179 :                         break;

	jmp	$LN8@inflate
$LN478@inflate:

; 1180 :                     }
; 1181 : #ifdef INFLATE_ALLOW_INVALID_DISTANCE_TOOFAR_ARRR
; 1182 :                     Trace((stderr, "inflate.c too far\n"));
; 1183 :                     copy -= state->whave;
; 1184 :                     if (copy > state->length) copy = state->length;
; 1185 :                     if (copy > left) copy = left;
; 1186 :                     left -= copy;
; 1187 :                     state->length -= copy;
; 1188 :                     do {
; 1189 :                         *put++ = 0;
; 1190 :                     } while (--copy);
; 1191 :                     if (state->length == 0) state->mode = LEN;
; 1192 :                     break;
; 1193 : #endif
; 1194 :                 }
; 1195 :                 if (copy > state->wnext) {

	mov	ecx, DWORD PTR _state$[ebp]
	mov	edx, DWORD PTR _copy$[ebp]
	cmp	edx, DWORD PTR [ecx+52]
	jbe	SHORT $LN480@inflate

; 1196 :                     copy -= state->wnext;

	mov	eax, DWORD PTR _state$[ebp]
	mov	ecx, DWORD PTR _copy$[ebp]
	sub	ecx, DWORD PTR [eax+52]
	mov	DWORD PTR _copy$[ebp], ecx

; 1197 :                     from = state->window + (state->wsize - copy);

	mov	edx, DWORD PTR _state$[ebp]
	mov	eax, DWORD PTR [edx+44]
	sub	eax, DWORD PTR _copy$[ebp]
	mov	ecx, DWORD PTR _state$[ebp]
	add	eax, DWORD PTR [ecx+56]
	mov	DWORD PTR _from$[ebp], eax

; 1198 :                 }

	jmp	SHORT $LN481@inflate
$LN480@inflate:

; 1199 :                 else
; 1200 :                     from = state->window + (state->wnext - copy);

	mov	edx, DWORD PTR _state$[ebp]
	mov	eax, DWORD PTR [edx+52]
	sub	eax, DWORD PTR _copy$[ebp]
	mov	ecx, DWORD PTR _state$[ebp]
	add	eax, DWORD PTR [ecx+56]
	mov	DWORD PTR _from$[ebp], eax
$LN481@inflate:

; 1201 :                 if (copy > state->length) copy = state->length;

	mov	edx, DWORD PTR _state$[ebp]
	mov	eax, DWORD PTR _copy$[ebp]
	cmp	eax, DWORD PTR [edx+68]
	jbe	SHORT $LN482@inflate
	mov	ecx, DWORD PTR _state$[ebp]
	mov	edx, DWORD PTR [ecx+68]
	mov	DWORD PTR _copy$[ebp], edx
$LN482@inflate:

; 1202 :             }

	jmp	SHORT $LN477@inflate
$LN476@inflate:

; 1203 :             else {                              /* copy from output */
; 1204 :                 from = put - state->offset;

	mov	eax, DWORD PTR _state$[ebp]
	mov	ecx, DWORD PTR _put$[ebp]
	sub	ecx, DWORD PTR [eax+72]
	mov	DWORD PTR _from$[ebp], ecx

; 1205 :                 copy = state->length;

	mov	edx, DWORD PTR _state$[ebp]
	mov	eax, DWORD PTR [edx+68]
	mov	DWORD PTR _copy$[ebp], eax
$LN477@inflate:

; 1206 :             }
; 1207 :             if (copy > left) copy = left;

	mov	ecx, DWORD PTR _copy$[ebp]
	cmp	ecx, DWORD PTR _left$[ebp]
	jbe	SHORT $LN483@inflate
	mov	edx, DWORD PTR _left$[ebp]
	mov	DWORD PTR _copy$[ebp], edx
$LN483@inflate:

; 1208 :             left -= copy;

	mov	eax, DWORD PTR _left$[ebp]
	sub	eax, DWORD PTR _copy$[ebp]
	mov	DWORD PTR _left$[ebp], eax

; 1209 :             state->length -= copy;

	mov	ecx, DWORD PTR _state$[ebp]
	mov	edx, DWORD PTR [ecx+68]
	sub	edx, DWORD PTR _copy$[ebp]
	mov	eax, DWORD PTR _state$[ebp]
	mov	DWORD PTR [eax+68], edx
$LN306@inflate:

; 1210 :             do {
; 1211 :                 *put++ = *from++;

	mov	ecx, DWORD PTR _put$[ebp]
	mov	edx, DWORD PTR _from$[ebp]
	mov	al, BYTE PTR [edx]
	mov	BYTE PTR [ecx], al
	mov	ecx, DWORD PTR _put$[ebp]
	add	ecx, 1
	mov	DWORD PTR _put$[ebp], ecx
	mov	edx, DWORD PTR _from$[ebp]
	add	edx, 1
	mov	DWORD PTR _from$[ebp], edx

; 1212 :             } while (--copy);

	mov	eax, DWORD PTR _copy$[ebp]
	sub	eax, 1
	mov	DWORD PTR _copy$[ebp], eax
	jne	SHORT $LN306@inflate

; 1213 :             if (state->length == 0) state->mode = LEN;

	mov	ecx, DWORD PTR _state$[ebp]
	cmp	DWORD PTR [ecx+68], 0
	jne	SHORT $LN484@inflate
	mov	edx, DWORD PTR _state$[ebp]
	mov	DWORD PTR [edx+4], 16200		; 00003f48H
$LN484@inflate:

; 1214 :             break;

	jmp	$LN8@inflate
$LN485@inflate:

; 1215 :         case LIT:
; 1216 :             if (left == 0) goto inf_leave;

	cmp	DWORD PTR _left$[ebp], 0
	jne	SHORT $LN486@inflate
	jmp	$inf_leave$528
$LN486@inflate:

; 1217 :             *put++ = (unsigned char)(state->length);

	mov	eax, DWORD PTR _put$[ebp]
	mov	ecx, DWORD PTR _state$[ebp]
	mov	dl, BYTE PTR [ecx+68]
	mov	BYTE PTR [eax], dl
	mov	eax, DWORD PTR _put$[ebp]
	add	eax, 1
	mov	DWORD PTR _put$[ebp], eax

; 1218 :             left--;

	mov	ecx, DWORD PTR _left$[ebp]
	sub	ecx, 1
	mov	DWORD PTR _left$[ebp], ecx

; 1219 :             state->mode = LEN;

	mov	edx, DWORD PTR _state$[ebp]
	mov	DWORD PTR [edx+4], 16200		; 00003f48H

; 1220 :             break;

	jmp	$LN8@inflate
$LN487@inflate:

; 1221 :         case CHECK:
; 1222 :             if (state->wrap) {

	mov	eax, DWORD PTR _state$[ebp]
	cmp	DWORD PTR [eax+12], 0
	je	$LN488@inflate
$LN310@inflate:

; 1223 :                 NEEDBITS(32);

	cmp	DWORD PTR _bits$[ebp], 32		; 00000020H
	jae	SHORT $LN307@inflate
$LN314@inflate:
	cmp	DWORD PTR _have$[ebp], 0
	jne	SHORT $LN489@inflate
	jmp	$inf_leave$528
$LN489@inflate:
	mov	ecx, DWORD PTR _have$[ebp]
	sub	ecx, 1
	mov	DWORD PTR _have$[ebp], ecx
	mov	edx, DWORD PTR _next$[ebp]
	movzx	eax, BYTE PTR [edx]
	mov	ecx, DWORD PTR _bits$[ebp]
	shl	eax, cl
	add	eax, DWORD PTR _hold$[ebp]
	mov	DWORD PTR _hold$[ebp], eax
	mov	ecx, DWORD PTR _next$[ebp]
	add	ecx, 1
	mov	DWORD PTR _next$[ebp], ecx
	mov	edx, DWORD PTR _bits$[ebp]
	add	edx, 8
	mov	DWORD PTR _bits$[ebp], edx
	xor	eax, eax
	jne	SHORT $LN314@inflate
	jmp	SHORT $LN310@inflate
$LN307@inflate:
	xor	ecx, ecx
	jne	SHORT $LN310@inflate

; 1224 :                 out -= left;

	mov	edx, DWORD PTR _out$[ebp]
	sub	edx, DWORD PTR _left$[ebp]
	mov	DWORD PTR _out$[ebp], edx

; 1225 :                 strm->total_out += out;

	mov	eax, DWORD PTR _strm$[ebp]
	mov	ecx, DWORD PTR [eax+20]
	add	ecx, DWORD PTR _out$[ebp]
	mov	edx, DWORD PTR _strm$[ebp]
	mov	DWORD PTR [edx+20], ecx

; 1226 :                 state->total += out;

	mov	eax, DWORD PTR _state$[ebp]
	mov	ecx, DWORD PTR [eax+32]
	add	ecx, DWORD PTR _out$[ebp]
	mov	edx, DWORD PTR _state$[ebp]
	mov	DWORD PTR [edx+32], ecx

; 1227 :                 if ((state->wrap & 4) && out)

	mov	eax, DWORD PTR _state$[ebp]
	mov	ecx, DWORD PTR [eax+12]
	and	ecx, 4
	je	SHORT $LN490@inflate
	cmp	DWORD PTR _out$[ebp], 0
	je	SHORT $LN490@inflate

; 1228 :                     strm->adler = state->check =

	mov	edx, DWORD PTR _state$[ebp]
	cmp	DWORD PTR [edx+20], 0
	je	SHORT $LN514@inflate
	mov	eax, DWORD PTR _out$[ebp]
	push	eax
	mov	ecx, DWORD PTR _put$[ebp]
	sub	ecx, DWORD PTR _out$[ebp]
	push	ecx
	mov	edx, DWORD PTR _state$[ebp]
	mov	eax, DWORD PTR [edx+28]
	push	eax
	call	_crc32@12
	mov	DWORD PTR tv1305[ebp], eax
	jmp	SHORT $LN515@inflate
$LN514@inflate:
	mov	ecx, DWORD PTR _out$[ebp]
	push	ecx
	mov	edx, DWORD PTR _put$[ebp]
	sub	edx, DWORD PTR _out$[ebp]
	push	edx
	mov	eax, DWORD PTR _state$[ebp]
	mov	ecx, DWORD PTR [eax+28]
	push	ecx
	call	_adler32@12
	mov	DWORD PTR tv1305[ebp], eax
$LN515@inflate:
	mov	edx, DWORD PTR _state$[ebp]
	mov	eax, DWORD PTR tv1305[ebp]
	mov	DWORD PTR [edx+28], eax
	mov	ecx, DWORD PTR _strm$[ebp]
	mov	edx, DWORD PTR tv1305[ebp]
	mov	DWORD PTR [ecx+48], edx
$LN490@inflate:

; 1229 :                         UPDATE_CHECK(state->check, put - out, out);
; 1230 :                 out = left;

	mov	eax, DWORD PTR _left$[ebp]
	mov	DWORD PTR _out$[ebp], eax

; 1231 :                 if ((state->wrap & 4) && (

	mov	ecx, DWORD PTR _state$[ebp]
	mov	edx, DWORD PTR [ecx+12]
	and	edx, 4
	je	SHORT $LN317@inflate
	mov	eax, DWORD PTR _state$[ebp]
	cmp	DWORD PTR [eax+20], 0
	je	SHORT $LN516@inflate
	mov	ecx, DWORD PTR _hold$[ebp]
	mov	DWORD PTR tv1322[ebp], ecx
	jmp	SHORT $LN517@inflate
$LN516@inflate:
	mov	edx, DWORD PTR _hold$[ebp]
	shr	edx, 24					; 00000018H
	and	edx, 255				; 000000ffH
	mov	eax, DWORD PTR _hold$[ebp]
	shr	eax, 8
	and	eax, 65280				; 0000ff00H
	add	edx, eax
	mov	ecx, DWORD PTR _hold$[ebp]
	and	ecx, 65280				; 0000ff00H
	shl	ecx, 8
	add	edx, ecx
	mov	eax, DWORD PTR _hold$[ebp]
	and	eax, 255				; 000000ffH
	shl	eax, 24					; 00000018H
	add	edx, eax
	mov	DWORD PTR tv1322[ebp], edx
$LN517@inflate:
	mov	ecx, DWORD PTR _state$[ebp]
	mov	edx, DWORD PTR tv1322[ebp]
	cmp	edx, DWORD PTR [ecx+28]
	je	SHORT $LN317@inflate

; 1232 : #ifdef GUNZIP
; 1233 :                      state->flags ? hold :
; 1234 : #endif
; 1235 :                      ZSWAP32(hold)) != state->check) {
; 1236 :                     strm->msg = (char *)"incorrect data check";

	mov	eax, DWORD PTR _strm$[ebp]
	mov	DWORD PTR [eax+24], OFFSET $SG44238

; 1237 :                     state->mode = BAD;

	mov	ecx, DWORD PTR _state$[ebp]
	mov	DWORD PTR [ecx+4], 16209		; 00003f51H

; 1238 :                     break;

	jmp	$LN8@inflate
$LN317@inflate:

; 1239 :                 }
; 1240 :                 INITBITS();

	mov	DWORD PTR _hold$[ebp], 0
	mov	DWORD PTR _bits$[ebp], 0
	xor	edx, edx
	jne	SHORT $LN317@inflate
$LN488@inflate:

; 1241 :                 Tracev((stderr, "inflate:   check matches trailer\n"));
; 1242 :             }
; 1243 : #ifdef GUNZIP
; 1244 :             state->mode = LENGTH;

	mov	eax, DWORD PTR _state$[ebp]
	mov	DWORD PTR [eax+4], 16207		; 00003f4fH
$LN492@inflate:

; 1245 :                 /* fallthrough */
; 1246 :         case LENGTH:
; 1247 :             if (state->wrap && state->flags) {

	mov	ecx, DWORD PTR _state$[ebp]
	cmp	DWORD PTR [ecx+12], 0
	je	$LN493@inflate
	mov	edx, DWORD PTR _state$[ebp]
	cmp	DWORD PTR [edx+20], 0
	je	$LN493@inflate
$LN321@inflate:

; 1248 :                 NEEDBITS(32);

	cmp	DWORD PTR _bits$[ebp], 32		; 00000020H
	jae	SHORT $LN318@inflate
$LN325@inflate:
	cmp	DWORD PTR _have$[ebp], 0
	jne	SHORT $LN494@inflate
	jmp	$inf_leave$528
$LN494@inflate:
	mov	eax, DWORD PTR _have$[ebp]
	sub	eax, 1
	mov	DWORD PTR _have$[ebp], eax
	mov	ecx, DWORD PTR _next$[ebp]
	movzx	edx, BYTE PTR [ecx]
	mov	ecx, DWORD PTR _bits$[ebp]
	shl	edx, cl
	add	edx, DWORD PTR _hold$[ebp]
	mov	DWORD PTR _hold$[ebp], edx
	mov	eax, DWORD PTR _next$[ebp]
	add	eax, 1
	mov	DWORD PTR _next$[ebp], eax
	mov	ecx, DWORD PTR _bits$[ebp]
	add	ecx, 8
	mov	DWORD PTR _bits$[ebp], ecx
	xor	edx, edx
	jne	SHORT $LN325@inflate
	jmp	SHORT $LN321@inflate
$LN318@inflate:
	xor	eax, eax
	jne	SHORT $LN321@inflate

; 1249 :                 if ((state->wrap & 4) && hold != (state->total & 0xffffffff)) {

	mov	ecx, DWORD PTR _state$[ebp]
	mov	edx, DWORD PTR [ecx+12]
	and	edx, 4
	je	SHORT $LN328@inflate
	mov	eax, DWORD PTR _state$[ebp]
	mov	ecx, DWORD PTR _hold$[ebp]
	cmp	ecx, DWORD PTR [eax+32]
	je	SHORT $LN328@inflate

; 1250 :                     strm->msg = (char *)"incorrect length check";

	mov	edx, DWORD PTR _strm$[ebp]
	mov	DWORD PTR [edx+24], OFFSET $SG44243

; 1251 :                     state->mode = BAD;

	mov	eax, DWORD PTR _state$[ebp]
	mov	DWORD PTR [eax+4], 16209		; 00003f51H

; 1252 :                     break;

	jmp	SHORT $LN8@inflate
$LN328@inflate:

; 1253 :                 }
; 1254 :                 INITBITS();

	mov	DWORD PTR _hold$[ebp], 0
	mov	DWORD PTR _bits$[ebp], 0
	xor	ecx, ecx
	jne	SHORT $LN328@inflate
$LN493@inflate:

; 1255 :                 Tracev((stderr, "inflate:   length matches trailer\n"));
; 1256 :             }
; 1257 : #endif
; 1258 :             state->mode = DONE;

	mov	edx, DWORD PTR _state$[ebp]
	mov	DWORD PTR [edx+4], 16208		; 00003f50H
$LN496@inflate:

; 1259 :                 /* fallthrough */
; 1260 :         case DONE:
; 1261 :             ret = Z_STREAM_END;

	mov	DWORD PTR _ret$[ebp], 1

; 1262 :             goto inf_leave;

	jmp	SHORT $inf_leave$528
$LN497@inflate:

; 1263 :         case BAD:
; 1264 :             ret = Z_DATA_ERROR;

	mov	DWORD PTR _ret$[ebp], -3		; fffffffdH

; 1265 :             goto inf_leave;

	jmp	SHORT $inf_leave$528
$LN498@inflate:

; 1266 :         case MEM:
; 1267 :             return Z_MEM_ERROR;

	mov	eax, -4					; fffffffcH
	jmp	$LN1@inflate
$LN500@inflate:

; 1268 :         case SYNC:
; 1269 :                 /* fallthrough */
; 1270 :         default:
; 1271 :             return Z_STREAM_ERROR;

	mov	eax, -2					; fffffffeH
	jmp	$LN1@inflate
$LN8@inflate:

; 1272 :         }

	jmp	$LN7@inflate
$inf_leave$528:

; 1273 : 
; 1274 :     /*
; 1275 :        Return from inflate(), updating the total counts and the check value.
; 1276 :        If there was no progress during the inflate() call, return a buffer
; 1277 :        error.  Call updatewindow() to create and/or update the window state.
; 1278 :        Note: a memory error from inflate() is non-recoverable.
; 1279 :      */
; 1280 :   inf_leave:
; 1281 :     RESTORE();

	mov	eax, DWORD PTR _strm$[ebp]
	mov	ecx, DWORD PTR _put$[ebp]
	mov	DWORD PTR [eax+12], ecx
	mov	edx, DWORD PTR _strm$[ebp]
	mov	eax, DWORD PTR _left$[ebp]
	mov	DWORD PTR [edx+16], eax
	mov	ecx, DWORD PTR _strm$[ebp]
	mov	edx, DWORD PTR _next$[ebp]
	mov	DWORD PTR [ecx], edx
	mov	eax, DWORD PTR _strm$[ebp]
	mov	ecx, DWORD PTR _have$[ebp]
	mov	DWORD PTR [eax+4], ecx
	mov	edx, DWORD PTR _state$[ebp]
	mov	eax, DWORD PTR _hold$[ebp]
	mov	DWORD PTR [edx+60], eax
	mov	ecx, DWORD PTR _state$[ebp]
	mov	edx, DWORD PTR _bits$[ebp]
	mov	DWORD PTR [ecx+64], edx
	xor	eax, eax
	jne	SHORT $inf_leave$528

; 1282 :     if (state->wsize || (out != strm->avail_out && state->mode < BAD &&

	mov	ecx, DWORD PTR _state$[ebp]
	cmp	DWORD PTR [ecx+44], 0
	jne	SHORT $LN502@inflate
	mov	edx, DWORD PTR _strm$[ebp]
	mov	eax, DWORD PTR _out$[ebp]
	cmp	eax, DWORD PTR [edx+16]
	je	SHORT $LN501@inflate
	mov	ecx, DWORD PTR _state$[ebp]
	cmp	DWORD PTR [ecx+4], 16209		; 00003f51H
	jge	SHORT $LN501@inflate
	mov	edx, DWORD PTR _state$[ebp]
	cmp	DWORD PTR [edx+4], 16206		; 00003f4eH
	jl	SHORT $LN502@inflate
	cmp	DWORD PTR _flush$[ebp], 4
	je	SHORT $LN501@inflate
$LN502@inflate:

; 1283 :             (state->mode < CHECK || flush != Z_FINISH)))
; 1284 :         if (updatewindow(strm, strm->next_out, out - strm->avail_out)) {

	mov	eax, DWORD PTR _strm$[ebp]
	mov	ecx, DWORD PTR _out$[ebp]
	sub	ecx, DWORD PTR [eax+16]
	push	ecx
	mov	edx, DWORD PTR _strm$[ebp]
	mov	eax, DWORD PTR [edx+12]
	push	eax
	mov	ecx, DWORD PTR _strm$[ebp]
	push	ecx
	call	_updatewindow
	add	esp, 12					; 0000000cH
	test	eax, eax
	je	SHORT $LN501@inflate

; 1285 :             state->mode = MEM;

	mov	edx, DWORD PTR _state$[ebp]
	mov	DWORD PTR [edx+4], 16210		; 00003f52H

; 1286 :             return Z_MEM_ERROR;

	mov	eax, -4					; fffffffcH
	jmp	$LN1@inflate
$LN501@inflate:

; 1287 :         }
; 1288 :     in -= strm->avail_in;

	mov	eax, DWORD PTR _strm$[ebp]
	mov	ecx, DWORD PTR _in$[ebp]
	sub	ecx, DWORD PTR [eax+4]
	mov	DWORD PTR _in$[ebp], ecx

; 1289 :     out -= strm->avail_out;

	mov	edx, DWORD PTR _strm$[ebp]
	mov	eax, DWORD PTR _out$[ebp]
	sub	eax, DWORD PTR [edx+16]
	mov	DWORD PTR _out$[ebp], eax

; 1290 :     strm->total_in += in;

	mov	ecx, DWORD PTR _strm$[ebp]
	mov	edx, DWORD PTR [ecx+8]
	add	edx, DWORD PTR _in$[ebp]
	mov	eax, DWORD PTR _strm$[ebp]
	mov	DWORD PTR [eax+8], edx

; 1291 :     strm->total_out += out;

	mov	ecx, DWORD PTR _strm$[ebp]
	mov	edx, DWORD PTR [ecx+20]
	add	edx, DWORD PTR _out$[ebp]
	mov	eax, DWORD PTR _strm$[ebp]
	mov	DWORD PTR [eax+20], edx

; 1292 :     state->total += out;

	mov	ecx, DWORD PTR _state$[ebp]
	mov	edx, DWORD PTR [ecx+32]
	add	edx, DWORD PTR _out$[ebp]
	mov	eax, DWORD PTR _state$[ebp]
	mov	DWORD PTR [eax+32], edx

; 1293 :     if ((state->wrap & 4) && out)

	mov	ecx, DWORD PTR _state$[ebp]
	mov	edx, DWORD PTR [ecx+12]
	and	edx, 4
	je	SHORT $LN505@inflate
	cmp	DWORD PTR _out$[ebp], 0
	je	SHORT $LN505@inflate

; 1294 :         strm->adler = state->check =

	mov	eax, DWORD PTR _state$[ebp]
	cmp	DWORD PTR [eax+20], 0
	je	SHORT $LN518@inflate
	mov	ecx, DWORD PTR _out$[ebp]
	push	ecx
	mov	edx, DWORD PTR _strm$[ebp]
	mov	eax, DWORD PTR [edx+12]
	sub	eax, DWORD PTR _out$[ebp]
	push	eax
	mov	ecx, DWORD PTR _state$[ebp]
	mov	edx, DWORD PTR [ecx+28]
	push	edx
	call	_crc32@12
	mov	DWORD PTR tv1414[ebp], eax
	jmp	SHORT $LN519@inflate
$LN518@inflate:
	mov	eax, DWORD PTR _out$[ebp]
	push	eax
	mov	ecx, DWORD PTR _strm$[ebp]
	mov	edx, DWORD PTR [ecx+12]
	sub	edx, DWORD PTR _out$[ebp]
	push	edx
	mov	eax, DWORD PTR _state$[ebp]
	mov	ecx, DWORD PTR [eax+28]
	push	ecx
	call	_adler32@12
	mov	DWORD PTR tv1414[ebp], eax
$LN519@inflate:
	mov	edx, DWORD PTR _state$[ebp]
	mov	eax, DWORD PTR tv1414[ebp]
	mov	DWORD PTR [edx+28], eax
	mov	ecx, DWORD PTR _strm$[ebp]
	mov	edx, DWORD PTR tv1414[ebp]
	mov	DWORD PTR [ecx+48], edx
$LN505@inflate:

; 1295 :             UPDATE_CHECK(state->check, strm->next_out - out, out);
; 1296 :     strm->data_type = (int)state->bits + (state->last ? 64 : 0) +

	mov	eax, DWORD PTR _state$[ebp]
	cmp	DWORD PTR [eax+8], 0
	je	SHORT $LN520@inflate
	mov	DWORD PTR tv1419[ebp], 64		; 00000040H
	jmp	SHORT $LN521@inflate
$LN520@inflate:
	mov	DWORD PTR tv1419[ebp], 0
$LN521@inflate:
	mov	ecx, DWORD PTR _state$[ebp]
	cmp	DWORD PTR [ecx+4], 16191		; 00003f3fH
	jne	SHORT $LN522@inflate
	mov	DWORD PTR tv1423[ebp], 128		; 00000080H
	jmp	SHORT $LN523@inflate
$LN522@inflate:
	mov	DWORD PTR tv1423[ebp], 0
$LN523@inflate:
	mov	edx, DWORD PTR _state$[ebp]
	cmp	DWORD PTR [edx+4], 16199		; 00003f47H
	je	SHORT $LN524@inflate
	mov	eax, DWORD PTR _state$[ebp]
	cmp	DWORD PTR [eax+4], 16194		; 00003f42H
	je	SHORT $LN524@inflate
	mov	DWORD PTR tv1429[ebp], 0
	jmp	SHORT $LN525@inflate
$LN524@inflate:
	mov	DWORD PTR tv1429[ebp], 256		; 00000100H
$LN525@inflate:
	mov	ecx, DWORD PTR _state$[ebp]
	mov	edx, DWORD PTR [ecx+64]
	add	edx, DWORD PTR tv1419[ebp]
	add	edx, DWORD PTR tv1423[ebp]
	add	edx, DWORD PTR tv1429[ebp]
	mov	eax, DWORD PTR _strm$[ebp]
	mov	DWORD PTR [eax+44], edx

; 1297 :                       (state->mode == TYPE ? 128 : 0) +
; 1298 :                       (state->mode == LEN_ || state->mode == COPY_ ? 256 : 0);
; 1299 :     if (((in == 0 && out == 0) || flush == Z_FINISH) && ret == Z_OK)

	cmp	DWORD PTR _in$[ebp], 0
	jne	SHORT $LN508@inflate
	cmp	DWORD PTR _out$[ebp], 0
	je	SHORT $LN507@inflate
$LN508@inflate:
	cmp	DWORD PTR _flush$[ebp], 4
	jne	SHORT $LN506@inflate
$LN507@inflate:
	cmp	DWORD PTR _ret$[ebp], 0
	jne	SHORT $LN506@inflate

; 1300 :         ret = Z_BUF_ERROR;

	mov	DWORD PTR _ret$[ebp], -5		; fffffffbH
$LN506@inflate:

; 1301 :     return ret;

	mov	eax, DWORD PTR _ret$[ebp]
$LN1@inflate:

; 1302 : }

	mov	esp, ebp
	pop	ebp
	ret	8
$LN526@inflate:
	DD	$LN335@inflate
	DD	$LN33@inflate
	DD	$LN47@inflate
	DD	$LN61@inflate
	DD	$LN361@inflate
	DD	$LN368@inflate
	DD	$LN375@inflate
	DD	$LN384@inflate
	DD	$LN393@inflate
	DD	$LN106@inflate
	DD	$LN400@inflate
	DD	$LN402@inflate
	DD	$LN405@inflate
	DD	$LN141@inflate
	DD	$LN417@inflate
	DD	$LN418@inflate
	DD	$LN156@inflate
	DD	$LN170@inflate
	DD	$LN185@inflate
	DD	$LN449@inflate
	DD	$LN450@inflate
	DD	$LN461@inflate
	DD	$LN277@inflate
	DD	$LN471@inflate
	DD	$LN474@inflate
	DD	$LN485@inflate
	DD	$LN487@inflate
	DD	$LN492@inflate
	DD	$LN496@inflate
	DD	$LN497@inflate
	DD	$LN498@inflate
	DD	$LN500@inflate
$LN527@inflate:
	DD	$LN408@inflate
	DD	$LN409@inflate
	DD	$LN411@inflate
	DD	$LN412@inflate
_inflate@8 ENDP
_TEXT	ENDS
END
