; Listing generated by Microsoft (R) Optimizing Compiler Version 19.36.32537.0 

	TITLE	c:\users\chris\documents\github\fastcopy-m\external\zlib\contrib\vstudio\vc12\x86\zlibdllrelease\tmp\zutil.obj
	.686P
	.XMM
	include listing.inc
	.model	flat

INCLUDELIB OLDNAMES

PUBLIC	_z_errmsg
PUBLIC	??_C@_0BA@MOKMMFOD@need?5dictionary@		; `string'
PUBLIC	??_C@_0L@FNAOCBOG@stream?5end@			; `string'
PUBLIC	??_C@_0L@KIJFAKBJ@file?5error@			; `string'
PUBLIC	??_C@_0N@MKKNPMJD@stream?5error@		; `string'
PUBLIC	??_C@_0L@HAHMBNLP@data?5error@			; `string'
PUBLIC	??_C@_0BE@OGGJBMCE@insufficient?5memory@	; `string'
PUBLIC	??_C@_0N@DFPGLBGC@buffer?5error@		; `string'
PUBLIC	??_C@_0BF@CJFPCCEG@incompatible?5version@	; `string'
;	COMDAT ??_C@_0BF@CJFPCCEG@incompatible?5version@
CONST	SEGMENT
??_C@_0BF@CJFPCCEG@incompatible?5version@ DB 'incompatible version', 00H ; `string'
CONST	ENDS
;	COMDAT ??_C@_0N@DFPGLBGC@buffer?5error@
CONST	SEGMENT
??_C@_0N@DFPGLBGC@buffer?5error@ DB 'buffer error', 00H	; `string'
CONST	ENDS
;	COMDAT ??_C@_0BE@OGGJBMCE@insufficient?5memory@
CONST	SEGMENT
??_C@_0BE@OGGJBMCE@insufficient?5memory@ DB 'insufficient memory', 00H ; `string'
CONST	ENDS
;	COMDAT ??_C@_0L@HAHMBNLP@data?5error@
CONST	SEGMENT
??_C@_0L@HAHMBNLP@data?5error@ DB 'data error', 00H	; `string'
CONST	ENDS
;	COMDAT ??_C@_0N@MKKNPMJD@stream?5error@
CONST	SEGMENT
??_C@_0N@MKKNPMJD@stream?5error@ DB 'stream error', 00H	; `string'
CONST	ENDS
;	COMDAT ??_C@_0L@KIJFAKBJ@file?5error@
CONST	SEGMENT
??_C@_0L@KIJFAKBJ@file?5error@ DB 'file error', 00H	; `string'
CONST	ENDS
;	COMDAT ??_C@_0L@FNAOCBOG@stream?5end@
CONST	SEGMENT
??_C@_0L@FNAOCBOG@stream?5end@ DB 'stream end', 00H	; `string'
CONST	ENDS
;	COMDAT ??_C@_0BA@MOKMMFOD@need?5dictionary@
CONST	SEGMENT
??_C@_0BA@MOKMMFOD@need?5dictionary@ DB 'need dictionary', 00H ; `string'
	ORG $+3
_z_errmsg DD	FLAT:??_C@_0BA@MOKMMFOD@need?5dictionary@
	DD	FLAT:??_C@_0L@FNAOCBOG@stream?5end@
	DD	FLAT:??_C@_00CNPNBAHC@@
	DD	FLAT:??_C@_0L@KIJFAKBJ@file?5error@
	DD	FLAT:??_C@_0N@MKKNPMJD@stream?5error@
	DD	FLAT:??_C@_0L@HAHMBNLP@data?5error@
	DD	FLAT:??_C@_0BE@OGGJBMCE@insufficient?5memory@
	DD	FLAT:??_C@_0N@DFPGLBGC@buffer?5error@
	DD	FLAT:??_C@_0BF@CJFPCCEG@incompatible?5version@
	DD	FLAT:??_C@_00CNPNBAHC@@
PUBLIC	_zError@4
PUBLIC	_zlibCompileFlags@0
PUBLIC	_zlibVersion@0
PUBLIC	_zcfree
PUBLIC	_zcalloc
; Function compile flags: /Ogtp
; File C:\Users\chris\Documents\GitHub\FastCopy-M\external\zlib\zutil.c
;	COMDAT _zcalloc
_TEXT	SEGMENT
_opaque$ = 8						; size = 4
_items$ = 12						; size = 4
_size$ = 16						; size = 4
_zcalloc PROC						; COMDAT

; 286  : voidpf ZLIB_INTERNAL zcalloc(voidpf opaque, unsigned items, unsigned size) {

  00000	55		 push	 ebp
  00001	8b ec		 mov	 ebp, esp

; 287  :     (void)opaque;
; 288  :     return sizeof(uInt) > 2 ? (voidpf)malloc(items * size) :

  00003	8b 45 0c	 mov	 eax, DWORD PTR _items$[ebp]
  00006	0f af 45 10	 imul	 eax, DWORD PTR _size$[ebp]
  0000a	50		 push	 eax
  0000b	e8 00 00 00 00	 call	 _malloc
  00010	83 c4 04	 add	 esp, 4

; 289  :                               (voidpf)calloc(items, size);
; 290  : }

  00013	5d		 pop	 ebp
  00014	c3		 ret	 0
_zcalloc ENDP
_TEXT	ENDS
; Function compile flags: /Ogtp
; File C:\Users\chris\Documents\GitHub\FastCopy-M\external\zlib\zutil.c
;	COMDAT _zcfree
_TEXT	SEGMENT
_opaque$ = 8						; size = 4
_ptr$ = 12						; size = 4
_zcfree	PROC						; COMDAT

; 292  : void ZLIB_INTERNAL zcfree(voidpf opaque, voidpf ptr) {

  00000	55		 push	 ebp
  00001	8b ec		 mov	 ebp, esp

; 293  :     (void)opaque;
; 294  :     free(ptr);

  00003	ff 75 0c	 push	 DWORD PTR _ptr$[ebp]
  00006	e8 00 00 00 00	 call	 _free
  0000b	83 c4 04	 add	 esp, 4

; 295  : }

  0000e	5d		 pop	 ebp
  0000f	c3		 ret	 0
_zcfree	ENDP
_TEXT	ENDS
; Function compile flags: /Ogtp
; File C:\Users\chris\Documents\GitHub\FastCopy-M\external\zlib\zutil.c
;	COMDAT _zlibVersion@0
_TEXT	SEGMENT
_zlibVersion@0 PROC					; COMDAT

; 28   :     return ZLIB_VERSION;

  00000	b8 00 00 00 00	 mov	 eax, OFFSET ??_C@_0BA@MAILBDAG@1?42?413?41?9motley@

; 29   : }

  00005	c3		 ret	 0
_zlibVersion@0 ENDP
_TEXT	ENDS
; Function compile flags: /Ogtp
; File C:\Users\chris\Documents\GitHub\FastCopy-M\external\zlib\zutil.c
;	COMDAT _zlibCompileFlags@0
_TEXT	SEGMENT
_zlibCompileFlags@0 PROC				; COMDAT

; 32   :     uLong flags;
; 33   : 
; 34   :     flags = 0;
; 35   :     switch ((int)(sizeof(uInt))) {
; 36   :     case 2:     break;
; 37   :     case 4:     flags += 1;     break;
; 38   :     case 8:     flags += 2;     break;
; 39   :     default:    flags += 3;
; 40   :     }
; 41   :     switch ((int)(sizeof(uLong))) {
; 42   :     case 2:     break;
; 43   :     case 4:     flags += 1 << 2;        break;
; 44   :     case 8:     flags += 2 << 2;        break;
; 45   :     default:    flags += 3 << 2;
; 46   :     }
; 47   :     switch ((int)(sizeof(voidpf))) {
; 48   :     case 2:     break;
; 49   :     case 4:     flags += 1 << 4;        break;
; 50   :     case 8:     flags += 2 << 4;        break;
; 51   :     default:    flags += 3 << 4;
; 52   :     }
; 53   :     switch ((int)(sizeof(z_off_t))) {
; 54   :     case 2:     break;
; 55   :     case 4:     flags += 1 << 6;        break;
; 56   :     case 8:     flags += 2 << 6;        break;
; 57   :     default:    flags += 3 << 6;
; 58   :     }
; 59   : #ifdef ZLIB_DEBUG
; 60   :     flags += 1 << 8;
; 61   : #endif
; 62   :     /*
; 63   : #if defined(ASMV) || defined(ASMINF)
; 64   :     flags += 1 << 9;
; 65   : #endif
; 66   :      */
; 67   : #ifdef ZLIB_WINAPI
; 68   :     flags += 1 << 10;
; 69   : #endif
; 70   : #ifdef BUILDFIXED
; 71   :     flags += 1 << 12;
; 72   : #endif
; 73   : #ifdef DYNAMIC_CRC_TABLE
; 74   :     flags += 1 << 13;
; 75   : #endif
; 76   : #ifdef NO_GZCOMPRESS
; 77   :     flags += 1L << 16;
; 78   : #endif
; 79   : #ifdef NO_GZIP
; 80   :     flags += 1L << 17;
; 81   : #endif
; 82   : #ifdef PKZIP_BUG_WORKAROUND
; 83   :     flags += 1L << 20;
; 84   : #endif
; 85   : #ifdef FASTEST
; 86   :     flags += 1L << 21;
; 87   : #endif
; 88   : #if defined(STDC) || defined(Z_HAVE_STDARG_H)
; 89   : #  ifdef NO_vsnprintf
; 90   :     flags += 1L << 25;
; 91   : #    ifdef HAS_vsprintf_void
; 92   :     flags += 1L << 26;
; 93   : #    endif
; 94   : #  else
; 95   : #    ifdef HAS_vsnprintf_void
; 96   :     flags += 1L << 26;
; 97   : #    endif
; 98   : #  endif
; 99   : #else
; 100  :     flags += 1L << 24;
; 101  : #  ifdef NO_snprintf
; 102  :     flags += 1L << 25;
; 103  : #    ifdef HAS_sprintf_void
; 104  :     flags += 1L << 26;
; 105  : #    endif
; 106  : #  else
; 107  : #    ifdef HAS_snprintf_void
; 108  :     flags += 1L << 26;
; 109  : #    endif
; 110  : #  endif
; 111  : #endif
; 112  :     return flags;

  00000	b8 55 04 00 00	 mov	 eax, 1109		; 00000455H

; 113  : }

  00005	c3		 ret	 0
_zlibCompileFlags@0 ENDP
_TEXT	ENDS
; Function compile flags: /Ogtp
; File C:\Users\chris\Documents\GitHub\FastCopy-M\external\zlib\zutil.c
;	COMDAT _zError@4
_TEXT	SEGMENT
_err$ = 8						; size = 4
_zError@4 PROC						; COMDAT

; 131  : const char * ZEXPORT zError(int err) {

  00000	55		 push	 ebp
  00001	8b ec		 mov	 ebp, esp

; 132  :     return ERR_MSG(err);

  00003	8b 45 08	 mov	 eax, DWORD PTR _err$[ebp]
  00006	b9 08 00 00 00	 mov	 ecx, OFFSET _z_errmsg+8
  0000b	c1 e0 02	 shl	 eax, 2
  0000e	2b c8		 sub	 ecx, eax
  00010	8b 01		 mov	 eax, DWORD PTR [ecx]

; 133  : }

  00012	5d		 pop	 ebp
  00013	c2 04 00	 ret	 4
_zError@4 ENDP
_TEXT	ENDS
END
