; Listing generated by Microsoft (R) Optimizing Compiler Version 19.36.32537.0 

include listing.inc

INCLUDELIB OLDNAMES

PUBLIC	??_C@_02DKCKIIND@?$CFs@				; `string'
PUBLIC	??_C@_07EBNKNFJN@?$DMfd?3?$CFd?$DO@		; `string'
PUBLIC	??_C@_0O@BNNCBLEN@out?5of?5memory@		; `string'
PUBLIC	??_C@_00CNPNBAHC@@				; `string'
PUBLIC	??_C@_02LMMGGCAJ@?3?5@				; `string'
PUBLIC	??_C@_06DIJPEION@?$CFs?$CFs?$CFs@		; `string'
EXTRN	__imp_malloc:PROC
EXTRN	__imp_free:PROC
EXTRN	__imp___stdio_common_vsprintf:PROC
EXTRN	__imp_wcstombs:PROC
EXTRN	__imp__open:PROC
EXTRN	__imp__wopen:PROC
EXTRN	__imp__lseeki64:PROC
;	COMDAT ??_C@_06DIJPEION@?$CFs?$CFs?$CFs@
CONST	SEGMENT
??_C@_06DIJPEION@?$CFs?$CFs?$CFs@ DB '%s%s%s', 00H	; `string'
CONST	ENDS
;	COMDAT ??_C@_02LMMGGCAJ@?3?5@
CONST	SEGMENT
??_C@_02LMMGGCAJ@?3?5@ DB ': ', 00H			; `string'
CONST	ENDS
;	COMDAT ??_C@_00CNPNBAHC@@
CONST	SEGMENT
??_C@_00CNPNBAHC@@ DB 00H				; `string'
CONST	ENDS
;	COMDAT ??_C@_0O@BNNCBLEN@out?5of?5memory@
CONST	SEGMENT
??_C@_0O@BNNCBLEN@out?5of?5memory@ DB 'out of memory', 00H ; `string'
CONST	ENDS
;	COMDAT ??_C@_07EBNKNFJN@?$DMfd?3?$CFd?$DO@
CONST	SEGMENT
??_C@_07EBNKNFJN@?$DMfd?3?$CFd?$DO@ DB '<fd:%d>', 00H	; `string'
CONST	ENDS
;	COMDAT ??_C@_02DKCKIIND@?$CFs@
CONST	SEGMENT
??_C@_02DKCKIIND@?$CFs@ DB '%s', 00H			; `string'
PUBLIC	gz_error
PUBLIC	gzclearerr
PUBLIC	gzerror
PUBLIC	gzeof
PUBLIC	gzoffset
PUBLIC	gzoffset64
PUBLIC	gztell
PUBLIC	gztell64
PUBLIC	gzseek
PUBLIC	gzseek64
PUBLIC	gzrewind
PUBLIC	gzbuffer
PUBLIC	gzopen_w
PUBLIC	gzdopen
PUBLIC	gzopen
PUBLIC	snprintf
PUBLIC	vsnprintf
PUBLIC	__local_stdio_printf_options
;	COMDAT pdata
pdata	SEGMENT
$pdata$gz_error DD imagerel $LN26
	DD	imagerel $LN26+259
	DD	imagerel $unwind$gz_error
pdata	ENDS
;	COMDAT pdata
pdata	SEGMENT
$pdata$gzoffset DD imagerel $LN4
	DD	imagerel $LN4+31
	DD	imagerel $unwind$gzoffset
pdata	ENDS
;	COMDAT pdata
pdata	SEGMENT
$pdata$gzoffset64 DD imagerel $LN15
	DD	imagerel $LN15+89
	DD	imagerel $unwind$gzoffset64
pdata	ENDS
;	COMDAT pdata
pdata	SEGMENT
$pdata$gztell DD imagerel $LN4
	DD	imagerel $LN4+32
	DD	imagerel $unwind$gztell
pdata	ENDS
;	COMDAT pdata
pdata	SEGMENT
$pdata$gzseek DD imagerel $LN4
	DD	imagerel $LN4+34
	DD	imagerel $unwind$gzseek
pdata	ENDS
;	COMDAT pdata
pdata	SEGMENT
$pdata$gzseek64 DD imagerel $LN50
	DD	imagerel $LN50+331
	DD	imagerel $unwind$gzseek64
pdata	ENDS
;	COMDAT pdata
pdata	SEGMENT
$pdata$gzrewind DD imagerel $LN14
	DD	imagerel $LN14+84
	DD	imagerel $unwind$gzrewind
pdata	ENDS
;	COMDAT pdata
pdata	SEGMENT
$pdata$gzdopen DD imagerel $LN8
	DD	imagerel $LN8+129
	DD	imagerel $unwind$gzdopen
pdata	ENDS
;	COMDAT pdata
pdata	SEGMENT
$pdata$gz_open DD imagerel gz_open
	DD	imagerel gz_open+72
	DD	imagerel $unwind$gz_open
pdata	ENDS
;	COMDAT pdata
pdata	SEGMENT
$pdata$0$gz_open DD imagerel gz_open+72
	DD	imagerel gz_open+608
	DD	imagerel $chain$0$gz_open
pdata	ENDS
;	COMDAT pdata
pdata	SEGMENT
$pdata$1$gz_open DD imagerel gz_open+608
	DD	imagerel gz_open+634
	DD	imagerel $chain$1$gz_open
pdata	ENDS
;	COMDAT pdata
pdata	SEGMENT
$pdata$2$gz_open DD imagerel gz_open+634
	DD	imagerel gz_open+683
	DD	imagerel $chain$2$gz_open
pdata	ENDS
;	COMDAT pdata
pdata	SEGMENT
$pdata$3$gz_open DD imagerel gz_open+683
	DD	imagerel gz_open+810
	DD	imagerel $chain$3$gz_open
pdata	ENDS
;	COMDAT pdata
pdata	SEGMENT
$pdata$gz_reset DD imagerel gz_reset
	DD	imagerel gz_reset+72
	DD	imagerel $unwind$gz_reset
pdata	ENDS
;	COMDAT pdata
pdata	SEGMENT
$pdata$snprintf DD imagerel $LN6
	DD	imagerel $LN6+92
	DD	imagerel $unwind$snprintf
pdata	ENDS
;	COMDAT pdata
pdata	SEGMENT
$pdata$vsnprintf DD imagerel $LN4
	DD	imagerel $LN4+104
	DD	imagerel $unwind$vsnprintf
;	COMDAT xdata
xdata	SEGMENT
$unwind$vsnprintf DD 081401H
	DD	0a6414H
	DD	095414H
	DD	083414H
	DD	070105214H
xdata	ENDS
;	COMDAT xdata
xdata	SEGMENT
$unwind$snprintf DD 051201H
	DD	0700e6212H
	DD	0500c600dH
	DD	0300bH
xdata	ENDS
;	COMDAT xdata
xdata	SEGMENT
$unwind$gz_reset DD 040a01H
	DD	06340aH
	DD	07006320aH
xdata	ENDS
;	COMDAT xdata
xdata	SEGMENT
$chain$3$gz_open DD 021H
	DD	imagerel gz_open
	DD	imagerel gz_open+72
	DD	imagerel $unwind$gz_open
xdata	ENDS
;	COMDAT xdata
xdata	SEGMENT
$chain$2$gz_open DD 020021H
	DD	087400H
	DD	imagerel gz_open
	DD	imagerel gz_open+72
	DD	imagerel $unwind$gz_open
xdata	ENDS
;	COMDAT xdata
xdata	SEGMENT
$chain$1$gz_open DD 021H
	DD	imagerel gz_open
	DD	imagerel gz_open+72
	DD	imagerel $unwind$gz_open
xdata	ENDS
;	COMDAT xdata
xdata	SEGMENT
$chain$0$gz_open DD 020521H
	DD	087405H
	DD	imagerel gz_open
	DD	imagerel gz_open+72
	DD	imagerel $unwind$gz_open
xdata	ENDS
;	COMDAT xdata
xdata	SEGMENT
$unwind$gz_open DD 0a1901H
	DD	0b6419H
	DD	0a5419H
	DD	093419H
	DD	0f0153219H
	DD	0c011e013H
xdata	ENDS
;	COMDAT xdata
xdata	SEGMENT
$unwind$gzdopen DD 060f01H
	DD	07640fH
	DD	06340fH
	DD	0700b320fH
xdata	ENDS
;	COMDAT xdata
xdata	SEGMENT
$unwind$gzrewind DD 020601H
	DD	030023206H
xdata	ENDS
;	COMDAT xdata
xdata	SEGMENT
$unwind$gzseek64 DD 081401H
	DD	086414H
	DD	075414H
	DD	063414H
	DD	070103214H
xdata	ENDS
;	COMDAT xdata
xdata	SEGMENT
$unwind$gzseek DD 010401H
	DD	04204H
xdata	ENDS
;	COMDAT xdata
xdata	SEGMENT
$unwind$gztell DD 010401H
	DD	04204H
xdata	ENDS
;	COMDAT xdata
xdata	SEGMENT
$unwind$gzoffset64 DD 020601H
	DD	030023206H
xdata	ENDS
;	COMDAT xdata
xdata	SEGMENT
$unwind$gzoffset DD 010401H
	DD	04204H
xdata	ENDS
;	COMDAT xdata
xdata	SEGMENT
$unwind$gz_error DD 081501H
	DD	0a7415H
	DD	096415H
	DD	083415H
	DD	0e0115215H
; Function compile flags: /Ogtpy
; File C:\Program Files (x86)\Windows Kits\10\Include\10.0.22621.0\ucrt\corecrt_stdio_config.h
;	COMDAT __local_stdio_printf_options
_TEXT	SEGMENT
__local_stdio_printf_options PROC			; COMDAT

; 91   :         static unsigned __int64 _OptionsStorage;
; 92   :         return &_OptionsStorage;

  00000	48 8d 05 00 00
	00 00		 lea	 rax, OFFSET FLAT:?_OptionsStorage@?1??__local_stdio_printf_options@@9@9 ; `__local_stdio_printf_options'::`2'::_OptionsStorage

; 93   :     }

  00007	c3		 ret	 0
__local_stdio_printf_options ENDP
_TEXT	ENDS
; Function compile flags: /Ogtpy
; File C:\Program Files (x86)\Windows Kits\10\Include\10.0.22621.0\ucrt\stdio.h
;	COMDAT vsnprintf
_TEXT	SEGMENT
_Buffer$ = 64
_BufferCount$ = 72
_Format$ = 80
_ArgList$ = 88
vsnprintf PROC						; COMDAT

; 1438 :     {

$LN4:
  00000	48 89 5c 24 08	 mov	 QWORD PTR [rsp+8], rbx
  00005	48 89 6c 24 10	 mov	 QWORD PTR [rsp+16], rbp
  0000a	48 89 74 24 18	 mov	 QWORD PTR [rsp+24], rsi
  0000f	57		 push	 rdi
  00010	48 83 ec 30	 sub	 rsp, 48			; 00000030H
  00014	49 8b d9	 mov	 rbx, r9
  00017	49 8b f8	 mov	 rdi, r8
  0001a	48 8b f2	 mov	 rsi, rdx
  0001d	48 8b e9	 mov	 rbp, rcx

; 1439 :         int const _Result = __stdio_common_vsprintf(

  00020	e8 00 00 00 00	 call	 __local_stdio_printf_options
  00025	48 89 5c 24 28	 mov	 QWORD PTR [rsp+40], rbx
  0002a	4c 8b cf	 mov	 r9, rdi
  0002d	4c 8b c6	 mov	 r8, rsi
  00030	48 c7 44 24 20
	00 00 00 00	 mov	 QWORD PTR [rsp+32], 0
  00039	48 8b d5	 mov	 rdx, rbp
  0003c	48 8b 08	 mov	 rcx, QWORD PTR [rax]
  0003f	48 83 c9 02	 or	 rcx, 2
  00043	ff 15 00 00 00
	00		 call	 QWORD PTR __imp___stdio_common_vsprintf

; 1440 :             _CRT_INTERNAL_LOCAL_PRINTF_OPTIONS | _CRT_INTERNAL_PRINTF_STANDARD_SNPRINTF_BEHAVIOR,
; 1441 :             _Buffer, _BufferCount, _Format, NULL, _ArgList);
; 1442 : 
; 1443 :         return _Result < 0 ? -1 : _Result;
; 1444 :     }

  00049	48 8b 5c 24 40	 mov	 rbx, QWORD PTR [rsp+64]
  0004e	b9 ff ff ff ff	 mov	 ecx, -1
  00053	48 8b 6c 24 48	 mov	 rbp, QWORD PTR [rsp+72]
  00058	85 c0		 test	 eax, eax
  0005a	48 8b 74 24 50	 mov	 rsi, QWORD PTR [rsp+80]
  0005f	0f 48 c1	 cmovs	 eax, ecx
  00062	48 83 c4 30	 add	 rsp, 48			; 00000030H
  00066	5f		 pop	 rdi
  00067	c3		 ret	 0
vsnprintf ENDP
_TEXT	ENDS
; Function compile flags: /Ogtpy
; File C:\Program Files (x86)\Windows Kits\10\Include\10.0.22621.0\ucrt\stdio.h
;	COMDAT snprintf
_TEXT	SEGMENT
_Buffer$ = 96
_BufferCount$ = 104
_Format$ = 112
snprintf PROC						; COMDAT

; 1927 :     {

$LN6:
  00000	4c 89 44 24 18	 mov	 QWORD PTR [rsp+24], r8
  00005	4c 89 4c 24 20	 mov	 QWORD PTR [rsp+32], r9
  0000a	53		 push	 rbx
  0000b	55		 push	 rbp
  0000c	56		 push	 rsi
  0000d	57		 push	 rdi
  0000e	48 83 ec 38	 sub	 rsp, 56			; 00000038H
  00012	49 8b f0	 mov	 rsi, r8

; 1928 :         int _Result;
; 1929 :         va_list _ArgList;
; 1930 :         __crt_va_start(_ArgList, _Format);

  00015	48 8d 6c 24 78	 lea	 rbp, QWORD PTR _Format$[rsp+8]
  0001a	48 8b da	 mov	 rbx, rdx
  0001d	48 8b f9	 mov	 rdi, rcx

; 1439 :         int const _Result = __stdio_common_vsprintf(

  00020	e8 00 00 00 00	 call	 __local_stdio_printf_options
  00025	48 89 6c 24 28	 mov	 QWORD PTR [rsp+40], rbp
  0002a	4c 8b ce	 mov	 r9, rsi
  0002d	4c 8b c3	 mov	 r8, rbx
  00030	48 c7 44 24 20
	00 00 00 00	 mov	 QWORD PTR [rsp+32], 0
  00039	48 8b d7	 mov	 rdx, rdi
  0003c	48 8b 08	 mov	 rcx, QWORD PTR [rax]
  0003f	48 83 c9 02	 or	 rcx, 2
  00043	ff 15 00 00 00
	00		 call	 QWORD PTR __imp___stdio_common_vsprintf

; 1440 :             _CRT_INTERNAL_LOCAL_PRINTF_OPTIONS | _CRT_INTERNAL_PRINTF_STANDARD_SNPRINTF_BEHAVIOR,
; 1441 :             _Buffer, _BufferCount, _Format, NULL, _ArgList);
; 1442 : 
; 1443 :         return _Result < 0 ? -1 : _Result;

  00049	85 c0		 test	 eax, eax
  0004b	b9 ff ff ff ff	 mov	 ecx, -1
  00050	0f 48 c1	 cmovs	 eax, ecx

; 1931 :         _Result = vsnprintf(_Buffer, _BufferCount, _Format, _ArgList);
; 1932 :         __crt_va_end(_ArgList);
; 1933 :         return _Result;
; 1934 :     }

  00053	48 83 c4 38	 add	 rsp, 56			; 00000038H
  00057	5f		 pop	 rdi
  00058	5e		 pop	 rsi
  00059	5d		 pop	 rbp
  0005a	5b		 pop	 rbx
  0005b	c3		 ret	 0
snprintf ENDP
_TEXT	ENDS
; Function compile flags: /Ogtpy
; File C:\Users\chris\Documents\GitHub\FastCopy-M\external\zlib\gzlib.c
;	COMDAT gz_reset
_TEXT	SEGMENT
state$ = 48
gz_reset PROC						; COMDAT

; 69   : local void gz_reset(gz_statep state) {

  00000	48 89 5c 24 08	 mov	 QWORD PTR [rsp+8], rbx
  00005	57		 push	 rdi
  00006	48 83 ec 20	 sub	 rsp, 32			; 00000020H

; 70   :     state->x.have = 0;              /* no output data available */

  0000a	33 ff		 xor	 edi, edi
  0000c	48 8b d9	 mov	 rbx, rcx

; 71   :     if (state->mode == GZ_READ) {   /* for reading ... */

  0000f	81 79 18 4f 1c
	00 00		 cmp	 DWORD PTR [rcx+24], 7247 ; 00001c4fH
  00016	89 39		 mov	 DWORD PTR [rcx], edi
  00018	75 09		 jne	 SHORT $LN2@gz_reset

; 72   :         state->eof = 0;             /* not at end of file */

  0001a	48 89 79 50	 mov	 QWORD PTR [rcx+80], rdi

; 73   :         state->past = 0;            /* have not read past end yet */
; 74   :         state->how = LOOK;          /* look for gzip header */

  0001e	89 79 44	 mov	 DWORD PTR [rcx+68], edi

; 75   :     }

  00021	eb 03		 jmp	 SHORT $LN3@gz_reset
$LN2@gz_reset:

; 76   :     else                            /* for writing ... */
; 77   :         state->reset = 0;           /* no deflateReset pending */

  00023	89 79 60	 mov	 DWORD PTR [rcx+96], edi
$LN3@gz_reset:

; 78   :     state->seek = 0;                /* no seek request pending */
; 79   :     gz_error(state, Z_OK, NULL);    /* clear error */

  00026	45 33 c0	 xor	 r8d, r8d
  00029	89 79 70	 mov	 DWORD PTR [rcx+112], edi
  0002c	33 d2		 xor	 edx, edx
  0002e	e8 00 00 00 00	 call	 gz_error

; 80   :     state->x.pos = 0;               /* no uncompressed data yet */

  00033	48 89 7b 10	 mov	 QWORD PTR [rbx+16], rdi

; 81   :     state->strm.avail_in = 0;       /* no input data yet */

  00037	89 bb 88 00 00
	00		 mov	 DWORD PTR [rbx+136], edi

; 82   : }

  0003d	48 8b 5c 24 30	 mov	 rbx, QWORD PTR [rsp+48]
  00042	48 83 c4 20	 add	 rsp, 32			; 00000020H
  00046	5f		 pop	 rdi
  00047	c3		 ret	 0
gz_reset ENDP
_TEXT	ENDS
; Function compile flags: /Ogtpy
; File C:\Users\chris\Documents\GitHub\FastCopy-M\external\zlib\gzlib.c
;	COMDAT gz_open
_TEXT	SEGMENT
path$ = 64
fd$ = 72
mode$ = 80
gz_open	PROC						; COMDAT

; 85   : local gzFile gz_open(const void *path, int fd, const char *mode) {

  00000	48 89 5c 24 10	 mov	 QWORD PTR [rsp+16], rbx
  00005	48 89 6c 24 18	 mov	 QWORD PTR [rsp+24], rbp
  0000a	48 89 74 24 20	 mov	 QWORD PTR [rsp+32], rsi
  0000f	41 54		 push	 r12
  00011	41 56		 push	 r14
  00013	41 57		 push	 r15
  00015	48 83 ec 20	 sub	 rsp, 32			; 00000020H

; 86   :     gz_statep state;
; 87   :     z_size_t len;
; 88   :     int oflag;
; 89   : #ifdef O_CLOEXEC
; 90   :     int cloexec = 0;
; 91   : #endif
; 92   : #ifdef O_EXCL
; 93   :     int exclusive = 0;

  00019	45 33 e4	 xor	 r12d, r12d
  0001c	49 8b f0	 mov	 rsi, r8
  0001f	44 8b f2	 mov	 r14d, edx
  00022	48 8b e9	 mov	 rbp, rcx
  00025	45 8b fc	 mov	 r15d, r12d

; 94   : #endif
; 95   : 
; 96   :     /* check input */
; 97   :     if (path == NULL)

  00028	48 85 c9	 test	 rcx, rcx
  0002b	0f 84 7a 02 00
	00		 je	 $LN51@gz_open

; 98   :         return NULL;
; 99   : 
; 100  :     /* allocate gzFile structure to return */
; 101  :     state = (gz_statep)malloc(sizeof(gz_state));

  00031	b9 d8 00 00 00	 mov	 ecx, 216		; 000000d8H
  00036	ff 15 00 00 00
	00		 call	 QWORD PTR __imp_malloc
  0003c	48 8b d8	 mov	 rbx, rax

; 102  :     if (state == NULL)

  0003f	48 85 c0	 test	 rax, rax
  00042	0f 84 63 02 00
	00		 je	 $LN51@gz_open
  00048	48 89 7c 24 40	 mov	 QWORD PTR [rsp+64], rdi

; 104  :     state->size = 0;            /* no buffers allocated yet */
; 105  :     state->want = GZBUFSIZE;    /* requested buffer size */
; 106  :     state->msg = NULL;          /* no error message yet */
; 107  : 
; 108  :     /* interpret mode */
; 109  :     state->mode = GZ_NONE;
; 110  :     state->level = Z_DEFAULT_COMPRESSION;

  0004d	48 c7 c7 ff ff
	ff ff		 mov	 rdi, -1
  00054	89 78 58	 mov	 DWORD PTR [rax+88], edi
  00057	44 89 60 28	 mov	 DWORD PTR [rax+40], r12d
  0005b	c7 40 2c 00 20
	00 00		 mov	 DWORD PTR [rax+44], 8192 ; 00002000H
  00062	4c 89 60 78	 mov	 QWORD PTR [rax+120], r12
  00066	44 89 60 18	 mov	 DWORD PTR [rax+24], r12d

; 111  :     state->strategy = Z_DEFAULT_STRATEGY;

  0006a	44 89 60 5c	 mov	 DWORD PTR [rax+92], r12d

; 112  :     state->direct = 0;

  0006e	44 89 60 40	 mov	 DWORD PTR [rax+64], r12d

; 113  :     while (*mode) {

  00072	0f b6 06	 movzx	 eax, BYTE PTR [rsi]
  00075	84 c0		 test	 al, al
  00077	0f 84 94 00 00
	00		 je	 $LN3@gz_open
  0007d	48 8d 15 00 00
	00 00		 lea	 rdx, OFFSET FLAT:__ImageBase
$LL2@gz_open:

; 114  :         if (*mode >= '0' && *mode <= '9')

  00084	0f be c8	 movsx	 ecx, al
  00087	2c 30		 sub	 al, 48			; 00000030H
  00089	3c 09		 cmp	 al, 9
  0008b	77 08		 ja	 SHORT $LN8@gz_open

; 115  :             state->level = *mode - '0';

  0008d	8d 41 d0	 lea	 eax, DWORD PTR [rcx-48]
  00090	89 43 58	 mov	 DWORD PTR [rbx+88], eax
  00093	eb 6d		 jmp	 SHORT $LN21@gz_open
$LN8@gz_open:

; 116  :         else
; 117  :             switch (*mode) {

  00095	83 c1 d5	 add	 ecx, -43		; ffffffffffffffd5H
  00098	83 f9 4d	 cmp	 ecx, 77			; 0000004dH
  0009b	77 65		 ja	 SHORT $LN21@gz_open
  0009d	48 63 c1	 movsxd	 rax, ecx
  000a0	0f b6 84 02 00
	00 00 00	 movzx	 eax, BYTE PTR $LN54@gz_open[rdx+rax]
  000a8	8b 8c 82 00 00
	00 00		 mov	 ecx, DWORD PTR $LN55@gz_open[rdx+rax*4]
  000af	48 03 ca	 add	 rcx, rdx
  000b2	ff e1		 jmp	 rcx
$LN10@gz_open:

; 118  :             case 'r':
; 119  :                 state->mode = GZ_READ;

  000b4	c7 43 18 4f 1c
	00 00		 mov	 DWORD PTR [rbx+24], 7247 ; 00001c4fH

; 120  :                 break;

  000bb	eb 45		 jmp	 SHORT $LN21@gz_open
$LN11@gz_open:

; 121  : #ifndef NO_GZCOMPRESS
; 122  :             case 'w':
; 123  :                 state->mode = GZ_WRITE;

  000bd	c7 43 18 b1 79
	00 00		 mov	 DWORD PTR [rbx+24], 31153 ; 000079b1H

; 124  :                 break;

  000c4	eb 3c		 jmp	 SHORT $LN21@gz_open
$LN12@gz_open:

; 125  :             case 'a':
; 126  :                 state->mode = GZ_APPEND;

  000c6	c7 43 18 01 00
	00 00		 mov	 DWORD PTR [rbx+24], 1

; 127  :                 break;

  000cd	eb 33		 jmp	 SHORT $LN21@gz_open
$LN15@gz_open:

; 128  : #endif
; 129  :             case '+':       /* can't read and write at the same time */
; 130  :                 free(state);
; 131  :                 return NULL;
; 132  :             case 'b':       /* ignore -- will request binary anyway */
; 133  :                 break;
; 134  : #ifdef O_CLOEXEC
; 135  :             case 'e':
; 136  :                 cloexec = 1;
; 137  :                 break;
; 138  : #endif
; 139  : #ifdef O_EXCL
; 140  :             case 'x':
; 141  :                 exclusive = 1;

  000cf	41 bf 01 00 00
	00		 mov	 r15d, 1

; 142  :                 break;

  000d5	eb 2b		 jmp	 SHORT $LN21@gz_open
$LN16@gz_open:

; 143  : #endif
; 144  :             case 'f':
; 145  :                 state->strategy = Z_FILTERED;

  000d7	c7 43 5c 01 00
	00 00		 mov	 DWORD PTR [rbx+92], 1

; 146  :                 break;

  000de	eb 22		 jmp	 SHORT $LN21@gz_open
$LN17@gz_open:

; 147  :             case 'h':
; 148  :                 state->strategy = Z_HUFFMAN_ONLY;

  000e0	c7 43 5c 02 00
	00 00		 mov	 DWORD PTR [rbx+92], 2

; 149  :                 break;

  000e7	eb 19		 jmp	 SHORT $LN21@gz_open
$LN18@gz_open:

; 150  :             case 'R':
; 151  :                 state->strategy = Z_RLE;

  000e9	c7 43 5c 03 00
	00 00		 mov	 DWORD PTR [rbx+92], 3

; 152  :                 break;

  000f0	eb 10		 jmp	 SHORT $LN21@gz_open
$LN19@gz_open:

; 153  :             case 'F':
; 154  :                 state->strategy = Z_FIXED;

  000f2	c7 43 5c 04 00
	00 00		 mov	 DWORD PTR [rbx+92], 4

; 155  :                 break;

  000f9	eb 07		 jmp	 SHORT $LN21@gz_open
$LN20@gz_open:

; 156  :             case 'T':
; 157  :                 state->direct = 1;

  000fb	c7 43 40 01 00
	00 00		 mov	 DWORD PTR [rbx+64], 1
$LN21@gz_open:

; 113  :     while (*mode) {

  00102	0f b6 46 01	 movzx	 eax, BYTE PTR [rsi+1]

; 158  :                 break;
; 159  :             default:        /* could consider as an error, but just ignore */
; 160  :                 ;
; 161  :             }
; 162  :         mode++;

  00106	48 ff c6	 inc	 rsi
  00109	84 c0		 test	 al, al
  0010b	0f 85 73 ff ff
	ff		 jne	 $LL2@gz_open
$LN3@gz_open:

; 163  :     }
; 164  : 
; 165  :     /* must provide an "r", "w", or "a" */
; 166  :     if (state->mode == GZ_NONE) {

  00111	8b 43 18	 mov	 eax, DWORD PTR [rbx+24]
  00114	85 c0		 test	 eax, eax
  00116	0f 84 34 01 00
	00		 je	 $LN48@gz_open

; 167  :         free(state);
; 168  :         return NULL;
; 169  :     }
; 170  : 
; 171  :     /* can't force transparent read */
; 172  :     if (state->mode == GZ_READ) {

  0011c	3d 4f 1c 00 00	 cmp	 eax, 7247		; 00001c4fH
  00121	75 11		 jne	 SHORT $LN23@gz_open

; 173  :         if (state->direct) {

  00123	44 39 63 40	 cmp	 DWORD PTR [rbx+64], r12d
  00127	0f 85 23 01 00
	00		 jne	 $LN48@gz_open

; 174  :             free(state);
; 175  :             return NULL;
; 176  :         }
; 177  :         state->direct = 1;      /* for empty file */

  0012d	c7 43 40 01 00
	00 00		 mov	 DWORD PTR [rbx+64], 1
$LN23@gz_open:

; 178  :     }
; 179  : 
; 180  :     /* save the path name for error messages */
; 181  : #ifdef WIDECHAR
; 182  :     if (fd == -2) {

  00134	41 83 fe fe	 cmp	 r14d, -2
  00138	75 1c		 jne	 SHORT $LL25@gz_open

; 183  :         len = wcstombs(NULL, path, 0);

  0013a	45 33 c0	 xor	 r8d, r8d
  0013d	48 8b d5	 mov	 rdx, rbp
  00140	33 c9		 xor	 ecx, ecx
  00142	ff 15 00 00 00
	00		 call	 QWORD PTR __imp_wcstombs
  00148	48 8b f8	 mov	 rdi, rax

; 184  :         if (len == (z_size_t)-1)

  0014b	48 83 f8 ff	 cmp	 rax, -1
  0014f	75 0e		 jne	 SHORT $LN26@gz_open

; 185  :             len = 0;

  00151	49 8b fc	 mov	 rdi, r12

; 186  :     }

  00154	eb 09		 jmp	 SHORT $LN26@gz_open
$LL25@gz_open:

; 187  :     else
; 188  : #endif
; 189  :         len = strlen((const char *)path);

  00156	48 ff c7	 inc	 rdi
  00159	44 38 24 2f	 cmp	 BYTE PTR [rdi+rbp], r12b
  0015d	75 f7		 jne	 SHORT $LL25@gz_open
$LN26@gz_open:

; 190  :     state->path = (char *)malloc(len + 1);

  0015f	48 8d 4f 01	 lea	 rcx, QWORD PTR [rdi+1]
  00163	ff 15 00 00 00
	00		 call	 QWORD PTR __imp_malloc
  00169	48 89 43 20	 mov	 QWORD PTR [rbx+32], rax

; 191  :     if (state->path == NULL) {

  0016d	48 85 c0	 test	 rax, rax
  00170	0f 84 da 00 00
	00		 je	 $LN48@gz_open

; 192  :         free(state);
; 193  :         return NULL;
; 194  :     }
; 195  : #ifdef WIDECHAR
; 196  :     if (fd == -2)

  00176	41 83 fe fe	 cmp	 r14d, -2
  0017a	75 1c		 jne	 SHORT $LN29@gz_open

; 197  :         if (len)

  0017c	48 85 ff	 test	 rdi, rdi
  0017f	74 12		 je	 SHORT $LN31@gz_open

; 198  :             wcstombs(state->path, path, len + 1);

  00181	4c 8d 47 01	 lea	 r8, QWORD PTR [rdi+1]
  00185	48 8b d5	 mov	 rdx, rbp
  00188	48 8b c8	 mov	 rcx, rax
  0018b	ff 15 00 00 00
	00		 call	 QWORD PTR __imp_wcstombs
  00191	eb 1b		 jmp	 SHORT $LN30@gz_open
$LN31@gz_open:

; 199  :         else
; 200  :             *(state->path) = 0;

  00193	44 88 20	 mov	 BYTE PTR [rax], r12b
  00196	eb 16		 jmp	 SHORT $LN30@gz_open
$LN29@gz_open:

; 201  :     else
; 202  : #endif
; 203  : #if !defined(NO_snprintf) && !defined(NO_vsnprintf)
; 204  :         (void)snprintf(state->path, len + 1, "%s", (const char *)path);

  00198	4c 8b cd	 mov	 r9, rbp
  0019b	4c 8d 05 00 00
	00 00		 lea	 r8, OFFSET FLAT:??_C@_02DKCKIIND@?$CFs@
  001a2	48 8d 57 01	 lea	 rdx, QWORD PTR [rdi+1]
  001a6	48 8b c8	 mov	 rcx, rax
  001a9	e8 00 00 00 00	 call	 snprintf
$LN30@gz_open:

; 205  : #else
; 206  :         strcpy(state->path, path);
; 207  : #endif
; 208  : 
; 209  :     /* compute the flags for open() */
; 210  :     oflag =

  001ae	8b 43 18	 mov	 eax, DWORD PTR [rbx+24]
  001b1	3d 4f 1c 00 00	 cmp	 eax, 7247		; 00001c4fH
  001b6	75 05		 jne	 SHORT $LN38@gz_open
  001b8	41 8b d4	 mov	 edx, r12d
  001bb	eb 24		 jmp	 SHORT $LN39@gz_open
$LN38@gz_open:
  001bd	3d b1 79 00 00	 cmp	 eax, 31153		; 000079b1H
  001c2	b9 00 02 00 00	 mov	 ecx, 512		; 00000200H
  001c7	ba 08 00 00 00	 mov	 edx, 8
  001cc	b8 01 01 00 00	 mov	 eax, 257		; 00000101H
  001d1	0f 44 d1	 cmove	 edx, ecx
  001d4	45 85 ff	 test	 r15d, r15d
  001d7	b9 01 05 00 00	 mov	 ecx, 1281		; 00000501H
  001dc	0f 45 c1	 cmovne	 eax, ecx
  001df	0b d0		 or	 edx, eax
$LN39@gz_open:
  001e1	0f ba ea 0f	 bts	 edx, 15

; 211  : #ifdef O_LARGEFILE
; 212  :         O_LARGEFILE |
; 213  : #endif
; 214  : #ifdef O_BINARY
; 215  :         O_BINARY |
; 216  : #endif
; 217  : #ifdef O_CLOEXEC
; 218  :         (cloexec ? O_CLOEXEC : 0) |
; 219  : #endif
; 220  :         (state->mode == GZ_READ ?
; 221  :          O_RDONLY :
; 222  :          (O_WRONLY | O_CREAT |
; 223  : #ifdef O_EXCL
; 224  :           (exclusive ? O_EXCL : 0) |
; 225  : #endif
; 226  :           (state->mode == GZ_WRITE ?
; 227  :            O_TRUNC :
; 228  :            O_APPEND)));
; 229  : 
; 230  :     /* open the file with the appropriate flags (or just use fd) */
; 231  :     state->fd = fd > -1 ? fd : (

  001e5	41 83 fe ff	 cmp	 r14d, -1
  001e9	7e 33		 jle	 SHORT $LN42@gz_open
  001eb	44 89 73 1c	 mov	 DWORD PTR [rbx+28], r14d
$LN33@gz_open:

; 240  :     }
; 241  :     if (state->mode == GZ_APPEND) {

  001ef	8b 43 18	 mov	 eax, DWORD PTR [rbx+24]
  001f2	83 f8 01	 cmp	 eax, 1
  001f5	0f 85 7f 00 00
	00		 jne	 $LN34@gz_open

; 242  :         LSEEK(state->fd, 0, SEEK_END);  /* so gzoffset() is correct */

  001fb	33 d2		 xor	 edx, edx
  001fd	44 8d 40 01	 lea	 r8d, QWORD PTR [rax+1]
  00201	41 8b ce	 mov	 ecx, r14d
  00204	ff 15 00 00 00
	00		 call	 QWORD PTR __imp__lseeki64

; 250  :     }
; 251  : 
; 252  :     /* initialize stream */
; 253  :     gz_reset(state);

  0020a	48 8b cb	 mov	 rcx, rbx
  0020d	c7 43 18 b1 79
	00 00		 mov	 DWORD PTR [rbx+24], 31153 ; 000079b1H
  00214	e8 00 00 00 00	 call	 gz_reset

; 254  : 
; 255  :     /* return stream */
; 256  :     return (gzFile)state;

  00219	48 8b c3	 mov	 rax, rbx
  0021c	eb 3d		 jmp	 SHORT $LN77@gz_open
$LN42@gz_open:

; 211  : #ifdef O_LARGEFILE
; 212  :         O_LARGEFILE |
; 213  : #endif
; 214  : #ifdef O_BINARY
; 215  :         O_BINARY |
; 216  : #endif
; 217  : #ifdef O_CLOEXEC
; 218  :         (cloexec ? O_CLOEXEC : 0) |
; 219  : #endif
; 220  :         (state->mode == GZ_READ ?
; 221  :          O_RDONLY :
; 222  :          (O_WRONLY | O_CREAT |
; 223  : #ifdef O_EXCL
; 224  :           (exclusive ? O_EXCL : 0) |
; 225  : #endif
; 226  :           (state->mode == GZ_WRITE ?
; 227  :            O_TRUNC :
; 228  :            O_APPEND)));
; 229  : 
; 230  :     /* open the file with the appropriate flags (or just use fd) */
; 231  :     state->fd = fd > -1 ? fd : (

  0021e	41 b8 b6 01 00
	00		 mov	 r8d, 438		; 000001b6H
  00224	48 8b cd	 mov	 rcx, rbp
  00227	41 83 fe fe	 cmp	 r14d, -2
  0022b	75 08		 jne	 SHORT $LN40@gz_open
  0022d	ff 15 00 00 00
	00		 call	 QWORD PTR __imp__wopen
  00233	eb 06		 jmp	 SHORT $LN41@gz_open
$LN40@gz_open:
  00235	ff 15 00 00 00
	00		 call	 QWORD PTR __imp__open
$LN41@gz_open:
  0023b	89 43 1c	 mov	 DWORD PTR [rbx+28], eax
  0023e	44 8b f0	 mov	 r14d, eax

; 232  : #ifdef WIDECHAR
; 233  :         fd == -2 ? _wopen(path, oflag, 0666) :
; 234  : #endif
; 235  :         open((const char *)path, oflag, 0666));
; 236  :     if (state->fd == -1) {

  00241	83 f8 ff	 cmp	 eax, -1
  00244	75 a9		 jne	 SHORT $LN33@gz_open

; 237  :         free(state->path);

  00246	48 8b 4b 20	 mov	 rcx, QWORD PTR [rbx+32]
  0024a	ff 15 00 00 00
	00		 call	 QWORD PTR __imp_free
$LN48@gz_open:

; 238  :         free(state);

  00250	48 8b cb	 mov	 rcx, rbx
  00253	ff 15 00 00 00
	00		 call	 QWORD PTR __imp_free

; 239  :         return NULL;

  00259	33 c0		 xor	 eax, eax
$LN77@gz_open:
  0025b	48 8b 7c 24 40	 mov	 rdi, QWORD PTR [rsp+64]
$LN1@gz_open:

; 257  : }

  00260	48 8b 5c 24 48	 mov	 rbx, QWORD PTR [rsp+72]
  00265	48 8b 6c 24 50	 mov	 rbp, QWORD PTR [rsp+80]
  0026a	48 8b 74 24 58	 mov	 rsi, QWORD PTR [rsp+88]
  0026f	48 83 c4 20	 add	 rsp, 32			; 00000020H
  00273	41 5f		 pop	 r15
  00275	41 5e		 pop	 r14
  00277	41 5c		 pop	 r12
  00279	c3		 ret	 0
$LN34@gz_open:

; 243  :         state->mode = GZ_WRITE;         /* simplify later checks */
; 244  :     }
; 245  : 
; 246  :     /* save the current position for rewinding (only if reading) */
; 247  :     if (state->mode == GZ_READ) {

  0027a	3d 4f 1c 00 00	 cmp	 eax, 7247		; 00001c4fH
  0027f	75 1d		 jne	 SHORT $LN36@gz_open

; 248  :         state->start = LSEEK(state->fd, 0, SEEK_CUR);

  00281	8b 4b 1c	 mov	 ecx, DWORD PTR [rbx+28]
  00284	33 d2		 xor	 edx, edx
  00286	44 8d 42 01	 lea	 r8d, QWORD PTR [rdx+1]
  0028a	ff 15 00 00 00
	00		 call	 QWORD PTR __imp__lseeki64
  00290	48 89 43 48	 mov	 QWORD PTR [rbx+72], rax

; 249  :         if (state->start == -1) state->start = 0;

  00294	48 83 f8 ff	 cmp	 rax, -1
  00298	75 04		 jne	 SHORT $LN36@gz_open
  0029a	4c 89 63 48	 mov	 QWORD PTR [rbx+72], r12
$LN36@gz_open:

; 250  :     }
; 251  : 
; 252  :     /* initialize stream */
; 253  :     gz_reset(state);

  0029e	48 8b cb	 mov	 rcx, rbx
  002a1	e8 00 00 00 00	 call	 gz_reset

; 254  : 
; 255  :     /* return stream */
; 256  :     return (gzFile)state;

  002a6	48 8b c3	 mov	 rax, rbx
  002a9	eb b0		 jmp	 SHORT $LN77@gz_open
$LN51@gz_open:

; 103  :         return NULL;

  002ab	33 c0		 xor	 eax, eax
  002ad	eb b1		 jmp	 SHORT $LN1@gz_open
  002af	90		 npad	 1
$LN55@gz_open:

; 257  : }

  002b0	00 00 00 00	 DD	 $LN48@gz_open
  002b4	00 00 00 00	 DD	 $LN19@gz_open
  002b8	00 00 00 00	 DD	 $LN18@gz_open
  002bc	00 00 00 00	 DD	 $LN20@gz_open
  002c0	00 00 00 00	 DD	 $LN12@gz_open
  002c4	00 00 00 00	 DD	 $LN16@gz_open
  002c8	00 00 00 00	 DD	 $LN17@gz_open
  002cc	00 00 00 00	 DD	 $LN10@gz_open
  002d0	00 00 00 00	 DD	 $LN11@gz_open
  002d4	00 00 00 00	 DD	 $LN15@gz_open
  002d8	00 00 00 00	 DD	 $LN21@gz_open
$LN54@gz_open:
  002dc	00		 DB	 0
  002dd	0a		 DB	 10
  002de	0a		 DB	 10
  002df	0a		 DB	 10
  002e0	0a		 DB	 10
  002e1	0a		 DB	 10
  002e2	0a		 DB	 10
  002e3	0a		 DB	 10
  002e4	0a		 DB	 10
  002e5	0a		 DB	 10
  002e6	0a		 DB	 10
  002e7	0a		 DB	 10
  002e8	0a		 DB	 10
  002e9	0a		 DB	 10
  002ea	0a		 DB	 10
  002eb	0a		 DB	 10
  002ec	0a		 DB	 10
  002ed	0a		 DB	 10
  002ee	0a		 DB	 10
  002ef	0a		 DB	 10
  002f0	0a		 DB	 10
  002f1	0a		 DB	 10
  002f2	0a		 DB	 10
  002f3	0a		 DB	 10
  002f4	0a		 DB	 10
  002f5	0a		 DB	 10
  002f6	0a		 DB	 10
  002f7	01		 DB	 1
  002f8	0a		 DB	 10
  002f9	0a		 DB	 10
  002fa	0a		 DB	 10
  002fb	0a		 DB	 10
  002fc	0a		 DB	 10
  002fd	0a		 DB	 10
  002fe	0a		 DB	 10
  002ff	0a		 DB	 10
  00300	0a		 DB	 10
  00301	0a		 DB	 10
  00302	0a		 DB	 10
  00303	02		 DB	 2
  00304	0a		 DB	 10
  00305	03		 DB	 3
  00306	0a		 DB	 10
  00307	0a		 DB	 10
  00308	0a		 DB	 10
  00309	0a		 DB	 10
  0030a	0a		 DB	 10
  0030b	0a		 DB	 10
  0030c	0a		 DB	 10
  0030d	0a		 DB	 10
  0030e	0a		 DB	 10
  0030f	0a		 DB	 10
  00310	0a		 DB	 10
  00311	0a		 DB	 10
  00312	04		 DB	 4
  00313	0a		 DB	 10
  00314	0a		 DB	 10
  00315	0a		 DB	 10
  00316	0a		 DB	 10
  00317	05		 DB	 5
  00318	0a		 DB	 10
  00319	06		 DB	 6
  0031a	0a		 DB	 10
  0031b	0a		 DB	 10
  0031c	0a		 DB	 10
  0031d	0a		 DB	 10
  0031e	0a		 DB	 10
  0031f	0a		 DB	 10
  00320	0a		 DB	 10
  00321	0a		 DB	 10
  00322	0a		 DB	 10
  00323	07		 DB	 7
  00324	0a		 DB	 10
  00325	0a		 DB	 10
  00326	0a		 DB	 10
  00327	0a		 DB	 10
  00328	08		 DB	 8
  00329	09		 DB	 9
gz_open	ENDP
_TEXT	ENDS
; Function compile flags: /Ogtpy
; File C:\Users\chris\Documents\GitHub\FastCopy-M\external\zlib\gzlib.c
;	COMDAT gzopen
_TEXT	SEGMENT
path$ = 8
mode$ = 16
gzopen	PROC						; COMDAT

; 261  :     return gz_open(path, -1, mode);

  00000	4c 8b c2	 mov	 r8, rdx
  00003	ba ff ff ff ff	 mov	 edx, -1
  00008	e9 00 00 00 00	 jmp	 gz_open
gzopen	ENDP
_TEXT	ENDS
; Function compile flags: /Ogtpy
; File C:\Users\chris\Documents\GitHub\FastCopy-M\external\zlib\gzlib.c
;	COMDAT gzdopen
_TEXT	SEGMENT
fd$ = 48
mode$ = 56
gzdopen	PROC						; COMDAT

; 270  : gzFile ZEXPORT gzdopen(int fd, const char *mode) {

$LN8:
  00000	48 89 5c 24 08	 mov	 QWORD PTR [rsp+8], rbx
  00005	48 89 74 24 10	 mov	 QWORD PTR [rsp+16], rsi
  0000a	57		 push	 rdi
  0000b	48 83 ec 20	 sub	 rsp, 32			; 00000020H
  0000f	48 8b f2	 mov	 rsi, rdx
  00012	8b d9		 mov	 ebx, ecx

; 271  :     char *path;         /* identifier for error messages */
; 272  :     gzFile gz;
; 273  : 
; 274  :     if (fd == -1 || (path = (char *)malloc(7 + 3 * sizeof(int))) == NULL)

  00014	83 f9 ff	 cmp	 ecx, -1
  00017	74 56		 je	 SHORT $LN3@gzdopen
  00019	b9 13 00 00 00	 mov	 ecx, 19
  0001e	ff 15 00 00 00
	00		 call	 QWORD PTR __imp_malloc
  00024	48 8b f8	 mov	 rdi, rax
  00027	48 85 c0	 test	 rax, rax
  0002a	74 43		 je	 SHORT $LN3@gzdopen

; 275  :         return NULL;
; 276  : #if !defined(NO_snprintf) && !defined(NO_vsnprintf)
; 277  :     (void)snprintf(path, 7 + 3 * sizeof(int), "<fd:%d>", fd);

  0002c	44 8b cb	 mov	 r9d, ebx
  0002f	4c 8d 05 00 00
	00 00		 lea	 r8, OFFSET FLAT:??_C@_07EBNKNFJN@?$DMfd?3?$CFd?$DO@
  00036	ba 13 00 00 00	 mov	 edx, 19
  0003b	48 8b c8	 mov	 rcx, rax
  0003e	e8 00 00 00 00	 call	 snprintf

; 278  : #else
; 279  :     sprintf(path, "<fd:%d>", fd);   /* for debugging */
; 280  : #endif
; 281  :     gz = gz_open(path, fd, mode);

  00043	4c 8b c6	 mov	 r8, rsi
  00046	8b d3		 mov	 edx, ebx
  00048	48 8b cf	 mov	 rcx, rdi
  0004b	e8 00 00 00 00	 call	 gz_open

; 282  :     free(path);

  00050	48 8b cf	 mov	 rcx, rdi
  00053	48 8b d8	 mov	 rbx, rax
  00056	ff 15 00 00 00
	00		 call	 QWORD PTR __imp_free

; 283  :     return gz;

  0005c	48 8b c3	 mov	 rax, rbx

; 284  : }

  0005f	48 8b 5c 24 30	 mov	 rbx, QWORD PTR [rsp+48]
  00064	48 8b 74 24 38	 mov	 rsi, QWORD PTR [rsp+56]
  00069	48 83 c4 20	 add	 rsp, 32			; 00000020H
  0006d	5f		 pop	 rdi
  0006e	c3		 ret	 0
$LN3@gzdopen:
  0006f	48 8b 5c 24 30	 mov	 rbx, QWORD PTR [rsp+48]
  00074	33 c0		 xor	 eax, eax
  00076	48 8b 74 24 38	 mov	 rsi, QWORD PTR [rsp+56]
  0007b	48 83 c4 20	 add	 rsp, 32			; 00000020H
  0007f	5f		 pop	 rdi
  00080	c3		 ret	 0
gzdopen	ENDP
_TEXT	ENDS
; Function compile flags: /Ogtpy
; File C:\Users\chris\Documents\GitHub\FastCopy-M\external\zlib\gzlib.c
;	COMDAT gzopen_w
_TEXT	SEGMENT
path$ = 8
mode$ = 16
gzopen_w PROC						; COMDAT

; 289  :     return gz_open(path, -2, mode);

  00000	4c 8b c2	 mov	 r8, rdx
  00003	ba fe ff ff ff	 mov	 edx, -2
  00008	e9 00 00 00 00	 jmp	 gz_open
gzopen_w ENDP
_TEXT	ENDS
; Function compile flags: /Ogtpy
; File C:\Users\chris\Documents\GitHub\FastCopy-M\external\zlib\gzlib.c
;	COMDAT gzbuffer
_TEXT	SEGMENT
file$ = 8
size$ = 16
gzbuffer PROC						; COMDAT

; 295  :     gz_statep state;
; 296  : 
; 297  :     /* get internal structure and check integrity */
; 298  :     if (file == NULL)

  00000	48 85 c9	 test	 rcx, rcx
  00003	74 2e		 je	 SHORT $LN8@gzbuffer

; 299  :         return -1;
; 300  :     state = (gz_statep)file;
; 301  :     if (state->mode != GZ_READ && state->mode != GZ_WRITE)

  00005	8b 41 18	 mov	 eax, DWORD PTR [rcx+24]
  00008	3d 4f 1c 00 00	 cmp	 eax, 7247		; 00001c4fH
  0000d	74 07		 je	 SHORT $LN3@gzbuffer
  0000f	3d b1 79 00 00	 cmp	 eax, 31153		; 000079b1H
  00014	75 1d		 jne	 SHORT $LN8@gzbuffer
$LN3@gzbuffer:

; 302  :         return -1;
; 303  : 
; 304  :     /* make sure we haven't already allocated memory */
; 305  :     if (state->size != 0)

  00016	83 79 28 00	 cmp	 DWORD PTR [rcx+40], 0
  0001a	75 17		 jne	 SHORT $LN8@gzbuffer

; 306  :         return -1;
; 307  : 
; 308  :     /* check and set requested size */
; 309  :     if ((size << 1) < size)

  0001c	8d 04 12	 lea	 eax, DWORD PTR [rdx+rdx]
  0001f	3b c2		 cmp	 eax, edx
  00021	72 10		 jb	 SHORT $LN8@gzbuffer

; 311  :     if (size < 2)
; 312  :         size = 2;               /* need two bytes to check magic header */
; 313  :     state->want = size;

  00023	b8 02 00 00 00	 mov	 eax, 2
  00028	3b d0		 cmp	 edx, eax
  0002a	0f 43 c2	 cmovae	 eax, edx
  0002d	89 41 2c	 mov	 DWORD PTR [rcx+44], eax

; 314  :     return 0;

  00030	33 c0		 xor	 eax, eax

; 315  : }

  00032	c3		 ret	 0
$LN8@gzbuffer:

; 310  :         return -1;              /* need to be able to double it */

  00033	b8 ff ff ff ff	 mov	 eax, -1

; 315  : }

  00038	c3		 ret	 0
gzbuffer ENDP
_TEXT	ENDS
; Function compile flags: /Ogtpy
; File C:\Users\chris\Documents\GitHub\FastCopy-M\external\zlib\gzlib.c
;	COMDAT gzrewind
_TEXT	SEGMENT
file$ = 48
gzrewind PROC						; COMDAT

; 318  : int ZEXPORT gzrewind(gzFile file) {

$LN14:
  00000	40 53		 push	 rbx
  00002	48 83 ec 20	 sub	 rsp, 32			; 00000020H
  00006	48 8b d9	 mov	 rbx, rcx

; 319  :     gz_statep state;
; 320  : 
; 321  :     /* get internal structure */
; 322  :     if (file == NULL)

  00009	48 85 c9	 test	 rcx, rcx
  0000c	74 3b		 je	 SHORT $LN4@gzrewind

; 323  :         return -1;
; 324  :     state = (gz_statep)file;
; 325  : 
; 326  :     /* check that we're reading and that there's no error */
; 327  :     if (state->mode != GZ_READ ||

  0000e	81 79 18 4f 1c
	00 00		 cmp	 DWORD PTR [rcx+24], 7247 ; 00001c4fH
  00015	75 32		 jne	 SHORT $LN4@gzrewind
  00017	8b 41 74	 mov	 eax, DWORD PTR [rcx+116]
  0001a	85 c0		 test	 eax, eax
  0001c	74 05		 je	 SHORT $LN3@gzrewind
  0001e	83 f8 fb	 cmp	 eax, -5
  00021	75 26		 jne	 SHORT $LN4@gzrewind
$LN3@gzrewind:

; 330  : 
; 331  :     /* back up and start over */
; 332  :     if (LSEEK(state->fd, state->start, SEEK_SET) == -1)

  00023	48 8b 51 48	 mov	 rdx, QWORD PTR [rcx+72]
  00027	45 33 c0	 xor	 r8d, r8d
  0002a	8b 49 1c	 mov	 ecx, DWORD PTR [rcx+28]
  0002d	ff 15 00 00 00
	00		 call	 QWORD PTR __imp__lseeki64
  00033	48 83 f8 ff	 cmp	 rax, -1
  00037	74 10		 je	 SHORT $LN4@gzrewind

; 333  :         return -1;
; 334  :     gz_reset(state);

  00039	48 8b cb	 mov	 rcx, rbx
  0003c	e8 00 00 00 00	 call	 gz_reset

; 335  :     return 0;

  00041	33 c0		 xor	 eax, eax

; 336  : }

  00043	48 83 c4 20	 add	 rsp, 32			; 00000020H
  00047	5b		 pop	 rbx
  00048	c3		 ret	 0
$LN4@gzrewind:

; 328  :             (state->err != Z_OK && state->err != Z_BUF_ERROR))
; 329  :         return -1;

  00049	b8 ff ff ff ff	 mov	 eax, -1

; 336  : }

  0004e	48 83 c4 20	 add	 rsp, 32			; 00000020H
  00052	5b		 pop	 rbx
  00053	c3		 ret	 0
gzrewind ENDP
_TEXT	ENDS
; Function compile flags: /Ogtpy
; File C:\Users\chris\Documents\GitHub\FastCopy-M\external\zlib\gzlib.c
;	COMDAT gzseek64
_TEXT	SEGMENT
file$ = 48
offset$ = 56
whence$ = 64
gzseek64 PROC						; COMDAT

; 339  : z_off64_t ZEXPORT gzseek64(gzFile file, z_off64_t offset, int whence) {

$LN50:
  00000	48 89 5c 24 08	 mov	 QWORD PTR [rsp+8], rbx
  00005	48 89 6c 24 10	 mov	 QWORD PTR [rsp+16], rbp
  0000a	48 89 74 24 18	 mov	 QWORD PTR [rsp+24], rsi
  0000f	57		 push	 rdi
  00010	48 83 ec 20	 sub	 rsp, 32			; 00000020H
  00014	48 8b fa	 mov	 rdi, rdx
  00017	48 8b d9	 mov	 rbx, rcx

; 340  :     unsigned n;
; 341  :     z_off64_t ret;
; 342  :     gz_statep state;
; 343  : 
; 344  :     /* get internal structure and check integrity */
; 345  :     if (file == NULL)

  0001a	48 85 c9	 test	 rcx, rcx
  0001d	0f 84 0c 01 00
	00		 je	 $LN26@gzseek64

; 346  :         return -1;
; 347  :     state = (gz_statep)file;
; 348  :     if (state->mode != GZ_READ && state->mode != GZ_WRITE)

  00023	8b 51 18	 mov	 edx, DWORD PTR [rcx+24]
  00026	81 fa 4f 1c 00
	00		 cmp	 edx, 7247		; 00001c4fH
  0002c	74 0c		 je	 SHORT $LN23@gzseek64
  0002e	81 fa b1 79 00
	00		 cmp	 edx, 31153		; 000079b1H
  00034	0f 85 f5 00 00
	00		 jne	 $LN26@gzseek64
$LN23@gzseek64:

; 349  :         return -1;
; 350  : 
; 351  :     /* check that there's no error */
; 352  :     if (state->err != Z_OK && state->err != Z_BUF_ERROR)

  0003a	8b 41 74	 mov	 eax, DWORD PTR [rcx+116]
  0003d	85 c0		 test	 eax, eax
  0003f	74 09		 je	 SHORT $LN4@gzseek64
  00041	83 f8 fb	 cmp	 eax, -5
  00044	0f 85 e5 00 00
	00		 jne	 $LN26@gzseek64
$LN4@gzseek64:

; 353  :         return -1;
; 354  : 
; 355  :     /* can only seek from start or relative to current position */
; 356  :     if (whence != SEEK_SET && whence != SEEK_CUR)

  0004a	45 85 c0	 test	 r8d, r8d
  0004d	74 1a		 je	 SHORT $LN22@gzseek64
  0004f	41 83 f8 01	 cmp	 r8d, 1
  00053	0f 85 d6 00 00
	00		 jne	 $LN26@gzseek64

; 362  :     else if (state->seek)

  00059	83 79 70 00	 cmp	 DWORD PTR [rcx+112], 0
  0005d	48 8d 71 70	 lea	 rsi, QWORD PTR [rcx+112]
  00061	74 0e		 je	 SHORT $LN8@gzseek64

; 363  :         offset += state->skip;

  00063	48 03 79 68	 add	 rdi, QWORD PTR [rcx+104]
  00067	eb 08		 jmp	 SHORT $LN8@gzseek64
$LN22@gzseek64:

; 357  :         return -1;
; 358  : 
; 359  :     /* normalize offset to a SEEK_CUR specification */
; 360  :     if (whence == SEEK_SET)
; 361  :         offset -= state->x.pos;

  00069	48 2b 79 10	 sub	 rdi, QWORD PTR [rcx+16]
  0006d	48 8d 71 70	 lea	 rsi, QWORD PTR [rcx+112]
$LN8@gzseek64:

; 364  :     state->seek = 0;

  00071	33 ed		 xor	 ebp, ebp
  00073	89 2e		 mov	 DWORD PTR [rsi], ebp

; 365  : 
; 366  :     /* if within raw area while reading, just go there */
; 367  :     if (state->mode == GZ_READ && state->how == COPY &&

  00075	81 fa 4f 1c 00
	00		 cmp	 edx, 7247		; 00001c4fH
  0007b	75 56		 jne	 SHORT $LN9@gzseek64
  0007d	83 79 44 01	 cmp	 DWORD PTR [rcx+68], 1
  00081	75 50		 jne	 SHORT $LN9@gzseek64
  00083	48 8b 49 10	 mov	 rcx, QWORD PTR [rcx+16]
  00087	48 03 cf	 add	 rcx, rdi
  0008a	78 47		 js	 SHORT $LN9@gzseek64

; 368  :             state->x.pos + offset >= 0) {
; 369  :         ret = LSEEK(state->fd, offset - (z_off64_t)state->x.have, SEEK_CUR);

  0008c	8b 03		 mov	 eax, DWORD PTR [rbx]
  0008e	44 8d 45 01	 lea	 r8d, QWORD PTR [rbp+1]
  00092	8b 4b 1c	 mov	 ecx, DWORD PTR [rbx+28]
  00095	48 8b d7	 mov	 rdx, rdi
  00098	48 2b d0	 sub	 rdx, rax
  0009b	ff 15 00 00 00
	00		 call	 QWORD PTR __imp__lseeki64

; 370  :         if (ret == -1)

  000a1	48 83 f8 ff	 cmp	 rax, -1
  000a5	0f 84 84 00 00
	00		 je	 $LN26@gzseek64

; 371  :             return -1;
; 372  :         state->x.have = 0;
; 373  :         state->eof = 0;
; 374  :         state->past = 0;
; 375  :         state->seek = 0;
; 376  :         gz_error(state, Z_OK, NULL);

  000ab	45 33 c0	 xor	 r8d, r8d
  000ae	89 2b		 mov	 DWORD PTR [rbx], ebp
  000b0	33 d2		 xor	 edx, edx
  000b2	48 89 6b 50	 mov	 QWORD PTR [rbx+80], rbp
  000b6	48 8b cb	 mov	 rcx, rbx
  000b9	89 2e		 mov	 DWORD PTR [rsi], ebp
  000bb	e8 00 00 00 00	 call	 gz_error

; 377  :         state->strm.avail_in = 0;
; 378  :         state->x.pos += offset;

  000c0	48 8b 43 10	 mov	 rax, QWORD PTR [rbx+16]
  000c4	48 03 c7	 add	 rax, rdi
  000c7	89 ab 88 00 00
	00		 mov	 DWORD PTR [rbx+136], ebp
  000cd	48 89 43 10	 mov	 QWORD PTR [rbx+16], rax

; 379  :         return state->x.pos;

  000d1	eb 63		 jmp	 SHORT $LN1@gzseek64
$LN9@gzseek64:

; 380  :     }
; 381  : 
; 382  :     /* calculate skip amount, rewinding if needed for back seek when reading */
; 383  :     if (offset < 0) {

  000d3	48 85 ff	 test	 rdi, rdi
  000d6	79 1b		 jns	 SHORT $LN24@gzseek64

; 384  :         if (state->mode != GZ_READ)         /* writing -- can't go backwards */

  000d8	81 fa 4f 1c 00
	00		 cmp	 edx, 7247		; 00001c4fH
  000de	75 4f		 jne	 SHORT $LN26@gzseek64

; 385  :             return -1;
; 386  :         offset += state->x.pos;

  000e0	48 03 7b 10	 add	 rdi, QWORD PTR [rbx+16]

; 387  :         if (offset < 0)                     /* before start of file! */

  000e4	78 49		 js	 SHORT $LN26@gzseek64

; 388  :             return -1;
; 389  :         if (gzrewind(file) == -1)           /* rewind, then skip to offset */

  000e6	48 8b cb	 mov	 rcx, rbx
  000e9	e8 00 00 00 00	 call	 gzrewind
  000ee	83 f8 ff	 cmp	 eax, -1
  000f1	74 3c		 je	 SHORT $LN26@gzseek64
$LN24@gzseek64:

; 391  :     }
; 392  : 
; 393  :     /* if reading, skip what's in output buffer (one less gzgetc() check) */
; 394  :     if (state->mode == GZ_READ) {

  000f3	81 7b 18 4f 1c
	00 00		 cmp	 DWORD PTR [rbx+24], 7247 ; 00001c4fH
  000fa	75 1b		 jne	 SHORT $LN25@gzseek64

; 395  :         n = GT_OFF(state->x.have) || (z_off64_t)state->x.have > offset ?

  000fc	8b 13		 mov	 edx, DWORD PTR [rbx]

; 396  :             (unsigned)offset : state->x.have;
; 397  :         state->x.have -= n;

  000fe	48 3b d7	 cmp	 rdx, rdi
  00101	8b c2		 mov	 eax, edx
  00103	0f 47 c7	 cmova	 eax, edi
  00106	8b c8		 mov	 ecx, eax
  00108	2b d0		 sub	 edx, eax

; 398  :         state->x.next += n;

  0010a	48 01 4b 08	 add	 QWORD PTR [rbx+8], rcx

; 399  :         state->x.pos += n;

  0010e	48 01 4b 10	 add	 QWORD PTR [rbx+16], rcx

; 400  :         offset -= n;

  00112	48 2b f9	 sub	 rdi, rcx
  00115	89 13		 mov	 DWORD PTR [rbx], edx
$LN25@gzseek64:

; 401  :     }
; 402  : 
; 403  :     /* request skip (if not zero) */
; 404  :     if (offset) {

  00117	48 85 ff	 test	 rdi, rdi
  0011a	74 0a		 je	 SHORT $LN16@gzseek64

; 405  :         state->seek = 1;

  0011c	c7 06 01 00 00
	00		 mov	 DWORD PTR [rsi], 1

; 406  :         state->skip = offset;

  00122	48 89 7b 68	 mov	 QWORD PTR [rbx+104], rdi
$LN16@gzseek64:

; 407  :     }
; 408  :     return state->x.pos + offset;

  00126	48 8b 43 10	 mov	 rax, QWORD PTR [rbx+16]
  0012a	48 03 c7	 add	 rax, rdi
  0012d	eb 07		 jmp	 SHORT $LN1@gzseek64
$LN26@gzseek64:

; 390  :             return -1;

  0012f	48 c7 c0 ff ff
	ff ff		 mov	 rax, -1
$LN1@gzseek64:

; 409  : }

  00136	48 8b 5c 24 30	 mov	 rbx, QWORD PTR [rsp+48]
  0013b	48 8b 6c 24 38	 mov	 rbp, QWORD PTR [rsp+56]
  00140	48 8b 74 24 40	 mov	 rsi, QWORD PTR [rsp+64]
  00145	48 83 c4 20	 add	 rsp, 32			; 00000020H
  00149	5f		 pop	 rdi
  0014a	c3		 ret	 0
gzseek64 ENDP
_TEXT	ENDS
; Function compile flags: /Ogtpy
; File C:\Users\chris\Documents\GitHub\FastCopy-M\external\zlib\gzlib.c
;	COMDAT gzseek
_TEXT	SEGMENT
file$ = 48
offset$ = 56
whence$ = 64
gzseek	PROC						; COMDAT

; 412  : z_off_t ZEXPORT gzseek(gzFile file, z_off_t offset, int whence) {

$LN4:
  00000	48 83 ec 28	 sub	 rsp, 40			; 00000028H

; 413  :     z_off64_t ret;
; 414  : 
; 415  :     ret = gzseek64(file, (z_off64_t)offset, whence);

  00004	48 63 d2	 movsxd	 rdx, edx
  00007	e8 00 00 00 00	 call	 gzseek64
  0000c	48 8b d0	 mov	 rdx, rax

; 416  :     return ret == (z_off_t)ret ? (z_off_t)ret : -1;

  0000f	48 63 c8	 movsxd	 rcx, eax
  00012	48 3b d1	 cmp	 rdx, rcx
  00015	b8 ff ff ff ff	 mov	 eax, -1
  0001a	0f 44 c2	 cmove	 eax, edx

; 417  : }

  0001d	48 83 c4 28	 add	 rsp, 40			; 00000028H
  00021	c3		 ret	 0
gzseek	ENDP
_TEXT	ENDS
; Function compile flags: /Ogtpy
; File C:\Users\chris\Documents\GitHub\FastCopy-M\external\zlib\gzlib.c
;	COMDAT gztell64
_TEXT	SEGMENT
file$ = 8
gztell64 PROC						; COMDAT

; 421  :     gz_statep state;
; 422  : 
; 423  :     /* get internal structure and check integrity */
; 424  :     if (file == NULL)

  00000	48 85 c9	 test	 rcx, rcx
  00003	74 2d		 je	 SHORT $LN7@gztell64

; 425  :         return -1;
; 426  :     state = (gz_statep)file;
; 427  :     if (state->mode != GZ_READ && state->mode != GZ_WRITE)

  00005	8b 41 18	 mov	 eax, DWORD PTR [rcx+24]
  00008	3d 4f 1c 00 00	 cmp	 eax, 7247		; 00001c4fH
  0000d	74 07		 je	 SHORT $LN3@gztell64
  0000f	3d b1 79 00 00	 cmp	 eax, 31153		; 000079b1H
  00014	75 1c		 jne	 SHORT $LN7@gztell64
$LN3@gztell64:

; 429  : 
; 430  :     /* return position */
; 431  :     return state->x.pos + (state->seek ? state->skip : 0);

  00016	83 79 70 00	 cmp	 DWORD PTR [rcx+112], 0
  0001a	74 0c		 je	 SHORT $LN5@gztell64
  0001c	48 8b 51 68	 mov	 rdx, QWORD PTR [rcx+104]
  00020	48 8b 41 10	 mov	 rax, QWORD PTR [rcx+16]
  00024	48 03 c2	 add	 rax, rdx

; 432  : }

  00027	c3		 ret	 0
$LN5@gztell64:

; 429  : 
; 430  :     /* return position */
; 431  :     return state->x.pos + (state->seek ? state->skip : 0);

  00028	48 8b 41 10	 mov	 rax, QWORD PTR [rcx+16]
  0002c	33 d2		 xor	 edx, edx
  0002e	48 03 c2	 add	 rax, rdx

; 432  : }

  00031	c3		 ret	 0
$LN7@gztell64:

; 428  :         return -1;

  00032	48 c7 c0 ff ff
	ff ff		 mov	 rax, -1

; 432  : }

  00039	c3		 ret	 0
gztell64 ENDP
_TEXT	ENDS
; Function compile flags: /Ogtpy
; File C:\Users\chris\Documents\GitHub\FastCopy-M\external\zlib\gzlib.c
;	COMDAT gztell
_TEXT	SEGMENT
file$ = 48
gztell	PROC						; COMDAT

; 435  : z_off_t ZEXPORT gztell(gzFile file) {

$LN4:
  00000	48 83 ec 28	 sub	 rsp, 40			; 00000028H

; 436  :     z_off64_t ret;
; 437  : 
; 438  :     ret = gztell64(file);

  00004	e8 00 00 00 00	 call	 gztell64
  00009	4c 8b c0	 mov	 r8, rax

; 439  :     return ret == (z_off_t)ret ? (z_off_t)ret : -1;

  0000c	48 63 c8	 movsxd	 rcx, eax
  0000f	4c 3b c1	 cmp	 r8, rcx
  00012	b8 ff ff ff ff	 mov	 eax, -1
  00017	41 0f 44 c0	 cmove	 eax, r8d

; 440  : }

  0001b	48 83 c4 28	 add	 rsp, 40			; 00000028H
  0001f	c3		 ret	 0
gztell	ENDP
_TEXT	ENDS
; Function compile flags: /Ogtpy
; File C:\Users\chris\Documents\GitHub\FastCopy-M\external\zlib\gzlib.c
;	COMDAT gzoffset64
_TEXT	SEGMENT
file$ = 48
gzoffset64 PROC						; COMDAT

; 443  : z_off64_t ZEXPORT gzoffset64(gzFile file) {

$LN15:
  00000	40 53		 push	 rbx
  00002	48 83 ec 20	 sub	 rsp, 32			; 00000020H
  00006	48 8b d9	 mov	 rbx, rcx

; 444  :     z_off64_t offset;
; 445  :     gz_statep state;
; 446  : 
; 447  :     /* get internal structure and check integrity */
; 448  :     if (file == NULL)

  00009	48 85 c9	 test	 rcx, rcx
  0000c	74 3e		 je	 SHORT $LN7@gzoffset64

; 449  :         return -1;
; 450  :     state = (gz_statep)file;
; 451  :     if (state->mode != GZ_READ && state->mode != GZ_WRITE)

  0000e	8b 41 18	 mov	 eax, DWORD PTR [rcx+24]
  00011	3d 4f 1c 00 00	 cmp	 eax, 7247		; 00001c4fH
  00016	74 07		 je	 SHORT $LN3@gzoffset64
  00018	3d b1 79 00 00	 cmp	 eax, 31153		; 000079b1H
  0001d	75 2d		 jne	 SHORT $LN7@gzoffset64
$LN3@gzoffset64:

; 452  :         return -1;
; 453  : 
; 454  :     /* compute and return effective offset in file */
; 455  :     offset = LSEEK(state->fd, 0, SEEK_CUR);

  0001f	8b 49 1c	 mov	 ecx, DWORD PTR [rcx+28]
  00022	33 d2		 xor	 edx, edx
  00024	44 8d 42 01	 lea	 r8d, QWORD PTR [rdx+1]
  00028	ff 15 00 00 00
	00		 call	 QWORD PTR __imp__lseeki64

; 456  :     if (offset == -1)

  0002e	48 83 f8 ff	 cmp	 rax, -1
  00032	74 18		 je	 SHORT $LN7@gzoffset64

; 458  :     if (state->mode == GZ_READ)             /* reading */

  00034	81 7b 18 4f 1c
	00 00		 cmp	 DWORD PTR [rbx+24], 7247 ; 00001c4fH
  0003b	75 16		 jne	 SHORT $LN1@gzoffset64

; 459  :         offset -= state->strm.avail_in;     /* don't count buffered input */

  0003d	8b 8b 88 00 00
	00		 mov	 ecx, DWORD PTR [rbx+136]
  00043	48 2b c1	 sub	 rax, rcx

; 460  :     return offset;
; 461  : }

  00046	48 83 c4 20	 add	 rsp, 32			; 00000020H
  0004a	5b		 pop	 rbx
  0004b	c3		 ret	 0
$LN7@gzoffset64:

; 457  :         return -1;

  0004c	48 c7 c0 ff ff
	ff ff		 mov	 rax, -1
$LN1@gzoffset64:

; 460  :     return offset;
; 461  : }

  00053	48 83 c4 20	 add	 rsp, 32			; 00000020H
  00057	5b		 pop	 rbx
  00058	c3		 ret	 0
gzoffset64 ENDP
_TEXT	ENDS
; Function compile flags: /Ogtpy
; File C:\Users\chris\Documents\GitHub\FastCopy-M\external\zlib\gzlib.c
;	COMDAT gzoffset
_TEXT	SEGMENT
file$ = 48
gzoffset PROC						; COMDAT

; 464  : z_off_t ZEXPORT gzoffset(gzFile file) {

$LN4:
  00000	48 83 ec 28	 sub	 rsp, 40			; 00000028H

; 465  :     z_off64_t ret;
; 466  : 
; 467  :     ret = gzoffset64(file);

  00004	e8 00 00 00 00	 call	 gzoffset64
  00009	48 8b d0	 mov	 rdx, rax

; 468  :     return ret == (z_off_t)ret ? (z_off_t)ret : -1;

  0000c	48 63 c8	 movsxd	 rcx, eax
  0000f	48 3b d1	 cmp	 rdx, rcx
  00012	b8 ff ff ff ff	 mov	 eax, -1
  00017	0f 44 c2	 cmove	 eax, edx

; 469  : }

  0001a	48 83 c4 28	 add	 rsp, 40			; 00000028H
  0001e	c3		 ret	 0
gzoffset ENDP
_TEXT	ENDS
; Function compile flags: /Ogtpy
; File C:\Users\chris\Documents\GitHub\FastCopy-M\external\zlib\gzlib.c
;	COMDAT gzeof
_TEXT	SEGMENT
file$ = 8
gzeof	PROC						; COMDAT

; 473  :     gz_statep state;
; 474  : 
; 475  :     /* get internal structure and check integrity */
; 476  :     if (file == NULL)

  00000	48 85 c9	 test	 rcx, rcx
  00003	74 0e		 je	 SHORT $LN8@gzeof

; 477  :         return 0;
; 478  :     state = (gz_statep)file;
; 479  :     if (state->mode != GZ_READ && state->mode != GZ_WRITE)

  00005	8b 41 18	 mov	 eax, DWORD PTR [rcx+24]
  00008	3d 4f 1c 00 00	 cmp	 eax, 7247		; 00001c4fH
  0000d	75 04		 jne	 SHORT $LN8@gzeof

; 480  :         return 0;
; 481  : 
; 482  :     /* return end-of-file state */
; 483  :     return state->mode == GZ_READ ? state->past : 0;

  0000f	8b 41 54	 mov	 eax, DWORD PTR [rcx+84]

; 484  : }

  00012	c3		 ret	 0
$LN8@gzeof:
  00013	33 c0		 xor	 eax, eax
  00015	c3		 ret	 0
gzeof	ENDP
_TEXT	ENDS
; Function compile flags: /Ogtpy
; File C:\Users\chris\Documents\GitHub\FastCopy-M\external\zlib\gzlib.c
;	COMDAT gzerror
_TEXT	SEGMENT
file$ = 8
errnum$ = 16
gzerror	PROC						; COMDAT

; 488  :     gz_statep state;
; 489  : 
; 490  :     /* get internal structure and check integrity */
; 491  :     if (file == NULL)

  00000	48 85 c9	 test	 rcx, rcx
  00003	74 3c		 je	 SHORT $LN11@gzerror

; 492  :         return NULL;
; 493  :     state = (gz_statep)file;
; 494  :     if (state->mode != GZ_READ && state->mode != GZ_WRITE)

  00005	8b 41 18	 mov	 eax, DWORD PTR [rcx+24]
  00008	3d 4f 1c 00 00	 cmp	 eax, 7247		; 00001c4fH
  0000d	74 07		 je	 SHORT $LN3@gzerror
  0000f	3d b1 79 00 00	 cmp	 eax, 31153		; 000079b1H
  00014	75 2b		 jne	 SHORT $LN11@gzerror
$LN3@gzerror:

; 496  : 
; 497  :     /* return error information */
; 498  :     if (errnum != NULL)

  00016	48 85 d2	 test	 rdx, rdx
  00019	74 05		 je	 SHORT $LN4@gzerror

; 499  :         *errnum = state->err;

  0001b	8b 41 74	 mov	 eax, DWORD PTR [rcx+116]
  0001e	89 02		 mov	 DWORD PTR [rdx], eax
$LN4@gzerror:

; 500  :     return state->err == Z_MEM_ERROR ? "out of memory" :

  00020	83 79 74 fc	 cmp	 DWORD PTR [rcx+116], -4
  00024	75 08		 jne	 SHORT $LN8@gzerror
  00026	48 8d 05 00 00
	00 00		 lea	 rax, OFFSET FLAT:??_C@_0O@BNNCBLEN@out?5of?5memory@

; 501  :                                        (state->msg == NULL ? "" : state->msg);
; 502  : }

  0002d	c3		 ret	 0
$LN8@gzerror:

; 500  :     return state->err == Z_MEM_ERROR ? "out of memory" :

  0002e	48 8b 49 78	 mov	 rcx, QWORD PTR [rcx+120]
  00032	48 8d 05 00 00
	00 00		 lea	 rax, OFFSET FLAT:??_C@_00CNPNBAHC@@
  00039	48 85 c9	 test	 rcx, rcx
  0003c	48 0f 45 c1	 cmovne	 rax, rcx

; 501  :                                        (state->msg == NULL ? "" : state->msg);
; 502  : }

  00040	c3		 ret	 0
$LN11@gzerror:

; 495  :         return NULL;

  00041	33 c0		 xor	 eax, eax

; 501  :                                        (state->msg == NULL ? "" : state->msg);
; 502  : }

  00043	c3		 ret	 0
gzerror	ENDP
_TEXT	ENDS
; Function compile flags: /Ogtpy
; File C:\Users\chris\Documents\GitHub\FastCopy-M\external\zlib\gzlib.c
;	COMDAT gzclearerr
_TEXT	SEGMENT
file$ = 8
gzclearerr PROC						; COMDAT

; 506  :     gz_statep state;
; 507  : 
; 508  :     /* get internal structure and check integrity */
; 509  :     if (file == NULL)

  00000	48 85 c9	 test	 rcx, rcx
  00003	74 2b		 je	 SHORT $LN1@gzclearerr

; 510  :         return;
; 511  :     state = (gz_statep)file;
; 512  :     if (state->mode != GZ_READ && state->mode != GZ_WRITE)

  00005	8b 41 18	 mov	 eax, DWORD PTR [rcx+24]
  00008	3d 4f 1c 00 00	 cmp	 eax, 7247		; 00001c4fH
  0000d	74 11		 je	 SHORT $LN6@gzclearerr
  0000f	3d b1 79 00 00	 cmp	 eax, 31153		; 000079b1H
  00014	75 1a		 jne	 SHORT $LN1@gzclearerr

; 518  :         state->past = 0;
; 519  :     }
; 520  :     gz_error(state, Z_OK, NULL);

  00016	45 33 c0	 xor	 r8d, r8d
  00019	33 d2		 xor	 edx, edx
  0001b	e9 00 00 00 00	 jmp	 gz_error
$LN6@gzclearerr:

; 513  :         return;
; 514  : 
; 515  :     /* clear error and end-of-file */
; 516  :     if (state->mode == GZ_READ) {
; 517  :         state->eof = 0;

  00020	33 c0		 xor	 eax, eax

; 518  :         state->past = 0;
; 519  :     }
; 520  :     gz_error(state, Z_OK, NULL);

  00022	45 33 c0	 xor	 r8d, r8d
  00025	33 d2		 xor	 edx, edx
  00027	48 89 41 50	 mov	 QWORD PTR [rcx+80], rax
  0002b	e9 00 00 00 00	 jmp	 gz_error
$LN1@gzclearerr:

; 521  : }

  00030	c3		 ret	 0
gzclearerr ENDP
_TEXT	ENDS
; Function compile flags: /Ogtpy
; File C:\Users\chris\Documents\GitHub\FastCopy-M\external\zlib\gzlib.c
;	COMDAT gz_error
_TEXT	SEGMENT
state$ = 64
err$ = 72
msg$ = 80
gz_error PROC						; COMDAT

; 529  : void ZLIB_INTERNAL gz_error(gz_statep state, int err, const char *msg) {

$LN26:
  00000	48 89 5c 24 08	 mov	 QWORD PTR [rsp+8], rbx
  00005	48 89 74 24 10	 mov	 QWORD PTR [rsp+16], rsi
  0000a	48 89 7c 24 18	 mov	 QWORD PTR [rsp+24], rdi
  0000f	41 56		 push	 r14
  00011	48 83 ec 30	 sub	 rsp, 48			; 00000030H
  00015	4c 8b f1	 mov	 r14, rcx
  00018	49 8b f8	 mov	 rdi, r8

; 530  :     /* free previously allocated message and clear */
; 531  :     if (state->msg != NULL) {

  0001b	48 8b 49 78	 mov	 rcx, QWORD PTR [rcx+120]
  0001f	8b da		 mov	 ebx, edx
  00021	48 85 c9	 test	 rcx, rcx
  00024	74 15		 je	 SHORT $LN9@gz_error

; 532  :         if (state->err != Z_MEM_ERROR)

  00026	41 83 7e 74 fc	 cmp	 DWORD PTR [r14+116], -4
  0002b	74 06		 je	 SHORT $LN3@gz_error

; 533  :             free(state->msg);

  0002d	ff 15 00 00 00
	00		 call	 QWORD PTR __imp_free
$LN3@gz_error:

; 534  :         state->msg = NULL;

  00033	49 c7 46 78 00
	00 00 00	 mov	 QWORD PTR [r14+120], 0
$LN9@gz_error:

; 535  :     }
; 536  : 
; 537  :     /* if fatal, set state->x.have to 0 so that the gzgetc() macro fails */
; 538  :     if (err != Z_OK && err != Z_BUF_ERROR)

  0003b	85 db		 test	 ebx, ebx
  0003d	74 0c		 je	 SHORT $LN4@gz_error
  0003f	83 fb fb	 cmp	 ebx, -5
  00042	74 07		 je	 SHORT $LN4@gz_error

; 539  :         state->x.have = 0;

  00044	41 c7 06 00 00
	00 00		 mov	 DWORD PTR [r14], 0
$LN4@gz_error:

; 540  : 
; 541  :     /* set error code, and if no message, then done */
; 542  :     state->err = err;

  0004b	41 89 5e 74	 mov	 DWORD PTR [r14+116], ebx

; 543  :     if (msg == NULL)

  0004f	48 85 ff	 test	 rdi, rdi
  00052	0f 84 95 00 00
	00		 je	 $LN1@gz_error

; 544  :         return;
; 545  : 
; 546  :     /* for an out of memory error, return literal string when requested */
; 547  :     if (err == Z_MEM_ERROR)

  00058	83 fb fc	 cmp	 ebx, -4
  0005b	0f 84 8c 00 00
	00		 je	 $LN1@gz_error

; 548  :         return;
; 549  : 
; 550  :     /* construct error message with path */
; 551  :     if ((state->msg = (char *)malloc(strlen(state->path) + strlen(msg) + 3)) ==

  00061	49 8b 4e 20	 mov	 rcx, QWORD PTR [r14+32]
  00065	48 c7 c3 ff ff
	ff ff		 mov	 rbx, -1
  0006c	48 8b c3	 mov	 rax, rbx
  0006f	90		 npad	 1
$LL13@gz_error:
  00070	48 ff c0	 inc	 rax
  00073	80 3c 01 00	 cmp	 BYTE PTR [rcx+rax], 0
  00077	75 f7		 jne	 SHORT $LL13@gz_error
  00079	48 8b cb	 mov	 rcx, rbx
  0007c	0f 1f 40 00	 npad	 4
$LL12@gz_error:
  00080	48 ff c1	 inc	 rcx
  00083	80 3c 0f 00	 cmp	 BYTE PTR [rdi+rcx], 0
  00087	75 f7		 jne	 SHORT $LL12@gz_error
  00089	48 83 c0 03	 add	 rax, 3
  0008d	48 03 c8	 add	 rcx, rax
  00090	ff 15 00 00 00
	00		 call	 QWORD PTR __imp_malloc
  00096	49 89 46 78	 mov	 QWORD PTR [r14+120], rax
  0009a	48 8b c8	 mov	 rcx, rax
  0009d	48 85 c0	 test	 rax, rax
  000a0	75 0a		 jne	 SHORT $LN7@gz_error

; 552  :             NULL) {
; 553  :         state->err = Z_MEM_ERROR;

  000a2	41 c7 46 74 fc
	ff ff ff	 mov	 DWORD PTR [r14+116], -4

; 554  :         return;

  000aa	eb 41		 jmp	 SHORT $LN1@gz_error
$LN7@gz_error:

; 555  :     }
; 556  : #if !defined(NO_snprintf) && !defined(NO_vsnprintf)
; 557  :     (void)snprintf(state->msg, strlen(state->path) + strlen(msg) + 3,

  000ac	4d 8b 4e 20	 mov	 r9, QWORD PTR [r14+32]
  000b0	48 8b c3	 mov	 rax, rbx
$LL11@gz_error:
  000b3	41 80 7c 01 01
	00		 cmp	 BYTE PTR [r9+rax+1], 0
  000b9	48 8d 40 01	 lea	 rax, QWORD PTR [rax+1]
  000bd	75 f4		 jne	 SHORT $LL11@gz_error
  000bf	90		 npad	 1
$LL10@gz_error:
  000c0	48 ff c3	 inc	 rbx
  000c3	80 3c 1f 00	 cmp	 BYTE PTR [rdi+rbx], 0
  000c7	75 f7		 jne	 SHORT $LL10@gz_error
  000c9	48 8d 50 03	 lea	 rdx, QWORD PTR [rax+3]
  000cd	48 89 7c 24 28	 mov	 QWORD PTR [rsp+40], rdi
  000d2	48 8d 05 00 00
	00 00		 lea	 rax, OFFSET FLAT:??_C@_02LMMGGCAJ@?3?5@
  000d9	48 03 d3	 add	 rdx, rbx
  000dc	4c 8d 05 00 00
	00 00		 lea	 r8, OFFSET FLAT:??_C@_06DIJPEION@?$CFs?$CFs?$CFs@
  000e3	48 89 44 24 20	 mov	 QWORD PTR [rsp+32], rax
  000e8	e8 00 00 00 00	 call	 snprintf
$LN1@gz_error:

; 558  :                    "%s%s%s", state->path, ": ", msg);
; 559  : #else
; 560  :     strcpy(state->msg, state->path);
; 561  :     strcat(state->msg, ": ");
; 562  :     strcat(state->msg, msg);
; 563  : #endif
; 564  : }

  000ed	48 8b 5c 24 40	 mov	 rbx, QWORD PTR [rsp+64]
  000f2	48 8b 74 24 48	 mov	 rsi, QWORD PTR [rsp+72]
  000f7	48 8b 7c 24 50	 mov	 rdi, QWORD PTR [rsp+80]
  000fc	48 83 c4 30	 add	 rsp, 48			; 00000030H
  00100	41 5e		 pop	 r14
  00102	c3		 ret	 0
gz_error ENDP
_TEXT	ENDS
END
