; Listing generated by Microsoft (R) Optimizing Compiler Version 19.36.32537.0 

include listing.inc

INCLUDELIB OLDNAMES

PUBLIC	unz_copyright
	ORG $+13
unz_copyright DB ' unzip 1.01 Copyright 1998-2004 Gilles Vollant - http:/'
	DB	'/www.winimage.com/zLibDll', 00H
PUBLIC	unzGetGlobalComment
PUBLIC	unzCloseCurrentFile
PUBLIC	unzGetLocalExtrafield
PUBLIC	unzeof
PUBLIC	unztell64
PUBLIC	unztell
PUBLIC	unzReadCurrentFile
PUBLIC	unzGetCurrentFileZStreamPos64
PUBLIC	unzOpenCurrentFile2
PUBLIC	unzOpenCurrentFilePassword
PUBLIC	unzOpenCurrentFile
PUBLIC	unzOpenCurrentFile3
PUBLIC	unzGoToFilePos
PUBLIC	unzGoToFilePos64
PUBLIC	unzGetFilePos
PUBLIC	unzGetFilePos64
PUBLIC	unzLocateFile
PUBLIC	unzGoToNextFile
PUBLIC	unzGoToFirstFile
PUBLIC	unzGetCurrentFileInfo
PUBLIC	unzGetCurrentFileInfo64
PUBLIC	unzGetGlobalInfo
PUBLIC	unzGetGlobalInfo64
PUBLIC	unzClose
PUBLIC	unzOpen64
PUBLIC	unzOpen
PUBLIC	unzOpen2_64
PUBLIC	unzOpen2
PUBLIC	unzStringFileNameCompare
;	COMDAT pdata
pdata	SEGMENT
$pdata$unzGetGlobalComment DD imagerel $LN18
	DD	imagerel $LN18+162
	DD	imagerel $unwind$unzGetGlobalComment
pdata	ENDS
;	COMDAT pdata
pdata	SEGMENT
$pdata$unzCloseCurrentFile DD imagerel $LN16
	DD	imagerel $LN16+171
	DD	imagerel $unwind$unzCloseCurrentFile
pdata	ENDS
;	COMDAT pdata
pdata	SEGMENT
$pdata$unzGetLocalExtrafield DD imagerel $LN21
	DD	imagerel $LN21+236
	DD	imagerel $unwind$unzGetLocalExtrafield
pdata	ENDS
;	COMDAT pdata
pdata	SEGMENT
$pdata$unzReadCurrentFile DD imagerel $LN84
	DD	imagerel $LN84+54
	DD	imagerel $unwind$unzReadCurrentFile
pdata	ENDS
;	COMDAT pdata
pdata	SEGMENT
$pdata$5$unzReadCurrentFile DD imagerel $LN84+54
	DD	imagerel $LN84+542
	DD	imagerel $chain$5$unzReadCurrentFile
pdata	ENDS
;	COMDAT pdata
pdata	SEGMENT
$pdata$7$unzReadCurrentFile DD imagerel $LN84+542
	DD	imagerel $LN84+703
	DD	imagerel $chain$7$unzReadCurrentFile
pdata	ENDS
;	COMDAT pdata
pdata	SEGMENT
$pdata$8$unzReadCurrentFile DD imagerel $LN84+703
	DD	imagerel $LN84+716
	DD	imagerel $chain$8$unzReadCurrentFile
pdata	ENDS
;	COMDAT pdata
pdata	SEGMENT
$pdata$unzOpenCurrentFile2 DD imagerel $LN4
	DD	imagerel $LN4+23
	DD	imagerel $unwind$unzOpenCurrentFile2
pdata	ENDS
;	COMDAT pdata
pdata	SEGMENT
$pdata$unzOpenCurrentFilePassword DD imagerel $LN4
	DD	imagerel $LN4+27
	DD	imagerel $unwind$unzOpenCurrentFilePassword
pdata	ENDS
;	COMDAT pdata
pdata	SEGMENT
$pdata$unzOpenCurrentFile DD imagerel $LN4
	DD	imagerel $LN4+31
	DD	imagerel $unwind$unzOpenCurrentFile
pdata	ENDS
;	COMDAT pdata
pdata	SEGMENT
$pdata$unzOpenCurrentFile3 DD imagerel $LN47
	DD	imagerel $LN47+126
	DD	imagerel $unwind$unzOpenCurrentFile3
pdata	ENDS
;	COMDAT pdata
pdata	SEGMENT
$pdata$0$unzOpenCurrentFile3 DD imagerel $LN47+126
	DD	imagerel $LN47+155
	DD	imagerel $chain$0$unzOpenCurrentFile3
pdata	ENDS
;	COMDAT pdata
pdata	SEGMENT
$pdata$1$unzOpenCurrentFile3 DD imagerel $LN47+155
	DD	imagerel $LN47+224
	DD	imagerel $chain$1$unzOpenCurrentFile3
pdata	ENDS
;	COMDAT pdata
pdata	SEGMENT
$pdata$2$unzOpenCurrentFile3 DD imagerel $LN47+224
	DD	imagerel $LN47+243
	DD	imagerel $chain$2$unzOpenCurrentFile3
pdata	ENDS
;	COMDAT pdata
pdata	SEGMENT
$pdata$4$unzOpenCurrentFile3 DD imagerel $LN47+243
	DD	imagerel $LN47+642
	DD	imagerel $chain$4$unzOpenCurrentFile3
pdata	ENDS
;	COMDAT pdata
pdata	SEGMENT
$pdata$5$unzOpenCurrentFile3 DD imagerel $LN47+642
	DD	imagerel $LN47+661
	DD	imagerel $chain$5$unzOpenCurrentFile3
pdata	ENDS
;	COMDAT pdata
pdata	SEGMENT
$pdata$unz64local_CheckCurrentFileCoherencyHeader DD imagerel unz64local_CheckCurrentFileCoherencyHeader
	DD	imagerel unz64local_CheckCurrentFileCoherencyHeader+540
	DD	imagerel $unwind$unz64local_CheckCurrentFileCoherencyHeader
pdata	ENDS
;	COMDAT pdata
pdata	SEGMENT
$pdata$unzGoToFilePos DD imagerel $LN5
	DD	imagerel $LN5+49
	DD	imagerel $unwind$unzGoToFilePos
pdata	ENDS
;	COMDAT pdata
pdata	SEGMENT
$pdata$unzGoToFilePos64 DD imagerel $LN8
	DD	imagerel $LN8+50
	DD	imagerel $unwind$unzGoToFilePos64
pdata	ENDS
;	COMDAT pdata
pdata	SEGMENT
$pdata$0$unzGoToFilePos64 DD imagerel $LN8+50
	DD	imagerel $LN8+114
	DD	imagerel $chain$0$unzGoToFilePos64
pdata	ENDS
;	COMDAT pdata
pdata	SEGMENT
$pdata$1$unzGoToFilePos64 DD imagerel $LN8+114
	DD	imagerel $LN8+125
	DD	imagerel $chain$1$unzGoToFilePos64
pdata	ENDS
;	COMDAT pdata
pdata	SEGMENT
$pdata$unzGetFilePos DD imagerel $LN7
	DD	imagerel $LN7+42
	DD	imagerel $unwind$unzGetFilePos
pdata	ENDS
;	COMDAT pdata
pdata	SEGMENT
$pdata$unzLocateFile DD imagerel $LN30
	DD	imagerel $LN30+90
	DD	imagerel $unwind$unzLocateFile
pdata	ENDS
;	COMDAT pdata
pdata	SEGMENT
$pdata$3$unzLocateFile DD imagerel $LN30+90
	DD	imagerel $LN30+471
	DD	imagerel $chain$3$unzLocateFile
pdata	ENDS
;	COMDAT pdata
pdata	SEGMENT
$pdata$5$unzLocateFile DD imagerel $LN30+471
	DD	imagerel $LN30+475
	DD	imagerel $chain$5$unzLocateFile
pdata	ENDS
;	COMDAT pdata
pdata	SEGMENT
$pdata$6$unzLocateFile DD imagerel $LN30+475
	DD	imagerel $LN30+491
	DD	imagerel $chain$6$unzLocateFile
pdata	ENDS
;	COMDAT pdata
pdata	SEGMENT
$pdata$unzGoToNextFile DD imagerel $LN15
	DD	imagerel $LN15+119
	DD	imagerel $unwind$unzGoToNextFile
pdata	ENDS
;	COMDAT pdata
pdata	SEGMENT
$pdata$0$unzGoToNextFile DD imagerel $LN15+119
	DD	imagerel $LN15+179
	DD	imagerel $chain$0$unzGoToNextFile
pdata	ENDS
;	COMDAT pdata
pdata	SEGMENT
$pdata$1$unzGoToNextFile DD imagerel $LN15+179
	DD	imagerel $LN15+190
	DD	imagerel $chain$1$unzGoToNextFile
pdata	ENDS
;	COMDAT pdata
pdata	SEGMENT
$pdata$unzGoToFirstFile DD imagerel $LN6
	DD	imagerel $LN6+118
	DD	imagerel $unwind$unzGoToFirstFile
pdata	ENDS
;	COMDAT pdata
pdata	SEGMENT
$pdata$unzGetCurrentFileInfo DD imagerel $LN9
	DD	imagerel $LN9+246
	DD	imagerel $unwind$unzGetCurrentFileInfo
pdata	ENDS
;	COMDAT pdata
pdata	SEGMENT
$pdata$unzGetCurrentFileInfo64 DD imagerel $LN4
	DD	imagerel $LN4+73
	DD	imagerel $unwind$unzGetCurrentFileInfo64
pdata	ENDS
;	COMDAT pdata
pdata	SEGMENT
$pdata$unz64local_GetCurrentFileInfoInternal DD imagerel unz64local_GetCurrentFileInfoInternal
	DD	imagerel unz64local_GetCurrentFileInfoInternal+1407
	DD	imagerel $unwind$unz64local_GetCurrentFileInfoInternal
pdata	ENDS
;	COMDAT pdata
pdata	SEGMENT
$pdata$unzClose DD imagerel $LN8
	DD	imagerel $LN8+66
	DD	imagerel $unwind$unzClose
pdata	ENDS
;	COMDAT pdata
pdata	SEGMENT
$pdata$unzOpen2_64 DD imagerel $LN7
	DD	imagerel $LN7+96
	DD	imagerel $unwind$unzOpen2_64
pdata	ENDS
;	COMDAT pdata
pdata	SEGMENT
$pdata$unzOpen2 DD imagerel $LN7
	DD	imagerel $LN7+65
	DD	imagerel $unwind$unzOpen2
pdata	ENDS
;	COMDAT pdata
pdata	SEGMENT
$pdata$unzOpenInternal DD imagerel unzOpenInternal
	DD	imagerel unzOpenInternal+174
	DD	imagerel $unwind$unzOpenInternal
pdata	ENDS
;	COMDAT pdata
pdata	SEGMENT
$pdata$3$unzOpenInternal DD imagerel unzOpenInternal+174
	DD	imagerel unzOpenInternal+878
	DD	imagerel $chain$3$unzOpenInternal
pdata	ENDS
;	COMDAT pdata
pdata	SEGMENT
$pdata$4$unzOpenInternal DD imagerel unzOpenInternal+878
	DD	imagerel unzOpenInternal+1105
	DD	imagerel $chain$4$unzOpenInternal
pdata	ENDS
;	COMDAT pdata
pdata	SEGMENT
$pdata$unz64local_SearchCentralDir64 DD imagerel unz64local_SearchCentralDir64
	DD	imagerel unz64local_SearchCentralDir64+96
	DD	imagerel $unwind$unz64local_SearchCentralDir64
pdata	ENDS
;	COMDAT pdata
pdata	SEGMENT
$pdata$0$unz64local_SearchCentralDir64 DD imagerel unz64local_SearchCentralDir64+96
	DD	imagerel unz64local_SearchCentralDir64+116
	DD	imagerel $chain$0$unz64local_SearchCentralDir64
pdata	ENDS
;	COMDAT pdata
pdata	SEGMENT
$pdata$1$unz64local_SearchCentralDir64 DD imagerel unz64local_SearchCentralDir64+116
	DD	imagerel unz64local_SearchCentralDir64+308
	DD	imagerel $chain$1$unz64local_SearchCentralDir64
pdata	ENDS
;	COMDAT pdata
pdata	SEGMENT
$pdata$2$unz64local_SearchCentralDir64 DD imagerel unz64local_SearchCentralDir64+308
	DD	imagerel unz64local_SearchCentralDir64+331
	DD	imagerel $chain$2$unz64local_SearchCentralDir64
pdata	ENDS
;	COMDAT pdata
pdata	SEGMENT
$pdata$3$unz64local_SearchCentralDir64 DD imagerel unz64local_SearchCentralDir64+331
	DD	imagerel unz64local_SearchCentralDir64+540
	DD	imagerel $chain$3$unz64local_SearchCentralDir64
pdata	ENDS
;	COMDAT pdata
pdata	SEGMENT
$pdata$unz64local_SearchCentralDir DD imagerel unz64local_SearchCentralDir
	DD	imagerel unz64local_SearchCentralDir+98
	DD	imagerel $unwind$unz64local_SearchCentralDir
pdata	ENDS
;	COMDAT pdata
pdata	SEGMENT
$pdata$0$unz64local_SearchCentralDir DD imagerel unz64local_SearchCentralDir+98
	DD	imagerel unz64local_SearchCentralDir+118
	DD	imagerel $chain$0$unz64local_SearchCentralDir
pdata	ENDS
;	COMDAT pdata
pdata	SEGMENT
$pdata$1$unz64local_SearchCentralDir DD imagerel unz64local_SearchCentralDir+118
	DD	imagerel unz64local_SearchCentralDir+308
	DD	imagerel $chain$1$unz64local_SearchCentralDir
pdata	ENDS
;	COMDAT pdata
pdata	SEGMENT
$pdata$2$unz64local_SearchCentralDir DD imagerel unz64local_SearchCentralDir+308
	DD	imagerel unz64local_SearchCentralDir+342
	DD	imagerel $chain$2$unz64local_SearchCentralDir
pdata	ENDS
;	COMDAT pdata
pdata	SEGMENT
$pdata$3$unz64local_SearchCentralDir DD imagerel unz64local_SearchCentralDir+342
	DD	imagerel unz64local_SearchCentralDir+361
	DD	imagerel $chain$3$unz64local_SearchCentralDir
pdata	ENDS
;	COMDAT pdata
pdata	SEGMENT
$pdata$strcmpcasenosensitive_internal DD imagerel strcmpcasenosensitive_internal
	DD	imagerel strcmpcasenosensitive_internal+112
	DD	imagerel $unwind$strcmpcasenosensitive_internal
pdata	ENDS
;	COMDAT pdata
pdata	SEGMENT
$pdata$unz64local_getLong64 DD imagerel unz64local_getLong64
	DD	imagerel unz64local_getLong64+369
	DD	imagerel $unwind$unz64local_getLong64
pdata	ENDS
;	COMDAT pdata
pdata	SEGMENT
$pdata$unz64local_getLong DD imagerel unz64local_getLong
	DD	imagerel unz64local_getLong+205
	DD	imagerel $unwind$unz64local_getLong
pdata	ENDS
;	COMDAT pdata
pdata	SEGMENT
$pdata$unz64local_getShort DD imagerel unz64local_getShort
	DD	imagerel unz64local_getShort+124
	DD	imagerel $unwind$unz64local_getShort
pdata	ENDS
;	COMDAT pdata
pdata	SEGMENT
$pdata$unz64local_getByte DD imagerel unz64local_getByte
	DD	imagerel unz64local_getByte+102
	DD	imagerel $unwind$unz64local_getByte
;	COMDAT xdata
xdata	SEGMENT
$unwind$unz64local_getByte DD 060f01H
	DD	08640fH
	DD	07340fH
	DD	0700b320fH
xdata	ENDS
;	COMDAT xdata
xdata	SEGMENT
$unwind$unz64local_getShort DD 081401H
	DD	086414H
	DD	075414H
	DD	063414H
	DD	070103214H
xdata	ENDS
;	COMDAT xdata
xdata	SEGMENT
$unwind$unz64local_getLong DD 081501H
	DD	087415H
	DD	076415H
	DD	063415H
	DD	0e0113215H
xdata	ENDS
;	COMDAT xdata
xdata	SEGMENT
$unwind$unz64local_getLong64 DD 081501H
	DD	087415H
	DD	076415H
	DD	063415H
	DD	0e0113215H
xdata	ENDS
;	COMDAT xdata
xdata	SEGMENT
$unwind$strcmpcasenosensitive_internal DD 020501H
	DD	013405H
xdata	ENDS
;	COMDAT xdata
xdata	SEGMENT
$chain$3$unz64local_SearchCentralDir DD 021H
	DD	imagerel unz64local_SearchCentralDir
	DD	imagerel unz64local_SearchCentralDir+98
	DD	imagerel $unwind$unz64local_SearchCentralDir
xdata	ENDS
;	COMDAT xdata
xdata	SEGMENT
$chain$2$unz64local_SearchCentralDir DD 021H
	DD	imagerel unz64local_SearchCentralDir+98
	DD	imagerel unz64local_SearchCentralDir+118
	DD	imagerel $chain$0$unz64local_SearchCentralDir
xdata	ENDS
;	COMDAT xdata
xdata	SEGMENT
$chain$1$unz64local_SearchCentralDir DD 020521H
	DD	0ac405H
	DD	imagerel unz64local_SearchCentralDir+98
	DD	imagerel unz64local_SearchCentralDir+118
	DD	imagerel $chain$0$unz64local_SearchCentralDir
xdata	ENDS
;	COMDAT xdata
xdata	SEGMENT
$chain$0$unz64local_SearchCentralDir DD 020521H
	DD	0bf405H
	DD	imagerel unz64local_SearchCentralDir
	DD	imagerel unz64local_SearchCentralDir+98
	DD	imagerel $unwind$unz64local_SearchCentralDir
xdata	ENDS
;	COMDAT xdata
xdata	SEGMENT
$unwind$unz64local_SearchCentralDir DD 081001H
	DD	0d3410H
	DD	0e00c3210H
	DD	07008d00aH
	DD	050066007H
xdata	ENDS
;	COMDAT xdata
xdata	SEGMENT
$chain$3$unz64local_SearchCentralDir64 DD 021H
	DD	imagerel unz64local_SearchCentralDir64
	DD	imagerel unz64local_SearchCentralDir64+96
	DD	imagerel $unwind$unz64local_SearchCentralDir64
xdata	ENDS
;	COMDAT xdata
xdata	SEGMENT
$chain$2$unz64local_SearchCentralDir64 DD 021H
	DD	imagerel unz64local_SearchCentralDir64+96
	DD	imagerel unz64local_SearchCentralDir64+116
	DD	imagerel $chain$0$unz64local_SearchCentralDir64
xdata	ENDS
;	COMDAT xdata
xdata	SEGMENT
$chain$1$unz64local_SearchCentralDir64 DD 020521H
	DD	0cc405H
	DD	imagerel unz64local_SearchCentralDir64+96
	DD	imagerel unz64local_SearchCentralDir64+116
	DD	imagerel $chain$0$unz64local_SearchCentralDir64
xdata	ENDS
;	COMDAT xdata
xdata	SEGMENT
$chain$0$unz64local_SearchCentralDir64 DD 020521H
	DD	04d405H
	DD	imagerel unz64local_SearchCentralDir64
	DD	imagerel unz64local_SearchCentralDir64+96
	DD	imagerel $unwind$unz64local_SearchCentralDir64
xdata	ENDS
;	COMDAT xdata
xdata	SEGMENT
$unwind$unz64local_SearchCentralDir64 DD 070d01H
	DD	0f009420dH
	DD	07005e007H
	DD	050036004H
	DD	03002H
xdata	ENDS
;	COMDAT xdata
xdata	SEGMENT
$chain$4$unzOpenInternal DD 020021H
	DD	02af400H
	DD	imagerel unzOpenInternal
	DD	imagerel unzOpenInternal+174
	DD	imagerel $unwind$unzOpenInternal
xdata	ENDS
;	COMDAT xdata
xdata	SEGMENT
$chain$3$unzOpenInternal DD 041021H
	DD	02af410H
	DD	02be408H
	DD	imagerel unzOpenInternal
	DD	imagerel unzOpenInternal+174
	DD	imagerel $unwind$unzOpenInternal
xdata	ENDS
;	COMDAT xdata
xdata	SEGMENT
$unwind$unzOpenInternal DD 09ab01H
	DD	03174abH
	DD	030349eH
	DD	02c0111H
	DD	06003c005H
	DD	05002H
xdata	ENDS
;	COMDAT xdata
xdata	SEGMENT
$unwind$unzOpen2 DD 020701H
	DD	0110107H
xdata	ENDS
;	COMDAT xdata
xdata	SEGMENT
$unwind$unzOpen2_64 DD 020701H
	DD	0110107H
xdata	ENDS
;	COMDAT xdata
xdata	SEGMENT
$unwind$unzClose DD 020601H
	DD	030023206H
xdata	ENDS
;	COMDAT xdata
xdata	SEGMENT
$unwind$unz64local_GetCurrentFileInfoInternal DD 0ebd01H
	DD	016e4bdH
	DD	015f46aH
	DD	0177462H
	DD	018345aH
	DD	0190121H
	DD	0c013d015H
	DD	050106011H
xdata	ENDS
;	COMDAT xdata
xdata	SEGMENT
$unwind$unzGetCurrentFileInfo64 DD 010401H
	DD	0a204H
xdata	ENDS
;	COMDAT xdata
xdata	SEGMENT
$unwind$unzGetCurrentFileInfo DD 030901H
	DD	0160109H
	DD	03002H
xdata	ENDS
;	COMDAT xdata
xdata	SEGMENT
$unwind$unzGoToFirstFile DD 042a01H
	DD	0c342aH
	DD	070029206H
xdata	ENDS
;	COMDAT xdata
xdata	SEGMENT
$chain$1$unzGoToNextFile DD 021H
	DD	imagerel $LN15
	DD	imagerel $LN15+119
	DD	imagerel $unwind$unzGoToNextFile
xdata	ENDS
;	COMDAT xdata
xdata	SEGMENT
$chain$0$unzGoToNextFile DD 020521H
	DD	0c3405H
	DD	imagerel $LN15
	DD	imagerel $LN15+119
	DD	imagerel $unwind$unzGoToNextFile
xdata	ENDS
;	COMDAT xdata
xdata	SEGMENT
$unwind$unzGoToNextFile DD 020601H
	DD	070029206H
xdata	ENDS
;	COMDAT xdata
xdata	SEGMENT
$chain$6$unzLocateFile DD 021H
	DD	imagerel $LN30
	DD	imagerel $LN30+90
	DD	imagerel $unwind$unzLocateFile
xdata	ENDS
;	COMDAT xdata
xdata	SEGMENT
$chain$5$unzLocateFile DD 080021H
	DD	034f400H
	DD	035e400H
	DD	03cc400H
	DD	03b3400H
	DD	imagerel $LN30
	DD	imagerel $LN30+90
	DD	imagerel $unwind$unzLocateFile
xdata	ENDS
;	COMDAT xdata
xdata	SEGMENT
$chain$3$unzLocateFile DD 083f21H
	DD	034f43fH
	DD	035e42bH
	DD	03cc41cH
	DD	03b3408H
	DD	imagerel $LN30
	DD	imagerel $LN30+90
	DD	imagerel $unwind$unzLocateFile
xdata	ENDS
;	COMDAT xdata
xdata	SEGMENT
$unwind$unzLocateFile DD 050b01H
	DD	036010bH
	DD	060037004H
	DD	05002H
xdata	ENDS
;	COMDAT xdata
xdata	SEGMENT
$unwind$unzGetFilePos DD 020601H
	DD	030025206H
xdata	ENDS
;	COMDAT xdata
xdata	SEGMENT
$chain$1$unzGoToFilePos64 DD 021H
	DD	imagerel $LN8
	DD	imagerel $LN8+50
	DD	imagerel $unwind$unzGoToFilePos64
xdata	ENDS
;	COMDAT xdata
xdata	SEGMENT
$chain$0$unzGoToFilePos64 DD 020521H
	DD	0c3405H
	DD	imagerel $LN8
	DD	imagerel $LN8+50
	DD	imagerel $unwind$unzGoToFilePos64
xdata	ENDS
;	COMDAT xdata
xdata	SEGMENT
$unwind$unzGoToFilePos64 DD 020601H
	DD	070029206H
xdata	ENDS
;	COMDAT xdata
xdata	SEGMENT
$unwind$unzGoToFilePos DD 010401H
	DD	06204H
xdata	ENDS
;	COMDAT xdata
xdata	SEGMENT
$unwind$unz64local_CheckCurrentFileCoherencyHeader DD 0b6601H
	DD	04d466H
	DD	0e545eH
	DD	0f00a420eH
	DD	0c006e008H
	DD	060037004H
	DD	03002H
xdata	ENDS
;	COMDAT xdata
xdata	SEGMENT
$chain$5$unzOpenCurrentFile3 DD 021H
	DD	imagerel $LN47
	DD	imagerel $LN47+126
	DD	imagerel $unwind$unzOpenCurrentFile3
xdata	ENDS
;	COMDAT xdata
xdata	SEGMENT
$chain$4$unzOpenCurrentFile3 DD 040021H
	DD	0bf400H
	DD	0a3400H
	DD	imagerel $LN47
	DD	imagerel $LN47+126
	DD	imagerel $unwind$unzOpenCurrentFile3
xdata	ENDS
;	COMDAT xdata
xdata	SEGMENT
$chain$2$unzOpenCurrentFile3 DD 021H
	DD	imagerel $LN47+126
	DD	imagerel $LN47+155
	DD	imagerel $chain$0$unzOpenCurrentFile3
xdata	ENDS
;	COMDAT xdata
xdata	SEGMENT
$chain$1$unzOpenCurrentFile3 DD 020521H
	DD	0bf405H
	DD	imagerel $LN47+126
	DD	imagerel $LN47+155
	DD	imagerel $chain$0$unzOpenCurrentFile3
xdata	ENDS
;	COMDAT xdata
xdata	SEGMENT
$chain$0$unzOpenCurrentFile3 DD 020521H
	DD	0a3405H
	DD	imagerel $LN47
	DD	imagerel $LN47+126
	DD	imagerel $unwind$unzOpenCurrentFile3
xdata	ENDS
;	COMDAT xdata
xdata	SEGMENT
$unwind$unzOpenCurrentFile3 DD 060d01H
	DD	0c540dH
	DD	0e009520dH
	DD	060067007H
xdata	ENDS
;	COMDAT xdata
xdata	SEGMENT
$unwind$unzOpenCurrentFile DD 010401H
	DD	06204H
xdata	ENDS
;	COMDAT xdata
xdata	SEGMENT
$unwind$unzOpenCurrentFilePassword DD 010401H
	DD	06204H
xdata	ENDS
;	COMDAT xdata
xdata	SEGMENT
$unwind$unzOpenCurrentFile2 DD 010401H
	DD	06204H
xdata	ENDS
;	COMDAT xdata
xdata	SEGMENT
$chain$8$unzReadCurrentFile DD 021H
	DD	imagerel $LN84
	DD	imagerel $LN84+54
	DD	imagerel $unwind$unzReadCurrentFile
xdata	ENDS
;	COMDAT xdata
xdata	SEGMENT
$chain$7$unzReadCurrentFile DD 0c0021H
	DD	04f400H
	DD	05e400H
	DD	06d400H
	DD	0c7400H
	DD	0b6400H
	DD	0a5400H
	DD	imagerel $LN84
	DD	imagerel $LN84+54
	DD	imagerel $unwind$unzReadCurrentFile
xdata	ENDS
;	COMDAT xdata
xdata	SEGMENT
$chain$5$unzReadCurrentFile DD 0c1e21H
	DD	04f41eH
	DD	05e419H
	DD	06d414H
	DD	0c740fH
	DD	0b640aH
	DD	0a5405H
	DD	imagerel $LN84
	DD	imagerel $LN84+54
	DD	imagerel $unwind$unzReadCurrentFile
xdata	ENDS
;	COMDAT xdata
xdata	SEGMENT
$unwind$unzReadCurrentFile DD 030801H
	DD	0c0046208H
	DD	03002H
xdata	ENDS
;	COMDAT xdata
xdata	SEGMENT
$unwind$unzGetLocalExtrafield DD 060f01H
	DD	07640fH
	DD	06340fH
	DD	0700b320fH
xdata	ENDS
;	COMDAT xdata
xdata	SEGMENT
$unwind$unzCloseCurrentFile DD 060f01H
	DD	07640fH
	DD	06340fH
	DD	0700b320fH
xdata	ENDS
;	COMDAT xdata
xdata	SEGMENT
$unwind$unzGetGlobalComment DD 084301H
	DD	066443H
	DD	08540fH
	DD	07340fH
	DD	0700b320fH
; Function compile flags: /Ogtpy
; File C:\Users\chris\Documents\GitHub\FastCopy-M\external\zlib\contrib\minizip\unzip.c
;	COMDAT unz64local_getByte
_TEXT	SEGMENT
c$ = 48
pzlib_filefunc_def$ = 48
filestream$ = 56
pi$ = 64
unz64local_getByte PROC					; COMDAT

; 207  : local int unz64local_getByte(const zlib_filefunc64_32_def* pzlib_filefunc_def, voidpf filestream, int *pi) {

  00000	48 89 5c 24 10	 mov	 QWORD PTR [rsp+16], rbx
  00005	48 89 74 24 18	 mov	 QWORD PTR [rsp+24], rsi
  0000a	57		 push	 rdi
  0000b	48 83 ec 20	 sub	 rsp, 32			; 00000020H
  0000f	48 8b d9	 mov	 rbx, rcx
  00012	49 8b f8	 mov	 rdi, r8

; 208  :     unsigned char c;
; 209  :     int err = (int)ZREAD64(*pzlib_filefunc_def,filestream,&c,1);

  00015	48 8b 49 38	 mov	 rcx, QWORD PTR [rcx+56]
  00019	4c 8d 44 24 30	 lea	 r8, QWORD PTR c$[rsp]
  0001e	41 b9 01 00 00
	00		 mov	 r9d, 1
  00024	48 8b f2	 mov	 rsi, rdx
  00027	ff 53 08	 call	 QWORD PTR [rbx+8]

; 210  :     if (err==1)

  0002a	83 f8 01	 cmp	 eax, 1
  0002d	75 19		 jne	 SHORT $LN2@unz64local

; 211  :     {
; 212  :         *pi = (int)c;

  0002f	0f b6 44 24 30	 movzx	 eax, BYTE PTR c$[rsp]
  00034	89 07		 mov	 DWORD PTR [rdi], eax

; 213  :         return UNZ_OK;

  00036	33 c0		 xor	 eax, eax

; 218  :             return UNZ_ERRNO;
; 219  :         else
; 220  :             return UNZ_EOF;
; 221  :     }
; 222  : }

  00038	48 8b 5c 24 38	 mov	 rbx, QWORD PTR [rsp+56]
  0003d	48 8b 74 24 40	 mov	 rsi, QWORD PTR [rsp+64]
  00042	48 83 c4 20	 add	 rsp, 32			; 00000020H
  00046	5f		 pop	 rdi
  00047	c3		 ret	 0
$LN2@unz64local:

; 214  :     }
; 215  :     else
; 216  :     {
; 217  :         if (ZERROR64(*pzlib_filefunc_def,filestream))

  00048	48 8b 4b 38	 mov	 rcx, QWORD PTR [rbx+56]
  0004c	48 8b d6	 mov	 rdx, rsi
  0004f	ff 53 30	 call	 QWORD PTR [rbx+48]

; 218  :             return UNZ_ERRNO;
; 219  :         else
; 220  :             return UNZ_EOF;
; 221  :     }
; 222  : }

  00052	48 8b 5c 24 38	 mov	 rbx, QWORD PTR [rsp+56]
  00057	f7 d8		 neg	 eax
  00059	48 8b 74 24 40	 mov	 rsi, QWORD PTR [rsp+64]
  0005e	1b c0		 sbb	 eax, eax
  00060	48 83 c4 20	 add	 rsp, 32			; 00000020H
  00064	5f		 pop	 rdi
  00065	c3		 ret	 0
unz64local_getByte ENDP
_TEXT	ENDS
; Function compile flags: /Ogtpy
; File C:\Users\chris\Documents\GitHub\FastCopy-M\external\zlib\contrib\minizip\unzip.c
;	COMDAT unz64local_getShort
_TEXT	SEGMENT
pzlib_filefunc_def$ = 48
filestream$ = 56
pX$ = 64
i$ = 72
unz64local_getShort PROC				; COMDAT

; 231  :                               uLong *pX) {

  00000	48 89 5c 24 08	 mov	 QWORD PTR [rsp+8], rbx
  00005	48 89 6c 24 10	 mov	 QWORD PTR [rsp+16], rbp
  0000a	48 89 74 24 18	 mov	 QWORD PTR [rsp+24], rsi
  0000f	57		 push	 rdi
  00010	48 83 ec 20	 sub	 rsp, 32			; 00000020H
  00014	49 8b d8	 mov	 rbx, r8

; 232  :     uLong x ;
; 233  :     int i = 0;

  00017	c7 44 24 48 00
	00 00 00	 mov	 DWORD PTR i$[rsp], 0

; 234  :     int err;
; 235  : 
; 236  :     err = unz64local_getByte(pzlib_filefunc_def,filestream,&i);

  0001f	4c 8d 44 24 48	 lea	 r8, QWORD PTR i$[rsp]
  00024	48 8b fa	 mov	 rdi, rdx
  00027	48 8b f1	 mov	 rsi, rcx
  0002a	e8 00 00 00 00	 call	 unz64local_getByte

; 237  :     x = (uLong)i;

  0002f	8b 6c 24 48	 mov	 ebp, DWORD PTR i$[rsp]
  00033	44 8b c8	 mov	 r9d, eax

; 238  : 
; 239  :     if (err==UNZ_OK)

  00036	85 c0		 test	 eax, eax
  00038	75 24		 jne	 SHORT $LN3@unz64local

; 240  :         err = unz64local_getByte(pzlib_filefunc_def,filestream,&i);

  0003a	4c 8d 44 24 48	 lea	 r8, QWORD PTR i$[rsp]
  0003f	48 8b d7	 mov	 rdx, rdi
  00042	48 8b ce	 mov	 rcx, rsi
  00045	e8 00 00 00 00	 call	 unz64local_getByte
  0004a	44 8b c8	 mov	 r9d, eax

; 242  : 
; 243  :     if (err==UNZ_OK)

  0004d	85 c0		 test	 eax, eax
  0004f	75 0d		 jne	 SHORT $LN3@unz64local

; 241  :     x |= ((uLong)i)<<8;

  00051	8b 44 24 48	 mov	 eax, DWORD PTR i$[rsp]
  00055	c1 e0 08	 shl	 eax, 8
  00058	0b c5		 or	 eax, ebp

; 244  :         *pX = x;
; 245  :     else
; 246  :         *pX = 0;
; 247  :     return err;

  0005a	89 03		 mov	 DWORD PTR [rbx], eax
  0005c	eb 06		 jmp	 SHORT $LN8@unz64local
$LN3@unz64local:
  0005e	c7 03 00 00 00
	00		 mov	 DWORD PTR [rbx], 0
$LN8@unz64local:

; 248  : }

  00064	48 8b 5c 24 30	 mov	 rbx, QWORD PTR [rsp+48]
  00069	41 8b c1	 mov	 eax, r9d
  0006c	48 8b 6c 24 38	 mov	 rbp, QWORD PTR [rsp+56]
  00071	48 8b 74 24 40	 mov	 rsi, QWORD PTR [rsp+64]
  00076	48 83 c4 20	 add	 rsp, 32			; 00000020H
  0007a	5f		 pop	 rdi
  0007b	c3		 ret	 0
unz64local_getShort ENDP
_TEXT	ENDS
; Function compile flags: /Ogtpy
; File C:\Users\chris\Documents\GitHub\FastCopy-M\external\zlib\contrib\minizip\unzip.c
;	COMDAT unz64local_getLong
_TEXT	SEGMENT
pzlib_filefunc_def$ = 48
filestream$ = 56
pX$ = 64
i$ = 72
unz64local_getLong PROC					; COMDAT

; 252  :                              uLong *pX) {

  00000	48 89 5c 24 08	 mov	 QWORD PTR [rsp+8], rbx
  00005	48 89 74 24 10	 mov	 QWORD PTR [rsp+16], rsi
  0000a	48 89 7c 24 18	 mov	 QWORD PTR [rsp+24], rdi
  0000f	41 56		 push	 r14
  00011	48 83 ec 20	 sub	 rsp, 32			; 00000020H
  00015	4d 8b f0	 mov	 r14, r8

; 253  :     uLong x ;
; 254  :     int i = 0;

  00018	c7 44 24 48 00
	00 00 00	 mov	 DWORD PTR i$[rsp], 0

; 255  :     int err;
; 256  : 
; 257  :     err = unz64local_getByte(pzlib_filefunc_def,filestream,&i);

  00020	4c 8d 44 24 48	 lea	 r8, QWORD PTR i$[rsp]
  00025	48 8b fa	 mov	 rdi, rdx
  00028	48 8b f1	 mov	 rsi, rcx
  0002b	e8 00 00 00 00	 call	 unz64local_getByte

; 258  :     x = (uLong)i;

  00030	44 8b 54 24 48	 mov	 r10d, DWORD PTR i$[rsp]
  00035	41 8b da	 mov	 ebx, r10d
  00038	44 8b c8	 mov	 r9d, eax

; 259  : 
; 260  :     if (err==UNZ_OK)

  0003b	85 c0		 test	 eax, eax
  0003d	75 18		 jne	 SHORT $LN2@unz64local

; 261  :         err = unz64local_getByte(pzlib_filefunc_def,filestream,&i);

  0003f	4c 8d 44 24 48	 lea	 r8, QWORD PTR i$[rsp]
  00044	48 8b d7	 mov	 rdx, rdi
  00047	48 8b ce	 mov	 rcx, rsi
  0004a	e8 00 00 00 00	 call	 unz64local_getByte
  0004f	44 8b 54 24 48	 mov	 r10d, DWORD PTR i$[rsp]
  00054	44 8b c8	 mov	 r9d, eax
$LN2@unz64local:

; 262  :     x |= ((uLong)i)<<8;

  00057	41 8b c2	 mov	 eax, r10d
  0005a	c1 e0 08	 shl	 eax, 8
  0005d	0b d8		 or	 ebx, eax

; 263  : 
; 264  :     if (err==UNZ_OK)

  0005f	45 85 c9	 test	 r9d, r9d
  00062	75 18		 jne	 SHORT $LN3@unz64local

; 265  :         err = unz64local_getByte(pzlib_filefunc_def,filestream,&i);

  00064	4c 8d 44 24 48	 lea	 r8, QWORD PTR i$[rsp]
  00069	48 8b d7	 mov	 rdx, rdi
  0006c	48 8b ce	 mov	 rcx, rsi
  0006f	e8 00 00 00 00	 call	 unz64local_getByte
  00074	44 8b 54 24 48	 mov	 r10d, DWORD PTR i$[rsp]
  00079	44 8b c8	 mov	 r9d, eax
$LN3@unz64local:

; 266  :     x |= ((uLong)i)<<16;

  0007c	41 c1 e2 10	 shl	 r10d, 16
  00080	41 0b da	 or	 ebx, r10d

; 267  : 
; 268  :     if (err==UNZ_OK)

  00083	45 85 c9	 test	 r9d, r9d
  00086	75 25		 jne	 SHORT $LN5@unz64local

; 269  :         err = unz64local_getByte(pzlib_filefunc_def,filestream,&i);

  00088	4c 8d 44 24 48	 lea	 r8, QWORD PTR i$[rsp]
  0008d	48 8b d7	 mov	 rdx, rdi
  00090	48 8b ce	 mov	 rcx, rsi
  00093	e8 00 00 00 00	 call	 unz64local_getByte
  00098	44 8b c8	 mov	 r9d, eax

; 271  : 
; 272  :     if (err==UNZ_OK)

  0009b	85 c0		 test	 eax, eax
  0009d	75 0e		 jne	 SHORT $LN5@unz64local

; 270  :     x += ((uLong)i)<<24;

  0009f	8b 44 24 48	 mov	 eax, DWORD PTR i$[rsp]
  000a3	c1 e0 18	 shl	 eax, 24
  000a6	03 c3		 add	 eax, ebx

; 273  :         *pX = x;
; 274  :     else
; 275  :         *pX = 0;
; 276  :     return err;

  000a8	41 89 06	 mov	 DWORD PTR [r14], eax
  000ab	eb 07		 jmp	 SHORT $LN12@unz64local
$LN5@unz64local:
  000ad	41 c7 06 00 00
	00 00		 mov	 DWORD PTR [r14], 0
$LN12@unz64local:

; 277  : }

  000b4	48 8b 5c 24 30	 mov	 rbx, QWORD PTR [rsp+48]
  000b9	41 8b c1	 mov	 eax, r9d
  000bc	48 8b 74 24 38	 mov	 rsi, QWORD PTR [rsp+56]
  000c1	48 8b 7c 24 40	 mov	 rdi, QWORD PTR [rsp+64]
  000c6	48 83 c4 20	 add	 rsp, 32			; 00000020H
  000ca	41 5e		 pop	 r14
  000cc	c3		 ret	 0
unz64local_getLong ENDP
_TEXT	ENDS
; Function compile flags: /Ogtpy
; File C:\Users\chris\Documents\GitHub\FastCopy-M\external\zlib\contrib\minizip\unzip.c
;	COMDAT unz64local_getLong64
_TEXT	SEGMENT
pzlib_filefunc_def$ = 48
filestream$ = 56
pX$ = 64
i$ = 72
unz64local_getLong64 PROC				; COMDAT

; 282  :                                ZPOS64_T *pX) {

  00000	48 89 5c 24 08	 mov	 QWORD PTR [rsp+8], rbx
  00005	48 89 74 24 10	 mov	 QWORD PTR [rsp+16], rsi
  0000a	48 89 7c 24 18	 mov	 QWORD PTR [rsp+24], rdi
  0000f	41 56		 push	 r14
  00011	48 83 ec 20	 sub	 rsp, 32			; 00000020H
  00015	4d 8b f0	 mov	 r14, r8

; 283  :     ZPOS64_T x ;
; 284  :     int i = 0;

  00018	c7 44 24 48 00
	00 00 00	 mov	 DWORD PTR i$[rsp], 0

; 285  :     int err;
; 286  : 
; 287  :     err = unz64local_getByte(pzlib_filefunc_def,filestream,&i);

  00020	4c 8d 44 24 48	 lea	 r8, QWORD PTR i$[rsp]
  00025	48 8b fa	 mov	 rdi, rdx
  00028	48 8b f1	 mov	 rsi, rcx
  0002b	e8 00 00 00 00	 call	 unz64local_getByte

; 288  :     x = (ZPOS64_T)i;

  00030	4c 63 54 24 48	 movsxd	 r10, DWORD PTR i$[rsp]
  00035	44 8b c8	 mov	 r9d, eax
  00038	49 8b da	 mov	 rbx, r10

; 289  : 
; 290  :     if (err==UNZ_OK)

  0003b	85 c0		 test	 eax, eax
  0003d	75 18		 jne	 SHORT $LN2@unz64local

; 291  :         err = unz64local_getByte(pzlib_filefunc_def,filestream,&i);

  0003f	4c 8d 44 24 48	 lea	 r8, QWORD PTR i$[rsp]
  00044	48 8b d7	 mov	 rdx, rdi
  00047	48 8b ce	 mov	 rcx, rsi
  0004a	e8 00 00 00 00	 call	 unz64local_getByte
  0004f	44 8b 54 24 48	 mov	 r10d, DWORD PTR i$[rsp]
  00054	44 8b c8	 mov	 r9d, eax
$LN2@unz64local:

; 292  :     x |= ((ZPOS64_T)i)<<8;

  00057	49 63 c2	 movsxd	 rax, r10d
  0005a	48 c1 e0 08	 shl	 rax, 8
  0005e	48 0b d8	 or	 rbx, rax

; 293  : 
; 294  :     if (err==UNZ_OK)

  00061	45 85 c9	 test	 r9d, r9d
  00064	75 18		 jne	 SHORT $LN3@unz64local

; 295  :         err = unz64local_getByte(pzlib_filefunc_def,filestream,&i);

  00066	4c 8d 44 24 48	 lea	 r8, QWORD PTR i$[rsp]
  0006b	48 8b d7	 mov	 rdx, rdi
  0006e	48 8b ce	 mov	 rcx, rsi
  00071	e8 00 00 00 00	 call	 unz64local_getByte
  00076	44 8b 54 24 48	 mov	 r10d, DWORD PTR i$[rsp]
  0007b	44 8b c8	 mov	 r9d, eax
$LN3@unz64local:

; 296  :     x |= ((ZPOS64_T)i)<<16;

  0007e	49 63 c2	 movsxd	 rax, r10d
  00081	48 c1 e0 10	 shl	 rax, 16
  00085	48 0b d8	 or	 rbx, rax

; 297  : 
; 298  :     if (err==UNZ_OK)

  00088	45 85 c9	 test	 r9d, r9d
  0008b	75 18		 jne	 SHORT $LN4@unz64local

; 299  :         err = unz64local_getByte(pzlib_filefunc_def,filestream,&i);

  0008d	4c 8d 44 24 48	 lea	 r8, QWORD PTR i$[rsp]
  00092	48 8b d7	 mov	 rdx, rdi
  00095	48 8b ce	 mov	 rcx, rsi
  00098	e8 00 00 00 00	 call	 unz64local_getByte
  0009d	44 8b 54 24 48	 mov	 r10d, DWORD PTR i$[rsp]
  000a2	44 8b c8	 mov	 r9d, eax
$LN4@unz64local:

; 300  :     x |= ((ZPOS64_T)i)<<24;

  000a5	49 63 c2	 movsxd	 rax, r10d
  000a8	48 c1 e0 18	 shl	 rax, 24
  000ac	48 0b d8	 or	 rbx, rax

; 301  : 
; 302  :     if (err==UNZ_OK)

  000af	45 85 c9	 test	 r9d, r9d
  000b2	75 18		 jne	 SHORT $LN5@unz64local

; 303  :         err = unz64local_getByte(pzlib_filefunc_def,filestream,&i);

  000b4	4c 8d 44 24 48	 lea	 r8, QWORD PTR i$[rsp]
  000b9	48 8b d7	 mov	 rdx, rdi
  000bc	48 8b ce	 mov	 rcx, rsi
  000bf	e8 00 00 00 00	 call	 unz64local_getByte
  000c4	44 8b 54 24 48	 mov	 r10d, DWORD PTR i$[rsp]
  000c9	44 8b c8	 mov	 r9d, eax
$LN5@unz64local:

; 304  :     x |= ((ZPOS64_T)i)<<32;

  000cc	49 63 c2	 movsxd	 rax, r10d
  000cf	48 c1 e0 20	 shl	 rax, 32			; 00000020H
  000d3	48 0b d8	 or	 rbx, rax

; 305  : 
; 306  :     if (err==UNZ_OK)

  000d6	45 85 c9	 test	 r9d, r9d
  000d9	75 18		 jne	 SHORT $LN6@unz64local

; 307  :         err = unz64local_getByte(pzlib_filefunc_def,filestream,&i);

  000db	4c 8d 44 24 48	 lea	 r8, QWORD PTR i$[rsp]
  000e0	48 8b d7	 mov	 rdx, rdi
  000e3	48 8b ce	 mov	 rcx, rsi
  000e6	e8 00 00 00 00	 call	 unz64local_getByte
  000eb	44 8b 54 24 48	 mov	 r10d, DWORD PTR i$[rsp]
  000f0	44 8b c8	 mov	 r9d, eax
$LN6@unz64local:

; 308  :     x |= ((ZPOS64_T)i)<<40;

  000f3	49 63 c2	 movsxd	 rax, r10d
  000f6	48 c1 e0 28	 shl	 rax, 40			; 00000028H
  000fa	48 0b d8	 or	 rbx, rax

; 309  : 
; 310  :     if (err==UNZ_OK)

  000fd	45 85 c9	 test	 r9d, r9d
  00100	75 18		 jne	 SHORT $LN7@unz64local

; 311  :         err = unz64local_getByte(pzlib_filefunc_def,filestream,&i);

  00102	4c 8d 44 24 48	 lea	 r8, QWORD PTR i$[rsp]
  00107	48 8b d7	 mov	 rdx, rdi
  0010a	48 8b ce	 mov	 rcx, rsi
  0010d	e8 00 00 00 00	 call	 unz64local_getByte
  00112	44 8b 54 24 48	 mov	 r10d, DWORD PTR i$[rsp]
  00117	44 8b c8	 mov	 r9d, eax
$LN7@unz64local:

; 312  :     x |= ((ZPOS64_T)i)<<48;

  0011a	49 63 c2	 movsxd	 rax, r10d
  0011d	48 c1 e0 30	 shl	 rax, 48			; 00000030H
  00121	48 0b d8	 or	 rbx, rax

; 313  : 
; 314  :     if (err==UNZ_OK)

  00124	45 85 c9	 test	 r9d, r9d
  00127	75 28		 jne	 SHORT $LN9@unz64local

; 315  :         err = unz64local_getByte(pzlib_filefunc_def,filestream,&i);

  00129	4c 8d 44 24 48	 lea	 r8, QWORD PTR i$[rsp]
  0012e	48 8b d7	 mov	 rdx, rdi
  00131	48 8b ce	 mov	 rcx, rsi
  00134	e8 00 00 00 00	 call	 unz64local_getByte
  00139	44 8b c8	 mov	 r9d, eax

; 317  : 
; 318  :     if (err==UNZ_OK)

  0013c	85 c0		 test	 eax, eax
  0013e	75 11		 jne	 SHORT $LN9@unz64local

; 316  :     x |= ((ZPOS64_T)i)<<56;

  00140	48 63 44 24 48	 movsxd	 rax, DWORD PTR i$[rsp]
  00145	48 c1 e0 38	 shl	 rax, 56			; 00000038H
  00149	48 0b c3	 or	 rax, rbx

; 319  :         *pX = x;
; 320  :     else
; 321  :         *pX = 0;
; 322  :     return err;

  0014c	49 89 06	 mov	 QWORD PTR [r14], rax
  0014f	eb 07		 jmp	 SHORT $LN20@unz64local
$LN9@unz64local:
  00151	49 c7 06 00 00
	00 00		 mov	 QWORD PTR [r14], 0
$LN20@unz64local:

; 323  : }

  00158	48 8b 5c 24 30	 mov	 rbx, QWORD PTR [rsp+48]
  0015d	41 8b c1	 mov	 eax, r9d
  00160	48 8b 74 24 38	 mov	 rsi, QWORD PTR [rsp+56]
  00165	48 8b 7c 24 40	 mov	 rdi, QWORD PTR [rsp+64]
  0016a	48 83 c4 20	 add	 rsp, 32			; 00000020H
  0016e	41 5e		 pop	 r14
  00170	c3		 ret	 0
unz64local_getLong64 ENDP
_TEXT	ENDS
; Function compile flags: /Ogtpy
; File C:\Users\chris\Documents\GitHub\FastCopy-M\external\zlib\contrib\minizip\unzip.c
;	COMDAT strcmpcasenosensitive_internal
_TEXT	SEGMENT
fileName1$ = 8
fileName2$ = 16
strcmpcasenosensitive_internal PROC			; COMDAT

; 326  : local int strcmpcasenosensitive_internal(const char* fileName1, const char* fileName2) {

  00000	48 89 5c 24 08	 mov	 QWORD PTR [rsp+8], rbx
  00005	48 8b d9	 mov	 rbx, rcx
  00008	4c 8b da	 mov	 r11, rdx
  0000b	48 2b da	 sub	 rbx, rdx
  0000e	66 90		 npad	 2
$LL2@strcmpcase:

; 327  :     for (;;)
; 328  :     {
; 329  :         char c1=*(fileName1++);

  00010	46 0f b6 0c 1b	 movzx	 r9d, BYTE PTR [rbx+r11]
  00015	45 0f b6 13	 movzx	 r10d, BYTE PTR [r11]

; 330  :         char c2=*(fileName2++);

  00019	4d 8d 5b 01	 lea	 r11, QWORD PTR [r11+1]

; 331  :         if ((c1>='a') && (c1<='z'))
; 332  :             c1 -= 0x20;
; 333  :         if ((c2>='a') && (c2<='z'))

  0001d	41 8d 41 e0	 lea	 eax, DWORD PTR [r9-32]
  00021	0f b6 d0	 movzx	 edx, al
  00024	45 8d 41 9f	 lea	 r8d, DWORD PTR [r9-97]
  00028	41 80 f8 19	 cmp	 r8b, 25
  0002c	41 8d 4a 9f	 lea	 ecx, DWORD PTR [r10-97]

; 334  :             c2 -= 0x20;
; 335  :         if (c1=='\0')

  00030	41 8d 42 e0	 lea	 eax, DWORD PTR [r10-32]
  00034	41 0f 47 d1	 cmova	 edx, r9d
  00038	0f b6 c0	 movzx	 eax, al
  0003b	80 f9 19	 cmp	 cl, 25
  0003e	41 0f 47 c2	 cmova	 eax, r10d
  00042	84 d2		 test	 dl, dl
  00044	74 20		 je	 SHORT $LN14@strcmpcase

; 336  :             return ((c2=='\0') ? 0 : -1);
; 337  :         if (c2=='\0')

  00046	84 c0		 test	 al, al
  00048	74 06		 je	 SHORT $LN17@strcmpcase

; 338  :             return 1;
; 339  :         if (c1<c2)

  0004a	3a d0		 cmp	 dl, al
  0004c	7c 0d		 jl	 SHORT $LN16@strcmpcase

; 341  :         if (c1>c2)

  0004e	7e c0		 jle	 SHORT $LL2@strcmpcase
$LN17@strcmpcase:

; 342  :             return 1;

  00050	b8 01 00 00 00	 mov	 eax, 1

; 343  :     }
; 344  : }

  00055	48 8b 5c 24 08	 mov	 rbx, QWORD PTR [rsp+8]
  0005a	c3		 ret	 0
$LN16@strcmpcase:

; 340  :             return -1;

  0005b	b8 ff ff ff ff	 mov	 eax, -1

; 343  :     }
; 344  : }

  00060	48 8b 5c 24 08	 mov	 rbx, QWORD PTR [rsp+8]
  00065	c3		 ret	 0
$LN14@strcmpcase:
  00066	48 8b 5c 24 08	 mov	 rbx, QWORD PTR [rsp+8]
  0006b	f6 d8		 neg	 al
  0006d	1b c0		 sbb	 eax, eax
  0006f	c3		 ret	 0
strcmpcasenosensitive_internal ENDP
_TEXT	ENDS
; Function compile flags: /Ogtpy
; File C:\Users\chris\Documents\GitHub\FastCopy-M\external\zlib\contrib\minizip\unzip.c
;	COMDAT unzStringFileNameCompare
_TEXT	SEGMENT
fileName1$ = 8
fileName2$ = 16
iCaseSensitivity$ = 24
unzStringFileNameCompare PROC				; COMDAT

; 369  :     if (iCaseSensitivity==0)
; 370  :         iCaseSensitivity=CASESENSITIVITYDEFAULTVALUE;
; 371  : 
; 372  :     if (iCaseSensitivity==1)

  00000	45 85 c0	 test	 r8d, r8d
  00003	b8 02 00 00 00	 mov	 eax, 2
  00008	41 0f 45 c0	 cmovne	 eax, r8d
  0000c	83 f8 01	 cmp	 eax, 1
  0000f	75 1b		 jne	 SHORT $LN3@unzStringF

; 373  :         return strcmp(fileName1,fileName2);

  00011	48 2b d1	 sub	 rdx, rcx
$LL5@unzStringF:
  00014	0f b6 01	 movzx	 eax, BYTE PTR [rcx]
  00017	3a 04 11	 cmp	 al, BYTE PTR [rcx+rdx]
  0001a	75 0a		 jne	 SHORT $LN7@unzStringF
  0001c	48 ff c1	 inc	 rcx
  0001f	84 c0		 test	 al, al
  00021	75 f1		 jne	 SHORT $LL5@unzStringF
  00023	33 c0		 xor	 eax, eax

; 376  : }

  00025	c3		 ret	 0
$LN7@unzStringF:

; 373  :         return strcmp(fileName1,fileName2);

  00026	1b c0		 sbb	 eax, eax
  00028	83 c8 01	 or	 eax, 1

; 376  : }

  0002b	c3		 ret	 0
$LN3@unzStringF:

; 374  : 
; 375  :     return STRCMPCASENOSENTIVEFUNCTION(fileName1,fileName2);

  0002c	e9 00 00 00 00	 jmp	 strcmpcasenosensitive_internal
unzStringFileNameCompare ENDP
_TEXT	ENDS
; Function compile flags: /Ogtpy
; File C:\Users\chris\Documents\GitHub\FastCopy-M\external\zlib\contrib\minizip\unzip.c
;	COMDAT unz64local_SearchCentralDir
_TEXT	SEGMENT
pzlib_filefunc_def$ = 80
filestream$ = 88
uSizeFile$1$ = 96
unz64local_SearchCentralDir PROC			; COMDAT

; 386  : local ZPOS64_T unz64local_SearchCentralDir(const zlib_filefunc64_32_def* pzlib_filefunc_def, voidpf filestream) {

  00000	48 89 5c 24 20	 mov	 QWORD PTR [rsp+32], rbx
  00005	55		 push	 rbp
  00006	56		 push	 rsi
  00007	57		 push	 rdi
  00008	41 55		 push	 r13
  0000a	41 56		 push	 r14
  0000c	48 83 ec 20	 sub	 rsp, 32			; 00000020H

; 387  :     unsigned char* buf;
; 388  :     ZPOS64_T uSizeFile;
; 389  :     ZPOS64_T uBackRead;
; 390  :     ZPOS64_T uMaxBack=0xffff; /* maximum size of global comment */
; 391  :     ZPOS64_T uPosFound=0;

  00010	33 ff		 xor	 edi, edi

; 392  : 
; 393  :     if (ZSEEK64(*pzlib_filefunc_def,filestream,0,ZLIB_FILEFUNC_SEEK_END) != 0)

  00012	45 33 c0	 xor	 r8d, r8d
  00015	4c 8b ea	 mov	 r13, rdx
  00018	4c 8b f1	 mov	 r14, rcx
  0001b	bd ff ff 00 00	 mov	 ebp, 65535		; 0000ffffH
  00020	44 8d 4f 02	 lea	 r9d, QWORD PTR [rdi+2]
  00024	e8 00 00 00 00	 call	 call_zseek64
  00029	85 c0		 test	 eax, eax
  0002b	0f 85 25 01 00
	00		 jne	 $LN31@unz64local

; 394  :         return 0;
; 395  : 
; 396  : 
; 397  :     uSizeFile = ZTELL64(*pzlib_filefunc_def,filestream);

  00031	49 8b d5	 mov	 rdx, r13
  00034	49 8b ce	 mov	 rcx, r14
  00037	e8 00 00 00 00	 call	 call_ztell64

; 398  : 
; 399  :     if (uMaxBack>uSizeFile)

  0003c	48 3b c5	 cmp	 rax, rbp
  0003f	48 89 44 24 60	 mov	 QWORD PTR uSizeFile$1$[rsp], rax

; 400  :         uMaxBack = uSizeFile;
; 401  : 
; 402  :     buf = (unsigned char*)ALLOC(BUFREADCOMMENT+4);

  00044	b9 04 04 00 00	 mov	 ecx, 1028		; 00000404H
  00049	48 8b d8	 mov	 rbx, rax
  0004c	48 0f 42 e8	 cmovb	 rbp, rax
  00050	ff 15 00 00 00
	00		 call	 QWORD PTR __imp_malloc
  00056	48 8b f0	 mov	 rsi, rax

; 403  :     if (buf==NULL)

  00059	48 85 c0	 test	 rax, rax
  0005c	0f 84 f4 00 00
	00		 je	 $LN31@unz64local
  00062	4c 89 7c 24 58	 mov	 QWORD PTR [rsp+88], r15

; 404  :         return 0;
; 405  : 
; 406  :     uBackRead = 4;

  00067	41 bf 04 00 00
	00		 mov	 r15d, 4

; 407  :     while (uBackRead<uMaxBack)

  0006d	49 3b ef	 cmp	 rbp, r15
  00070	0f 86 be 00 00
	00		 jbe	 $LN34@unz64local
  00076	4c 89 64 24 50	 mov	 QWORD PTR [rsp+80], r12
  0007b	0f 1f 44 00 00	 npad	 5
$LL2@unz64local:

; 408  :     {
; 409  :         uLong uReadSize;
; 410  :         ZPOS64_T uReadPos ;
; 411  :         int i;
; 412  :         if (uBackRead+BUFREADCOMMENT>uMaxBack)

  00080	49 8d 8f 00 04
	00 00		 lea	 rcx, QWORD PTR [r15+1024]

; 413  :             uBackRead = uMaxBack;
; 414  :         else
; 415  :             uBackRead+=BUFREADCOMMENT;
; 416  :         uReadPos = uSizeFile-uBackRead ;

  00087	4c 8b e3	 mov	 r12, rbx
  0008a	48 3b cd	 cmp	 rcx, rbp

; 417  : 
; 418  :         uReadSize = ((BUFREADCOMMENT+4) < (uSizeFile-uReadPos)) ?

  0008d	b8 04 04 00 00	 mov	 eax, 1028		; 00000404H
  00092	4c 8b fd	 mov	 r15, rbp

; 419  :                      (BUFREADCOMMENT+4) : (uLong)(uSizeFile-uReadPos);
; 420  :         if (ZSEEK64(*pzlib_filefunc_def,filestream,uReadPos,ZLIB_FILEFUNC_SEEK_SET)!=0)

  00095	49 8b d5	 mov	 rdx, r13
  00098	4c 0f 46 f9	 cmovbe	 r15, rcx
  0009c	49 8b ce	 mov	 rcx, r14
  0009f	4d 2b e7	 sub	 r12, r15
  000a2	41 2b dc	 sub	 ebx, r12d
  000a5	4d 8b c4	 mov	 r8, r12
  000a8	4c 3b f8	 cmp	 r15, rax
  000ab	0f 47 d8	 cmova	 ebx, eax
  000ae	45 33 c9	 xor	 r9d, r9d
  000b1	e8 00 00 00 00	 call	 call_zseek64
  000b6	85 c0		 test	 eax, eax
  000b8	75 75		 jne	 SHORT $LN45@unz64local

; 421  :             break;
; 422  : 
; 423  :         if (ZREAD64(*pzlib_filefunc_def,filestream,buf,uReadSize)!=uReadSize)

  000ba	49 8b 4e 38	 mov	 rcx, QWORD PTR [r14+56]
  000be	44 8b cb	 mov	 r9d, ebx
  000c1	4c 8b c6	 mov	 r8, rsi
  000c4	49 8b d5	 mov	 rdx, r13
  000c7	41 ff 56 08	 call	 QWORD PTR [r14+8]
  000cb	3b c3		 cmp	 eax, ebx
  000cd	75 60		 jne	 SHORT $LN45@unz64local

; 424  :             break;
; 425  : 
; 426  :         for (i=(int)uReadSize-3; (i--)>0;)

  000cf	8d 53 fd	 lea	 edx, DWORD PTR [rbx-3]
  000d2	48 63 c2	 movsxd	 rax, edx
  000d5	85 d2		 test	 edx, edx
  000d7	7e 48		 jle	 SHORT $LN33@unz64local
  000d9	48 83 c0 03	 add	 rax, 3
  000dd	49 c7 c0 fd ff
	ff ff		 mov	 r8, -3
  000e4	48 03 c6	 add	 rax, rsi
  000e7	4c 2b c6	 sub	 r8, rsi
  000ea	66 0f 1f 44 00
	00		 npad	 6
$LL4@unz64local:
  000f0	48 8b c8	 mov	 rcx, rax
  000f3	ff ca		 dec	 edx
  000f5	48 ff c8	 dec	 rax

; 427  :             if (((*(buf+i))==0x50) && ((*(buf+i+1))==0x4b) &&
; 428  :                 ((*(buf+i+2))==0x05) && ((*(buf+i+3))==0x06))

  000f8	80 78 fd 50	 cmp	 BYTE PTR [rax-3], 80	; 00000050H
  000fc	75 11		 jne	 SHORT $LN14@unz64local
  000fe	80 79 fd 4b	 cmp	 BYTE PTR [rcx-3], 75	; 0000004bH
  00102	75 0b		 jne	 SHORT $LN14@unz64local
  00104	80 78 ff 05	 cmp	 BYTE PTR [rax-1], 5
  00108	75 05		 jne	 SHORT $LN14@unz64local
  0010a	80 38 06	 cmp	 BYTE PTR [rax], 6
  0010d	74 0b		 je	 SHORT $LN21@unz64local
$LN14@unz64local:

; 424  :             break;
; 425  : 
; 426  :         for (i=(int)uReadSize-3; (i--)>0;)

  0010f	49 8d 0c 00	 lea	 rcx, QWORD PTR [r8+rax]
  00113	48 85 c9	 test	 rcx, rcx
  00116	7f d8		 jg	 SHORT $LL4@unz64local
  00118	eb 07		 jmp	 SHORT $LN33@unz64local
$LN21@unz64local:

; 429  :             {
; 430  :                 uPosFound = uReadPos+(unsigned)i;

  0011a	8b fa		 mov	 edi, edx
  0011c	49 03 fc	 add	 rdi, r12

; 431  :                 break;
; 432  :             }
; 433  : 
; 434  :         if (uPosFound!=0)

  0011f	75 0e		 jne	 SHORT $LN45@unz64local
$LN33@unz64local:

; 407  :     while (uBackRead<uMaxBack)

  00121	48 8b 5c 24 60	 mov	 rbx, QWORD PTR uSizeFile$1$[rsp]
  00126	4c 3b fd	 cmp	 r15, rbp
  00129	0f 82 51 ff ff
	ff		 jb	 $LL2@unz64local
$LN45@unz64local:
  0012f	4c 8b 64 24 50	 mov	 r12, QWORD PTR [rsp+80]
$LN34@unz64local:

; 435  :             break;
; 436  :     }
; 437  :     TRYFREE(buf);

  00134	48 8b ce	 mov	 rcx, rsi
  00137	ff 15 00 00 00
	00		 call	 QWORD PTR __imp_free

; 438  :     return uPosFound;

  0013d	4c 8b 7c 24 58	 mov	 r15, QWORD PTR [rsp+88]
  00142	48 8b c7	 mov	 rax, rdi

; 439  : }

  00145	48 8b 5c 24 68	 mov	 rbx, QWORD PTR [rsp+104]
  0014a	48 83 c4 20	 add	 rsp, 32			; 00000020H
  0014e	41 5e		 pop	 r14
  00150	41 5d		 pop	 r13
  00152	5f		 pop	 rdi
  00153	5e		 pop	 rsi
  00154	5d		 pop	 rbp
  00155	c3		 ret	 0
$LN31@unz64local:
  00156	48 8b 5c 24 68	 mov	 rbx, QWORD PTR [rsp+104]
  0015b	33 c0		 xor	 eax, eax
  0015d	48 83 c4 20	 add	 rsp, 32			; 00000020H
  00161	41 5e		 pop	 r14
  00163	41 5d		 pop	 r13
  00165	5f		 pop	 rdi
  00166	5e		 pop	 rsi
  00167	5d		 pop	 rbp
  00168	c3		 ret	 0
unz64local_SearchCentralDir ENDP
_TEXT	ENDS
; Function compile flags: /Ogtpy
; File C:\Users\chris\Documents\GitHub\FastCopy-M\external\zlib\contrib\minizip\unzip.c
;	COMDAT unz64local_SearchCentralDir64
_TEXT	SEGMENT
pzlib_filefunc_def$ = 96
filestream$ = 104
uSizeFile$1$ = 112
uL$ = 112
relativeOffset$ = 120
unz64local_SearchCentralDir64 PROC			; COMDAT

; 447  :                                              voidpf filestream) {

  00000	40 53		 push	 rbx
  00002	55		 push	 rbp
  00003	56		 push	 rsi
  00004	57		 push	 rdi
  00005	41 56		 push	 r14
  00007	41 57		 push	 r15
  00009	48 83 ec 28	 sub	 rsp, 40			; 00000028H

; 448  :     unsigned char* buf;
; 449  :     ZPOS64_T uSizeFile;
; 450  :     ZPOS64_T uBackRead;
; 451  :     ZPOS64_T uMaxBack=0xffff; /* maximum size of global comment */
; 452  :     ZPOS64_T uPosFound=0;

  0000d	33 ed		 xor	 ebp, ebp

; 453  :     uLong uL;
; 454  :                 ZPOS64_T relativeOffset;
; 455  : 
; 456  :     if (ZSEEK64(*pzlib_filefunc_def,filestream,0,ZLIB_FILEFUNC_SEEK_END) != 0)

  0000f	45 33 c0	 xor	 r8d, r8d
  00012	48 8b f2	 mov	 rsi, rdx
  00015	48 8b f9	 mov	 rdi, rcx
  00018	41 bf ff ff 00
	00		 mov	 r15d, 65535		; 0000ffffH
  0001e	44 8d 4d 02	 lea	 r9d, QWORD PTR [rbp+2]
  00022	e8 00 00 00 00	 call	 call_zseek64
  00027	85 c0		 test	 eax, eax
  00029	0f 85 de 01 00
	00		 jne	 $LN42@unz64local

; 457  :         return 0;
; 458  : 
; 459  : 
; 460  :     uSizeFile = ZTELL64(*pzlib_filefunc_def,filestream);

  0002f	48 8b d6	 mov	 rdx, rsi
  00032	48 8b cf	 mov	 rcx, rdi
  00035	e8 00 00 00 00	 call	 call_ztell64

; 461  : 
; 462  :     if (uMaxBack>uSizeFile)

  0003a	49 3b c7	 cmp	 rax, r15
  0003d	48 89 44 24 70	 mov	 QWORD PTR uSizeFile$1$[rsp], rax

; 463  :         uMaxBack = uSizeFile;
; 464  : 
; 465  :     buf = (unsigned char*)ALLOC(BUFREADCOMMENT+4);

  00042	b9 04 04 00 00	 mov	 ecx, 1028		; 00000404H
  00047	48 8b d8	 mov	 rbx, rax
  0004a	4c 0f 42 f8	 cmovb	 r15, rax
  0004e	ff 15 00 00 00
	00		 call	 QWORD PTR __imp_malloc
  00054	4c 8b f0	 mov	 r14, rax

; 466  :     if (buf==NULL)

  00057	48 85 c0	 test	 rax, rax
  0005a	0f 84 ad 01 00
	00		 je	 $LN42@unz64local
  00060	4c 89 6c 24 20	 mov	 QWORD PTR [rsp+32], r13

; 467  :         return 0;
; 468  : 
; 469  :     uBackRead = 4;

  00065	41 bd 04 00 00
	00		 mov	 r13d, 4

; 470  :     while (uBackRead<uMaxBack)

  0006b	4d 3b fd	 cmp	 r15, r13
  0006e	0f 86 c0 00 00
	00		 jbe	 $LN56@unz64local
  00074	4c 89 64 24 60	 mov	 QWORD PTR [rsp+96], r12
  00079	0f 1f 80 00 00
	00 00		 npad	 7
$LL2@unz64local:

; 471  :     {
; 472  :         uLong uReadSize;
; 473  :         ZPOS64_T uReadPos;
; 474  :         int i;
; 475  :         if (uBackRead+BUFREADCOMMENT>uMaxBack)

  00080	49 8d 8d 00 04
	00 00		 lea	 rcx, QWORD PTR [r13+1024]

; 476  :             uBackRead = uMaxBack;
; 477  :         else
; 478  :             uBackRead+=BUFREADCOMMENT;
; 479  :         uReadPos = uSizeFile-uBackRead ;

  00087	4c 8b e3	 mov	 r12, rbx
  0008a	49 3b cf	 cmp	 rcx, r15

; 480  : 
; 481  :         uReadSize = ((BUFREADCOMMENT+4) < (uSizeFile-uReadPos)) ?

  0008d	b8 04 04 00 00	 mov	 eax, 1028		; 00000404H
  00092	4d 8b ef	 mov	 r13, r15

; 482  :                      (BUFREADCOMMENT+4) : (uLong)(uSizeFile-uReadPos);
; 483  :         if (ZSEEK64(*pzlib_filefunc_def,filestream,uReadPos,ZLIB_FILEFUNC_SEEK_SET)!=0)

  00095	48 8b d6	 mov	 rdx, rsi
  00098	4c 0f 46 e9	 cmovbe	 r13, rcx
  0009c	48 8b cf	 mov	 rcx, rdi
  0009f	4d 2b e5	 sub	 r12, r13
  000a2	41 2b dc	 sub	 ebx, r12d
  000a5	4d 8b c4	 mov	 r8, r12
  000a8	4c 3b e8	 cmp	 r13, rax
  000ab	0f 47 d8	 cmova	 ebx, eax
  000ae	45 33 c9	 xor	 r9d, r9d
  000b1	e8 00 00 00 00	 call	 call_zseek64
  000b6	85 c0		 test	 eax, eax
  000b8	75 75		 jne	 SHORT $LN78@unz64local

; 484  :             break;
; 485  : 
; 486  :         if (ZREAD64(*pzlib_filefunc_def,filestream,buf,uReadSize)!=uReadSize)

  000ba	48 8b 4f 38	 mov	 rcx, QWORD PTR [rdi+56]
  000be	44 8b cb	 mov	 r9d, ebx
  000c1	4d 8b c6	 mov	 r8, r14
  000c4	48 8b d6	 mov	 rdx, rsi
  000c7	ff 57 08	 call	 QWORD PTR [rdi+8]
  000ca	3b c3		 cmp	 eax, ebx
  000cc	75 61		 jne	 SHORT $LN78@unz64local

; 487  :             break;
; 488  : 
; 489  :         for (i=(int)uReadSize-3; (i--)>0;)

  000ce	8d 53 fd	 lea	 edx, DWORD PTR [rbx-3]
  000d1	48 63 c2	 movsxd	 rax, edx
  000d4	85 d2		 test	 edx, edx
  000d6	7e 49		 jle	 SHORT $LN55@unz64local
  000d8	48 83 c0 03	 add	 rax, 3
  000dc	49 c7 c0 fd ff
	ff ff		 mov	 r8, -3
  000e3	49 03 c6	 add	 rax, r14
  000e6	4d 2b c6	 sub	 r8, r14
  000e9	0f 1f 80 00 00
	00 00		 npad	 7
$LL4@unz64local:
  000f0	48 8b c8	 mov	 rcx, rax
  000f3	ff ca		 dec	 edx
  000f5	48 ff c8	 dec	 rax

; 490  :             if (((*(buf+i))==0x50) && ((*(buf+i+1))==0x4b) &&
; 491  :                 ((*(buf+i+2))==0x06) && ((*(buf+i+3))==0x07))

  000f8	80 78 fd 50	 cmp	 BYTE PTR [rax-3], 80	; 00000050H
  000fc	75 11		 jne	 SHORT $LN14@unz64local
  000fe	80 79 fd 4b	 cmp	 BYTE PTR [rcx-3], 75	; 0000004bH
  00102	75 0b		 jne	 SHORT $LN14@unz64local
  00104	80 78 ff 06	 cmp	 BYTE PTR [rax-1], 6
  00108	75 05		 jne	 SHORT $LN14@unz64local
  0010a	80 38 07	 cmp	 BYTE PTR [rax], 7
  0010d	74 0b		 je	 SHORT $LN32@unz64local
$LN14@unz64local:

; 487  :             break;
; 488  : 
; 489  :         for (i=(int)uReadSize-3; (i--)>0;)

  0010f	49 8d 0c 00	 lea	 rcx, QWORD PTR [r8+rax]
  00113	48 85 c9	 test	 rcx, rcx
  00116	7f d8		 jg	 SHORT $LL4@unz64local
  00118	eb 07		 jmp	 SHORT $LN55@unz64local
$LN32@unz64local:

; 492  :             {
; 493  :                 uPosFound = uReadPos+(unsigned)i;

  0011a	8b ea		 mov	 ebp, edx
  0011c	49 03 ec	 add	 rbp, r12

; 494  :                 break;
; 495  :             }
; 496  : 
; 497  :         if (uPosFound!=0)

  0011f	75 0e		 jne	 SHORT $LN78@unz64local
$LN55@unz64local:

; 470  :     while (uBackRead<uMaxBack)

  00121	48 8b 5c 24 70	 mov	 rbx, QWORD PTR uSizeFile$1$[rsp]
  00126	4d 3b ef	 cmp	 r13, r15
  00129	0f 82 51 ff ff
	ff		 jb	 $LL2@unz64local
$LN78@unz64local:
  0012f	4c 8b 64 24 60	 mov	 r12, QWORD PTR [rsp+96]
$LN56@unz64local:

; 498  :             break;
; 499  :     }
; 500  :     TRYFREE(buf);

  00134	49 8b ce	 mov	 rcx, r14
  00137	ff 15 00 00 00
	00		 call	 QWORD PTR __imp_free
  0013d	4c 8b 6c 24 20	 mov	 r13, QWORD PTR [rsp+32]

; 501  :     if (uPosFound == 0)

  00142	48 85 ed	 test	 rbp, rbp
  00145	0f 84 c2 00 00
	00		 je	 $LN42@unz64local

; 502  :         return 0;
; 503  : 
; 504  :     /* Zip64 end of central directory locator */
; 505  :     if (ZSEEK64(*pzlib_filefunc_def,filestream, uPosFound,ZLIB_FILEFUNC_SEEK_SET)!=0)

  0014b	45 33 c9	 xor	 r9d, r9d
  0014e	4c 8b c5	 mov	 r8, rbp
  00151	48 8b d6	 mov	 rdx, rsi
  00154	48 8b cf	 mov	 rcx, rdi
  00157	e8 00 00 00 00	 call	 call_zseek64
  0015c	85 c0		 test	 eax, eax
  0015e	0f 85 a9 00 00
	00		 jne	 $LN42@unz64local

; 506  :         return 0;
; 507  : 
; 508  :     /* the signature, already checked */
; 509  :     if (unz64local_getLong(pzlib_filefunc_def,filestream,&uL)!=UNZ_OK)

  00164	4c 8d 44 24 70	 lea	 r8, QWORD PTR uL$[rsp]
  00169	48 8b d6	 mov	 rdx, rsi
  0016c	48 8b cf	 mov	 rcx, rdi
  0016f	e8 00 00 00 00	 call	 unz64local_getLong
  00174	85 c0		 test	 eax, eax
  00176	0f 85 91 00 00
	00		 jne	 $LN42@unz64local

; 510  :         return 0;
; 511  : 
; 512  :     /* number of the disk with the start of the zip64 end of  central directory */
; 513  :     if (unz64local_getLong(pzlib_filefunc_def,filestream,&uL)!=UNZ_OK)

  0017c	4c 8d 44 24 70	 lea	 r8, QWORD PTR uL$[rsp]
  00181	48 8b d6	 mov	 rdx, rsi
  00184	48 8b cf	 mov	 rcx, rdi
  00187	e8 00 00 00 00	 call	 unz64local_getLong
  0018c	85 c0		 test	 eax, eax
  0018e	75 7d		 jne	 SHORT $LN42@unz64local

; 514  :         return 0;
; 515  :     if (uL != 0)

  00190	39 44 24 70	 cmp	 DWORD PTR uL$[rsp], eax
  00194	75 77		 jne	 SHORT $LN42@unz64local

; 516  :         return 0;
; 517  : 
; 518  :     /* relative offset of the zip64 end of central directory record */
; 519  :     if (unz64local_getLong64(pzlib_filefunc_def,filestream,&relativeOffset)!=UNZ_OK)

  00196	4c 8d 44 24 78	 lea	 r8, QWORD PTR relativeOffset$[rsp]
  0019b	48 8b d6	 mov	 rdx, rsi
  0019e	48 8b cf	 mov	 rcx, rdi
  001a1	e8 00 00 00 00	 call	 unz64local_getLong64
  001a6	85 c0		 test	 eax, eax
  001a8	75 63		 jne	 SHORT $LN42@unz64local

; 520  :         return 0;
; 521  : 
; 522  :     /* total number of disks */
; 523  :     if (unz64local_getLong(pzlib_filefunc_def,filestream,&uL)!=UNZ_OK)

  001aa	4c 8d 44 24 70	 lea	 r8, QWORD PTR uL$[rsp]
  001af	48 8b d6	 mov	 rdx, rsi
  001b2	48 8b cf	 mov	 rcx, rdi
  001b5	e8 00 00 00 00	 call	 unz64local_getLong
  001ba	85 c0		 test	 eax, eax
  001bc	75 4f		 jne	 SHORT $LN42@unz64local

; 524  :         return 0;
; 525  :     if (uL != 1)

  001be	83 7c 24 70 01	 cmp	 DWORD PTR uL$[rsp], 1
  001c3	75 48		 jne	 SHORT $LN42@unz64local

; 526  :         return 0;
; 527  : 
; 528  :     /* Goto end of central directory record */
; 529  :     if (ZSEEK64(*pzlib_filefunc_def,filestream, relativeOffset,ZLIB_FILEFUNC_SEEK_SET)!=0)

  001c5	48 8b 5c 24 78	 mov	 rbx, QWORD PTR relativeOffset$[rsp]
  001ca	45 33 c9	 xor	 r9d, r9d
  001cd	4c 8b c3	 mov	 r8, rbx
  001d0	48 8b d6	 mov	 rdx, rsi
  001d3	48 8b cf	 mov	 rcx, rdi
  001d6	e8 00 00 00 00	 call	 call_zseek64
  001db	85 c0		 test	 eax, eax
  001dd	75 2e		 jne	 SHORT $LN42@unz64local

; 530  :         return 0;
; 531  : 
; 532  :      /* the signature */
; 533  :     if (unz64local_getLong(pzlib_filefunc_def,filestream,&uL)!=UNZ_OK)

  001df	4c 8d 44 24 70	 lea	 r8, QWORD PTR uL$[rsp]
  001e4	48 8b d6	 mov	 rdx, rsi
  001e7	48 8b cf	 mov	 rcx, rdi
  001ea	e8 00 00 00 00	 call	 unz64local_getLong
  001ef	85 c0		 test	 eax, eax
  001f1	75 1a		 jne	 SHORT $LN42@unz64local

; 534  :         return 0;
; 535  : 
; 536  :     if (uL != 0x06064b50)

  001f3	81 7c 24 70 50
	4b 06 06	 cmp	 DWORD PTR uL$[rsp], 101075792 ; 06064b50H
  001fb	75 10		 jne	 SHORT $LN42@unz64local

; 538  : 
; 539  :     return relativeOffset;

  001fd	48 8b c3	 mov	 rax, rbx

; 540  : }

  00200	48 83 c4 28	 add	 rsp, 40			; 00000028H
  00204	41 5f		 pop	 r15
  00206	41 5e		 pop	 r14
  00208	5f		 pop	 rdi
  00209	5e		 pop	 rsi
  0020a	5d		 pop	 rbp
  0020b	5b		 pop	 rbx
  0020c	c3		 ret	 0
$LN42@unz64local:

; 537  :         return 0;

  0020d	33 c0		 xor	 eax, eax

; 540  : }

  0020f	48 83 c4 28	 add	 rsp, 40			; 00000028H
  00213	41 5f		 pop	 r15
  00215	41 5e		 pop	 r14
  00217	5f		 pop	 rdi
  00218	5e		 pop	 rsi
  00219	5d		 pop	 rbp
  0021a	5b		 pop	 rbx
  0021b	c3		 ret	 0
unz64local_SearchCentralDir64 ENDP
_TEXT	ENDS
; Function compile flags: /Ogtpy
; File C:\Users\chris\Documents\GitHub\FastCopy-M\external\zlib\contrib\minizip\unzip.c
;	COMDAT unzOpenInternal
_TEXT	SEGMENT
number_disk_with_CD$ = 32
number_disk$ = 36
us$ = 48
path$ = 384
pzlib_filefunc64_32_def$ = 392
is64bitOpenFunction$ = 400
number_entry_CD$ = 408
uS$1 = 408
uL64$2 = 408
uL$ = 408
unzOpenInternal PROC					; COMDAT

; 553  :                               int is64bitOpenFunction) {

  00000	40 55		 push	 rbp
  00002	56		 push	 rsi
  00003	41 54		 push	 r12
  00005	48 8d 6c 24 a0	 lea	 rbp, QWORD PTR [rsp-96]
  0000a	48 81 ec 60 01
	00 00		 sub	 rsp, 352		; 00000160H

; 554  :     unz64_s us;
; 555  :     unz64_s *s;
; 556  :     ZPOS64_T central_pos;
; 557  :     uLong   uL;
; 558  : 
; 559  :     uLong number_disk;          /* number of the current dist, used for
; 560  :                                    spaning ZIP, unsupported, always 0*/
; 561  :     uLong number_disk_with_CD;  /* number the the disk with central dir, used
; 562  :                                    for spaning ZIP, unsupported, always 0*/
; 563  :     ZPOS64_T number_entry_CD;      /* total number of entries in
; 564  :                                    the central dir
; 565  :                                    (same than number_entry on nospan) */
; 566  : 
; 567  :     int err=UNZ_OK;

  00011	45 33 e4	 xor	 r12d, r12d
  00014	4c 8b c9	 mov	 r9, rcx

; 568  : 
; 569  :     if (unz_copyright[0]!=' ')
; 570  :         return NULL;
; 571  : 
; 572  :     us.z_filefunc.zseek32_file = NULL;

  00017	4c 89 65 80	 mov	 QWORD PTR us$[rbp-176], r12

; 573  :     us.z_filefunc.ztell32_file = NULL;

  0001b	4c 89 64 24 78	 mov	 QWORD PTR us$[rsp+72], r12

; 574  :     if (pzlib_filefunc64_32_def==NULL)

  00020	48 85 d2	 test	 rdx, rdx
  00023	75 0c		 jne	 SHORT $LN3@unzOpenInt

; 575  :         fill_fopen64_filefunc(&us.z_filefunc.zfile_func64);

  00025	48 8d 4c 24 30	 lea	 rcx, QWORD PTR us$[rsp]
  0002a	e8 00 00 00 00	 call	 fill_fopen64_filefunc
  0002f	eb 36		 jmp	 SHORT $LN4@unzOpenInt
$LN3@unzOpenInt:

; 576  :     else
; 577  :         us.z_filefunc = *pzlib_filefunc64_32_def;

  00031	0f 28 02	 movaps	 xmm0, XMMWORD PTR [rdx]
  00034	0f 28 4a 10	 movaps	 xmm1, XMMWORD PTR [rdx+16]
  00038	0f 29 44 24 30	 movaps	 XMMWORD PTR us$[rsp], xmm0
  0003d	0f 28 42 20	 movaps	 xmm0, XMMWORD PTR [rdx+32]
  00041	0f 29 4c 24 40	 movaps	 XMMWORD PTR us$[rsp+16], xmm1
  00046	0f 28 4a 30	 movaps	 xmm1, XMMWORD PTR [rdx+48]
  0004a	0f 29 44 24 50	 movaps	 XMMWORD PTR us$[rsp+32], xmm0
  0004f	0f 28 42 40	 movaps	 xmm0, XMMWORD PTR [rdx+64]
  00053	0f 29 4c 24 60	 movaps	 XMMWORD PTR us$[rsp+48], xmm1
  00058	f2 0f 10 4a 50	 movsd	 xmm1, QWORD PTR [rdx+80]
  0005d	0f 29 44 24 70	 movaps	 XMMWORD PTR us$[rsp+64], xmm0
  00062	f2 0f 11 4d 80	 movsd	 QWORD PTR us$[rbp-176], xmm1
$LN4@unzOpenInt:

; 578  :     us.is64bitOpenFunction = is64bitOpenFunction;

  00067	44 89 45 88	 mov	 DWORD PTR us$[rbp-168], r8d

; 579  : 
; 580  : 
; 581  : 
; 582  :     us.filestream = ZOPEN64(us.z_filefunc,

  0006b	48 8d 4c 24 30	 lea	 rcx, QWORD PTR us$[rsp]
  00070	41 b8 05 00 00
	00		 mov	 r8d, 5
  00076	49 8b d1	 mov	 rdx, r9
  00079	e8 00 00 00 00	 call	 call_zopen64
  0007e	48 89 45 90	 mov	 QWORD PTR us$[rbp-160], rax
  00082	48 8b f0	 mov	 rsi, rax

; 583  :                                                  path,
; 584  :                                                  ZLIB_FILEFUNC_MODE_READ |
; 585  :                                                  ZLIB_FILEFUNC_MODE_EXISTING);
; 586  :     if (us.filestream==NULL)

  00085	48 85 c0	 test	 rax, rax
  00088	75 0c		 jne	 SHORT $LN5@unzOpenInt

; 728  : }

  0008a	48 81 c4 60 01
	00 00		 add	 rsp, 352		; 00000160H
  00091	41 5c		 pop	 r12
  00093	5e		 pop	 rsi
  00094	5d		 pop	 rbp
  00095	c3		 ret	 0
$LN5@unzOpenInt:
  00096	48 89 9c 24 80
	01 00 00	 mov	 QWORD PTR [rsp+384], rbx

; 587  :         return NULL;
; 588  : 
; 589  :     central_pos = unz64local_SearchCentralDir64(&us.z_filefunc,us.filestream);

  0009e	48 8d 4c 24 30	 lea	 rcx, QWORD PTR us$[rsp]
  000a3	48 89 bc 24 88
	01 00 00	 mov	 QWORD PTR [rsp+392], rdi
  000ab	48 8b d6	 mov	 rdx, rsi
  000ae	4c 89 b4 24 58
	01 00 00	 mov	 QWORD PTR [rsp+344], r14
  000b6	4c 89 bc 24 50
	01 00 00	 mov	 QWORD PTR [rsp+336], r15
  000be	e8 00 00 00 00	 call	 unz64local_SearchCentralDir64

; 590  :     if (central_pos)

  000c3	48 8d 4c 24 30	 lea	 rcx, QWORD PTR us$[rsp]
  000c8	4c 8b f8	 mov	 r15, rax
  000cb	48 8b d6	 mov	 rdx, rsi
  000ce	48 85 c0	 test	 rax, rax
  000d1	0f 84 40 01 00
	00		 je	 $LN6@unzOpenInt

; 591  :     {
; 592  :         uLong uS;
; 593  :         ZPOS64_T uL64;
; 594  : 
; 595  :         us.isZip64 = 1;
; 596  : 
; 597  :         if (ZSEEK64(us.z_filefunc, us.filestream,
; 598  :                                       central_pos,ZLIB_FILEFUNC_SEEK_SET)!=0)

  000d7	45 33 c9	 xor	 r9d, r9d
  000da	c7 45 4c 01 00
	00 00		 mov	 DWORD PTR us$[rbp+28], 1
  000e1	4c 8b c0	 mov	 r8, rax
  000e4	e8 00 00 00 00	 call	 call_zseek64
  000e9	85 c0		 test	 eax, eax

; 599  :         err=UNZ_ERRNO;
; 600  : 
; 601  :         /* the signature, already checked */
; 602  :         if (unz64local_getLong(&us.z_filefunc, us.filestream,&uL)!=UNZ_OK)

  000eb	4c 8d 85 98 00
	00 00		 lea	 r8, QWORD PTR uL$[rbp-256]
  000f2	41 8b fc	 mov	 edi, r12d
  000f5	48 8d 4c 24 30	 lea	 rcx, QWORD PTR us$[rsp]
  000fa	41 be ff ff ff
	ff		 mov	 r14d, -1
  00100	48 8b d6	 mov	 rdx, rsi
  00103	41 0f 45 fe	 cmovne	 edi, r14d
  00107	e8 00 00 00 00	 call	 unz64local_getLong
  0010c	85 c0		 test	 eax, eax

; 603  :             err=UNZ_ERRNO;
; 604  : 
; 605  :         /* size of zip64 end of central directory record */
; 606  :         if (unz64local_getLong64(&us.z_filefunc, us.filestream,&uL64)!=UNZ_OK)

  0010e	4c 8d 85 98 00
	00 00		 lea	 r8, QWORD PTR uL64$2[rbp-256]
  00115	48 8b d6	 mov	 rdx, rsi
  00118	48 8d 4c 24 30	 lea	 rcx, QWORD PTR us$[rsp]
  0011d	41 0f 45 fe	 cmovne	 edi, r14d
  00121	e8 00 00 00 00	 call	 unz64local_getLong64
  00126	85 c0		 test	 eax, eax

; 607  :             err=UNZ_ERRNO;
; 608  : 
; 609  :         /* version made by */
; 610  :         if (unz64local_getShort(&us.z_filefunc, us.filestream,&uS)!=UNZ_OK)

  00128	4c 8d 85 98 00
	00 00		 lea	 r8, QWORD PTR uS$1[rbp-256]
  0012f	48 8b d6	 mov	 rdx, rsi
  00132	48 8d 4c 24 30	 lea	 rcx, QWORD PTR us$[rsp]
  00137	41 0f 45 fe	 cmovne	 edi, r14d
  0013b	e8 00 00 00 00	 call	 unz64local_getShort
  00140	85 c0		 test	 eax, eax

; 611  :             err=UNZ_ERRNO;
; 612  : 
; 613  :         /* version needed to extract */
; 614  :         if (unz64local_getShort(&us.z_filefunc, us.filestream,&uS)!=UNZ_OK)

  00142	4c 8d 85 98 00
	00 00		 lea	 r8, QWORD PTR uS$1[rbp-256]
  00149	48 8b d6	 mov	 rdx, rsi
  0014c	48 8d 4c 24 30	 lea	 rcx, QWORD PTR us$[rsp]
  00151	41 0f 45 fe	 cmovne	 edi, r14d
  00155	e8 00 00 00 00	 call	 unz64local_getShort
  0015a	85 c0		 test	 eax, eax

; 615  :             err=UNZ_ERRNO;
; 616  : 
; 617  :         /* number of this disk */
; 618  :         if (unz64local_getLong(&us.z_filefunc, us.filestream,&number_disk)!=UNZ_OK)

  0015c	4c 8d 44 24 24	 lea	 r8, QWORD PTR number_disk$[rsp]
  00161	48 8b d6	 mov	 rdx, rsi
  00164	48 8d 4c 24 30	 lea	 rcx, QWORD PTR us$[rsp]
  00169	41 0f 45 fe	 cmovne	 edi, r14d
  0016d	e8 00 00 00 00	 call	 unz64local_getLong
  00172	85 c0		 test	 eax, eax

; 619  :             err=UNZ_ERRNO;
; 620  : 
; 621  :         /* number of the disk with the start of the central directory */
; 622  :         if (unz64local_getLong(&us.z_filefunc, us.filestream,&number_disk_with_CD)!=UNZ_OK)

  00174	4c 8d 44 24 20	 lea	 r8, QWORD PTR number_disk_with_CD$[rsp]
  00179	48 8b d6	 mov	 rdx, rsi
  0017c	48 8d 4c 24 30	 lea	 rcx, QWORD PTR us$[rsp]
  00181	41 0f 45 fe	 cmovne	 edi, r14d
  00185	e8 00 00 00 00	 call	 unz64local_getLong
  0018a	85 c0		 test	 eax, eax

; 623  :             err=UNZ_ERRNO;
; 624  : 
; 625  :         /* total number of entries in the central directory on this disk */
; 626  :         if (unz64local_getLong64(&us.z_filefunc, us.filestream,&us.gi.number_entry)!=UNZ_OK)

  0018c	4c 8d 45 98	 lea	 r8, QWORD PTR us$[rbp-152]
  00190	48 8b d6	 mov	 rdx, rsi
  00193	48 8d 4c 24 30	 lea	 rcx, QWORD PTR us$[rsp]
  00198	41 0f 45 fe	 cmovne	 edi, r14d
  0019c	e8 00 00 00 00	 call	 unz64local_getLong64

; 627  :             err=UNZ_ERRNO;
; 628  : 
; 629  :         /* total number of entries in the central directory */
; 630  :         if (unz64local_getLong64(&us.z_filefunc, us.filestream,&number_entry_CD)!=UNZ_OK)

  001a1	48 8b 5d 90	 mov	 rbx, QWORD PTR us$[rbp-160]
  001a5	4c 8d 85 98 00
	00 00		 lea	 r8, QWORD PTR number_entry_CD$[rbp-256]
  001ac	85 c0		 test	 eax, eax
  001ae	48 8d 4c 24 30	 lea	 rcx, QWORD PTR us$[rsp]
  001b3	48 8b d3	 mov	 rdx, rbx
  001b6	41 0f 45 fe	 cmovne	 edi, r14d
  001ba	e8 00 00 00 00	 call	 unz64local_getLong64
  001bf	85 c0		 test	 eax, eax

; 631  :             err=UNZ_ERRNO;
; 632  : 
; 633  :         if ((number_entry_CD!=us.gi.number_entry) ||
; 634  :             (number_disk_with_CD!=0) ||

  001c1	48 8b 45 98	 mov	 rax, QWORD PTR us$[rbp-152]
  001c5	41 0f 45 fe	 cmovne	 edi, r14d
  001c9	48 39 85 98 00
	00 00		 cmp	 QWORD PTR number_entry_CD$[rbp-256], rax
  001d0	75 0e		 jne	 SHORT $LN18@unzOpenInt
  001d2	44 39 64 24 20	 cmp	 DWORD PTR number_disk_with_CD$[rsp], r12d
  001d7	75 07		 jne	 SHORT $LN18@unzOpenInt
  001d9	44 39 64 24 24	 cmp	 DWORD PTR number_disk$[rsp], r12d
  001de	74 05		 je	 SHORT $LN17@unzOpenInt
$LN18@unzOpenInt:

; 635  :             (number_disk!=0))
; 636  :             err=UNZ_BADZIPFILE;

  001e0	bf 99 ff ff ff	 mov	 edi, -103		; ffffffffffffff99H
$LN17@unzOpenInt:

; 637  : 
; 638  :         /* size of the central directory */
; 639  :         if (unz64local_getLong64(&us.z_filefunc, us.filestream,&us.size_central_dir)!=UNZ_OK)

  001e5	4c 8d 45 d0	 lea	 r8, QWORD PTR us$[rbp-96]
  001e9	48 8b d3	 mov	 rdx, rbx
  001ec	48 8d 4c 24 30	 lea	 rcx, QWORD PTR us$[rsp]
  001f1	e8 00 00 00 00	 call	 unz64local_getLong64

; 640  :             err=UNZ_ERRNO;
; 641  : 
; 642  :         /* offset of start of central directory with respect to the
; 643  :           starting disk number */
; 644  :         if (unz64local_getLong64(&us.z_filefunc, us.filestream,&us.offset_central_dir)!=UNZ_OK)

  001f6	48 8b 55 90	 mov	 rdx, QWORD PTR us$[rbp-160]
  001fa	4c 8d 45 d8	 lea	 r8, QWORD PTR us$[rbp-88]
  001fe	85 c0		 test	 eax, eax
  00200	48 8d 4c 24 30	 lea	 rcx, QWORD PTR us$[rsp]
  00205	41 0f 45 fe	 cmovne	 edi, r14d
  00209	e8 00 00 00 00	 call	 unz64local_getLong64

; 645  :             err=UNZ_ERRNO;
; 646  : 
; 647  :         us.gi.size_comment = 0;

  0020e	44 89 65 a0	 mov	 DWORD PTR us$[rbp-144], r12d

; 648  :     }

  00212	e9 34 01 00 00	 jmp	 $LN53@unzOpenInt
$LN6@unzOpenInt:

; 649  :     else
; 650  :     {
; 651  :         central_pos = unz64local_SearchCentralDir(&us.z_filefunc,us.filestream);

  00217	e8 00 00 00 00	 call	 unz64local_SearchCentralDir

; 652  :         if (central_pos==0)

  0021c	48 85 c0	 test	 rax, rax

; 653  :             err=UNZ_ERRNO;
; 654  : 
; 655  :         us.isZip64 = 0;

  0021f	44 89 65 4c	 mov	 DWORD PTR us$[rbp+28], r12d
  00223	41 8b fc	 mov	 edi, r12d

; 656  : 
; 657  :         if (ZSEEK64(us.z_filefunc, us.filestream,
; 658  :                                         central_pos,ZLIB_FILEFUNC_SEEK_SET)!=0)

  00226	48 8d 4c 24 30	 lea	 rcx, QWORD PTR us$[rsp]
  0022b	41 be ff ff ff
	ff		 mov	 r14d, -1
  00231	4c 8b c0	 mov	 r8, rax
  00234	41 0f 44 fe	 cmove	 edi, r14d
  00238	48 8b d6	 mov	 rdx, rsi
  0023b	45 33 c9	 xor	 r9d, r9d
  0023e	4c 8b f8	 mov	 r15, rax
  00241	e8 00 00 00 00	 call	 call_zseek64
  00246	85 c0		 test	 eax, eax

; 659  :             err=UNZ_ERRNO;
; 660  : 
; 661  :         /* the signature, already checked */
; 662  :         if (unz64local_getLong(&us.z_filefunc, us.filestream,&uL)!=UNZ_OK)

  00248	4c 8d 85 98 00
	00 00		 lea	 r8, QWORD PTR uL$[rbp-256]
  0024f	48 8b d6	 mov	 rdx, rsi
  00252	48 8d 4c 24 30	 lea	 rcx, QWORD PTR us$[rsp]
  00257	41 0f 45 fe	 cmovne	 edi, r14d
  0025b	e8 00 00 00 00	 call	 unz64local_getLong
  00260	85 c0		 test	 eax, eax

; 663  :             err=UNZ_ERRNO;
; 664  : 
; 665  :         /* number of this disk */
; 666  :         if (unz64local_getShort(&us.z_filefunc, us.filestream,&number_disk)!=UNZ_OK)

  00262	4c 8d 44 24 24	 lea	 r8, QWORD PTR number_disk$[rsp]
  00267	48 8b d6	 mov	 rdx, rsi
  0026a	48 8d 4c 24 30	 lea	 rcx, QWORD PTR us$[rsp]
  0026f	41 0f 45 fe	 cmovne	 edi, r14d
  00273	e8 00 00 00 00	 call	 unz64local_getShort
  00278	85 c0		 test	 eax, eax

; 667  :             err=UNZ_ERRNO;
; 668  : 
; 669  :         /* number of the disk with the start of the central directory */
; 670  :         if (unz64local_getShort(&us.z_filefunc, us.filestream,&number_disk_with_CD)!=UNZ_OK)

  0027a	4c 8d 44 24 20	 lea	 r8, QWORD PTR number_disk_with_CD$[rsp]
  0027f	48 8b d6	 mov	 rdx, rsi
  00282	48 8d 4c 24 30	 lea	 rcx, QWORD PTR us$[rsp]
  00287	41 0f 45 fe	 cmovne	 edi, r14d
  0028b	e8 00 00 00 00	 call	 unz64local_getShort
  00290	85 c0		 test	 eax, eax

; 671  :             err=UNZ_ERRNO;
; 672  : 
; 673  :         /* total number of entries in the central dir on this disk */
; 674  :         if (unz64local_getShort(&us.z_filefunc, us.filestream,&uL)!=UNZ_OK)

  00292	4c 8d 85 98 00
	00 00		 lea	 r8, QWORD PTR uL$[rbp-256]
  00299	48 8b d6	 mov	 rdx, rsi
  0029c	48 8d 4c 24 30	 lea	 rcx, QWORD PTR us$[rsp]
  002a1	41 0f 45 fe	 cmovne	 edi, r14d
  002a5	e8 00 00 00 00	 call	 unz64local_getShort

; 675  :             err=UNZ_ERRNO;
; 676  :         us.gi.number_entry = uL;

  002aa	8b 9d 98 00 00
	00		 mov	 ebx, DWORD PTR uL$[rbp-256]

; 677  : 
; 678  :         /* total number of entries in the central dir */
; 679  :         if (unz64local_getShort(&us.z_filefunc, us.filestream,&uL)!=UNZ_OK)

  002b0	4c 8d 85 98 00
	00 00		 lea	 r8, QWORD PTR uL$[rbp-256]
  002b7	85 c0		 test	 eax, eax
  002b9	48 89 5d 98	 mov	 QWORD PTR us$[rbp-152], rbx
  002bd	48 8b d6	 mov	 rdx, rsi
  002c0	48 8d 4c 24 30	 lea	 rcx, QWORD PTR us$[rsp]
  002c5	41 0f 45 fe	 cmovne	 edi, r14d
  002c9	e8 00 00 00 00	 call	 unz64local_getShort
  002ce	85 c0		 test	 eax, eax

; 680  :             err=UNZ_ERRNO;
; 681  :         number_entry_CD = uL;

  002d0	8b 85 98 00 00
	00		 mov	 eax, DWORD PTR uL$[rbp-256]
  002d6	41 0f 45 fe	 cmovne	 edi, r14d
  002da	48 3b c3	 cmp	 rax, rbx

; 682  : 
; 683  :         if ((number_entry_CD!=us.gi.number_entry) ||
; 684  :             (number_disk_with_CD!=0) ||

  002dd	75 0e		 jne	 SHORT $LN29@unzOpenInt
  002df	44 39 64 24 20	 cmp	 DWORD PTR number_disk_with_CD$[rsp], r12d
  002e4	75 07		 jne	 SHORT $LN29@unzOpenInt
  002e6	44 39 64 24 24	 cmp	 DWORD PTR number_disk$[rsp], r12d
  002eb	74 05		 je	 SHORT $LN28@unzOpenInt
$LN29@unzOpenInt:

; 685  :             (number_disk!=0))
; 686  :             err=UNZ_BADZIPFILE;

  002ed	bf 99 ff ff ff	 mov	 edi, -103		; ffffffffffffff99H
$LN28@unzOpenInt:

; 687  : 
; 688  :         /* size of the central directory */
; 689  :         if (unz64local_getLong(&us.z_filefunc, us.filestream,&uL)!=UNZ_OK)

  002f2	4c 8d 85 98 00
	00 00		 lea	 r8, QWORD PTR uL$[rbp-256]
  002f9	48 8b d6	 mov	 rdx, rsi
  002fc	48 8d 4c 24 30	 lea	 rcx, QWORD PTR us$[rsp]
  00301	e8 00 00 00 00	 call	 unz64local_getLong
  00306	85 c0		 test	 eax, eax

; 690  :             err=UNZ_ERRNO;
; 691  :         us.size_central_dir = uL;
; 692  : 
; 693  :         /* offset of start of central directory with respect to the
; 694  :             starting disk number */
; 695  :         if (unz64local_getLong(&us.z_filefunc, us.filestream,&uL)!=UNZ_OK)

  00308	4c 8d 85 98 00
	00 00		 lea	 r8, QWORD PTR uL$[rbp-256]
  0030f	8b 85 98 00 00
	00		 mov	 eax, DWORD PTR uL$[rbp-256]
  00315	48 8d 4c 24 30	 lea	 rcx, QWORD PTR us$[rsp]
  0031a	48 8b d6	 mov	 rdx, rsi
  0031d	48 89 45 d0	 mov	 QWORD PTR us$[rbp-96], rax
  00321	41 0f 45 fe	 cmovne	 edi, r14d
  00325	e8 00 00 00 00	 call	 unz64local_getLong
  0032a	85 c0		 test	 eax, eax

; 696  :             err=UNZ_ERRNO;
; 697  :         us.offset_central_dir = uL;
; 698  : 
; 699  :         /* zipfile comment length */
; 700  :         if (unz64local_getShort(&us.z_filefunc, us.filestream,&us.gi.size_comment)!=UNZ_OK)

  0032c	4c 8d 45 a0	 lea	 r8, QWORD PTR us$[rbp-144]
  00330	8b 85 98 00 00
	00		 mov	 eax, DWORD PTR uL$[rbp-256]
  00336	48 8d 4c 24 30	 lea	 rcx, QWORD PTR us$[rsp]
  0033b	48 8b d6	 mov	 rdx, rsi
  0033e	48 89 45 d8	 mov	 QWORD PTR us$[rbp-88], rax
  00342	41 0f 45 fe	 cmovne	 edi, r14d
  00346	e8 00 00 00 00	 call	 unz64local_getShort
$LN53@unzOpenInt:

; 701  :             err=UNZ_ERRNO;
; 702  :     }
; 703  : 
; 704  :     if ((central_pos<us.offset_central_dir+us.size_central_dir) &&

  0034b	48 8b 4d d8	 mov	 rcx, QWORD PTR us$[rbp-88]
  0034f	85 c0		 test	 eax, eax
  00351	48 8b 55 d0	 mov	 rdx, QWORD PTR us$[rbp-96]
  00355	41 0f 45 fe	 cmovne	 edi, r14d
  00359	4c 8b b4 24 58
	01 00 00	 mov	 r14, QWORD PTR [rsp+344]
  00361	48 8d 04 11	 lea	 rax, QWORD PTR [rcx+rdx]
  00365	4c 3b f8	 cmp	 r15, rax
  00368	0f 82 b0 00 00
	00		 jb	 $LN37@unzOpenInt

; 705  :         (err==UNZ_OK))
; 706  :         err=UNZ_BADZIPFILE;
; 707  : 
; 708  :     if (err!=UNZ_OK)

  0036e	85 ff		 test	 edi, edi
  00370	0f 85 a8 00 00
	00		 jne	 $LN37@unzOpenInt

; 712  :     }
; 713  : 
; 714  :     us.byte_before_the_zipfile = central_pos -

  00376	49 8b c7	 mov	 rax, r15

; 715  :                             (us.offset_central_dir+us.size_central_dir);
; 716  :     us.central_pos = central_pos;

  00379	4c 89 7d c8	 mov	 QWORD PTR us$[rbp-104], r15
  0037d	48 2b c1	 sub	 rax, rcx

; 717  :     us.pfile_in_zip_read = NULL;

  00380	4c 89 65 40	 mov	 QWORD PTR us$[rbp+16], r12
  00384	48 2b c2	 sub	 rax, rdx

; 718  :     us.encrypted = 0;

  00387	44 89 65 48	 mov	 DWORD PTR us$[rbp+24], r12d

; 719  : 
; 720  : 
; 721  :     s=(unz64_s*)ALLOC(sizeof(unz64_s));

  0038b	b9 20 01 00 00	 mov	 ecx, 288		; 00000120H
  00390	48 89 45 a8	 mov	 QWORD PTR us$[rbp-136], rax
  00394	ff 15 00 00 00
	00		 call	 QWORD PTR __imp_malloc
  0039a	48 8b d8	 mov	 rbx, rax

; 722  :     if( s != NULL)

  0039d	48 85 c0	 test	 rax, rax
  003a0	74 77		 je	 SHORT $LN35@unzOpenInt

; 723  :     {
; 724  :         *s=us;

  003a2	48 8b d0	 mov	 rdx, rax
  003a5	48 8d 4c 24 30	 lea	 rcx, QWORD PTR us$[rsp]
  003aa	44 8d 47 02	 lea	 r8d, QWORD PTR [rdi+2]
  003ae	66 90		 npad	 2
$LL38@unzOpenInt:
  003b0	48 8d 92 80 00
	00 00		 lea	 rdx, QWORD PTR [rdx+128]
  003b7	0f 10 01	 movups	 xmm0, XMMWORD PTR [rcx]
  003ba	0f 10 49 10	 movups	 xmm1, XMMWORD PTR [rcx+16]
  003be	48 8d 89 80 00
	00 00		 lea	 rcx, QWORD PTR [rcx+128]
  003c5	0f 11 42 80	 movups	 XMMWORD PTR [rdx-128], xmm0
  003c9	0f 10 41 a0	 movups	 xmm0, XMMWORD PTR [rcx-96]
  003cd	0f 11 4a 90	 movups	 XMMWORD PTR [rdx-112], xmm1
  003d1	0f 10 49 b0	 movups	 xmm1, XMMWORD PTR [rcx-80]
  003d5	0f 11 42 a0	 movups	 XMMWORD PTR [rdx-96], xmm0
  003d9	0f 10 41 c0	 movups	 xmm0, XMMWORD PTR [rcx-64]
  003dd	0f 11 4a b0	 movups	 XMMWORD PTR [rdx-80], xmm1
  003e1	0f 10 49 d0	 movups	 xmm1, XMMWORD PTR [rcx-48]
  003e5	0f 11 42 c0	 movups	 XMMWORD PTR [rdx-64], xmm0
  003e9	0f 10 41 e0	 movups	 xmm0, XMMWORD PTR [rcx-32]
  003ed	0f 11 4a d0	 movups	 XMMWORD PTR [rdx-48], xmm1
  003f1	0f 10 49 f0	 movups	 xmm1, XMMWORD PTR [rcx-16]
  003f5	0f 11 42 e0	 movups	 XMMWORD PTR [rdx-32], xmm0
  003f9	0f 11 4a f0	 movups	 XMMWORD PTR [rdx-16], xmm1
  003fd	49 83 e8 01	 sub	 r8, 1
  00401	75 ad		 jne	 SHORT $LL38@unzOpenInt
  00403	0f 10 01	 movups	 xmm0, XMMWORD PTR [rcx]
  00406	0f 10 49 10	 movups	 xmm1, XMMWORD PTR [rcx+16]

; 725  :         unzGoToFirstFile((unzFile)s);

  0040a	48 8b cb	 mov	 rcx, rbx
  0040d	0f 11 02	 movups	 XMMWORD PTR [rdx], xmm0
  00410	0f 11 4a 10	 movups	 XMMWORD PTR [rdx+16], xmm1
  00414	e8 00 00 00 00	 call	 unzGoToFirstFile
$LN35@unzOpenInt:

; 726  :     }
; 727  :     return (unzFile)s;

  00419	48 8b c3	 mov	 rax, rbx
  0041c	eb 0f		 jmp	 SHORT $LN52@unzOpenInt
$LN37@unzOpenInt:

; 709  :     {
; 710  :         ZCLOSE64(us.z_filefunc, us.filestream);

  0041e	48 8b 55 90	 mov	 rdx, QWORD PTR us$[rbp-160]
  00422	48 8b 4c 24 68	 mov	 rcx, QWORD PTR us$[rsp+56]
  00427	ff 54 24 58	 call	 QWORD PTR us$[rsp+40]

; 711  :         return NULL;

  0042b	33 c0		 xor	 eax, eax
$LN52@unzOpenInt:
  0042d	48 8b bc 24 88
	01 00 00	 mov	 rdi, QWORD PTR [rsp+392]
  00435	48 8b 9c 24 80
	01 00 00	 mov	 rbx, QWORD PTR [rsp+384]
  0043d	4c 8b bc 24 50
	01 00 00	 mov	 r15, QWORD PTR [rsp+336]

; 728  : }

  00445	48 81 c4 60 01
	00 00		 add	 rsp, 352		; 00000160H
  0044c	41 5c		 pop	 r12
  0044e	5e		 pop	 rsi
  0044f	5d		 pop	 rbp
  00450	c3		 ret	 0
unzOpenInternal ENDP
_TEXT	ENDS
; Function compile flags: /Ogtpy
; File C:\Users\chris\Documents\GitHub\FastCopy-M\external\zlib\contrib\minizip\unzip.c
;	COMDAT unzOpen2
_TEXT	SEGMENT
zlib_filefunc64_32_def_fill$1 = 32
path$ = 144
pzlib_filefunc32_def$ = 152
unzOpen2 PROC						; COMDAT

; 732  :                                 zlib_filefunc_def* pzlib_filefunc32_def) {

$LN7:
  00000	48 81 ec 88 00
	00 00		 sub	 rsp, 136		; 00000088H
  00007	4c 8b c9	 mov	 r9, rcx

; 733  :     if (pzlib_filefunc32_def != NULL)

  0000a	48 85 d2	 test	 rdx, rdx
  0000d	74 22		 je	 SHORT $LN2@unzOpen2

; 734  :     {
; 735  :         zlib_filefunc64_32_def zlib_filefunc64_32_def_fill;
; 736  :         fill_zlib_filefunc64_32_def_from_filefunc32(&zlib_filefunc64_32_def_fill,pzlib_filefunc32_def);

  0000f	48 8d 4c 24 20	 lea	 rcx, QWORD PTR zlib_filefunc64_32_def_fill$1[rsp]
  00014	e8 00 00 00 00	 call	 fill_zlib_filefunc64_32_def_from_filefunc32

; 737  :         return unzOpenInternal(path, &zlib_filefunc64_32_def_fill, 0);
; 738  :     }
; 739  :     else
; 740  :         return unzOpenInternal(path, NULL, 0);
; 741  : }

  00019	45 33 c0	 xor	 r8d, r8d
  0001c	48 8d 54 24 20	 lea	 rdx, QWORD PTR zlib_filefunc64_32_def_fill$1[rsp]
  00021	49 8b c9	 mov	 rcx, r9
  00024	e8 00 00 00 00	 call	 unzOpenInternal
  00029	48 81 c4 88 00
	00 00		 add	 rsp, 136		; 00000088H
  00030	c3		 ret	 0
$LN2@unzOpen2:
  00031	45 33 c0	 xor	 r8d, r8d
  00034	e8 00 00 00 00	 call	 unzOpenInternal
  00039	48 81 c4 88 00
	00 00		 add	 rsp, 136		; 00000088H
  00040	c3		 ret	 0
unzOpen2 ENDP
_TEXT	ENDS
; Function compile flags: /Ogtpy
; File C:\Users\chris\Documents\GitHub\FastCopy-M\external\zlib\contrib\minizip\unzip.c
;	COMDAT unzOpen2_64
_TEXT	SEGMENT
zlib_filefunc64_32_def_fill$1 = 32
path$ = 144
pzlib_filefunc_def$ = 152
unzOpen2_64 PROC					; COMDAT

; 744  :                                    zlib_filefunc64_def* pzlib_filefunc_def) {

$LN7:
  00000	48 81 ec 88 00
	00 00		 sub	 rsp, 136		; 00000088H

; 745  :     if (pzlib_filefunc_def != NULL)

  00007	41 b8 01 00 00
	00		 mov	 r8d, 1
  0000d	48 85 d2	 test	 rdx, rdx
  00010	74 41		 je	 SHORT $LN2@unzOpen2_6

; 746  :     {
; 747  :         zlib_filefunc64_32_def zlib_filefunc64_32_def_fill;
; 748  :         zlib_filefunc64_32_def_fill.zfile_func64 = *pzlib_filefunc_def;

  00012	0f 10 02	 movups	 xmm0, XMMWORD PTR [rdx]

; 749  :         zlib_filefunc64_32_def_fill.ztell32_file = NULL;

  00015	33 c0		 xor	 eax, eax
  00017	0f 10 4a 10	 movups	 xmm1, XMMWORD PTR [rdx+16]
  0001b	48 89 44 24 68	 mov	 QWORD PTR zlib_filefunc64_32_def_fill$1[rsp+72], rax
  00020	0f 29 44 24 20	 movaps	 XMMWORD PTR zlib_filefunc64_32_def_fill$1[rsp], xmm0
  00025	0f 10 42 20	 movups	 xmm0, XMMWORD PTR [rdx+32]

; 750  :         zlib_filefunc64_32_def_fill.zseek32_file = NULL;

  00029	48 89 44 24 70	 mov	 QWORD PTR zlib_filefunc64_32_def_fill$1[rsp+80], rax
  0002e	0f 29 4c 24 30	 movaps	 XMMWORD PTR zlib_filefunc64_32_def_fill$1[rsp+16], xmm1
  00033	0f 10 4a 30	 movups	 xmm1, XMMWORD PTR [rdx+48]

; 751  :         return unzOpenInternal(path, &zlib_filefunc64_32_def_fill, 1);

  00037	48 8d 54 24 20	 lea	 rdx, QWORD PTR zlib_filefunc64_32_def_fill$1[rsp]
  0003c	0f 29 44 24 40	 movaps	 XMMWORD PTR zlib_filefunc64_32_def_fill$1[rsp+32], xmm0
  00041	0f 29 4c 24 50	 movaps	 XMMWORD PTR zlib_filefunc64_32_def_fill$1[rsp+48], xmm1

; 752  :     }
; 753  :     else
; 754  :         return unzOpenInternal(path, NULL, 1);
; 755  : }

  00046	e8 00 00 00 00	 call	 unzOpenInternal
  0004b	48 81 c4 88 00
	00 00		 add	 rsp, 136		; 00000088H
  00052	c3		 ret	 0
$LN2@unzOpen2_6:
  00053	e8 00 00 00 00	 call	 unzOpenInternal
  00058	48 81 c4 88 00
	00 00		 add	 rsp, 136		; 00000088H
  0005f	c3		 ret	 0
unzOpen2_64 ENDP
_TEXT	ENDS
; Function compile flags: /Ogtpy
; File C:\Users\chris\Documents\GitHub\FastCopy-M\external\zlib\contrib\minizip\unzip.c
;	COMDAT unzOpen
_TEXT	SEGMENT
path$ = 8
unzOpen	PROC						; COMDAT

; 758  :     return unzOpenInternal(path, NULL, 0);

  00000	45 33 c0	 xor	 r8d, r8d
  00003	33 d2		 xor	 edx, edx
  00005	e9 00 00 00 00	 jmp	 unzOpenInternal
unzOpen	ENDP
_TEXT	ENDS
; Function compile flags: /Ogtpy
; File C:\Users\chris\Documents\GitHub\FastCopy-M\external\zlib\contrib\minizip\unzip.c
;	COMDAT unzOpen64
_TEXT	SEGMENT
path$ = 8
unzOpen64 PROC						; COMDAT

; 762  :     return unzOpenInternal(path, NULL, 1);

  00000	33 d2		 xor	 edx, edx
  00002	44 8d 42 01	 lea	 r8d, QWORD PTR [rdx+1]
  00006	e9 00 00 00 00	 jmp	 unzOpenInternal
unzOpen64 ENDP
_TEXT	ENDS
; Function compile flags: /Ogtpy
; File C:\Users\chris\Documents\GitHub\FastCopy-M\external\zlib\contrib\minizip\unzip.c
;	COMDAT unzClose
_TEXT	SEGMENT
file$ = 48
unzClose PROC						; COMDAT

; 770  : extern int ZEXPORT unzClose(unzFile file) {

$LN8:
  00000	40 53		 push	 rbx
  00002	48 83 ec 20	 sub	 rsp, 32			; 00000020H
  00006	48 8b d9	 mov	 rbx, rcx

; 771  :     unz64_s* s;
; 772  :     if (file==NULL)

  00009	48 85 c9	 test	 rcx, rcx
  0000c	75 09		 jne	 SHORT $LN2@unzClose

; 773  :         return UNZ_PARAMERROR;

  0000e	8d 41 9a	 lea	 eax, QWORD PTR [rcx-102]

; 782  : }

  00011	48 83 c4 20	 add	 rsp, 32			; 00000020H
  00015	5b		 pop	 rbx
  00016	c3		 ret	 0
$LN2@unzClose:

; 774  :     s=(unz64_s*)file;
; 775  : 
; 776  :     if (s->pfile_in_zip_read!=NULL)

  00017	48 83 b9 10 01
	00 00 00	 cmp	 QWORD PTR [rcx+272], 0
  0001f	74 05		 je	 SHORT $LN3@unzClose

; 777  :         unzCloseCurrentFile(file);

  00021	e8 00 00 00 00	 call	 unzCloseCurrentFile
$LN3@unzClose:

; 778  : 
; 779  :     ZCLOSE64(s->z_filefunc, s->filestream);

  00026	48 8b 53 60	 mov	 rdx, QWORD PTR [rbx+96]
  0002a	48 8b 4b 38	 mov	 rcx, QWORD PTR [rbx+56]
  0002e	ff 53 28	 call	 QWORD PTR [rbx+40]

; 780  :     TRYFREE(s);

  00031	48 8b cb	 mov	 rcx, rbx
  00034	ff 15 00 00 00
	00		 call	 QWORD PTR __imp_free

; 781  :     return UNZ_OK;

  0003a	33 c0		 xor	 eax, eax

; 782  : }

  0003c	48 83 c4 20	 add	 rsp, 32			; 00000020H
  00040	5b		 pop	 rbx
  00041	c3		 ret	 0
unzClose ENDP
_TEXT	ENDS
; Function compile flags: /Ogtpy
; File C:\Users\chris\Documents\GitHub\FastCopy-M\external\zlib\contrib\minizip\unzip.c
;	COMDAT unzGetGlobalInfo64
_TEXT	SEGMENT
file$ = 8
pglobal_info$ = 16
unzGetGlobalInfo64 PROC					; COMDAT

; 790  :     unz64_s* s;
; 791  :     if (file==NULL)

  00000	48 85 c9	 test	 rcx, rcx
  00003	75 06		 jne	 SHORT $LN2@unzGetGlob

; 792  :         return UNZ_PARAMERROR;

  00005	b8 9a ff ff ff	 mov	 eax, -102		; ffffffffffffff9aH

; 796  : }

  0000a	c3		 ret	 0
$LN2@unzGetGlob:

; 793  :     s=(unz64_s*)file;
; 794  :     *pglobal_info=s->gi;

  0000b	0f 10 41 68	 movups	 xmm0, XMMWORD PTR [rcx+104]

; 795  :     return UNZ_OK;

  0000f	33 c0		 xor	 eax, eax
  00011	0f 11 02	 movups	 XMMWORD PTR [rdx], xmm0

; 796  : }

  00014	c3		 ret	 0
unzGetGlobalInfo64 ENDP
_TEXT	ENDS
; Function compile flags: /Ogtpy
; File C:\Users\chris\Documents\GitHub\FastCopy-M\external\zlib\contrib\minizip\unzip.c
;	COMDAT unzGetGlobalInfo
_TEXT	SEGMENT
file$ = 8
pglobal_info32$ = 16
unzGetGlobalInfo PROC					; COMDAT

; 799  :     unz64_s* s;
; 800  :     if (file==NULL)

  00000	48 85 c9	 test	 rcx, rcx
  00003	75 06		 jne	 SHORT $LN2@unzGetGlob

; 801  :         return UNZ_PARAMERROR;

  00005	b8 9a ff ff ff	 mov	 eax, -102		; ffffffffffffff9aH

; 807  : }

  0000a	c3		 ret	 0
$LN2@unzGetGlob:

; 802  :     s=(unz64_s*)file;
; 803  :     /* to do : check if number_entry is not truncated */
; 804  :     pglobal_info32->number_entry = (uLong)s->gi.number_entry;

  0000b	8b 41 68	 mov	 eax, DWORD PTR [rcx+104]
  0000e	89 02		 mov	 DWORD PTR [rdx], eax

; 805  :     pglobal_info32->size_comment = s->gi.size_comment;

  00010	8b 41 70	 mov	 eax, DWORD PTR [rcx+112]
  00013	89 42 04	 mov	 DWORD PTR [rdx+4], eax

; 806  :     return UNZ_OK;

  00016	33 c0		 xor	 eax, eax

; 807  : }

  00018	c3		 ret	 0
unzGetGlobalInfo ENDP
_TEXT	ENDS
; Function compile flags: /Ogtpy
; File C:\Users\chris\Documents\GitHub\FastCopy-M\external\zlib\contrib\minizip\unzip.c
;	COMDAT unz64local_DosDateToTmuDate
_TEXT	SEGMENT
ulDosDate$ = 8
ptm$ = 16
unz64local_DosDateToTmuDate PROC			; COMDAT

; 812  :     ZPOS64_T uDate;
; 813  :     uDate = (ZPOS64_T)(ulDosDate>>16);

  00000	4c 8b c1	 mov	 r8, rcx
  00003	49 c1 e8 10	 shr	 r8, 16

; 814  :     ptm->tm_mday = (int)(uDate&0x1f) ;

  00007	41 8b c0	 mov	 eax, r8d
  0000a	83 e0 1f	 and	 eax, 31
  0000d	89 42 0c	 mov	 DWORD PTR [rdx+12], eax

; 815  :     ptm->tm_mon =  (int)((((uDate)&0x1E0)/0x20)-1) ;

  00010	49 8b c0	 mov	 rax, r8
  00013	48 c1 e8 05	 shr	 rax, 5
  00017	83 e0 0f	 and	 eax, 15

; 816  :     ptm->tm_year = (int)(((uDate&0x0FE00)/0x0200)+1980) ;

  0001a	49 c1 e8 09	 shr	 r8, 9
  0001e	ff c8		 dec	 eax
  00020	41 83 e0 7f	 and	 r8d, 127		; 0000007fH
  00024	89 42 10	 mov	 DWORD PTR [rdx+16], eax
  00027	41 81 c0 bc 07
	00 00		 add	 r8d, 1980		; 000007bcH

; 817  : 
; 818  :     ptm->tm_hour = (int) ((ulDosDate &0xF800)/0x800);

  0002e	48 8b c1	 mov	 rax, rcx
  00031	44 89 42 14	 mov	 DWORD PTR [rdx+20], r8d
  00035	48 c1 e8 0b	 shr	 rax, 11
  00039	83 e0 1f	 and	 eax, 31
  0003c	89 42 08	 mov	 DWORD PTR [rdx+8], eax

; 819  :     ptm->tm_min =  (int) ((ulDosDate&0x7E0)/0x20) ;

  0003f	48 8b c1	 mov	 rax, rcx
  00042	48 c1 e8 05	 shr	 rax, 5

; 820  :     ptm->tm_sec =  (int) (2*(ulDosDate&0x1f)) ;

  00046	83 e1 1f	 and	 ecx, 31
  00049	83 e0 3f	 and	 eax, 63			; 0000003fH
  0004c	03 c9		 add	 ecx, ecx
  0004e	89 42 04	 mov	 DWORD PTR [rdx+4], eax
  00051	89 0a		 mov	 DWORD PTR [rdx], ecx

; 821  : }

  00053	c3		 ret	 0
unz64local_DosDateToTmuDate ENDP
_TEXT	ENDS
; Function compile flags: /Ogtpy
; File C:\Users\chris\Documents\GitHub\FastCopy-M\external\zlib\contrib\minizip\unzip.c
;	COMDAT unz64local_GetCurrentFileInfoInternal
_TEXT	SEGMENT
dataSize$1 = 32
headerId$2 = 36
file_info_internal$ = 40
file_info$ = 48
uL$3 = 144
uSizeRead$1$ = 240
uSizeRead$1$ = 240
uSizeRead$1$ = 240
lSeek$1$ = 240
uL$ = 240
uMagic$ = 240
file$ = 240
pfile_info$ = 248
pfile_info_internal$ = 256
szFileName$ = 264
fileNameBufferSize$ = 272
extraField$ = 280
extraFieldBufferSize$ = 288
szComment$ = 296
commentBufferSize$ = 304
unz64local_GetCurrentFileInfoInternal PROC		; COMDAT

; 835  :                                                 uLong commentBufferSize) {

  00000	4c 89 4c 24 20	 mov	 QWORD PTR [rsp+32], r9
  00005	4c 89 44 24 18	 mov	 QWORD PTR [rsp+24], r8
  0000a	48 89 54 24 10	 mov	 QWORD PTR [rsp+16], rdx
  0000f	55		 push	 rbp
  00010	56		 push	 rsi
  00011	41 54		 push	 r12
  00013	41 55		 push	 r13
  00015	48 8d 6c 24 e9	 lea	 rbp, QWORD PTR [rsp-23]
  0001a	48 81 ec c8 00
	00 00		 sub	 rsp, 200		; 000000c8H

; 836  :     unz64_s* s;
; 837  :     unz_file_info64 file_info;
; 838  :     unz_file_info64_internal file_info_internal;
; 839  :     int err=UNZ_OK;

  00021	45 33 e4	 xor	 r12d, r12d
  00024	4c 8b ea	 mov	 r13, rdx
  00027	48 8b f1	 mov	 rsi, rcx

; 840  :     uLong uMagic;
; 841  :     long lSeek=0;
; 842  :     uLong uL;
; 843  : 
; 844  :     if (file==NULL)

  0002a	48 85 c9	 test	 rcx, rcx
  0002d	75 11		 jne	 SHORT $LN4@unz64local

; 845  :         return UNZ_PARAMERROR;

  0002f	8d 41 9a	 lea	 eax, QWORD PTR [rcx-102]

; 1061 : }

  00032	48 81 c4 c8 00
	00 00		 add	 rsp, 200		; 000000c8H
  00039	41 5d		 pop	 r13
  0003b	41 5c		 pop	 r12
  0003d	5e		 pop	 rsi
  0003e	5d		 pop	 rbp
  0003f	c3		 ret	 0
$LN4@unz64local:

; 846  :     s=(unz64_s*)file;
; 847  :     if (ZSEEK64(s->z_filefunc, s->filestream,
; 848  :               s->pos_in_central_dir+s->byte_before_the_zipfile,
; 849  :               ZLIB_FILEFUNC_SEEK_SET)!=0)

  00040	4c 8b 81 88 00
	00 00		 mov	 r8, QWORD PTR [rcx+136]
  00047	45 33 c9	 xor	 r9d, r9d
  0004a	4c 03 41 78	 add	 r8, QWORD PTR [rcx+120]
  0004e	48 8b 51 60	 mov	 rdx, QWORD PTR [rcx+96]
  00052	48 89 9c 24 c0
	00 00 00	 mov	 QWORD PTR [rsp+192], rbx
  0005a	48 89 bc 24 b8
	00 00 00	 mov	 QWORD PTR [rsp+184], rdi
  00062	4c 89 bc 24 a8
	00 00 00	 mov	 QWORD PTR [rsp+168], r15
  0006a	e8 00 00 00 00	 call	 call_zseek64
  0006f	bb ff ff ff ff	 mov	 ebx, -1
  00074	85 c0		 test	 eax, eax
  00076	74 05		 je	 SHORT $LN72@unz64local

; 850  :         err=UNZ_ERRNO;

  00078	44 8b fb	 mov	 r15d, ebx

; 851  : 
; 852  : 
; 853  :     /* we check the magic */
; 854  :     if (err==UNZ_OK)

  0007b	eb 2c		 jmp	 SHORT $LN9@unz64local
$LN72@unz64local:

; 855  :     {
; 856  :         if (unz64local_getLong(&s->z_filefunc, s->filestream,&uMagic) != UNZ_OK)

  0007d	48 8b 56 60	 mov	 rdx, QWORD PTR [rsi+96]
  00081	4c 8d 45 3f	 lea	 r8, QWORD PTR uMagic$[rbp-177]
  00085	48 8b ce	 mov	 rcx, rsi
  00088	e8 00 00 00 00	 call	 unz64local_getLong
  0008d	85 c0		 test	 eax, eax
  0008f	74 05		 je	 SHORT $LN7@unz64local

; 857  :             err=UNZ_ERRNO;

  00091	44 8b fb	 mov	 r15d, ebx
  00094	eb 13		 jmp	 SHORT $LN9@unz64local
$LN7@unz64local:

; 858  :         else if (uMagic!=0x02014b50)

  00096	81 7d 3f 50 4b
	01 02		 cmp	 DWORD PTR uMagic$[rbp-177], 33639248 ; 02014b50H
  0009d	45 8b fc	 mov	 r15d, r12d
  000a0	b8 99 ff ff ff	 mov	 eax, -103		; ffffffffffffff99H
  000a5	44 0f 45 f8	 cmovne	 r15d, eax
$LN9@unz64local:

; 859  :             err=UNZ_BADZIPFILE;
; 860  :     }
; 861  : 
; 862  :     if (unz64local_getShort(&s->z_filefunc, s->filestream,&file_info.version) != UNZ_OK)

  000a9	48 8b 56 60	 mov	 rdx, QWORD PTR [rsi+96]
  000ad	4c 8d 44 24 30	 lea	 r8, QWORD PTR file_info$[rsp]
  000b2	48 8b ce	 mov	 rcx, rsi
  000b5	4c 89 b4 24 b0
	00 00 00	 mov	 QWORD PTR [rsp+176], r14
  000bd	e8 00 00 00 00	 call	 unz64local_getShort

; 863  :         err=UNZ_ERRNO;
; 864  : 
; 865  :     if (unz64local_getShort(&s->z_filefunc, s->filestream,&file_info.version_needed) != UNZ_OK)

  000c2	48 8b 56 60	 mov	 rdx, QWORD PTR [rsi+96]
  000c6	4c 8d 45 83	 lea	 r8, QWORD PTR file_info$[rbp-173]
  000ca	85 c0		 test	 eax, eax
  000cc	48 8b ce	 mov	 rcx, rsi
  000cf	44 0f 45 fb	 cmovne	 r15d, ebx
  000d3	e8 00 00 00 00	 call	 unz64local_getShort

; 866  :         err=UNZ_ERRNO;
; 867  : 
; 868  :     if (unz64local_getShort(&s->z_filefunc, s->filestream,&file_info.flag) != UNZ_OK)

  000d8	48 8b 56 60	 mov	 rdx, QWORD PTR [rsi+96]
  000dc	4c 8d 45 87	 lea	 r8, QWORD PTR file_info$[rbp-169]
  000e0	85 c0		 test	 eax, eax
  000e2	48 8b ce	 mov	 rcx, rsi
  000e5	44 0f 45 fb	 cmovne	 r15d, ebx
  000e9	e8 00 00 00 00	 call	 unz64local_getShort

; 869  :         err=UNZ_ERRNO;
; 870  : 
; 871  :     if (unz64local_getShort(&s->z_filefunc, s->filestream,&file_info.compression_method) != UNZ_OK)

  000ee	48 8b 56 60	 mov	 rdx, QWORD PTR [rsi+96]
  000f2	4c 8d 45 8b	 lea	 r8, QWORD PTR file_info$[rbp-165]
  000f6	85 c0		 test	 eax, eax
  000f8	48 8b ce	 mov	 rcx, rsi
  000fb	44 0f 45 fb	 cmovne	 r15d, ebx
  000ff	e8 00 00 00 00	 call	 unz64local_getShort

; 872  :         err=UNZ_ERRNO;
; 873  : 
; 874  :     if (unz64local_getLong(&s->z_filefunc, s->filestream,&file_info.dosDate) != UNZ_OK)

  00104	48 8b 56 60	 mov	 rdx, QWORD PTR [rsi+96]
  00108	4c 8d 45 8f	 lea	 r8, QWORD PTR file_info$[rbp-161]
  0010c	85 c0		 test	 eax, eax
  0010e	48 8b ce	 mov	 rcx, rsi
  00111	44 0f 45 fb	 cmovne	 r15d, ebx
  00115	e8 00 00 00 00	 call	 unz64local_getLong

; 875  :         err=UNZ_ERRNO;
; 876  : 
; 877  :     unz64local_DosDateToTmuDate(file_info.dosDate,&file_info.tmu_date);

  0011a	8b 4d 8f	 mov	 ecx, DWORD PTR file_info$[rbp-161]
  0011d	48 8d 55 bf	 lea	 rdx, QWORD PTR file_info$[rbp-113]
  00121	85 c0		 test	 eax, eax
  00123	44 0f 45 fb	 cmovne	 r15d, ebx
  00127	e8 00 00 00 00	 call	 unz64local_DosDateToTmuDate

; 878  : 
; 879  :     if (unz64local_getLong(&s->z_filefunc, s->filestream,&file_info.crc) != UNZ_OK)

  0012c	48 8b 56 60	 mov	 rdx, QWORD PTR [rsi+96]
  00130	4c 8d 45 93	 lea	 r8, QWORD PTR file_info$[rbp-157]
  00134	48 8b ce	 mov	 rcx, rsi
  00137	e8 00 00 00 00	 call	 unz64local_getLong

; 880  :         err=UNZ_ERRNO;
; 881  : 
; 882  :     if (unz64local_getLong(&s->z_filefunc, s->filestream,&uL) != UNZ_OK)

  0013c	48 8b 56 60	 mov	 rdx, QWORD PTR [rsi+96]
  00140	4c 8d 45 3f	 lea	 r8, QWORD PTR uL$[rbp-177]
  00144	85 c0		 test	 eax, eax
  00146	48 8b ce	 mov	 rcx, rsi
  00149	44 0f 45 fb	 cmovne	 r15d, ebx
  0014d	e8 00 00 00 00	 call	 unz64local_getLong

; 883  :         err=UNZ_ERRNO;
; 884  :     file_info.compressed_size = uL;
; 885  : 
; 886  :     if (unz64local_getLong(&s->z_filefunc, s->filestream,&uL) != UNZ_OK)

  00152	48 8b 56 60	 mov	 rdx, QWORD PTR [rsi+96]
  00156	4c 8d 45 3f	 lea	 r8, QWORD PTR uL$[rbp-177]
  0015a	85 c0		 test	 eax, eax
  0015c	48 8b ce	 mov	 rcx, rsi
  0015f	8b 45 3f	 mov	 eax, DWORD PTR uL$[rbp-177]
  00162	44 0f 45 fb	 cmovne	 r15d, ebx
  00166	48 89 45 97	 mov	 QWORD PTR file_info$[rbp-153], rax
  0016a	e8 00 00 00 00	 call	 unz64local_getLong

; 887  :         err=UNZ_ERRNO;
; 888  :     file_info.uncompressed_size = uL;
; 889  : 
; 890  :     if (unz64local_getShort(&s->z_filefunc, s->filestream,&file_info.size_filename) != UNZ_OK)

  0016f	48 8b 56 60	 mov	 rdx, QWORD PTR [rsi+96]
  00173	4c 8d 45 a7	 lea	 r8, QWORD PTR file_info$[rbp-137]
  00177	85 c0		 test	 eax, eax
  00179	48 8b ce	 mov	 rcx, rsi
  0017c	8b 45 3f	 mov	 eax, DWORD PTR uL$[rbp-177]
  0017f	44 0f 45 fb	 cmovne	 r15d, ebx
  00183	48 89 45 9f	 mov	 QWORD PTR file_info$[rbp-145], rax
  00187	e8 00 00 00 00	 call	 unz64local_getShort

; 891  :         err=UNZ_ERRNO;
; 892  : 
; 893  :     if (unz64local_getShort(&s->z_filefunc, s->filestream,&file_info.size_file_extra) != UNZ_OK)

  0018c	48 8b 56 60	 mov	 rdx, QWORD PTR [rsi+96]
  00190	4c 8d 45 ab	 lea	 r8, QWORD PTR file_info$[rbp-133]
  00194	85 c0		 test	 eax, eax
  00196	48 8b ce	 mov	 rcx, rsi
  00199	44 0f 45 fb	 cmovne	 r15d, ebx
  0019d	e8 00 00 00 00	 call	 unz64local_getShort

; 894  :         err=UNZ_ERRNO;
; 895  : 
; 896  :     if (unz64local_getShort(&s->z_filefunc, s->filestream,&file_info.size_file_comment) != UNZ_OK)

  001a2	48 8b 56 60	 mov	 rdx, QWORD PTR [rsi+96]
  001a6	4c 8d 45 af	 lea	 r8, QWORD PTR file_info$[rbp-129]
  001aa	85 c0		 test	 eax, eax
  001ac	48 8b ce	 mov	 rcx, rsi
  001af	44 0f 45 fb	 cmovne	 r15d, ebx
  001b3	e8 00 00 00 00	 call	 unz64local_getShort

; 897  :         err=UNZ_ERRNO;
; 898  : 
; 899  :     if (unz64local_getShort(&s->z_filefunc, s->filestream,&file_info.disk_num_start) != UNZ_OK)

  001b8	48 8b 56 60	 mov	 rdx, QWORD PTR [rsi+96]
  001bc	4c 8d 45 b3	 lea	 r8, QWORD PTR file_info$[rbp-125]
  001c0	85 c0		 test	 eax, eax
  001c2	48 8b ce	 mov	 rcx, rsi
  001c5	44 0f 45 fb	 cmovne	 r15d, ebx
  001c9	e8 00 00 00 00	 call	 unz64local_getShort
  001ce	85 c0		 test	 eax, eax

; 900  :         err=UNZ_ERRNO;
; 901  : 
; 902  :     if (unz64local_getShort(&s->z_filefunc, s->filestream,&file_info.internal_fa) != UNZ_OK)

  001d0	4c 8d 45 b7	 lea	 r8, QWORD PTR file_info$[rbp-121]
  001d4	44 0f 45 fb	 cmovne	 r15d, ebx
  001d8	48 8b 56 60	 mov	 rdx, QWORD PTR [rsi+96]
  001dc	48 8b ce	 mov	 rcx, rsi
  001df	e8 00 00 00 00	 call	 unz64local_getShort

; 903  :         err=UNZ_ERRNO;
; 904  : 
; 905  :     if (unz64local_getLong(&s->z_filefunc, s->filestream,&file_info.external_fa) != UNZ_OK)

  001e4	48 8b 56 60	 mov	 rdx, QWORD PTR [rsi+96]
  001e8	4c 8d 45 bb	 lea	 r8, QWORD PTR file_info$[rbp-117]
  001ec	85 c0		 test	 eax, eax
  001ee	48 8b ce	 mov	 rcx, rsi
  001f1	44 0f 45 fb	 cmovne	 r15d, ebx
  001f5	e8 00 00 00 00	 call	 unz64local_getLong

; 906  :         err=UNZ_ERRNO;
; 907  : 
; 908  :                 // relative offset of local header
; 909  :     if (unz64local_getLong(&s->z_filefunc, s->filestream,&uL) != UNZ_OK)

  001fa	48 8b 56 60	 mov	 rdx, QWORD PTR [rsi+96]
  001fe	4c 8d 45 3f	 lea	 r8, QWORD PTR uL$[rbp-177]
  00202	85 c0		 test	 eax, eax
  00204	48 8b ce	 mov	 rcx, rsi
  00207	44 0f 45 fb	 cmovne	 r15d, ebx
  0020b	e8 00 00 00 00	 call	 unz64local_getLong
  00210	85 c0		 test	 eax, eax
  00212	74 5a		 je	 SHORT $LN24@unz64local

; 910  :         err=UNZ_ERRNO;

  00214	44 8b 75 a7	 mov	 r14d, DWORD PTR file_info$[rbp-137]
  00218	8b fb		 mov	 edi, ebx
  0021a	8b 5d 3f	 mov	 ebx, DWORD PTR uL$[rbp-177]
  0021d	48 89 5c 24 28	 mov	 QWORD PTR file_info_internal$[rsp], rbx
$LN30@unz64local:

; 954  :     else
; 955  :         lSeek += file_info.size_file_extra;

  00222	44 8b 7d ab	 mov	 r15d, DWORD PTR file_info$[rbp-133]
  00226	45 03 f7	 add	 r14d, r15d
$LN31@unz64local:

; 956  : 
; 957  : 
; 958  :     if ((err==UNZ_OK) && (file_info.size_file_extra != 0))

  00229	85 ff		 test	 edi, edi
  0022b	0f 85 1e 03 00
	00		 jne	 $LN66@unz64local
  00231	45 85 ff	 test	 r15d, r15d
  00234	0f 84 52 02 00
	00		 je	 $LN74@unz64local

; 959  :     {
; 960  :                                 uLong acc = 0;
; 961  : 
; 962  :         // since lSeek now points to after the extra field we need to move back
; 963  :         lSeek -= file_info.size_file_extra;

  0023a	45 2b f7	 sub	 r14d, r15d
  0023d	44 89 75 3f	 mov	 DWORD PTR lSeek$1$[rbp-177], r14d

; 964  : 
; 965  :         if (lSeek!=0)

  00241	0f 84 27 01 00
	00		 je	 $LN68@unz64local

; 966  :         {
; 967  :             if (ZSEEK64(s->z_filefunc, s->filestream,(ZPOS64_T)lSeek,ZLIB_FILEFUNC_SEEK_CUR)==0)

  00247	48 8b 56 60	 mov	 rdx, QWORD PTR [rsi+96]
  0024b	44 8d 4f 01	 lea	 r9d, QWORD PTR [rdi+1]
  0024f	4d 63 c6	 movsxd	 r8, r14d
  00252	48 8b ce	 mov	 rcx, rsi
  00255	e8 00 00 00 00	 call	 call_zseek64
  0025a	85 c0		 test	 eax, eax
  0025c	0f 85 07 01 00
	00		 jne	 $LN41@unz64local

; 968  :                 lSeek=0;

  00262	45 8b f4	 mov	 r14d, r12d
  00265	44 89 65 3f	 mov	 DWORD PTR lSeek$1$[rbp-177], r12d
  00269	e9 00 01 00 00	 jmp	 $LN68@unz64local
$LN24@unz64local:

; 911  :     file_info_internal.offset_curfile = uL;

  0026e	8b 5d 3f	 mov	 ebx, DWORD PTR uL$[rbp-177]

; 912  : 
; 913  :     lSeek+=file_info.size_filename;

  00271	41 8b ff	 mov	 edi, r15d
  00274	44 8b 75 a7	 mov	 r14d, DWORD PTR file_info$[rbp-137]
  00278	48 89 5c 24 28	 mov	 QWORD PTR file_info_internal$[rsp], rbx

; 914  :     if ((err==UNZ_OK) && (szFileName!=NULL))

  0027d	45 85 ff	 test	 r15d, r15d
  00280	75 a0		 jne	 SHORT $LN30@unz64local
  00282	4c 8b 45 57	 mov	 r8, QWORD PTR szFileName$[rbp-177]
  00286	4d 85 c0	 test	 r8, r8
  00289	74 44		 je	 SHORT $LN73@unz64local

; 915  :     {
; 916  :         uLong uSizeRead ;
; 917  :         if (file_info.size_filename<fileNameBufferSize)

  0028b	8b 55 5f	 mov	 edx, DWORD PTR fileNameBufferSize$[rbp-177]
  0028e	44 3b f2	 cmp	 r14d, edx
  00291	73 09		 jae	 SHORT $LN26@unz64local

; 918  :         {
; 919  :             *(szFileName+file_info.size_filename)='\0';

  00293	47 88 24 06	 mov	 BYTE PTR [r14+r8], r12b

; 920  :             uSizeRead = file_info.size_filename;

  00297	41 8b ce	 mov	 ecx, r14d

; 921  :         }

  0029a	eb 02		 jmp	 SHORT $LN115@unz64local
$LN26@unz64local:

; 922  :         else
; 923  :             uSizeRead = fileNameBufferSize;

  0029c	8b ca		 mov	 ecx, edx
$LN115@unz64local:

; 924  : 
; 925  :         if ((file_info.size_filename>0) && (fileNameBufferSize>0))

  0029e	89 4d 3f	 mov	 DWORD PTR uSizeRead$1$[rbp-177], ecx
  002a1	45 85 f6	 test	 r14d, r14d
  002a4	74 26		 je	 SHORT $LN29@unz64local
  002a6	85 d2		 test	 edx, edx
  002a8	74 22		 je	 SHORT $LN29@unz64local

; 926  :             if (ZREAD64(s->z_filefunc, s->filestream,szFileName,uSizeRead)!=uSizeRead)

  002aa	48 8b 56 60	 mov	 rdx, QWORD PTR [rsi+96]
  002ae	44 8b c9	 mov	 r9d, ecx
  002b1	48 8b 4e 38	 mov	 rcx, QWORD PTR [rsi+56]
  002b5	ff 56 08	 call	 QWORD PTR [rsi+8]
  002b8	8b 4d 3f	 mov	 ecx, DWORD PTR uSizeRead$1$[rbp-177]
  002bb	3b c1		 cmp	 eax, ecx
  002bd	74 0d		 je	 SHORT $LN29@unz64local

; 927  :                 err=UNZ_ERRNO;

  002bf	bf ff ff ff ff	 mov	 edi, -1
  002c4	44 2b f1	 sub	 r14d, ecx
  002c7	e9 56 ff ff ff	 jmp	 $LN30@unz64local
$LN29@unz64local:

; 928  :         lSeek -= uSizeRead;

  002cc	44 2b f1	 sub	 r14d, ecx
$LN73@unz64local:

; 929  :     }
; 930  : 
; 931  :     // Read extrafield
; 932  :     if ((err==UNZ_OK) && (extraField!=NULL))

  002cf	48 8b 55 67	 mov	 rdx, QWORD PTR extraField$[rbp-177]
  002d3	48 85 d2	 test	 rdx, rdx
  002d6	0f 84 46 ff ff
	ff		 je	 $LN30@unz64local

; 933  :     {
; 934  :         ZPOS64_T uSizeRead ;
; 935  :         if (file_info.size_file_extra<extraFieldBufferSize)

  002dc	44 8b 7d ab	 mov	 r15d, DWORD PTR file_info$[rbp-133]
  002e0	8b 4d 6f	 mov	 ecx, DWORD PTR extraFieldBufferSize$[rbp-177]

; 936  :             uSizeRead = file_info.size_file_extra;

  002e3	4c 89 7d 3f	 mov	 QWORD PTR uSizeRead$1$[rbp-177], r15
  002e7	44 3b f9	 cmp	 r15d, ecx
  002ea	72 04		 jb	 SHORT $LN33@unz64local

; 937  :         else
; 938  :             uSizeRead = extraFieldBufferSize;

  002ec	48 89 4d 3f	 mov	 QWORD PTR uSizeRead$1$[rbp-177], rcx
$LN33@unz64local:

; 939  : 
; 940  :         if (lSeek!=0)

  002f0	45 85 f6	 test	 r14d, r14d
  002f3	74 2a		 je	 SHORT $LN36@unz64local

; 941  :         {
; 942  :             if (ZSEEK64(s->z_filefunc, s->filestream,(ZPOS64_T)lSeek,ZLIB_FILEFUNC_SEEK_CUR)==0)

  002f5	48 8b 56 60	 mov	 rdx, QWORD PTR [rsi+96]
  002f9	41 b9 01 00 00
	00		 mov	 r9d, 1
  002ff	4d 63 c6	 movsxd	 r8, r14d
  00302	48 8b ce	 mov	 rcx, rsi
  00305	e8 00 00 00 00	 call	 call_zseek64
  0030a	8b 4d 6f	 mov	 ecx, DWORD PTR extraFieldBufferSize$[rbp-177]
  0030d	48 8b 55 67	 mov	 rdx, QWORD PTR extraField$[rbp-177]
  00311	85 c0		 test	 eax, eax
  00313	75 05		 jne	 SHORT $LN35@unz64local

; 943  :                 lSeek=0;

  00315	45 8b f4	 mov	 r14d, r12d
  00318	eb 05		 jmp	 SHORT $LN36@unz64local
$LN35@unz64local:

; 944  :             else
; 945  :                 err=UNZ_ERRNO;

  0031a	bf ff ff ff ff	 mov	 edi, -1
$LN36@unz64local:

; 946  :         }
; 947  : 
; 948  :         if ((file_info.size_file_extra>0) && (extraFieldBufferSize>0))

  0031f	45 85 ff	 test	 r15d, r15d
  00322	74 34		 je	 SHORT $LN78@unz64local
  00324	85 c9		 test	 ecx, ecx
  00326	74 30		 je	 SHORT $LN78@unz64local

; 949  :             if (ZREAD64(s->z_filefunc, s->filestream,extraField,(uLong)uSizeRead)!=uSizeRead)

  00328	44 8b 4d 3f	 mov	 r9d, DWORD PTR uSizeRead$1$[rbp-177]
  0032c	4c 8b c2	 mov	 r8, rdx
  0032f	48 8b 56 60	 mov	 rdx, QWORD PTR [rsi+96]
  00333	48 8b 4e 38	 mov	 rcx, QWORD PTR [rsi+56]
  00337	ff 56 08	 call	 QWORD PTR [rsi+8]
  0033a	48 8b 4d 3f	 mov	 rcx, QWORD PTR uSizeRead$1$[rbp-177]
  0033e	8b c0		 mov	 eax, eax
  00340	48 3b c1	 cmp	 rax, rcx
  00343	b8 ff ff ff ff	 mov	 eax, -1
  00348	0f 45 f8	 cmovne	 edi, eax

; 950  :                 err=UNZ_ERRNO;
; 951  : 
; 952  :         lSeek += file_info.size_file_extra - (uLong)uSizeRead;

  0034b	41 8b c7	 mov	 eax, r15d
  0034e	2b c1		 sub	 eax, ecx
  00350	44 03 f0	 add	 r14d, eax

; 953  :     }

  00353	e9 d1 fe ff ff	 jmp	 $LN31@unz64local
$LN78@unz64local:

; 950  :                 err=UNZ_ERRNO;
; 951  : 
; 952  :         lSeek += file_info.size_file_extra - (uLong)uSizeRead;

  00358	48 8b 4d 3f	 mov	 rcx, QWORD PTR uSizeRead$1$[rbp-177]
  0035c	41 8b c7	 mov	 eax, r15d
  0035f	2b c1		 sub	 eax, ecx
  00361	44 03 f0	 add	 r14d, eax

; 953  :     }

  00364	e9 c0 fe ff ff	 jmp	 $LN31@unz64local
$LN41@unz64local:

; 969  :             else
; 970  :                 err=UNZ_ERRNO;

  00369	bf ff ff ff ff	 mov	 edi, -1
$LN68@unz64local:

; 971  :         }
; 972  : 
; 973  :         while(acc < file_info.size_file_extra)

  0036e	45 85 ff	 test	 r15d, r15d
  00371	0f 84 0d 01 00
	00		 je	 $LN3@unz64local
  00377	41 be ff ff ff
	ff		 mov	 r14d, -1
  0037d	0f 1f 00	 npad	 3
$LL2@unz64local:

; 974  :         {
; 975  :             uLong headerId;
; 976  :                                                 uLong dataSize;
; 977  : 
; 978  :             if (unz64local_getShort(&s->z_filefunc, s->filestream,&headerId) != UNZ_OK)

  00380	48 8b 56 60	 mov	 rdx, QWORD PTR [rsi+96]
  00384	4c 8d 44 24 24	 lea	 r8, QWORD PTR headerId$2[rsp]
  00389	48 8b ce	 mov	 rcx, rsi
  0038c	e8 00 00 00 00	 call	 unz64local_getShort

; 979  :                 err=UNZ_ERRNO;
; 980  : 
; 981  :             if (unz64local_getShort(&s->z_filefunc, s->filestream,&dataSize) != UNZ_OK)

  00391	48 8b 56 60	 mov	 rdx, QWORD PTR [rsi+96]
  00395	4c 8d 44 24 20	 lea	 r8, QWORD PTR dataSize$1[rsp]
  0039a	85 c0		 test	 eax, eax
  0039c	48 8b ce	 mov	 rcx, rsi
  0039f	41 0f 45 fe	 cmovne	 edi, r14d
  003a3	e8 00 00 00 00	 call	 unz64local_getShort

; 982  :                 err=UNZ_ERRNO;
; 983  : 
; 984  :             /* ZIP64 extra fields */
; 985  :             if (headerId == 0x0001)

  003a8	44 8b 6c 24 20	 mov	 r13d, DWORD PTR dataSize$1[rsp]
  003ad	85 c0		 test	 eax, eax
  003af	41 0f 45 fe	 cmovne	 edi, r14d
  003b3	83 7c 24 24 01	 cmp	 DWORD PTR headerId$2[rsp], 1
  003b8	0f 85 93 00 00
	00		 jne	 $LN45@unz64local

; 986  :             {
; 987  :                 uLong uL;
; 988  : 
; 989  :                 if(file_info.uncompressed_size == MAXU32)

  003be	b8 ff ff ff ff	 mov	 eax, -1			; ffffffffH
  003c3	48 39 45 9f	 cmp	 QWORD PTR file_info$[rbp-145], rax
  003c7	75 1f		 jne	 SHORT $LN48@unz64local

; 990  :                 {
; 991  :                     if (unz64local_getLong64(&s->z_filefunc, s->filestream,&file_info.uncompressed_size) != UNZ_OK)

  003c9	48 8b 56 60	 mov	 rdx, QWORD PTR [rsi+96]
  003cd	4c 8d 45 9f	 lea	 r8, QWORD PTR file_info$[rbp-145]
  003d1	48 8b ce	 mov	 rcx, rsi
  003d4	e8 00 00 00 00	 call	 unz64local_getLong64
  003d9	44 8b 7d ab	 mov	 r15d, DWORD PTR file_info$[rbp-133]
  003dd	85 c0		 test	 eax, eax
  003df	b8 ff ff ff ff	 mov	 eax, -1			; ffffffffH
  003e4	41 0f 45 fe	 cmovne	 edi, r14d
$LN48@unz64local:

; 992  :                         err=UNZ_ERRNO;
; 993  :                 }
; 994  : 
; 995  :                 if(file_info.compressed_size == MAXU32)

  003e8	48 39 45 97	 cmp	 QWORD PTR file_info$[rbp-153], rax
  003ec	75 1f		 jne	 SHORT $LN50@unz64local

; 996  :                 {
; 997  :                     if (unz64local_getLong64(&s->z_filefunc, s->filestream,&file_info.compressed_size) != UNZ_OK)

  003ee	48 8b 56 60	 mov	 rdx, QWORD PTR [rsi+96]
  003f2	4c 8d 45 97	 lea	 r8, QWORD PTR file_info$[rbp-153]
  003f6	48 8b ce	 mov	 rcx, rsi
  003f9	e8 00 00 00 00	 call	 unz64local_getLong64
  003fe	44 8b 7d ab	 mov	 r15d, DWORD PTR file_info$[rbp-133]
  00402	85 c0		 test	 eax, eax
  00404	b8 ff ff ff ff	 mov	 eax, -1			; ffffffffH
  00409	41 0f 45 fe	 cmovne	 edi, r14d
$LN50@unz64local:

; 998  :                         err=UNZ_ERRNO;
; 999  :                 }
; 1000 : 
; 1001 :                 if(file_info_internal.offset_curfile == MAXU32)

  0040d	48 3b d8	 cmp	 rbx, rax
  00410	75 21		 jne	 SHORT $LN52@unz64local

; 1002 :                 {
; 1003 :                     /* Relative Header offset */
; 1004 :                     if (unz64local_getLong64(&s->z_filefunc, s->filestream,&file_info_internal.offset_curfile) != UNZ_OK)

  00412	48 8b 56 60	 mov	 rdx, QWORD PTR [rsi+96]
  00416	4c 8d 44 24 28	 lea	 r8, QWORD PTR file_info_internal$[rsp]
  0041b	48 8b ce	 mov	 rcx, rsi
  0041e	e8 00 00 00 00	 call	 unz64local_getLong64
  00423	48 8b 5c 24 28	 mov	 rbx, QWORD PTR file_info_internal$[rsp]
  00428	85 c0		 test	 eax, eax
  0042a	b8 ff ff ff ff	 mov	 eax, -1			; ffffffffH
  0042f	41 0f 45 fe	 cmovne	 edi, r14d
$LN52@unz64local:

; 1005 :                         err=UNZ_ERRNO;
; 1006 :                 }
; 1007 : 
; 1008 :                 if(file_info.disk_num_start == MAXU32)

  00433	39 45 b3	 cmp	 DWORD PTR file_info$[rbp-125], eax
  00436	75 34		 jne	 SHORT $LN55@unz64local

; 1009 :                 {
; 1010 :                     /* Disk Start Number */
; 1011 :                     if (unz64local_getLong(&s->z_filefunc, s->filestream,&uL) != UNZ_OK)

  00438	48 8b 56 60	 mov	 rdx, QWORD PTR [rsi+96]
  0043c	4c 8d 45 df	 lea	 r8, QWORD PTR uL$3[rbp-177]
  00440	48 8b ce	 mov	 rcx, rsi
  00443	e8 00 00 00 00	 call	 unz64local_getLong
  00448	85 c0		 test	 eax, eax
  0044a	74 20		 je	 SHORT $LN55@unz64local

; 1012 :                         err=UNZ_ERRNO;

  0044c	41 8b fe	 mov	 edi, r14d

; 1013 :                 }
; 1014 : 
; 1015 :             }

  0044f	eb 1b		 jmp	 SHORT $LN55@unz64local
$LN45@unz64local:

; 1016 :             else
; 1017 :             {
; 1018 :                 if (ZSEEK64(s->z_filefunc, s->filestream,dataSize,ZLIB_FILEFUNC_SEEK_CUR)!=0)

  00451	48 8b 56 60	 mov	 rdx, QWORD PTR [rsi+96]
  00455	4d 8b c5	 mov	 r8, r13
  00458	41 b9 01 00 00
	00		 mov	 r9d, 1
  0045e	48 8b ce	 mov	 rcx, rsi
  00461	e8 00 00 00 00	 call	 call_zseek64
  00466	85 c0		 test	 eax, eax
  00468	41 0f 45 fe	 cmovne	 edi, r14d
$LN55@unz64local:

; 1019 :                     err=UNZ_ERRNO;
; 1020 :             }
; 1021 : 
; 1022 :             acc += 2 + 2 + dataSize;

  0046c	41 83 c4 04	 add	 r12d, 4
  00470	45 03 e5	 add	 r12d, r13d
  00473	45 3b e7	 cmp	 r12d, r15d
  00476	0f 82 04 ff ff
	ff		 jb	 $LL2@unz64local
  0047c	44 8b 75 3f	 mov	 r14d, DWORD PTR lSeek$1$[rbp-177]
  00480	4c 8b 6d 47	 mov	 r13, QWORD PTR pfile_info$[rbp-177]
$LN3@unz64local:

; 1023 :         }
; 1024 :     }
; 1025 : 
; 1026 :     if ((err==UNZ_OK) && (szComment!=NULL))

  00484	85 ff		 test	 edi, edi
  00486	0f 85 c3 00 00
	00		 jne	 $LN66@unz64local
$LN74@unz64local:
  0048c	48 8b 4d 77	 mov	 rcx, QWORD PTR szComment$[rbp-177]
  00490	48 85 c9	 test	 rcx, rcx
  00493	74 70		 je	 SHORT $LN75@unz64local

; 1027 :     {
; 1028 :         uLong uSizeRead ;
; 1029 :         if (file_info.size_file_comment<commentBufferSize)

  00495	44 8b 7d af	 mov	 r15d, DWORD PTR file_info$[rbp-129]
  00499	44 8b 65 7f	 mov	 r12d, DWORD PTR commentBufferSize$[rbp-177]
  0049d	45 3b fc	 cmp	 r15d, r12d
  004a0	73 0b		 jae	 SHORT $LN58@unz64local

; 1030 :         {
; 1031 :             *(szComment+file_info.size_file_comment)='\0';

  004a2	41 c6 04 0f 00	 mov	 BYTE PTR [r15+rcx], 0

; 1032 :             uSizeRead = file_info.size_file_comment;

  004a7	44 89 7d 3f	 mov	 DWORD PTR uSizeRead$1$[rbp-177], r15d

; 1033 :         }

  004ab	eb 04		 jmp	 SHORT $LN59@unz64local
$LN58@unz64local:

; 1034 :         else
; 1035 :             uSizeRead = commentBufferSize;

  004ad	44 89 65 3f	 mov	 DWORD PTR uSizeRead$1$[rbp-177], r12d
$LN59@unz64local:

; 1036 : 
; 1037 :         if (lSeek!=0)

  004b1	45 85 f6	 test	 r14d, r14d
  004b4	74 23		 je	 SHORT $LN62@unz64local

; 1038 :         {
; 1039 :             if (ZSEEK64(s->z_filefunc, s->filestream,(ZPOS64_T)lSeek,ZLIB_FILEFUNC_SEEK_CUR)==0)

  004b6	48 8b 56 60	 mov	 rdx, QWORD PTR [rsi+96]
  004ba	41 b9 01 00 00
	00		 mov	 r9d, 1
  004c0	4d 63 c6	 movsxd	 r8, r14d
  004c3	48 8b ce	 mov	 rcx, rsi
  004c6	e8 00 00 00 00	 call	 call_zseek64
  004cb	48 8b 4d 77	 mov	 rcx, QWORD PTR szComment$[rbp-177]
  004cf	85 c0		 test	 eax, eax
  004d1	b8 ff ff ff ff	 mov	 eax, -1
  004d6	0f 45 f8	 cmovne	 edi, eax
$LN62@unz64local:

; 1040 :                 lSeek=0;
; 1041 :             else
; 1042 :                 err=UNZ_ERRNO;
; 1043 :         }
; 1044 : 
; 1045 :         if ((file_info.size_file_comment>0) && (commentBufferSize>0))

  004d9	45 85 ff	 test	 r15d, r15d
  004dc	74 23		 je	 SHORT $LN64@unz64local
  004de	45 85 e4	 test	 r12d, r12d
  004e1	74 1e		 je	 SHORT $LN64@unz64local

; 1046 :             if (ZREAD64(s->z_filefunc, s->filestream,szComment,uSizeRead)!=uSizeRead)

  004e3	44 8b 4d 3f	 mov	 r9d, DWORD PTR uSizeRead$1$[rbp-177]
  004e7	4c 8b c1	 mov	 r8, rcx
  004ea	48 8b 4e 38	 mov	 rcx, QWORD PTR [rsi+56]
  004ee	48 8b 56 60	 mov	 rdx, QWORD PTR [rsi+96]
  004f2	ff 56 08	 call	 QWORD PTR [rsi+8]
  004f5	3b 45 3f	 cmp	 eax, DWORD PTR uSizeRead$1$[rbp-177]
  004f8	74 07		 je	 SHORT $LN64@unz64local

; 1047 :                 err=UNZ_ERRNO;

  004fa	bf ff ff ff ff	 mov	 edi, -1

; 1048 :         lSeek+=file_info.size_file_comment - uSizeRead;
; 1049 :     }
; 1050 :     else
; 1051 :         lSeek+=file_info.size_file_comment;
; 1052 : 
; 1053 : 
; 1054 :     if ((err==UNZ_OK) && (pfile_info!=NULL))

  004ff	eb 4e		 jmp	 SHORT $LN66@unz64local
$LN64@unz64local:
  00501	85 ff		 test	 edi, edi
  00503	75 4a		 jne	 SHORT $LN66@unz64local
$LN75@unz64local:
  00505	4d 85 ed	 test	 r13, r13
  00508	74 39		 je	 SHORT $LN76@unz64local

; 1055 :         *pfile_info=file_info;

  0050a	0f 28 44 24 30	 movaps	 xmm0, XMMWORD PTR file_info$[rsp]
  0050f	0f 28 4d 8f	 movaps	 xmm1, XMMWORD PTR file_info$[rbp-161]
  00513	41 0f 11 45 00	 movups	 XMMWORD PTR [r13], xmm0
  00518	0f 28 45 9f	 movaps	 xmm0, XMMWORD PTR file_info$[rbp-145]
  0051c	41 0f 11 4d 10	 movups	 XMMWORD PTR [r13+16], xmm1
  00521	0f 28 4d af	 movaps	 xmm1, XMMWORD PTR file_info$[rbp-129]
  00525	41 0f 11 45 20	 movups	 XMMWORD PTR [r13+32], xmm0
  0052a	0f 28 45 bf	 movaps	 xmm0, XMMWORD PTR file_info$[rbp-113]
  0052e	41 0f 11 4d 30	 movups	 XMMWORD PTR [r13+48], xmm1
  00533	f2 0f 10 4d cf	 movsd	 xmm1, QWORD PTR file_info$[rbp-97]
  00538	41 0f 11 45 40	 movups	 XMMWORD PTR [r13+64], xmm0
  0053d	f2 41 0f 11 4d
	50		 movsd	 QWORD PTR [r13+80], xmm1
$LN76@unz64local:

; 1056 : 
; 1057 :     if ((err==UNZ_OK) && (pfile_info_internal!=NULL))

  00543	48 8b 45 4f	 mov	 rax, QWORD PTR pfile_info_internal$[rbp-177]
  00547	48 85 c0	 test	 rax, rax
  0054a	74 03		 je	 SHORT $LN66@unz64local

; 1058 :         *pfile_info_internal=file_info_internal;

  0054c	48 89 18	 mov	 QWORD PTR [rax], rbx
$LN66@unz64local:

; 1059 : 
; 1060 :     return err;

  0054f	4c 8b bc 24 a8
	00 00 00	 mov	 r15, QWORD PTR [rsp+168]
  00557	8b c7		 mov	 eax, edi
  00559	48 8b bc 24 b8
	00 00 00	 mov	 rdi, QWORD PTR [rsp+184]
  00561	4c 8b b4 24 b0
	00 00 00	 mov	 r14, QWORD PTR [rsp+176]
  00569	48 8b 9c 24 c0
	00 00 00	 mov	 rbx, QWORD PTR [rsp+192]

; 1061 : }

  00571	48 81 c4 c8 00
	00 00		 add	 rsp, 200		; 000000c8H
  00578	41 5d		 pop	 r13
  0057a	41 5c		 pop	 r12
  0057c	5e		 pop	 rsi
  0057d	5d		 pop	 rbp
  0057e	c3		 ret	 0
unz64local_GetCurrentFileInfoInternal ENDP
_TEXT	ENDS
; Function compile flags: /Ogtpy
; File C:\Users\chris\Documents\GitHub\FastCopy-M\external\zlib\contrib\minizip\unzip.c
;	COMDAT unzGetCurrentFileInfo64
_TEXT	SEGMENT
file$ = 96
pfile_info$ = 104
szFileName$ = 112
fileNameBufferSize$ = 120
extraField$ = 128
extraFieldBufferSize$ = 136
szComment$ = 144
commentBufferSize$ = 152
unzGetCurrentFileInfo64 PROC				; COMDAT

; 1074 :                                            char* szComment,  uLong commentBufferSize) {

$LN4:
  00000	48 83 ec 58	 sub	 rsp, 88			; 00000058H

; 1075 :     return unz64local_GetCurrentFileInfoInternal(file,pfile_info,NULL,

  00004	8b 84 24 98 00
	00 00		 mov	 eax, DWORD PTR commentBufferSize$[rsp]
  0000b	89 44 24 40	 mov	 DWORD PTR [rsp+64], eax
  0000f	48 8b 84 24 90
	00 00 00	 mov	 rax, QWORD PTR szComment$[rsp]
  00017	48 89 44 24 38	 mov	 QWORD PTR [rsp+56], rax
  0001c	8b 84 24 88 00
	00 00		 mov	 eax, DWORD PTR extraFieldBufferSize$[rsp]
  00023	89 44 24 30	 mov	 DWORD PTR [rsp+48], eax
  00027	48 8b 84 24 80
	00 00 00	 mov	 rax, QWORD PTR extraField$[rsp]
  0002f	48 89 44 24 28	 mov	 QWORD PTR [rsp+40], rax
  00034	44 89 4c 24 20	 mov	 DWORD PTR [rsp+32], r9d
  00039	4d 8b c8	 mov	 r9, r8
  0003c	45 33 c0	 xor	 r8d, r8d
  0003f	e8 00 00 00 00	 call	 unz64local_GetCurrentFileInfoInternal

; 1076 :                                                  szFileName,fileNameBufferSize,
; 1077 :                                                  extraField,extraFieldBufferSize,
; 1078 :                                                  szComment,commentBufferSize);
; 1079 : }

  00044	48 83 c4 58	 add	 rsp, 88			; 00000058H
  00048	c3		 ret	 0
unzGetCurrentFileInfo64 ENDP
_TEXT	ENDS
; Function compile flags: /Ogtpy
; File C:\Users\chris\Documents\GitHub\FastCopy-M\external\zlib\contrib\minizip\unzip.c
;	COMDAT unzGetCurrentFileInfo
_TEXT	SEGMENT
file_info64$ = 80
file$ = 192
pfile_info$ = 200
szFileName$ = 208
fileNameBufferSize$ = 216
extraField$ = 224
extraFieldBufferSize$ = 232
szComment$ = 240
commentBufferSize$ = 248
unzGetCurrentFileInfo PROC				; COMDAT

; 1085 :                                          char* szComment,  uLong commentBufferSize) {

$LN9:
  00000	40 53		 push	 rbx
  00002	48 81 ec b0 00
	00 00		 sub	 rsp, 176		; 000000b0H

; 1086 :     int err;
; 1087 :     unz_file_info64 file_info64;
; 1088 :     err = unz64local_GetCurrentFileInfoInternal(file,&file_info64,NULL,

  00009	8b 84 24 f8 00
	00 00		 mov	 eax, DWORD PTR commentBufferSize$[rsp]
  00010	48 8b da	 mov	 rbx, rdx
  00013	89 44 24 40	 mov	 DWORD PTR [rsp+64], eax
  00017	48 8d 54 24 50	 lea	 rdx, QWORD PTR file_info64$[rsp]
  0001c	48 8b 84 24 f0
	00 00 00	 mov	 rax, QWORD PTR szComment$[rsp]
  00024	48 89 44 24 38	 mov	 QWORD PTR [rsp+56], rax
  00029	8b 84 24 e8 00
	00 00		 mov	 eax, DWORD PTR extraFieldBufferSize$[rsp]
  00030	89 44 24 30	 mov	 DWORD PTR [rsp+48], eax
  00034	48 8b 84 24 e0
	00 00 00	 mov	 rax, QWORD PTR extraField$[rsp]
  0003c	48 89 44 24 28	 mov	 QWORD PTR [rsp+40], rax
  00041	44 89 4c 24 20	 mov	 DWORD PTR [rsp+32], r9d
  00046	4d 8b c8	 mov	 r9, r8
  00049	45 33 c0	 xor	 r8d, r8d
  0004c	e8 00 00 00 00	 call	 unz64local_GetCurrentFileInfoInternal
  00051	8b d0		 mov	 edx, eax

; 1089 :                                                 szFileName,fileNameBufferSize,
; 1090 :                                                 extraField,extraFieldBufferSize,
; 1091 :                                                 szComment,commentBufferSize);
; 1092 :     if ((err==UNZ_OK) && (pfile_info != NULL))

  00053	85 c0		 test	 eax, eax
  00055	0f 85 92 00 00
	00		 jne	 $LN2@unzGetCurr
  0005b	48 85 db	 test	 rbx, rbx
  0005e	0f 84 89 00 00
	00		 je	 $LN2@unzGetCurr

; 1093 :     {
; 1094 :         pfile_info->version = file_info64.version;
; 1095 :         pfile_info->version_needed = file_info64.version_needed;
; 1096 :         pfile_info->flag = file_info64.flag;
; 1097 :         pfile_info->compression_method = file_info64.compression_method;
; 1098 :         pfile_info->dosDate = file_info64.dosDate;

  00064	8b 44 24 60	 mov	 eax, DWORD PTR file_info64$[rsp+16]
  00068	8b 4c 24 50	 mov	 ecx, DWORD PTR file_info64$[rsp]

; 1099 :         pfile_info->crc = file_info64.crc;
; 1100 : 
; 1101 :         pfile_info->size_filename = file_info64.size_filename;
; 1102 :         pfile_info->size_file_extra = file_info64.size_file_extra;
; 1103 :         pfile_info->size_file_comment = file_info64.size_file_comment;
; 1104 : 
; 1105 :         pfile_info->disk_num_start = file_info64.disk_num_start;
; 1106 :         pfile_info->internal_fa = file_info64.internal_fa;
; 1107 :         pfile_info->external_fa = file_info64.external_fa;
; 1108 : 
; 1109 :         pfile_info->tmu_date = file_info64.tmu_date,

  0006c	0f 28 84 24 90
	00 00 00	 movaps	 xmm0, XMMWORD PTR file_info64$[rsp+64]
  00074	f2 0f 10 8c 24
	a0 00 00 00	 movsd	 xmm1, QWORD PTR file_info64$[rsp+80]
  0007d	89 43 10	 mov	 DWORD PTR [rbx+16], eax
  00080	8b 44 24 64	 mov	 eax, DWORD PTR file_info64$[rsp+20]
  00084	89 43 14	 mov	 DWORD PTR [rbx+20], eax
  00087	8b 44 24 78	 mov	 eax, DWORD PTR file_info64$[rsp+40]
  0008b	89 43 20	 mov	 DWORD PTR [rbx+32], eax
  0008e	8b 44 24 7c	 mov	 eax, DWORD PTR file_info64$[rsp+44]
  00092	89 43 24	 mov	 DWORD PTR [rbx+36], eax
  00095	8b 84 24 80 00
	00 00		 mov	 eax, DWORD PTR file_info64$[rsp+48]
  0009c	89 43 28	 mov	 DWORD PTR [rbx+40], eax
  0009f	8b 84 24 84 00
	00 00		 mov	 eax, DWORD PTR file_info64$[rsp+52]
  000a6	89 43 2c	 mov	 DWORD PTR [rbx+44], eax
  000a9	8b 84 24 88 00
	00 00		 mov	 eax, DWORD PTR file_info64$[rsp+56]
  000b0	89 43 30	 mov	 DWORD PTR [rbx+48], eax
  000b3	8b 84 24 8c 00
	00 00		 mov	 eax, DWORD PTR file_info64$[rsp+60]
  000ba	89 0b		 mov	 DWORD PTR [rbx], ecx
  000bc	8b 4c 24 54	 mov	 ecx, DWORD PTR file_info64$[rsp+4]
  000c0	89 43 34	 mov	 DWORD PTR [rbx+52], eax
  000c3	8b 44 24 68	 mov	 eax, DWORD PTR file_info64$[rsp+24]
  000c7	89 4b 04	 mov	 DWORD PTR [rbx+4], ecx
  000ca	8b 4c 24 58	 mov	 ecx, DWORD PTR file_info64$[rsp+8]
  000ce	89 43 18	 mov	 DWORD PTR [rbx+24], eax

; 1110 : 
; 1111 : 
; 1112 :         pfile_info->compressed_size = (uLong)file_info64.compressed_size;
; 1113 :         pfile_info->uncompressed_size = (uLong)file_info64.uncompressed_size;

  000d1	8b 44 24 70	 mov	 eax, DWORD PTR file_info64$[rsp+32]
  000d5	89 4b 08	 mov	 DWORD PTR [rbx+8], ecx
  000d8	8b 4c 24 5c	 mov	 ecx, DWORD PTR file_info64$[rsp+12]
  000dc	89 43 1c	 mov	 DWORD PTR [rbx+28], eax

; 1114 : 
; 1115 :     }
; 1116 :     return err;

  000df	8b c2		 mov	 eax, edx
  000e1	0f 11 43 38	 movups	 XMMWORD PTR [rbx+56], xmm0
  000e5	89 4b 0c	 mov	 DWORD PTR [rbx+12], ecx
  000e8	f2 0f 11 4b 48	 movsd	 QWORD PTR [rbx+72], xmm1
$LN2@unzGetCurr:

; 1117 : }

  000ed	48 81 c4 b0 00
	00 00		 add	 rsp, 176		; 000000b0H
  000f4	5b		 pop	 rbx
  000f5	c3		 ret	 0
unzGetCurrentFileInfo ENDP
_TEXT	ENDS
; Function compile flags: /Ogtpy
; File C:\Users\chris\Documents\GitHub\FastCopy-M\external\zlib\contrib\minizip\unzip.c
;	COMDAT unzGoToFirstFile
_TEXT	SEGMENT
file$ = 96
unzGoToFirstFile PROC					; COMDAT

; 1122 : extern int ZEXPORT unzGoToFirstFile(unzFile file) {

$LN6:
  00000	40 57		 push	 rdi
  00002	48 83 ec 50	 sub	 rsp, 80			; 00000050H
  00006	48 8b f9	 mov	 rdi, rcx

; 1123 :     int err=UNZ_OK;
; 1124 :     unz64_s* s;
; 1125 :     if (file==NULL)

  00009	48 85 c9	 test	 rcx, rcx
  0000c	75 09		 jne	 SHORT $LN2@unzGoToFir

; 1126 :         return UNZ_PARAMERROR;

  0000e	8d 41 9a	 lea	 eax, QWORD PTR [rcx-102]

; 1135 : }

  00011	48 83 c4 50	 add	 rsp, 80			; 00000050H
  00015	5f		 pop	 rdi
  00016	c3		 ret	 0
$LN2@unzGoToFir:

; 1127 :     s=(unz64_s*)file;
; 1128 :     s->pos_in_central_dir=s->offset_central_dir;

  00017	48 8b 81 a8 00
	00 00		 mov	 rax, QWORD PTR [rcx+168]

; 1129 :     s->num_file=0;
; 1130 :     err=unz64local_GetCurrentFileInfoInternal(file,&s->cur_file_info,

  0001e	4c 8d 81 08 01
	00 00		 lea	 r8, QWORD PTR [rcx+264]
  00025	48 89 5c 24 60	 mov	 QWORD PTR [rsp+96], rbx
  0002a	48 8d 91 b0 00
	00 00		 lea	 rdx, QWORD PTR [rcx+176]
  00031	33 db		 xor	 ebx, ebx
  00033	48 89 81 88 00
	00 00		 mov	 QWORD PTR [rcx+136], rax
  0003a	89 5c 24 40	 mov	 DWORD PTR [rsp+64], ebx
  0003e	45 33 c9	 xor	 r9d, r9d
  00041	48 89 5c 24 38	 mov	 QWORD PTR [rsp+56], rbx
  00046	89 5c 24 30	 mov	 DWORD PTR [rsp+48], ebx
  0004a	48 89 5c 24 28	 mov	 QWORD PTR [rsp+40], rbx
  0004f	89 5c 24 20	 mov	 DWORD PTR [rsp+32], ebx
  00053	48 89 99 80 00
	00 00		 mov	 QWORD PTR [rcx+128], rbx
  0005a	e8 00 00 00 00	 call	 unz64local_GetCurrentFileInfoInternal

; 1131 :                                              &s->cur_file_info_internal,
; 1132 :                                              NULL,0,NULL,0,NULL,0);
; 1133 :     s->current_file_ok = (err == UNZ_OK);

  0005f	85 c0		 test	 eax, eax
  00061	0f 94 c3	 sete	 bl
  00064	48 89 9f 90 00
	00 00		 mov	 QWORD PTR [rdi+144], rbx

; 1134 :     return err;

  0006b	48 8b 5c 24 60	 mov	 rbx, QWORD PTR [rsp+96]

; 1135 : }

  00070	48 83 c4 50	 add	 rsp, 80			; 00000050H
  00074	5f		 pop	 rdi
  00075	c3		 ret	 0
unzGoToFirstFile ENDP
_TEXT	ENDS
; Function compile flags: /Ogtpy
; File C:\Users\chris\Documents\GitHub\FastCopy-M\external\zlib\contrib\minizip\unzip.c
;	COMDAT unzGoToNextFile
_TEXT	SEGMENT
file$ = 96
unzGoToNextFile PROC					; COMDAT

; 1142 : extern int ZEXPORT unzGoToNextFile(unzFile file) {

$LN15:
  00000	40 57		 push	 rdi
  00002	48 83 ec 50	 sub	 rsp, 80			; 00000050H
  00006	48 8b f9	 mov	 rdi, rcx

; 1143 :     unz64_s* s;
; 1144 :     int err;
; 1145 : 
; 1146 :     if (file==NULL)

  00009	48 85 c9	 test	 rcx, rcx
  0000c	75 09		 jne	 SHORT $LN2@unzGoToNex

; 1147 :         return UNZ_PARAMERROR;

  0000e	8d 41 9a	 lea	 eax, QWORD PTR [rcx-102]

; 1163 : }

  00011	48 83 c4 50	 add	 rsp, 80			; 00000050H
  00015	5f		 pop	 rdi
  00016	c3		 ret	 0
$LN2@unzGoToNex:

; 1148 :     s=(unz64_s*)file;
; 1149 :     if (!s->current_file_ok)

  00017	48 83 b9 90 00
	00 00 00	 cmp	 QWORD PTR [rcx+144], 0
  0001f	0f 84 8e 00 00
	00		 je	 $LN9@unzGoToNex

; 1150 :         return UNZ_END_OF_LIST_OF_FILE;
; 1151 :     if (s->gi.number_entry != 0xffff)    /* 2^16 files overflow hack */

  00025	48 8b 49 68	 mov	 rcx, QWORD PTR [rcx+104]
  00029	48 81 f9 ff ff
	00 00		 cmp	 rcx, 65535		; 0000ffffH
  00030	74 0f		 je	 SHORT $LN8@unzGoToNex

; 1152 :       if (s->num_file+1==s->gi.number_entry)

  00032	48 8b 87 80 00
	00 00		 mov	 rax, QWORD PTR [rdi+128]
  00039	48 ff c0	 inc	 rax
  0003c	48 3b c1	 cmp	 rax, rcx
  0003f	74 72		 je	 SHORT $LN9@unzGoToNex
$LN8@unzGoToNex:

; 1154 : 
; 1155 :     s->pos_in_central_dir += SIZECENTRALDIRITEM + s->cur_file_info.size_filename +

  00041	8b 8f e0 00 00
	00		 mov	 ecx, DWORD PTR [rdi+224]

; 1156 :             s->cur_file_info.size_file_extra + s->cur_file_info.size_file_comment ;
; 1157 :     s->num_file++;
; 1158 :     err = unz64local_GetCurrentFileInfoInternal(file,&s->cur_file_info,

  00047	4c 8d 87 08 01
	00 00		 lea	 r8, QWORD PTR [rdi+264]
  0004e	8b 87 d8 00 00
	00		 mov	 eax, DWORD PTR [rdi+216]
  00054	48 8d 97 b0 00
	00 00		 lea	 rdx, QWORD PTR [rdi+176]
  0005b	03 8f dc 00 00
	00		 add	 ecx, DWORD PTR [rdi+220]
  00061	83 c0 2e	 add	 eax, 46			; 0000002eH
  00064	48 ff 87 80 00
	00 00		 inc	 QWORD PTR [rdi+128]
  0006b	03 c1		 add	 eax, ecx
  0006d	48 01 87 88 00
	00 00		 add	 QWORD PTR [rdi+136], rax
  00074	45 33 c9	 xor	 r9d, r9d
  00077	48 89 5c 24 60	 mov	 QWORD PTR [rsp+96], rbx
  0007c	48 8b cf	 mov	 rcx, rdi
  0007f	33 db		 xor	 ebx, ebx
  00081	89 5c 24 40	 mov	 DWORD PTR [rsp+64], ebx
  00085	48 89 5c 24 38	 mov	 QWORD PTR [rsp+56], rbx
  0008a	89 5c 24 30	 mov	 DWORD PTR [rsp+48], ebx
  0008e	48 89 5c 24 28	 mov	 QWORD PTR [rsp+40], rbx
  00093	89 5c 24 20	 mov	 DWORD PTR [rsp+32], ebx
  00097	e8 00 00 00 00	 call	 unz64local_GetCurrentFileInfoInternal

; 1159 :                                                &s->cur_file_info_internal,
; 1160 :                                                NULL,0,NULL,0,NULL,0);
; 1161 :     s->current_file_ok = (err == UNZ_OK);

  0009c	85 c0		 test	 eax, eax
  0009e	0f 94 c3	 sete	 bl
  000a1	48 89 9f 90 00
	00 00		 mov	 QWORD PTR [rdi+144], rbx

; 1162 :     return err;

  000a8	48 8b 5c 24 60	 mov	 rbx, QWORD PTR [rsp+96]

; 1163 : }

  000ad	48 83 c4 50	 add	 rsp, 80			; 00000050H
  000b1	5f		 pop	 rdi
  000b2	c3		 ret	 0
$LN9@unzGoToNex:

; 1153 :         return UNZ_END_OF_LIST_OF_FILE;

  000b3	b8 9c ff ff ff	 mov	 eax, -100		; ffffffffffffff9cH

; 1163 : }

  000b8	48 83 c4 50	 add	 rsp, 80			; 00000050H
  000bc	5f		 pop	 rdi
  000bd	c3		 ret	 0
unzGoToNextFile ENDP
_TEXT	ENDS
; Function compile flags: /Ogtpy
; File C:\Users\chris\Documents\GitHub\FastCopy-M\external\zlib\contrib\minizip\unzip.c
;	COMDAT unzLocateFile
_TEXT	SEGMENT
cur_file_infoSaved$1$ = 64
cur_file_infoSaved$2$ = 80
cur_file_infoSaved$3$ = 96
cur_file_infoSaved$4$ = 112
cur_file_infoSaved$5$ = 128
szCurrentFileName$1 = 144
cur_file_infoSaved$6$ = 464
file$ = 464
szFileName$ = 472
iCaseSensitivity$ = 480
unzLocateFile PROC					; COMDAT

; 1174 : extern int ZEXPORT unzLocateFile(unzFile file, const char *szFileName, int iCaseSensitivity) {

$LN30:
  00000	40 55		 push	 rbp
  00002	56		 push	 rsi
  00003	57		 push	 rdi
  00004	48 81 ec b0 01
	00 00		 sub	 rsp, 432		; 000001b0H
  0000b	41 8b e8	 mov	 ebp, r8d
  0000e	48 8b f2	 mov	 rsi, rdx
  00011	48 8b f9	 mov	 rdi, rcx

; 1175 :     unz64_s* s;
; 1176 :     int err;
; 1177 : 
; 1178 :     /* We remember the 'current' position in the file so that we can jump
; 1179 :      * back there if we fail.
; 1180 :      */
; 1181 :     unz_file_info64 cur_file_infoSaved;
; 1182 :     unz_file_info64_internal cur_file_info_internalSaved;
; 1183 :     ZPOS64_T num_fileSaved;
; 1184 :     ZPOS64_T pos_in_central_dirSaved;
; 1185 : 
; 1186 : 
; 1187 :     if (file==NULL)

  00014	48 85 c9	 test	 rcx, rcx
  00017	0f 84 be 01 00
	00		 je	 $LN15@unzLocateF

; 1188 :         return UNZ_PARAMERROR;
; 1189 : 
; 1190 :     if (strlen(szFileName)>=UNZ_MAXFILENAMEINZIP)

  0001d	48 c7 c0 ff ff
	ff ff		 mov	 rax, -1
$LL17@unzLocateF:
  00024	48 ff c0	 inc	 rax
  00027	80 3c 02 00	 cmp	 BYTE PTR [rdx+rax], 0
  0002b	75 f7		 jne	 SHORT $LL17@unzLocateF
  0002d	48 3d 00 01 00
	00		 cmp	 rax, 256		; 00000100H
  00033	0f 83 a2 01 00
	00		 jae	 $LN15@unzLocateF

; 1192 : 
; 1193 :     s=(unz64_s*)file;
; 1194 :     if (!s->current_file_ok)

  00039	48 83 b9 90 00
	00 00 00	 cmp	 QWORD PTR [rcx+144], 0
  00041	75 10		 jne	 SHORT $LN6@unzLocateF

; 1195 :         return UNZ_END_OF_LIST_OF_FILE;

  00043	b8 9c ff ff ff	 mov	 eax, -100		; ffffffffffffff9cH

; 1227 :     return err;
; 1228 : }

  00048	48 81 c4 b0 01
	00 00		 add	 rsp, 432		; 000001b0H
  0004f	5f		 pop	 rdi
  00050	5e		 pop	 rsi
  00051	5d		 pop	 rbp
  00052	c3		 ret	 0
$LN6@unzLocateF:

; 1196 : 
; 1197 :     /* Save the current state */
; 1198 :     num_fileSaved = s->num_file;
; 1199 :     pos_in_central_dirSaved = s->pos_in_central_dir;
; 1200 :     cur_file_infoSaved = s->cur_file_info;

  00053	0f 10 81 b0 00
	00 00		 movups	 xmm0, XMMWORD PTR [rcx+176]
  0005a	48 89 9c 24 d8
	01 00 00	 mov	 QWORD PTR [rsp+472], rbx

; 1201 :     cur_file_info_internalSaved = s->cur_file_info_internal;

  00062	48 8b 99 08 01
	00 00		 mov	 rbx, QWORD PTR [rcx+264]
  00069	0f 11 44 24 40	 movups	 XMMWORD PTR cur_file_infoSaved$1$[rsp], xmm0
  0006e	4c 89 a4 24 e0
	01 00 00	 mov	 QWORD PTR [rsp+480], r12
  00076	0f 10 81 c0 00
	00 00		 movups	 xmm0, XMMWORD PTR [rcx+192]
  0007d	4c 89 b4 24 a8
	01 00 00	 mov	 QWORD PTR [rsp+424], r14
  00085	4c 8b b1 80 00
	00 00		 mov	 r14, QWORD PTR [rcx+128]
  0008c	0f 11 44 24 50	 movups	 XMMWORD PTR cur_file_infoSaved$2$[rsp], xmm0
  00091	4c 89 bc 24 a0
	01 00 00	 mov	 QWORD PTR [rsp+416], r15
  00099	0f 10 81 d0 00
	00 00		 movups	 xmm0, XMMWORD PTR [rcx+208]
  000a0	4c 8b b9 88 00
	00 00		 mov	 r15, QWORD PTR [rcx+136]
  000a7	0f 11 44 24 60	 movups	 XMMWORD PTR cur_file_infoSaved$3$[rsp], xmm0
  000ac	0f 10 81 e0 00
	00 00		 movups	 xmm0, XMMWORD PTR [rcx+224]
  000b3	0f 11 44 24 70	 movups	 XMMWORD PTR cur_file_infoSaved$4$[rsp], xmm0
  000b8	0f 10 81 f0 00
	00 00		 movups	 xmm0, XMMWORD PTR [rcx+240]
  000bf	0f 11 84 24 80
	00 00 00	 movups	 XMMWORD PTR cur_file_infoSaved$5$[rsp], xmm0
  000c7	f2 0f 10 81 00
	01 00 00	 movsd	 xmm0, QWORD PTR [rcx+256]
  000cf	f2 0f 11 84 24
	d0 01 00 00	 movsd	 QWORD PTR cur_file_infoSaved$6$[rsp], xmm0

; 1202 : 
; 1203 :     err = unzGoToFirstFile(file);

  000d8	e8 00 00 00 00	 call	 unzGoToFirstFile

; 1204 : 
; 1205 :     while (err == UNZ_OK)

  000dd	85 c0		 test	 eax, eax
  000df	75 66		 jne	 SHORT $LN3@unzLocateF
  000e1	45 33 e4	 xor	 r12d, r12d
  000e4	0f 1f 40 00 0f
	1f 84 00 00 00
	00 00		 npad	 12
$LL2@unzLocateF:

; 1206 :     {
; 1207 :         char szCurrentFileName[UNZ_MAXFILENAMEINZIP+1];
; 1208 :         err = unzGetCurrentFileInfo64(file,NULL,

  000f0	44 89 64 24 38	 mov	 DWORD PTR [rsp+56], r12d
  000f5	4c 8d 84 24 90
	00 00 00	 lea	 r8, QWORD PTR szCurrentFileName$1[rsp]
  000fd	4c 89 64 24 30	 mov	 QWORD PTR [rsp+48], r12
  00102	41 b9 00 01 00
	00		 mov	 r9d, 256		; 00000100H
  00108	44 89 64 24 28	 mov	 DWORD PTR [rsp+40], r12d
  0010d	33 d2		 xor	 edx, edx
  0010f	48 8b cf	 mov	 rcx, rdi
  00112	4c 89 64 24 20	 mov	 QWORD PTR [rsp+32], r12
  00117	e8 00 00 00 00	 call	 unzGetCurrentFileInfo64

; 1209 :                                     szCurrentFileName,sizeof(szCurrentFileName)-1,
; 1210 :                                     NULL,0,NULL,0);
; 1211 :         if (err == UNZ_OK)

  0011c	85 c0		 test	 eax, eax
  0011e	75 27		 jne	 SHORT $LN3@unzLocateF

; 1212 :         {
; 1213 :             if (unzStringFileNameCompare(szCurrentFileName,
; 1214 :                                             szFileName,iCaseSensitivity)==0)

  00120	44 8b c5	 mov	 r8d, ebp
  00123	48 8d 8c 24 90
	00 00 00	 lea	 rcx, QWORD PTR szCurrentFileName$1[rsp]
  0012b	48 8b d6	 mov	 rdx, rsi
  0012e	e8 00 00 00 00	 call	 unzStringFileNameCompare
  00133	85 c0		 test	 eax, eax
  00135	0f 84 9c 00 00
	00		 je	 $LN11@unzLocateF

; 1216 :             err = unzGoToNextFile(file);

  0013b	48 8b cf	 mov	 rcx, rdi
  0013e	e8 00 00 00 00	 call	 unzGoToNextFile
  00143	85 c0		 test	 eax, eax
  00145	74 a9		 je	 SHORT $LL2@unzLocateF
$LN3@unzLocateF:

; 1217 :         }
; 1218 :     }
; 1219 : 
; 1220 :     /* We failed, so restore the state of the 'current file' to where we
; 1221 :      * were.
; 1222 :      */
; 1223 :     s->num_file = num_fileSaved ;
; 1224 :     s->pos_in_central_dir = pos_in_central_dirSaved ;
; 1225 :     s->cur_file_info = cur_file_infoSaved;

  00147	0f 10 44 24 40	 movups	 xmm0, XMMWORD PTR cur_file_infoSaved$1$[rsp]
  0014c	4c 89 b7 80 00
	00 00		 mov	 QWORD PTR [rdi+128], r14
  00153	0f 10 4c 24 50	 movups	 xmm1, XMMWORD PTR cur_file_infoSaved$2$[rsp]
  00158	4c 89 bf 88 00
	00 00		 mov	 QWORD PTR [rdi+136], r15
  0015f	0f 11 87 b0 00
	00 00		 movups	 XMMWORD PTR [rdi+176], xmm0

; 1226 :     s->cur_file_info_internal = cur_file_info_internalSaved;

  00166	48 89 9f 08 01
	00 00		 mov	 QWORD PTR [rdi+264], rbx
  0016d	0f 10 44 24 60	 movups	 xmm0, XMMWORD PTR cur_file_infoSaved$3$[rsp]
  00172	0f 11 8f c0 00
	00 00		 movups	 XMMWORD PTR [rdi+192], xmm1
  00179	0f 10 4c 24 70	 movups	 xmm1, XMMWORD PTR cur_file_infoSaved$4$[rsp]
  0017e	0f 11 87 d0 00
	00 00		 movups	 XMMWORD PTR [rdi+208], xmm0
  00185	0f 10 84 24 80
	00 00 00	 movups	 xmm0, XMMWORD PTR cur_file_infoSaved$5$[rsp]
  0018d	0f 11 8f e0 00
	00 00		 movups	 XMMWORD PTR [rdi+224], xmm1
  00194	0f 11 87 f0 00
	00 00		 movups	 XMMWORD PTR [rdi+240], xmm0
  0019b	f2 0f 10 84 24
	d0 01 00 00	 movsd	 xmm0, QWORD PTR cur_file_infoSaved$6$[rsp]
  001a4	f2 0f 11 87 00
	01 00 00	 movsd	 QWORD PTR [rdi+256], xmm0
$LN28@unzLocateF:
  001ac	4c 8b b4 24 a8
	01 00 00	 mov	 r14, QWORD PTR [rsp+424]
  001b4	4c 8b a4 24 e0
	01 00 00	 mov	 r12, QWORD PTR [rsp+480]
  001bc	48 8b 9c 24 d8
	01 00 00	 mov	 rbx, QWORD PTR [rsp+472]
  001c4	4c 8b bc 24 a0
	01 00 00	 mov	 r15, QWORD PTR [rsp+416]

; 1227 :     return err;
; 1228 : }

  001cc	48 81 c4 b0 01
	00 00		 add	 rsp, 432		; 000001b0H
  001d3	5f		 pop	 rdi
  001d4	5e		 pop	 rsi
  001d5	5d		 pop	 rbp
  001d6	c3		 ret	 0
$LN11@unzLocateF:

; 1215 :                 return UNZ_OK;

  001d7	33 c0		 xor	 eax, eax
  001d9	eb d1		 jmp	 SHORT $LN28@unzLocateF
$LN15@unzLocateF:

; 1191 :         return UNZ_PARAMERROR;

  001db	b8 9a ff ff ff	 mov	 eax, -102		; ffffffffffffff9aH

; 1227 :     return err;
; 1228 : }

  001e0	48 81 c4 b0 01
	00 00		 add	 rsp, 432		; 000001b0H
  001e7	5f		 pop	 rdi
  001e8	5e		 pop	 rsi
  001e9	5d		 pop	 rbp
  001ea	c3		 ret	 0
unzLocateFile ENDP
_TEXT	ENDS
; Function compile flags: /Ogtpy
; File C:\Users\chris\Documents\GitHub\FastCopy-M\external\zlib\contrib\minizip\unzip.c
;	COMDAT unzGetFilePos64
_TEXT	SEGMENT
file$ = 8
file_pos$ = 16
unzGetFilePos64 PROC					; COMDAT

; 1250 :     unz64_s* s;
; 1251 : 
; 1252 :     if (file==NULL || file_pos==NULL)

  00000	48 85 c9	 test	 rcx, rcx
  00003	74 2d		 je	 SHORT $LN3@unzGetFile
  00005	48 85 d2	 test	 rdx, rdx
  00008	74 28		 je	 SHORT $LN3@unzGetFile

; 1254 :     s=(unz64_s*)file;
; 1255 :     if (!s->current_file_ok)

  0000a	48 83 b9 90 00
	00 00 00	 cmp	 QWORD PTR [rcx+144], 0
  00012	75 06		 jne	 SHORT $LN4@unzGetFile

; 1256 :         return UNZ_END_OF_LIST_OF_FILE;

  00014	b8 9c ff ff ff	 mov	 eax, -100		; ffffffffffffff9cH

; 1262 : }

  00019	c3		 ret	 0
$LN4@unzGetFile:

; 1257 : 
; 1258 :     file_pos->pos_in_zip_directory  = s->pos_in_central_dir;

  0001a	48 8b 81 88 00
	00 00		 mov	 rax, QWORD PTR [rcx+136]
  00021	48 89 02	 mov	 QWORD PTR [rdx], rax

; 1259 :     file_pos->num_of_file           = s->num_file;

  00024	48 8b 81 80 00
	00 00		 mov	 rax, QWORD PTR [rcx+128]
  0002b	48 89 42 08	 mov	 QWORD PTR [rdx+8], rax

; 1260 : 
; 1261 :     return UNZ_OK;

  0002f	33 c0		 xor	 eax, eax

; 1262 : }

  00031	c3		 ret	 0
$LN3@unzGetFile:

; 1253 :         return UNZ_PARAMERROR;

  00032	b8 9a ff ff ff	 mov	 eax, -102		; ffffffffffffff9aH

; 1262 : }

  00037	c3		 ret	 0
unzGetFilePos64 ENDP
_TEXT	ENDS
; Function compile flags: /Ogtpy
; File C:\Users\chris\Documents\GitHub\FastCopy-M\external\zlib\contrib\minizip\unzip.c
;	COMDAT unzGetFilePos
_TEXT	SEGMENT
file_pos64$ = 32
file$ = 64
file_pos$ = 72
unzGetFilePos PROC					; COMDAT

; 1264 : extern int ZEXPORT unzGetFilePos(unzFile file, unz_file_pos* file_pos) {

$LN7:
  00000	40 53		 push	 rbx
  00002	48 83 ec 30	 sub	 rsp, 48			; 00000030H
  00006	48 8b da	 mov	 rbx, rdx

; 1265 :     unz64_file_pos file_pos64;
; 1266 :     int err = unzGetFilePos64(file,&file_pos64);

  00009	48 8d 54 24 20	 lea	 rdx, QWORD PTR file_pos64$[rsp]
  0000e	e8 00 00 00 00	 call	 unzGetFilePos64

; 1267 :     if (err==UNZ_OK)

  00013	85 c0		 test	 eax, eax
  00015	75 0d		 jne	 SHORT $LN4@unzGetFile

; 1268 :     {
; 1269 :         file_pos->pos_in_zip_directory = (uLong)file_pos64.pos_in_zip_directory;

  00017	8b 4c 24 20	 mov	 ecx, DWORD PTR file_pos64$[rsp]
  0001b	89 0b		 mov	 DWORD PTR [rbx], ecx

; 1270 :         file_pos->num_of_file = (uLong)file_pos64.num_of_file;

  0001d	8b 4c 24 28	 mov	 ecx, DWORD PTR file_pos64$[rsp+8]
  00021	89 4b 04	 mov	 DWORD PTR [rbx+4], ecx
$LN4@unzGetFile:

; 1271 :     }
; 1272 :     return err;
; 1273 : }

  00024	48 83 c4 30	 add	 rsp, 48			; 00000030H
  00028	5b		 pop	 rbx
  00029	c3		 ret	 0
unzGetFilePos ENDP
_TEXT	ENDS
; Function compile flags: /Ogtpy
; File C:\Users\chris\Documents\GitHub\FastCopy-M\external\zlib\contrib\minizip\unzip.c
;	COMDAT unzGoToFilePos64
_TEXT	SEGMENT
file$ = 96
file_pos$ = 104
unzGoToFilePos64 PROC					; COMDAT

; 1275 : extern int ZEXPORT unzGoToFilePos64(unzFile file, const unz64_file_pos* file_pos) {

$LN8:
  00000	40 57		 push	 rdi
  00002	48 83 ec 50	 sub	 rsp, 80			; 00000050H
  00006	48 8b f9	 mov	 rdi, rcx

; 1276 :     unz64_s* s;
; 1277 :     int err;
; 1278 : 
; 1279 :     if (file==NULL || file_pos==NULL)

  00009	48 85 c9	 test	 rcx, rcx
  0000c	74 64		 je	 SHORT $LN3@unzGoToFil
  0000e	48 85 d2	 test	 rdx, rdx
  00011	74 5f		 je	 SHORT $LN3@unzGoToFil

; 1281 :     s=(unz64_s*)file;
; 1282 : 
; 1283 :     /* jump to the right spot */
; 1284 :     s->pos_in_central_dir = file_pos->pos_in_zip_directory;

  00013	48 8b 02	 mov	 rax, QWORD PTR [rdx]

; 1285 :     s->num_file           = file_pos->num_of_file;
; 1286 : 
; 1287 :     /* set the current file */
; 1288 :     err = unz64local_GetCurrentFileInfoInternal(file,&s->cur_file_info,

  00016	4c 8d 81 08 01
	00 00		 lea	 r8, QWORD PTR [rcx+264]
  0001d	48 89 81 88 00
	00 00		 mov	 QWORD PTR [rcx+136], rax
  00024	45 33 c9	 xor	 r9d, r9d
  00027	48 8b 42 08	 mov	 rax, QWORD PTR [rdx+8]
  0002b	48 8d 91 b0 00
	00 00		 lea	 rdx, QWORD PTR [rcx+176]
  00032	48 89 5c 24 60	 mov	 QWORD PTR [rsp+96], rbx
  00037	33 db		 xor	 ebx, ebx
  00039	89 5c 24 40	 mov	 DWORD PTR [rsp+64], ebx
  0003d	48 89 5c 24 38	 mov	 QWORD PTR [rsp+56], rbx
  00042	89 5c 24 30	 mov	 DWORD PTR [rsp+48], ebx
  00046	48 89 5c 24 28	 mov	 QWORD PTR [rsp+40], rbx
  0004b	89 5c 24 20	 mov	 DWORD PTR [rsp+32], ebx
  0004f	48 89 81 80 00
	00 00		 mov	 QWORD PTR [rcx+128], rax
  00056	e8 00 00 00 00	 call	 unz64local_GetCurrentFileInfoInternal

; 1289 :                                                &s->cur_file_info_internal,
; 1290 :                                                NULL,0,NULL,0,NULL,0);
; 1291 :     /* return results */
; 1292 :     s->current_file_ok = (err == UNZ_OK);

  0005b	85 c0		 test	 eax, eax
  0005d	0f 94 c3	 sete	 bl
  00060	48 89 9f 90 00
	00 00		 mov	 QWORD PTR [rdi+144], rbx

; 1293 :     return err;

  00067	48 8b 5c 24 60	 mov	 rbx, QWORD PTR [rsp+96]

; 1294 : }

  0006c	48 83 c4 50	 add	 rsp, 80			; 00000050H
  00070	5f		 pop	 rdi
  00071	c3		 ret	 0
$LN3@unzGoToFil:

; 1280 :         return UNZ_PARAMERROR;

  00072	b8 9a ff ff ff	 mov	 eax, -102		; ffffffffffffff9aH

; 1294 : }

  00077	48 83 c4 50	 add	 rsp, 80			; 00000050H
  0007b	5f		 pop	 rdi
  0007c	c3		 ret	 0
unzGoToFilePos64 ENDP
_TEXT	ENDS
; Function compile flags: /Ogtpy
; File C:\Users\chris\Documents\GitHub\FastCopy-M\external\zlib\contrib\minizip\unzip.c
;	COMDAT unzGoToFilePos
_TEXT	SEGMENT
file_pos64$ = 32
file$ = 64
file_pos$ = 72
unzGoToFilePos PROC					; COMDAT

; 1296 : extern int ZEXPORT unzGoToFilePos(unzFile file, unz_file_pos* file_pos) {

$LN5:
  00000	48 83 ec 38	 sub	 rsp, 56			; 00000038H

; 1297 :     unz64_file_pos file_pos64;
; 1298 :     if (file_pos == NULL)

  00004	48 85 d2	 test	 rdx, rdx
  00007	75 0a		 jne	 SHORT $LN2@unzGoToFil

; 1299 :         return UNZ_PARAMERROR;

  00009	b8 9a ff ff ff	 mov	 eax, -102		; ffffffffffffff9aH

; 1304 : }

  0000e	48 83 c4 38	 add	 rsp, 56			; 00000038H
  00012	c3		 ret	 0
$LN2@unzGoToFil:

; 1300 : 
; 1301 :     file_pos64.pos_in_zip_directory = file_pos->pos_in_zip_directory;

  00013	8b 02		 mov	 eax, DWORD PTR [rdx]
  00015	48 89 44 24 20	 mov	 QWORD PTR file_pos64$[rsp], rax

; 1302 :     file_pos64.num_of_file = file_pos->num_of_file;

  0001a	8b 42 04	 mov	 eax, DWORD PTR [rdx+4]

; 1303 :     return unzGoToFilePos64(file,&file_pos64);

  0001d	48 8d 54 24 20	 lea	 rdx, QWORD PTR file_pos64$[rsp]
  00022	48 89 44 24 28	 mov	 QWORD PTR file_pos64$[rsp+8], rax
  00027	e8 00 00 00 00	 call	 unzGoToFilePos64

; 1304 : }

  0002c	48 83 c4 38	 add	 rsp, 56			; 00000038H
  00030	c3		 ret	 0
unzGoToFilePos ENDP
_TEXT	ENDS
; Function compile flags: /Ogtpy
; File C:\Users\chris\Documents\GitHub\FastCopy-M\external\zlib\contrib\minizip\unzip.c
;	COMDAT unz64local_CheckCurrentFileCoherencyHeader
_TEXT	SEGMENT
size_extra_field$ = 96
size_filename$ = 96
uData$ = 96
uMagic$ = 96
s$ = 96
uFlags$ = 104
piSizeVar$ = 104
poffset_local_extrafield$ = 112
psize_local_extrafield$ = 120
unz64local_CheckCurrentFileCoherencyHeader PROC		; COMDAT

; 1320 :                                                      uInt  * psize_local_extrafield) {

  00000	40 53		 push	 rbx
  00002	56		 push	 rsi
  00003	57		 push	 rdi
  00004	41 54		 push	 r12
  00006	41 56		 push	 r14
  00008	41 57		 push	 r15
  0000a	48 83 ec 28	 sub	 rsp, 40			; 00000028H

; 1321 :     uLong uMagic,uData,uFlags;
; 1322 :     uLong size_filename;
; 1323 :     uLong size_extra_field;
; 1324 :     int err=UNZ_OK;

  0000e	33 db		 xor	 ebx, ebx
  00010	4d 8b e0	 mov	 r12, r8

; 1325 : 
; 1326 :     *piSizeVar = 0;
; 1327 :     *poffset_local_extrafield = 0;

  00013	49 89 18	 mov	 QWORD PTR [r8], rbx
  00016	4d 8b f9	 mov	 r15, r9

; 1328 :     *psize_local_extrafield = 0;
; 1329 : 
; 1330 :     if (ZSEEK64(s->z_filefunc, s->filestream,s->cur_file_info_internal.offset_curfile +
; 1331 :                                 s->byte_before_the_zipfile,ZLIB_FILEFUNC_SEEK_SET)!=0)

  00019	4c 8b 41 78	 mov	 r8, QWORD PTR [rcx+120]
  0001d	4c 8b f2	 mov	 r14, rdx
  00020	4c 03 81 08 01
	00 00		 add	 r8, QWORD PTR [rcx+264]
  00027	48 8b f9	 mov	 rdi, rcx
  0002a	89 1a		 mov	 DWORD PTR [rdx], ebx
  0002c	48 8b 51 60	 mov	 rdx, QWORD PTR [rcx+96]
  00030	41 89 19	 mov	 DWORD PTR [r9], ebx
  00033	45 33 c9	 xor	 r9d, r9d
  00036	e8 00 00 00 00	 call	 call_zseek64
  0003b	85 c0		 test	 eax, eax
  0003d	74 11		 je	 SHORT $LN2@unz64local

; 1332 :         return UNZ_ERRNO;

  0003f	8d 43 ff	 lea	 eax, QWORD PTR [rbx-1]

; 1398 : }

  00042	48 83 c4 28	 add	 rsp, 40			; 00000028H
  00046	41 5f		 pop	 r15
  00048	41 5e		 pop	 r14
  0004a	41 5c		 pop	 r12
  0004c	5f		 pop	 rdi
  0004d	5e		 pop	 rsi
  0004e	5b		 pop	 rbx
  0004f	c3		 ret	 0
$LN2@unz64local:

; 1333 : 
; 1334 : 
; 1335 :     if (err==UNZ_OK)
; 1336 :     {
; 1337 :         if (unz64local_getLong(&s->z_filefunc, s->filestream,&uMagic) != UNZ_OK)

  00050	48 8b 57 60	 mov	 rdx, QWORD PTR [rdi+96]
  00054	4c 8d 44 24 60	 lea	 r8, QWORD PTR uMagic$[rsp]
  00059	48 89 6c 24 70	 mov	 QWORD PTR [rsp+112], rbp
  0005e	48 8b cf	 mov	 rcx, rdi
  00061	4c 89 6c 24 20	 mov	 QWORD PTR [rsp+32], r13
  00066	e8 00 00 00 00	 call	 unz64local_getLong
  0006b	be ff ff ff ff	 mov	 esi, -1
  00070	44 8d 6e 9a	 lea	 r13d, QWORD PTR [rsi-102]
  00074	85 c0		 test	 eax, eax
  00076	74 04		 je	 SHORT $LN4@unz64local

; 1338 :             err=UNZ_ERRNO;

  00078	8b de		 mov	 ebx, esi
  0007a	eb 0c		 jmp	 SHORT $LN6@unz64local
$LN4@unz64local:

; 1339 :         else if (uMagic!=0x04034b50)

  0007c	81 7c 24 60 50
	4b 03 04	 cmp	 DWORD PTR uMagic$[rsp], 67324752 ; 04034b50H
  00084	41 0f 45 dd	 cmovne	 ebx, r13d
$LN6@unz64local:

; 1340 :             err=UNZ_BADZIPFILE;
; 1341 :     }
; 1342 : 
; 1343 :     if (unz64local_getShort(&s->z_filefunc, s->filestream,&uData) != UNZ_OK)

  00088	48 8b 57 60	 mov	 rdx, QWORD PTR [rdi+96]
  0008c	4c 8d 44 24 60	 lea	 r8, QWORD PTR uData$[rsp]
  00091	48 8b cf	 mov	 rcx, rdi
  00094	e8 00 00 00 00	 call	 unz64local_getShort

; 1344 :         err=UNZ_ERRNO;
; 1345 : /*
; 1346 :     else if ((err==UNZ_OK) && (uData!=s->cur_file_info.wVersion))
; 1347 :         err=UNZ_BADZIPFILE;
; 1348 : */
; 1349 :     if (unz64local_getShort(&s->z_filefunc, s->filestream,&uFlags) != UNZ_OK)

  00099	48 8b 57 60	 mov	 rdx, QWORD PTR [rdi+96]
  0009d	4c 8d 44 24 68	 lea	 r8, QWORD PTR uFlags$[rsp]
  000a2	85 c0		 test	 eax, eax
  000a4	48 8b cf	 mov	 rcx, rdi
  000a7	0f 45 de	 cmovne	 ebx, esi
  000aa	e8 00 00 00 00	 call	 unz64local_getShort

; 1350 :         err=UNZ_ERRNO;
; 1351 : 
; 1352 :     if (unz64local_getShort(&s->z_filefunc, s->filestream,&uData) != UNZ_OK)

  000af	48 8b 57 60	 mov	 rdx, QWORD PTR [rdi+96]
  000b3	4c 8d 44 24 60	 lea	 r8, QWORD PTR uData$[rsp]
  000b8	85 c0		 test	 eax, eax
  000ba	48 8b cf	 mov	 rcx, rdi
  000bd	0f 45 de	 cmovne	 ebx, esi
  000c0	e8 00 00 00 00	 call	 unz64local_getShort
  000c5	85 c0		 test	 eax, eax
  000c7	74 04		 je	 SHORT $LN9@unz64local

; 1353 :         err=UNZ_ERRNO;

  000c9	8b de		 mov	 ebx, esi
  000cb	eb 1f		 jmp	 SHORT $LN12@unz64local
$LN9@unz64local:

; 1354 :     else if ((err==UNZ_OK) && (uData!=s->cur_file_info.compression_method))

  000cd	85 db		 test	 ebx, ebx
  000cf	75 1b		 jne	 SHORT $LN12@unz64local
  000d1	8b 87 bc 00 00
	00		 mov	 eax, DWORD PTR [rdi+188]
  000d7	39 44 24 60	 cmp	 DWORD PTR uData$[rsp], eax
  000db	75 0c		 jne	 SHORT $LN29@unz64local

; 1355 :         err=UNZ_BADZIPFILE;
; 1356 : 
; 1357 :     if ((err==UNZ_OK) && (s->cur_file_info.compression_method!=0) &&
; 1358 : /* #ifdef HAVE_BZIP2 */
; 1359 :                          (s->cur_file_info.compression_method!=Z_BZIP2ED) &&

  000dd	a9 f3 ff ff ff	 test	 eax, -13		; fffffff3H
  000e2	75 05		 jne	 SHORT $LN29@unz64local
  000e4	83 f8 04	 cmp	 eax, 4
  000e7	75 03		 jne	 SHORT $LN12@unz64local
$LN29@unz64local:

; 1360 : /* #endif */
; 1361 :                          (s->cur_file_info.compression_method!=Z_DEFLATED))
; 1362 :         err=UNZ_BADZIPFILE;
; 1363 : 
; 1364 :     if (unz64local_getLong(&s->z_filefunc, s->filestream,&uData) != UNZ_OK) /* date/time */

  000e9	41 8b dd	 mov	 ebx, r13d
$LN12@unz64local:
  000ec	48 8b 57 60	 mov	 rdx, QWORD PTR [rdi+96]
  000f0	4c 8d 44 24 60	 lea	 r8, QWORD PTR uData$[rsp]
  000f5	48 8b cf	 mov	 rcx, rdi
  000f8	e8 00 00 00 00	 call	 unz64local_getLong

; 1365 :         err=UNZ_ERRNO;
; 1366 : 
; 1367 :     if (unz64local_getLong(&s->z_filefunc, s->filestream,&uData) != UNZ_OK) /* crc */

  000fd	48 8b 57 60	 mov	 rdx, QWORD PTR [rdi+96]
  00101	4c 8d 44 24 60	 lea	 r8, QWORD PTR uData$[rsp]
  00106	85 c0		 test	 eax, eax
  00108	48 8b cf	 mov	 rcx, rdi
  0010b	0f 45 de	 cmovne	 ebx, esi
  0010e	e8 00 00 00 00	 call	 unz64local_getLong
  00113	8b 6c 24 68	 mov	 ebp, DWORD PTR uFlags$[rsp]
  00117	85 c0		 test	 eax, eax
  00119	74 04		 je	 SHORT $LN14@unz64local

; 1368 :         err=UNZ_ERRNO;

  0011b	8b de		 mov	 ebx, esi
  0011d	eb 18		 jmp	 SHORT $LN16@unz64local
$LN14@unz64local:

; 1369 :     else if ((err==UNZ_OK) && (uData!=s->cur_file_info.crc) && ((uFlags & 8)==0))

  0011f	85 db		 test	 ebx, ebx
  00121	75 14		 jne	 SHORT $LN16@unz64local
  00123	8b 87 c4 00 00
	00		 mov	 eax, DWORD PTR [rdi+196]
  00129	39 44 24 60	 cmp	 DWORD PTR uData$[rsp], eax
  0012d	74 08		 je	 SHORT $LN16@unz64local
  0012f	40 f6 c5 08	 test	 bpl, 8
  00133	41 0f 44 dd	 cmove	 ebx, r13d
$LN16@unz64local:

; 1370 :         err=UNZ_BADZIPFILE;
; 1371 : 
; 1372 :     if (unz64local_getLong(&s->z_filefunc, s->filestream,&uData) != UNZ_OK) /* size compr */

  00137	48 8b 57 60	 mov	 rdx, QWORD PTR [rdi+96]
  0013b	4c 8d 44 24 60	 lea	 r8, QWORD PTR uData$[rsp]
  00140	48 8b cf	 mov	 rcx, rdi
  00143	e8 00 00 00 00	 call	 unz64local_getLong
  00148	85 c0		 test	 eax, eax
  0014a	74 04		 je	 SHORT $LN17@unz64local

; 1373 :         err=UNZ_ERRNO;

  0014c	8b de		 mov	 ebx, esi
  0014e	eb 1e		 jmp	 SHORT $LN19@unz64local
$LN17@unz64local:

; 1374 :     else if (uData != 0xFFFFFFFF && (err==UNZ_OK) && (uData!=s->cur_file_info.compressed_size) && ((uFlags & 8)==0))

  00150	8b 44 24 60	 mov	 eax, DWORD PTR uData$[rsp]
  00154	83 f8 ff	 cmp	 eax, -1			; ffffffffH
  00157	74 15		 je	 SHORT $LN19@unz64local
  00159	85 db		 test	 ebx, ebx
  0015b	75 11		 jne	 SHORT $LN19@unz64local
  0015d	48 3b 87 c8 00
	00 00		 cmp	 rax, QWORD PTR [rdi+200]
  00164	74 08		 je	 SHORT $LN19@unz64local
  00166	40 f6 c5 08	 test	 bpl, 8
  0016a	41 0f 44 dd	 cmove	 ebx, r13d
$LN19@unz64local:

; 1375 :         err=UNZ_BADZIPFILE;
; 1376 : 
; 1377 :     if (unz64local_getLong(&s->z_filefunc, s->filestream,&uData) != UNZ_OK) /* size uncompr */

  0016e	48 8b 57 60	 mov	 rdx, QWORD PTR [rdi+96]
  00172	4c 8d 44 24 60	 lea	 r8, QWORD PTR uData$[rsp]
  00177	48 8b cf	 mov	 rcx, rdi
  0017a	e8 00 00 00 00	 call	 unz64local_getLong
  0017f	85 c0		 test	 eax, eax
  00181	74 04		 je	 SHORT $LN20@unz64local

; 1378 :         err=UNZ_ERRNO;

  00183	8b de		 mov	 ebx, esi
  00185	eb 1e		 jmp	 SHORT $LN22@unz64local
$LN20@unz64local:

; 1379 :     else if (uData != 0xFFFFFFFF && (err==UNZ_OK) && (uData!=s->cur_file_info.uncompressed_size) && ((uFlags & 8)==0))

  00187	8b 44 24 60	 mov	 eax, DWORD PTR uData$[rsp]
  0018b	83 f8 ff	 cmp	 eax, -1			; ffffffffH
  0018e	74 15		 je	 SHORT $LN22@unz64local
  00190	85 db		 test	 ebx, ebx
  00192	75 11		 jne	 SHORT $LN22@unz64local
  00194	48 3b 87 d0 00
	00 00		 cmp	 rax, QWORD PTR [rdi+208]
  0019b	74 08		 je	 SHORT $LN22@unz64local
  0019d	40 f6 c5 08	 test	 bpl, 8
  001a1	41 0f 44 dd	 cmove	 ebx, r13d
$LN22@unz64local:

; 1380 :         err=UNZ_BADZIPFILE;
; 1381 : 
; 1382 :     if (unz64local_getShort(&s->z_filefunc, s->filestream,&size_filename) != UNZ_OK)

  001a5	48 8b 57 60	 mov	 rdx, QWORD PTR [rdi+96]
  001a9	4c 8d 44 24 60	 lea	 r8, QWORD PTR size_filename$[rsp]
  001ae	48 8b cf	 mov	 rcx, rdi
  001b1	e8 00 00 00 00	 call	 unz64local_getShort
  001b6	8b 6c 24 60	 mov	 ebp, DWORD PTR size_filename$[rsp]
  001ba	85 c0		 test	 eax, eax
  001bc	74 04		 je	 SHORT $LN23@unz64local

; 1383 :         err=UNZ_ERRNO;

  001be	8b de		 mov	 ebx, esi
  001c0	eb 0e		 jmp	 SHORT $LN25@unz64local
$LN23@unz64local:

; 1384 :     else if ((err==UNZ_OK) && (size_filename!=s->cur_file_info.size_filename))

  001c2	85 db		 test	 ebx, ebx
  001c4	75 0a		 jne	 SHORT $LN25@unz64local
  001c6	3b af d8 00 00
	00		 cmp	 ebp, DWORD PTR [rdi+216]
  001cc	41 0f 45 dd	 cmovne	 ebx, r13d
$LN25@unz64local:

; 1385 :         err=UNZ_BADZIPFILE;
; 1386 : 
; 1387 :     *piSizeVar += (uInt)size_filename;
; 1388 : 
; 1389 :     if (unz64local_getShort(&s->z_filefunc, s->filestream,&size_extra_field) != UNZ_OK)

  001d0	48 8b 57 60	 mov	 rdx, QWORD PTR [rdi+96]
  001d4	4c 8d 44 24 60	 lea	 r8, QWORD PTR size_extra_field$[rsp]
  001d9	41 01 2e	 add	 DWORD PTR [r14], ebp
  001dc	48 8b cf	 mov	 rcx, rdi
  001df	e8 00 00 00 00	 call	 unz64local_getShort

; 1390 :         err=UNZ_ERRNO;
; 1391 :     *poffset_local_extrafield= s->cur_file_info_internal.offset_curfile +
; 1392 :                                     SIZEZIPLOCALHEADER + size_filename;
; 1393 :     *psize_local_extrafield = (uInt)size_extra_field;

  001e4	8b 4c 24 60	 mov	 ecx, DWORD PTR size_extra_field$[rsp]
  001e8	48 8d 55 1e	 lea	 rdx, QWORD PTR [rbp+30]

; 1394 : 
; 1395 :     *piSizeVar += (uInt)size_extra_field;
; 1396 : 
; 1397 :     return err;

  001ec	4c 8b 6c 24 20	 mov	 r13, QWORD PTR [rsp+32]
  001f1	85 c0		 test	 eax, eax
  001f3	48 8b 6c 24 70	 mov	 rbp, QWORD PTR [rsp+112]
  001f8	0f 45 de	 cmovne	 ebx, esi
  001fb	41 89 0f	 mov	 DWORD PTR [r15], ecx
  001fe	48 03 97 08 01
	00 00		 add	 rdx, QWORD PTR [rdi+264]
  00205	8b c3		 mov	 eax, ebx
  00207	41 01 0e	 add	 DWORD PTR [r14], ecx
  0020a	49 89 14 24	 mov	 QWORD PTR [r12], rdx

; 1398 : }

  0020e	48 83 c4 28	 add	 rsp, 40			; 00000028H
  00212	41 5f		 pop	 r15
  00214	41 5e		 pop	 r14
  00216	41 5c		 pop	 r12
  00218	5f		 pop	 rdi
  00219	5e		 pop	 rsi
  0021a	5b		 pop	 rbx
  0021b	c3		 ret	 0
unz64local_CheckCurrentFileCoherencyHeader ENDP
_TEXT	ENDS
; Function compile flags: /Ogtpy
; File C:\Users\chris\Documents\GitHub\FastCopy-M\external\zlib\contrib\minizip\unzip.c
;	COMDAT unzOpenCurrentFile3
_TEXT	SEGMENT
iSizeVar$ = 32
offset_local_extrafield$ = 40
file$ = 80
method$ = 88
level$ = 96
raw$ = 104
size_local_extrafield$ = 112
password$ = 112
unzOpenCurrentFile3 PROC				; COMDAT

; 1405 :                                        int* level, int raw, const char* password) {

$LN47:
  00000	48 89 6c 24 18	 mov	 QWORD PTR [rsp+24], rbp
  00005	56		 push	 rsi
  00006	57		 push	 rdi
  00007	41 56		 push	 r14
  00009	48 83 ec 30	 sub	 rsp, 48			; 00000030H

; 1406 :     int err=UNZ_OK;
; 1407 :     uInt iSizeVar;
; 1408 :     unz64_s* s;
; 1409 :     file_in_zip64_read_info_s* pfile_in_zip_read_info;
; 1410 :     ZPOS64_T offset_local_extrafield;  /* offset of the local extra field */
; 1411 :     uInt  size_local_extrafield;    /* size of the local extra field */
; 1412 : #    ifndef NOUNCRYPT
; 1413 :     char source[12];
; 1414 : #    else
; 1415 :     if (password != NULL)

  0000d	48 83 7c 24 70
	00		 cmp	 QWORD PTR password$[rsp], 0
  00013	41 8b e9	 mov	 ebp, r9d
  00016	49 8b f0	 mov	 rsi, r8
  00019	4c 8b f2	 mov	 r14, rdx
  0001c	48 8b f9	 mov	 rdi, rcx
  0001f	0f 85 5d 02 00
	00		 jne	 $LN24@unzOpenCur

; 1416 :         return UNZ_PARAMERROR;
; 1417 : #    endif
; 1418 : 
; 1419 :     if (file==NULL)

  00025	48 85 c9	 test	 rcx, rcx
  00028	0f 84 54 02 00
	00		 je	 $LN24@unzOpenCur

; 1420 :         return UNZ_PARAMERROR;
; 1421 :     s=(unz64_s*)file;
; 1422 :     if (!s->current_file_ok)

  0002e	48 83 b9 90 00
	00 00 00	 cmp	 QWORD PTR [rcx+144], 0
  00036	0f 84 46 02 00
	00		 je	 $LN24@unzOpenCur

; 1423 :         return UNZ_PARAMERROR;
; 1424 : 
; 1425 :     if (s->pfile_in_zip_read != NULL)

  0003c	48 83 b9 10 01
	00 00 00	 cmp	 QWORD PTR [rcx+272], 0
  00044	74 05		 je	 SHORT $LN7@unzOpenCur

; 1426 :         unzCloseCurrentFile(file);

  00046	e8 00 00 00 00	 call	 unzCloseCurrentFile
$LN7@unzOpenCur:

; 1427 : 
; 1428 :     if (unz64local_CheckCurrentFileCoherencyHeader(s,&iSizeVar, &offset_local_extrafield,&size_local_extrafield)!=UNZ_OK)

  0004b	4c 8d 4c 24 70	 lea	 r9, QWORD PTR size_local_extrafield$[rsp]
  00050	48 8b cf	 mov	 rcx, rdi
  00053	4c 8d 44 24 28	 lea	 r8, QWORD PTR offset_local_extrafield$[rsp]
  00058	48 8d 54 24 20	 lea	 rdx, QWORD PTR iSizeVar$[rsp]
  0005d	e8 00 00 00 00	 call	 unz64local_CheckCurrentFileCoherencyHeader
  00062	85 c0		 test	 eax, eax
  00064	74 13		 je	 SHORT $LN8@unzOpenCur

; 1429 :         return UNZ_BADZIPFILE;

  00066	b8 99 ff ff ff	 mov	 eax, -103		; ffffffffffffff99H

; 1572 : }

  0006b	48 8b 6c 24 60	 mov	 rbp, QWORD PTR [rsp+96]
  00070	48 83 c4 30	 add	 rsp, 48			; 00000030H
  00074	41 5e		 pop	 r14
  00076	5f		 pop	 rdi
  00077	5e		 pop	 rsi
  00078	c3		 ret	 0
$LN8@unzOpenCur:

; 1430 : 
; 1431 :     pfile_in_zip_read_info = (file_in_zip64_read_info_s*)ALLOC(sizeof(file_in_zip64_read_info_s));

  00079	b9 20 01 00 00	 mov	 ecx, 288		; 00000120H
  0007e	48 89 5c 24 50	 mov	 QWORD PTR [rsp+80], rbx
  00083	ff 15 00 00 00
	00		 call	 QWORD PTR __imp_malloc
  00089	48 8b d8	 mov	 rbx, rax

; 1432 :     if (pfile_in_zip_read_info==NULL)

  0008c	48 85 c0	 test	 rax, rax
  0008f	75 05		 jne	 SHORT $LN9@unzOpenCur

; 1433 :         return UNZ_INTERNALERROR;

  00091	8d 43 98	 lea	 eax, QWORD PTR [rbx-104]
  00094	eb 4a		 jmp	 SHORT $LN44@unzOpenCur
$LN9@unzOpenCur:

; 1434 : 
; 1435 :     pfile_in_zip_read_info->read_buffer=(char*)ALLOC(UNZ_BUFSIZE);

  00096	b9 00 40 00 00	 mov	 ecx, 16384		; 00004000H
  0009b	4c 89 7c 24 58	 mov	 QWORD PTR [rsp+88], r15
  000a0	ff 15 00 00 00
	00		 call	 QWORD PTR __imp_malloc

; 1436 :     pfile_in_zip_read_info->offset_local_extrafield = offset_local_extrafield;

  000a6	48 8b 4c 24 28	 mov	 rcx, QWORD PTR offset_local_extrafield$[rsp]

; 1437 :     pfile_in_zip_read_info->size_local_extrafield = size_local_extrafield;
; 1438 :     pfile_in_zip_read_info->pos_local_extrafield=0;

  000ab	45 33 ff	 xor	 r15d, r15d
  000ae	48 89 4b 70	 mov	 QWORD PTR [rbx+112], rcx
  000b2	8b 4c 24 70	 mov	 ecx, DWORD PTR size_local_extrafield$[rsp]
  000b6	89 4b 78	 mov	 DWORD PTR [rbx+120], ecx
  000b9	48 89 03	 mov	 QWORD PTR [rbx], rax
  000bc	4c 89 bb 80 00
	00 00		 mov	 QWORD PTR [rbx+128], r15

; 1439 :     pfile_in_zip_read_info->raw=raw;

  000c3	89 ab 18 01 00
	00		 mov	 DWORD PTR [rbx+280], ebp

; 1440 : 
; 1441 :     if (pfile_in_zip_read_info->read_buffer==NULL)

  000c9	48 85 c0	 test	 rax, rax
  000cc	75 25		 jne	 SHORT $LN10@unzOpenCur

; 1442 :     {
; 1443 :         TRYFREE(pfile_in_zip_read_info);

  000ce	48 8b cb	 mov	 rcx, rbx
  000d1	ff 15 00 00 00
	00		 call	 QWORD PTR __imp_free

; 1444 :         return UNZ_INTERNALERROR;

  000d7	41 8d 47 98	 lea	 eax, QWORD PTR [r15-104]
$LN45@unzOpenCur:
  000db	4c 8b 7c 24 58	 mov	 r15, QWORD PTR [rsp+88]
$LN44@unzOpenCur:
  000e0	48 8b 5c 24 50	 mov	 rbx, QWORD PTR [rsp+80]

; 1572 : }

  000e5	48 8b 6c 24 60	 mov	 rbp, QWORD PTR [rsp+96]
  000ea	48 83 c4 30	 add	 rsp, 48			; 00000030H
  000ee	41 5e		 pop	 r14
  000f0	5f		 pop	 rdi
  000f1	5e		 pop	 rsi
  000f2	c3		 ret	 0
$LN10@unzOpenCur:

; 1445 :     }
; 1446 : 
; 1447 :     pfile_in_zip_read_info->stream_initialised=0;

  000f3	44 89 7b 68	 mov	 DWORD PTR [rbx+104], r15d

; 1448 : 
; 1449 :     if (method!=NULL)

  000f7	48 8d 8f bc 00
	00 00		 lea	 rcx, QWORD PTR [rdi+188]
  000fe	4d 85 f6	 test	 r14, r14
  00101	74 05		 je	 SHORT $LN11@unzOpenCur

; 1450 :         *method = (int)s->cur_file_info.compression_method;

  00103	8b 01		 mov	 eax, DWORD PTR [rcx]
  00105	41 89 06	 mov	 DWORD PTR [r14], eax
$LN11@unzOpenCur:

; 1451 : 
; 1452 :     if (level!=NULL)

  00108	48 85 f6	 test	 rsi, rsi
  0010b	74 3b		 je	 SHORT $LN2@unzOpenCur

; 1453 :     {
; 1454 :         *level = 6;

  0010d	c7 06 06 00 00
	00		 mov	 DWORD PTR [rsi], 6

; 1455 :         switch (s->cur_file_info.flag & 0x06)

  00113	8b 87 b8 00 00
	00		 mov	 eax, DWORD PTR [rdi+184]
  00119	83 e0 06	 and	 eax, 6
  0011c	83 f8 02	 cmp	 eax, 2
  0011f	74 21		 je	 SHORT $LN15@unzOpenCur
  00121	83 f8 04	 cmp	 eax, 4
  00124	74 14		 je	 SHORT $LN14@unzOpenCur
  00126	83 f8 06	 cmp	 eax, 6
  00129	75 1d		 jne	 SHORT $LN2@unzOpenCur

; 1456 :         {
; 1457 :           case 6 : *level = 1; break;

  0012b	c7 06 01 00 00
	00		 mov	 DWORD PTR [rsi], 1
  00131	48 8d 8f bc 00
	00 00		 lea	 rcx, QWORD PTR [rdi+188]
  00138	eb 0e		 jmp	 SHORT $LN2@unzOpenCur
$LN14@unzOpenCur:

; 1458 :           case 4 : *level = 2; break;

  0013a	c7 06 02 00 00
	00		 mov	 DWORD PTR [rsi], 2
  00140	eb 06		 jmp	 SHORT $LN2@unzOpenCur
$LN15@unzOpenCur:

; 1459 :           case 2 : *level = 9; break;

  00142	c7 06 09 00 00
	00		 mov	 DWORD PTR [rsi], 9
$LN2@unzOpenCur:

; 1460 :         }
; 1461 :     }
; 1462 : 
; 1463 :     if ((s->cur_file_info.compression_method!=0) &&
; 1464 : /* #ifdef HAVE_BZIP2 */
; 1465 :         (s->cur_file_info.compression_method!=Z_BZIP2ED) &&
; 1466 : /* #endif */
; 1467 :         (s->cur_file_info.compression_method!=Z_DEFLATED))
; 1468 : 
; 1469 :         err=UNZ_BADZIPFILE;
; 1470 : 
; 1471 :     pfile_in_zip_read_info->crc32_wait=s->cur_file_info.crc;

  00148	8b 87 c4 00 00
	00		 mov	 eax, DWORD PTR [rdi+196]
  0014e	89 83 94 00 00
	00		 mov	 DWORD PTR [rbx+148], eax

; 1472 :     pfile_in_zip_read_info->crc32=0;

  00154	44 89 bb 90 00
	00 00		 mov	 DWORD PTR [rbx+144], r15d

; 1473 :     pfile_in_zip_read_info->total_out_64=0;

  0015b	4c 89 bb 88 00
	00 00		 mov	 QWORD PTR [rbx+136], r15

; 1474 :     pfile_in_zip_read_info->compression_method = s->cur_file_info.compression_method;

  00162	8b 01		 mov	 eax, DWORD PTR [rcx]
  00164	89 83 08 01 00
	00		 mov	 DWORD PTR [rbx+264], eax

; 1475 :     pfile_in_zip_read_info->filestream=s->filestream;

  0016a	48 8b 47 60	 mov	 rax, QWORD PTR [rdi+96]
  0016e	48 89 83 00 01
	00 00		 mov	 QWORD PTR [rbx+256], rax

; 1476 :     pfile_in_zip_read_info->z_filefunc=s->z_filefunc;

  00175	0f 10 07	 movups	 xmm0, XMMWORD PTR [rdi]
  00178	0f 11 83 a8 00
	00 00		 movups	 XMMWORD PTR [rbx+168], xmm0
  0017f	0f 10 4f 10	 movups	 xmm1, XMMWORD PTR [rdi+16]
  00183	0f 11 8b b8 00
	00 00		 movups	 XMMWORD PTR [rbx+184], xmm1
  0018a	0f 10 47 20	 movups	 xmm0, XMMWORD PTR [rdi+32]
  0018e	0f 11 83 c8 00
	00 00		 movups	 XMMWORD PTR [rbx+200], xmm0
  00195	0f 10 4f 30	 movups	 xmm1, XMMWORD PTR [rdi+48]
  00199	0f 11 8b d8 00
	00 00		 movups	 XMMWORD PTR [rbx+216], xmm1
  001a0	0f 10 47 40	 movups	 xmm0, XMMWORD PTR [rdi+64]
  001a4	0f 11 83 e8 00
	00 00		 movups	 XMMWORD PTR [rbx+232], xmm0
  001ab	f2 0f 10 4f 50	 movsd	 xmm1, QWORD PTR [rdi+80]
  001b0	f2 0f 11 8b f8
	00 00 00	 movsd	 QWORD PTR [rbx+248], xmm1

; 1477 :     pfile_in_zip_read_info->byte_before_the_zipfile=s->byte_before_the_zipfile;

  001b8	48 8b 47 78	 mov	 rax, QWORD PTR [rdi+120]
  001bc	48 89 83 10 01
	00 00		 mov	 QWORD PTR [rbx+272], rax

; 1478 : 
; 1479 :     pfile_in_zip_read_info->stream.total_out = 0;

  001c3	44 89 7b 24	 mov	 DWORD PTR [rbx+36], r15d

; 1480 : 
; 1481 :     if ((s->cur_file_info.compression_method==Z_BZIP2ED) && (!raw))

  001c7	8b 01		 mov	 eax, DWORD PTR [rcx]
  001c9	83 f8 0c	 cmp	 eax, 12
  001cc	75 56		 jne	 SHORT $LN17@unzOpenCur
  001ce	85 ed		 test	 ebp, ebp
  001d0	75 0a		 jne	 SHORT $LN21@unzOpenCur

; 1482 :     {
; 1483 : #ifdef HAVE_BZIP2
; 1484 :       pfile_in_zip_read_info->bstream.bzalloc = (void *(*) (void *, int, int))0;
; 1485 :       pfile_in_zip_read_info->bstream.bzfree = (free_func)0;
; 1486 :       pfile_in_zip_read_info->bstream.opaque = (voidpf)0;
; 1487 :       pfile_in_zip_read_info->bstream.state = (voidpf)0;
; 1488 : 
; 1489 :       pfile_in_zip_read_info->stream.zalloc = (alloc_func)0;
; 1490 :       pfile_in_zip_read_info->stream.zfree = (free_func)0;
; 1491 :       pfile_in_zip_read_info->stream.opaque = (voidpf)0;
; 1492 :       pfile_in_zip_read_info->stream.next_in = (voidpf)0;
; 1493 :       pfile_in_zip_read_info->stream.avail_in = 0;
; 1494 : 
; 1495 :       err=BZ2_bzDecompressInit(&pfile_in_zip_read_info->bstream, 0, 0);
; 1496 :       if (err == Z_OK)
; 1497 :         pfile_in_zip_read_info->stream_initialised=Z_BZIP2ED;
; 1498 :       else
; 1499 :       {
; 1500 :         TRYFREE(pfile_in_zip_read_info->read_buffer);
; 1501 :         TRYFREE(pfile_in_zip_read_info);
; 1502 :         return err;
; 1503 :       }
; 1504 : #else
; 1505 :       pfile_in_zip_read_info->raw=1;

  001d2	c7 83 18 01 00
	00 01 00 00 00	 mov	 DWORD PTR [rbx+280], 1
$LN21@unzOpenCur:

; 1524 :       }
; 1525 :         /* windowBits is passed < 0 to tell that there is no zlib header.
; 1526 :          * Note that in this case inflate *requires* an extra "dummy" byte
; 1527 :          * after the compressed stream in order to complete decompression and
; 1528 :          * return Z_STREAM_END.
; 1529 :          * In unzip, i don't wait absolutely Z_STREAM_END because I known the
; 1530 :          * size of both compressed and uncompressed data
; 1531 :          */
; 1532 :     }
; 1533 :     pfile_in_zip_read_info->rest_read_compressed =

  001dc	48 8b 87 c8 00
	00 00		 mov	 rax, QWORD PTR [rdi+200]

; 1534 :             s->cur_file_info.compressed_size ;
; 1535 :     pfile_in_zip_read_info->rest_read_uncompressed =
; 1536 :             s->cur_file_info.uncompressed_size ;
; 1537 : 
; 1538 : 
; 1539 :     pfile_in_zip_read_info->pos_in_zipfile =

  001e3	8b 4c 24 20	 mov	 ecx, DWORD PTR iSizeVar$[rsp]
  001e7	48 89 83 98 00
	00 00		 mov	 QWORD PTR [rbx+152], rax
  001ee	48 83 c1 1e	 add	 rcx, 30
  001f2	48 8b 87 d0 00
	00 00		 mov	 rax, QWORD PTR [rdi+208]
  001f9	48 89 83 a0 00
	00 00		 mov	 QWORD PTR [rbx+160], rax
  00200	48 03 8f 08 01
	00 00		 add	 rcx, QWORD PTR [rdi+264]
  00207	48 89 4b 60	 mov	 QWORD PTR [rbx+96], rcx

; 1540 :             s->cur_file_info_internal.offset_curfile + SIZEZIPLOCALHEADER +
; 1541 :               iSizeVar;
; 1542 : 
; 1543 :     pfile_in_zip_read_info->stream.avail_in = (uInt)0;
; 1544 : 
; 1545 :     s->pfile_in_zip_read = pfile_in_zip_read_info;
; 1546 :                 s->encrypted = 0;
; 1547 : 
; 1548 : #    ifndef NOUNCRYPT
; 1549 :     if (password != NULL)
; 1550 :     {
; 1551 :         int i;
; 1552 :         s->pcrc_32_tab = get_crc_table();
; 1553 :         init_keys(password,s->keys,s->pcrc_32_tab);
; 1554 :         if (ZSEEK64(s->z_filefunc, s->filestream,
; 1555 :                   s->pfile_in_zip_read->pos_in_zipfile +
; 1556 :                      s->pfile_in_zip_read->byte_before_the_zipfile,
; 1557 :                   SEEK_SET)!=0)
; 1558 :             return UNZ_INTERNALERROR;
; 1559 :         if(ZREAD64(s->z_filefunc, s->filestream,source, 12)<12)
; 1560 :             return UNZ_INTERNALERROR;
; 1561 : 
; 1562 :         for (i = 0; i<12; i++)
; 1563 :             zdecode(s->keys,s->pcrc_32_tab,source[i]);
; 1564 : 
; 1565 :         s->pfile_in_zip_read->pos_in_zipfile+=12;
; 1566 :         s->encrypted=1;
; 1567 :     }
; 1568 : #    endif
; 1569 : 
; 1570 : 
; 1571 :     return UNZ_OK;

  0020b	33 c0		 xor	 eax, eax
  0020d	44 89 7b 10	 mov	 DWORD PTR [rbx+16], r15d
  00211	48 89 9f 10 01
	00 00		 mov	 QWORD PTR [rdi+272], rbx
  00218	44 89 bf 18 01
	00 00		 mov	 DWORD PTR [rdi+280], r15d
  0021f	e9 b7 fe ff ff	 jmp	 $LN45@unzOpenCur
$LN17@unzOpenCur:

; 1506 : #endif
; 1507 :     }
; 1508 :     else if ((s->cur_file_info.compression_method==Z_DEFLATED) && (!raw))

  00224	83 f8 08	 cmp	 eax, 8
  00227	75 b3		 jne	 SHORT $LN21@unzOpenCur
  00229	85 ed		 test	 ebp, ebp
  0022b	75 af		 jne	 SHORT $LN21@unzOpenCur

; 1509 :     {
; 1510 :       pfile_in_zip_read_info->stream.zalloc = (alloc_func)0;
; 1511 :       pfile_in_zip_read_info->stream.zfree = (free_func)0;
; 1512 :       pfile_in_zip_read_info->stream.opaque = (voidpf)0;
; 1513 :       pfile_in_zip_read_info->stream.next_in = 0;

  0022d	48 8d 4b 08	 lea	 rcx, QWORD PTR [rbx+8]
  00231	4c 89 7b 38	 mov	 QWORD PTR [rbx+56], r15

; 1514 :       pfile_in_zip_read_info->stream.avail_in = 0;
; 1515 : 
; 1516 :       err=inflateInit2(&pfile_in_zip_read_info->stream, -MAX_WBITS);

  00235	44 8d 48 50	 lea	 r9d, QWORD PTR [rax+80]
  00239	4c 89 39	 mov	 QWORD PTR [rcx], r15
  0023c	4c 8d 05 00 00
	00 00		 lea	 r8, OFFSET FLAT:??_C@_0BA@MAILBDAG@1?42?413?41?9motley@
  00243	4c 89 7b 40	 mov	 QWORD PTR [rbx+64], r15
  00247	8d 50 e9	 lea	 edx, QWORD PTR [rax-23]
  0024a	4c 89 7b 48	 mov	 QWORD PTR [rbx+72], r15
  0024e	44 89 7b 10	 mov	 DWORD PTR [rbx+16], r15d
  00252	e8 00 00 00 00	 call	 inflateInit2_
  00257	8b f0		 mov	 esi, eax

; 1517 :       if (err == Z_OK)

  00259	85 c0		 test	 eax, eax
  0025b	75 0c		 jne	 SHORT $LN20@unzOpenCur

; 1518 :         pfile_in_zip_read_info->stream_initialised=Z_DEFLATED;

  0025d	c7 43 68 08 00
	00 00		 mov	 DWORD PTR [rbx+104], 8
  00264	e9 73 ff ff ff	 jmp	 $LN21@unzOpenCur
$LN20@unzOpenCur:

; 1519 :       else
; 1520 :       {
; 1521 :         TRYFREE(pfile_in_zip_read_info->read_buffer);

  00269	48 8b 0b	 mov	 rcx, QWORD PTR [rbx]
  0026c	ff 15 00 00 00
	00		 call	 QWORD PTR __imp_free

; 1522 :         TRYFREE(pfile_in_zip_read_info);

  00272	48 8b cb	 mov	 rcx, rbx
  00275	ff 15 00 00 00
	00		 call	 QWORD PTR __imp_free

; 1523 :         return err;

  0027b	8b c6		 mov	 eax, esi
  0027d	e9 59 fe ff ff	 jmp	 $LN45@unzOpenCur
$LN24@unzOpenCur:

; 1572 : }

  00282	48 8b 6c 24 60	 mov	 rbp, QWORD PTR [rsp+96]
  00287	b8 9a ff ff ff	 mov	 eax, -102		; ffffffffffffff9aH
  0028c	48 83 c4 30	 add	 rsp, 48			; 00000030H
  00290	41 5e		 pop	 r14
  00292	5f		 pop	 rdi
  00293	5e		 pop	 rsi
  00294	c3		 ret	 0
unzOpenCurrentFile3 ENDP
_TEXT	ENDS
; Function compile flags: /Ogtpy
; File C:\Users\chris\Documents\GitHub\FastCopy-M\external\zlib\contrib\minizip\unzip.c
;	COMDAT unzOpenCurrentFile
_TEXT	SEGMENT
file$ = 64
unzOpenCurrentFile PROC					; COMDAT

; 1574 : extern int ZEXPORT unzOpenCurrentFile(unzFile file) {

$LN4:
  00000	48 83 ec 38	 sub	 rsp, 56			; 00000038H

; 1575 :     return unzOpenCurrentFile3(file, NULL, NULL, 0, NULL);

  00004	45 33 c9	 xor	 r9d, r9d
  00007	48 c7 44 24 20
	00 00 00 00	 mov	 QWORD PTR [rsp+32], 0
  00010	45 33 c0	 xor	 r8d, r8d
  00013	33 d2		 xor	 edx, edx
  00015	e8 00 00 00 00	 call	 unzOpenCurrentFile3

; 1576 : }

  0001a	48 83 c4 38	 add	 rsp, 56			; 00000038H
  0001e	c3		 ret	 0
unzOpenCurrentFile ENDP
_TEXT	ENDS
; Function compile flags: /Ogtpy
; File C:\Users\chris\Documents\GitHub\FastCopy-M\external\zlib\contrib\minizip\unzip.c
;	COMDAT unzOpenCurrentFilePassword
_TEXT	SEGMENT
file$ = 64
password$ = 72
unzOpenCurrentFilePassword PROC				; COMDAT

; 1578 : extern int ZEXPORT unzOpenCurrentFilePassword(unzFile file, const char* password) {

$LN4:
  00000	48 83 ec 38	 sub	 rsp, 56			; 00000038H

; 1579 :     return unzOpenCurrentFile3(file, NULL, NULL, 0, password);

  00004	48 89 54 24 20	 mov	 QWORD PTR [rsp+32], rdx
  00009	45 33 c9	 xor	 r9d, r9d
  0000c	33 d2		 xor	 edx, edx
  0000e	45 33 c0	 xor	 r8d, r8d
  00011	e8 00 00 00 00	 call	 unzOpenCurrentFile3

; 1580 : }

  00016	48 83 c4 38	 add	 rsp, 56			; 00000038H
  0001a	c3		 ret	 0
unzOpenCurrentFilePassword ENDP
_TEXT	ENDS
; Function compile flags: /Ogtpy
; File C:\Users\chris\Documents\GitHub\FastCopy-M\external\zlib\contrib\minizip\unzip.c
;	COMDAT unzOpenCurrentFile2
_TEXT	SEGMENT
file$ = 64
method$ = 72
level$ = 80
raw$ = 88
unzOpenCurrentFile2 PROC				; COMDAT

; 1582 : extern int ZEXPORT unzOpenCurrentFile2(unzFile file, int* method, int* level, int raw) {

$LN4:
  00000	48 83 ec 38	 sub	 rsp, 56			; 00000038H

; 1583 :     return unzOpenCurrentFile3(file, method, level, raw, NULL);

  00004	48 c7 44 24 20
	00 00 00 00	 mov	 QWORD PTR [rsp+32], 0
  0000d	e8 00 00 00 00	 call	 unzOpenCurrentFile3

; 1584 : }

  00012	48 83 c4 38	 add	 rsp, 56			; 00000038H
  00016	c3		 ret	 0
unzOpenCurrentFile2 ENDP
_TEXT	ENDS
; Function compile flags: /Ogtpy
; File C:\Users\chris\Documents\GitHub\FastCopy-M\external\zlib\contrib\minizip\unzip.c
;	COMDAT unzGetCurrentFileZStreamPos64
_TEXT	SEGMENT
file$ = 8
unzGetCurrentFileZStreamPos64 PROC			; COMDAT

; 1589 :     unz64_s* s;
; 1590 :     file_in_zip64_read_info_s* pfile_in_zip_read_info;
; 1591 :     s=(unz64_s*)file;
; 1592 :     if (file==NULL)

  00000	48 85 c9	 test	 rcx, rcx
  00003	74 18		 je	 SHORT $LN5@unzGetCurr

; 1593 :         return 0; //UNZ_PARAMERROR;
; 1594 :     pfile_in_zip_read_info=s->pfile_in_zip_read;

  00005	48 8b 89 10 01
	00 00		 mov	 rcx, QWORD PTR [rcx+272]

; 1595 :     if (pfile_in_zip_read_info==NULL)

  0000c	48 85 c9	 test	 rcx, rcx
  0000f	74 0c		 je	 SHORT $LN5@unzGetCurr

; 1597 :     return pfile_in_zip_read_info->pos_in_zipfile +

  00011	48 8b 81 10 01
	00 00		 mov	 rax, QWORD PTR [rcx+272]
  00018	48 03 41 60	 add	 rax, QWORD PTR [rcx+96]

; 1598 :                          pfile_in_zip_read_info->byte_before_the_zipfile;
; 1599 : }

  0001c	c3		 ret	 0
$LN5@unzGetCurr:

; 1596 :         return 0; //UNZ_PARAMERROR;

  0001d	33 c0		 xor	 eax, eax

; 1598 :                          pfile_in_zip_read_info->byte_before_the_zipfile;
; 1599 : }

  0001f	c3		 ret	 0
unzGetCurrentFileZStreamPos64 ENDP
_TEXT	ENDS
; Function compile flags: /Ogtpy
; File C:\Users\chris\Documents\GitHub\FastCopy-M\external\zlib\contrib\minizip\unzip.c
;	COMDAT unzReadCurrentFile
_TEXT	SEGMENT
file$ = 80
buf$ = 88
len$ = 96
unzReadCurrentFile PROC					; COMDAT

; 1613 : extern int ZEXPORT unzReadCurrentFile(unzFile file, voidp buf, unsigned len) {

$LN84:
  00000	40 53		 push	 rbx
  00002	41 54		 push	 r12
  00004	48 83 ec 38	 sub	 rsp, 56			; 00000038H

; 1614 :     int err=UNZ_OK;
; 1615 :     uInt iRead = 0;

  00008	45 33 e4	 xor	 r12d, r12d

; 1616 :     unz64_s* s;
; 1617 :     file_in_zip64_read_info_s* pfile_in_zip_read_info;
; 1618 :     if (file==NULL)

  0000b	48 85 c9	 test	 rcx, rcx
  0000e	0f 84 ab 02 00
	00		 je	 $LN51@unzReadCur

; 1619 :         return UNZ_PARAMERROR;
; 1620 :     s=(unz64_s*)file;
; 1621 :     pfile_in_zip_read_info=s->pfile_in_zip_read;

  00014	48 8b 99 10 01
	00 00		 mov	 rbx, QWORD PTR [rcx+272]

; 1622 : 
; 1623 :     if (pfile_in_zip_read_info==NULL)

  0001b	48 85 db	 test	 rbx, rbx
  0001e	0f 84 9b 02 00
	00		 je	 $LN51@unzReadCur

; 1625 : 
; 1626 : 
; 1627 :     if (pfile_in_zip_read_info->read_buffer == NULL)

  00024	4c 39 23	 cmp	 QWORD PTR [rbx], r12
  00027	75 0d		 jne	 SHORT $LN9@unzReadCur

; 1628 :         return UNZ_END_OF_LIST_OF_FILE;

  00029	41 8d 44 24 9c	 lea	 eax, QWORD PTR [r12-100]

; 1814 : }

  0002e	48 83 c4 38	 add	 rsp, 56			; 00000038H
  00032	41 5c		 pop	 r12
  00034	5b		 pop	 rbx
  00035	c3		 ret	 0
$LN9@unzReadCur:
  00036	48 89 6c 24 50	 mov	 QWORD PTR [rsp+80], rbp
  0003b	48 89 74 24 58	 mov	 QWORD PTR [rsp+88], rsi
  00040	48 89 7c 24 60	 mov	 QWORD PTR [rsp+96], rdi
  00045	4c 89 6c 24 30	 mov	 QWORD PTR [rsp+48], r13
  0004a	4c 89 74 24 28	 mov	 QWORD PTR [rsp+40], r14
  0004f	4c 89 7c 24 20	 mov	 QWORD PTR [rsp+32], r15

; 1629 :     if (len==0)

  00054	45 85 c0	 test	 r8d, r8d
  00057	0f 84 5b 02 00
	00		 je	 $LN34@unzReadCur

; 1630 :         return 0;
; 1631 : 
; 1632 :     pfile_in_zip_read_info->stream.next_out = (Bytef*)buf;
; 1633 : 
; 1634 :     pfile_in_zip_read_info->stream.avail_out = (uInt)len;
; 1635 : 
; 1636 :     if ((len>pfile_in_zip_read_info->rest_read_uncompressed) &&

  0005d	48 8b 83 a0 00
	00 00		 mov	 rax, QWORD PTR [rbx+160]
  00064	45 8b c8	 mov	 r9d, r8d
  00067	48 89 53 18	 mov	 QWORD PTR [rbx+24], rdx
  0006b	44 89 43 20	 mov	 DWORD PTR [rbx+32], r8d
  0006f	4c 3b c8	 cmp	 r9, rax
  00072	76 0f		 jbe	 SHORT $LN11@unzReadCur
  00074	44 39 a3 18 01
	00 00		 cmp	 DWORD PTR [rbx+280], r12d
  0007b	75 06		 jne	 SHORT $LN11@unzReadCur

; 1637 :         (!(pfile_in_zip_read_info->raw)))
; 1638 :         pfile_in_zip_read_info->stream.avail_out =

  0007d	89 43 20	 mov	 DWORD PTR [rbx+32], eax
  00080	44 8b c0	 mov	 r8d, eax
$LN11@unzReadCur:

; 1639 :             (uInt)pfile_in_zip_read_info->rest_read_uncompressed;
; 1640 : 
; 1641 :     if ((len>pfile_in_zip_read_info->rest_read_compressed+
; 1642 :            pfile_in_zip_read_info->stream.avail_in) &&

  00083	8b 4b 10	 mov	 ecx, DWORD PTR [rbx+16]
  00086	48 8b 93 98 00
	00 00		 mov	 rdx, QWORD PTR [rbx+152]
  0008d	48 8d 04 0a	 lea	 rax, QWORD PTR [rdx+rcx]
  00091	4c 3b c8	 cmp	 r9, rax
  00094	76 11		 jbe	 SHORT $LN32@unzReadCur
  00096	44 39 a3 18 01
	00 00		 cmp	 DWORD PTR [rbx+280], r12d
  0009d	74 08		 je	 SHORT $LN32@unzReadCur

; 1643 :          (pfile_in_zip_read_info->raw))
; 1644 :         pfile_in_zip_read_info->stream.avail_out =

  0009f	44 8d 04 11	 lea	 r8d, DWORD PTR [rcx+rdx]
  000a3	44 89 43 20	 mov	 DWORD PTR [rbx+32], r8d
$LN32@unzReadCur:

; 1645 :             (uInt)pfile_in_zip_read_info->rest_read_compressed+
; 1646 :             pfile_in_zip_read_info->stream.avail_in;
; 1647 : 
; 1648 :     while (pfile_in_zip_read_info->stream.avail_out>0)

  000a7	45 85 c0	 test	 r8d, r8d
  000aa	0f 84 f6 01 00
	00		 je	 $LN53@unzReadCur
  000b0	41 bd fd ff ff
	ff		 mov	 r13d, -3
$LN82@unzReadCur:

; 1649 :     {
; 1650 :         if ((pfile_in_zip_read_info->stream.avail_in==0) &&

  000b6	8b 43 10	 mov	 eax, DWORD PTR [rbx+16]
  000b9	48 bf 00 00 00
	00 01 00 00 00	 mov	 rdi, 4294967296		; 0000000100000000H
  000c3	85 c0		 test	 eax, eax
  000c5	0f 85 92 00 00
	00		 jne	 $LN13@unzReadCur
  000cb	48 8b 8b 98 00
	00 00		 mov	 rcx, QWORD PTR [rbx+152]
  000d2	48 85 c9	 test	 rcx, rcx
  000d5	0f 84 82 00 00
	00		 je	 $LN13@unzReadCur

; 1651 :             (pfile_in_zip_read_info->rest_read_compressed>0))
; 1652 :         {
; 1653 :             uInt uReadThis = UNZ_BUFSIZE;

  000db	bf 00 40 00 00	 mov	 edi, 16384		; 00004000H

; 1654 :             if (pfile_in_zip_read_info->rest_read_compressed<uReadThis)

  000e0	48 3b cf	 cmp	 rcx, rdi
  000e3	73 0a		 jae	 SHORT $LN47@unzReadCur

; 1655 :                 uReadThis = (uInt)pfile_in_zip_read_info->rest_read_compressed;

  000e5	8b f9		 mov	 edi, ecx

; 1656 :             if (uReadThis == 0)

  000e7	85 c9		 test	 ecx, ecx
  000e9	0f 84 c9 01 00
	00		 je	 $LN34@unzReadCur
$LN47@unzReadCur:

; 1658 :             if (ZSEEK64(pfile_in_zip_read_info->z_filefunc,
; 1659 :                       pfile_in_zip_read_info->filestream,
; 1660 :                       pfile_in_zip_read_info->pos_in_zipfile +
; 1661 :                          pfile_in_zip_read_info->byte_before_the_zipfile,
; 1662 :                          ZLIB_FILEFUNC_SEEK_SET)!=0)

  000ef	4c 8b 83 10 01
	00 00		 mov	 r8, QWORD PTR [rbx+272]
  000f6	48 8d 8b a8 00
	00 00		 lea	 rcx, QWORD PTR [rbx+168]
  000fd	4c 03 43 60	 add	 r8, QWORD PTR [rbx+96]
  00101	45 33 c9	 xor	 r9d, r9d
  00104	48 8b 93 00 01
	00 00		 mov	 rdx, QWORD PTR [rbx+256]
  0010b	e8 00 00 00 00	 call	 call_zseek64
  00110	85 c0		 test	 eax, eax
  00112	0f 85 96 01 00
	00		 jne	 $LN36@unzReadCur

; 1663 :                 return UNZ_ERRNO;
; 1664 :             if (ZREAD64(pfile_in_zip_read_info->z_filefunc,
; 1665 :                       pfile_in_zip_read_info->filestream,
; 1666 :                       pfile_in_zip_read_info->read_buffer,
; 1667 :                       uReadThis)!=uReadThis)

  00118	4c 8b 03	 mov	 r8, QWORD PTR [rbx]
  0011b	44 8b cf	 mov	 r9d, edi
  0011e	48 8b 93 00 01
	00 00		 mov	 rdx, QWORD PTR [rbx+256]
  00125	48 8b 8b e0 00
	00 00		 mov	 rcx, QWORD PTR [rbx+224]
  0012c	ff 93 b0 00 00
	00		 call	 QWORD PTR [rbx+176]
  00132	3b c7		 cmp	 eax, edi
  00134	0f 85 74 01 00
	00		 jne	 $LN36@unzReadCur

; 1669 : 
; 1670 : 
; 1671 : #            ifndef NOUNCRYPT
; 1672 :             if(s->encrypted)
; 1673 :             {
; 1674 :                 uInt i;
; 1675 :                 for(i=0;i<uReadThis;i++)
; 1676 :                   pfile_in_zip_read_info->read_buffer[i] =
; 1677 :                       zdecode(s->keys,s->pcrc_32_tab,
; 1678 :                               pfile_in_zip_read_info->read_buffer[i]);
; 1679 :             }
; 1680 : #            endif
; 1681 : 
; 1682 : 
; 1683 :             pfile_in_zip_read_info->pos_in_zipfile += uReadThis;

  0013a	8b c7		 mov	 eax, edi
  0013c	48 01 43 60	 add	 QWORD PTR [rbx+96], rax

; 1684 : 
; 1685 :             pfile_in_zip_read_info->rest_read_compressed-=uReadThis;

  00140	48 29 83 98 00
	00 00		 sub	 QWORD PTR [rbx+152], rax

; 1686 : 
; 1687 :             pfile_in_zip_read_info->stream.next_in =

  00147	48 8b 03	 mov	 rax, QWORD PTR [rbx]
  0014a	48 89 43 08	 mov	 QWORD PTR [rbx+8], rax

; 1688 :                 (Bytef*)pfile_in_zip_read_info->read_buffer;
; 1689 :             pfile_in_zip_read_info->stream.avail_in = (uInt)uReadThis;

  0014e	8b c7		 mov	 eax, edi
  00150	89 7b 10	 mov	 DWORD PTR [rbx+16], edi
  00153	48 bf 00 00 00
	00 01 00 00 00	 mov	 rdi, 4294967296		; 0000000100000000H
$LN13@unzReadCur:

; 1690 :         }
; 1691 : 
; 1692 :         if ((pfile_in_zip_read_info->compression_method==0) || (pfile_in_zip_read_info->raw))

  0015d	8b 8b 08 01 00
	00		 mov	 ecx, DWORD PTR [rbx+264]
  00163	85 c9		 test	 ecx, ecx
  00165	0f 84 b3 00 00
	00		 je	 $LN48@unzReadCur
  0016b	83 bb 18 01 00
	00 00		 cmp	 DWORD PTR [rbx+280], 0
  00172	0f 85 a6 00 00
	00		 jne	 $LN48@unzReadCur

; 1722 :         }
; 1723 :         else if (pfile_in_zip_read_info->compression_method==Z_BZIP2ED)

  00178	83 f9 0c	 cmp	 ecx, 12
  0017b	0f 84 1b 01 00
	00		 je	 $LN29@unzReadCur

; 1724 :         {
; 1725 : #ifdef HAVE_BZIP2
; 1726 :             uLong uTotalOutBefore,uTotalOutAfter;
; 1727 :             const Bytef *bufBefore;
; 1728 :             uLong uOutThis;
; 1729 : 
; 1730 :             pfile_in_zip_read_info->bstream.next_in        = (char*)pfile_in_zip_read_info->stream.next_in;
; 1731 :             pfile_in_zip_read_info->bstream.avail_in       = pfile_in_zip_read_info->stream.avail_in;
; 1732 :             pfile_in_zip_read_info->bstream.total_in_lo32  = pfile_in_zip_read_info->stream.total_in;
; 1733 :             pfile_in_zip_read_info->bstream.total_in_hi32  = 0;
; 1734 :             pfile_in_zip_read_info->bstream.next_out       = (char*)pfile_in_zip_read_info->stream.next_out;
; 1735 :             pfile_in_zip_read_info->bstream.avail_out      = pfile_in_zip_read_info->stream.avail_out;
; 1736 :             pfile_in_zip_read_info->bstream.total_out_lo32 = pfile_in_zip_read_info->stream.total_out;
; 1737 :             pfile_in_zip_read_info->bstream.total_out_hi32 = 0;
; 1738 : 
; 1739 :             uTotalOutBefore = pfile_in_zip_read_info->bstream.total_out_lo32;
; 1740 :             bufBefore = (const Bytef *)pfile_in_zip_read_info->bstream.next_out;
; 1741 : 
; 1742 :             err=BZ2_bzDecompress(&pfile_in_zip_read_info->bstream);
; 1743 : 
; 1744 :             uTotalOutAfter = pfile_in_zip_read_info->bstream.total_out_lo32;
; 1745 :             uOutThis = uTotalOutAfter-uTotalOutBefore;
; 1746 : 
; 1747 :             pfile_in_zip_read_info->total_out_64 = pfile_in_zip_read_info->total_out_64 + uOutThis;
; 1748 : 
; 1749 :             pfile_in_zip_read_info->crc32 = crc32(pfile_in_zip_read_info->crc32,bufBefore, (uInt)(uOutThis));
; 1750 :             pfile_in_zip_read_info->rest_read_uncompressed -= uOutThis;
; 1751 :             iRead += (uInt)(uTotalOutAfter - uTotalOutBefore);
; 1752 : 
; 1753 :             pfile_in_zip_read_info->stream.next_in   = (Bytef*)pfile_in_zip_read_info->bstream.next_in;
; 1754 :             pfile_in_zip_read_info->stream.avail_in  = pfile_in_zip_read_info->bstream.avail_in;
; 1755 :             pfile_in_zip_read_info->stream.total_in  = pfile_in_zip_read_info->bstream.total_in_lo32;
; 1756 :             pfile_in_zip_read_info->stream.next_out  = (Bytef*)pfile_in_zip_read_info->bstream.next_out;
; 1757 :             pfile_in_zip_read_info->stream.avail_out = pfile_in_zip_read_info->bstream.avail_out;
; 1758 :             pfile_in_zip_read_info->stream.total_out = pfile_in_zip_read_info->bstream.total_out_lo32;
; 1759 : 
; 1760 :             if (err==BZ_STREAM_END)
; 1761 :               return (iRead==0) ? UNZ_EOF : iRead;
; 1762 :             if (err!=BZ_OK)
; 1763 :               break;
; 1764 : #endif
; 1765 :         } // end Z_BZIP2ED
; 1766 :         else
; 1767 :         {
; 1768 :             ZPOS64_T uTotalOutBefore,uTotalOutAfter;
; 1769 :             const Bytef *bufBefore;
; 1770 :             ZPOS64_T uOutThis;
; 1771 :             int flush=Z_SYNC_FLUSH;
; 1772 : 
; 1773 :             uTotalOutBefore = pfile_in_zip_read_info->stream.total_out;

  00181	44 8b 73 24	 mov	 r14d, DWORD PTR [rbx+36]

; 1774 :             bufBefore = pfile_in_zip_read_info->stream.next_out;
; 1775 : 
; 1776 :             /*
; 1777 :             if ((pfile_in_zip_read_info->rest_read_uncompressed ==
; 1778 :                      pfile_in_zip_read_info->stream.avail_out) &&
; 1779 :                 (pfile_in_zip_read_info->rest_read_compressed == 0))
; 1780 :                 flush = Z_FINISH;
; 1781 :             */
; 1782 :             err=inflate(&pfile_in_zip_read_info->stream,flush);

  00185	48 8d 4b 08	 lea	 rcx, QWORD PTR [rbx+8]
  00189	4c 8b 7b 18	 mov	 r15, QWORD PTR [rbx+24]
  0018d	ba 02 00 00 00	 mov	 edx, 2
  00192	e8 00 00 00 00	 call	 inflate
  00197	8b e8		 mov	 ebp, eax

; 1783 : 
; 1784 :             if ((err>=0) && (pfile_in_zip_read_info->stream.msg!=NULL))

  00199	85 c0		 test	 eax, eax
  0019b	78 09		 js	 SHORT $LN26@unzReadCur
  0019d	48 83 7b 28 00	 cmp	 QWORD PTR [rbx+40], 0
  001a2	41 0f 45 ed	 cmovne	 ebp, r13d
$LN26@unzReadCur:

; 1785 :               err = Z_DATA_ERROR;
; 1786 : 
; 1787 :             uTotalOutAfter = pfile_in_zip_read_info->stream.total_out;

  001a6	8b 4b 24	 mov	 ecx, DWORD PTR [rbx+36]

; 1788 :             /* Detect overflow, because z_stream.total_out is uLong (32 bits) */
; 1789 :             if (uTotalOutAfter<uTotalOutBefore)
; 1790 :                 uTotalOutAfter += 1LL << 32; /* Add maximum value of uLong + 1 */
; 1791 :             uOutThis = uTotalOutAfter-uTotalOutBefore;
; 1792 : 
; 1793 :             pfile_in_zip_read_info->total_out_64 = pfile_in_zip_read_info->total_out_64 + uOutThis;
; 1794 : 
; 1795 :             pfile_in_zip_read_info->crc32 =

  001a9	49 8b d7	 mov	 rdx, r15
  001ac	49 3b ce	 cmp	 rcx, r14
  001af	48 8d 34 39	 lea	 rsi, QWORD PTR [rcx+rdi]
  001b3	48 0f 43 f1	 cmovae	 rsi, rcx
  001b7	8b 8b 90 00 00
	00		 mov	 ecx, DWORD PTR [rbx+144]
  001bd	48 8b fe	 mov	 rdi, rsi
  001c0	49 2b fe	 sub	 rdi, r14
  001c3	48 01 bb 88 00
	00 00		 add	 QWORD PTR [rbx+136], rdi
  001ca	44 8b c7	 mov	 r8d, edi
  001cd	e8 00 00 00 00	 call	 crc32

; 1796 :                 crc32(pfile_in_zip_read_info->crc32,bufBefore,
; 1797 :                         (uInt)(uOutThis));
; 1798 : 
; 1799 :             pfile_in_zip_read_info->rest_read_uncompressed -=

  001d2	48 29 bb a0 00
	00 00		 sub	 QWORD PTR [rbx+160], rdi

; 1800 :                 uOutThis;
; 1801 : 
; 1802 :             iRead += (uInt)(uTotalOutAfter - uTotalOutBefore);

  001d9	41 2b f6	 sub	 esi, r14d
  001dc	44 03 e6	 add	 r12d, esi
  001df	89 83 90 00 00
	00		 mov	 DWORD PTR [rbx+144], eax

; 1803 : 
; 1804 :             if (err==Z_STREAM_END)

  001e5	83 fd 01	 cmp	 ebp, 1
  001e8	0f 84 b8 00 00
	00		 je	 $LN53@unzReadCur

; 1805 :                 return (iRead==0) ? UNZ_EOF : (int)iRead;
; 1806 :             if (err!=Z_OK)

  001ee	85 ed		 test	 ebp, ebp
  001f0	0f 84 a6 00 00
	00		 je	 $LN29@unzReadCur

; 1813 :     return err;

  001f6	8b c5		 mov	 eax, ebp
$LN81@unzReadCur:
  001f8	4c 8b 74 24 28	 mov	 r14, QWORD PTR [rsp+40]
  001fd	4c 8b 6c 24 30	 mov	 r13, QWORD PTR [rsp+48]
  00202	48 8b 7c 24 60	 mov	 rdi, QWORD PTR [rsp+96]
  00207	48 8b 74 24 58	 mov	 rsi, QWORD PTR [rsp+88]
  0020c	48 8b 6c 24 50	 mov	 rbp, QWORD PTR [rsp+80]
  00211	4c 8b 7c 24 20	 mov	 r15, QWORD PTR [rsp+32]

; 1814 : }

  00216	48 83 c4 38	 add	 rsp, 56			; 00000038H
  0021a	41 5c		 pop	 r12
  0021c	5b		 pop	 rbx
  0021d	c3		 ret	 0
$LN48@unzReadCur:

; 1693 :         {
; 1694 :             uInt uDoCopy,i ;
; 1695 : 
; 1696 :             if ((pfile_in_zip_read_info->stream.avail_in == 0) &&

  0021e	85 c0		 test	 eax, eax
  00220	75 0a		 jne	 SHORT $LN21@unzReadCur
  00222	48 83 bb 98 00
	00 00 00	 cmp	 QWORD PTR [rbx+152], 0
  0022a	74 7a		 je	 SHORT $LN53@unzReadCur
$LN21@unzReadCur:

; 1697 :                 (pfile_in_zip_read_info->rest_read_compressed == 0))
; 1698 :                 return (iRead==0) ? UNZ_EOF : (int)iRead;
; 1699 : 
; 1700 :             if (pfile_in_zip_read_info->stream.avail_out <

  0022c	8b 6b 20	 mov	 ebp, DWORD PTR [rbx+32]

; 1701 :                             pfile_in_zip_read_info->stream.avail_in)
; 1702 :                 uDoCopy = pfile_in_zip_read_info->stream.avail_out ;
; 1703 :             else
; 1704 :                 uDoCopy = pfile_in_zip_read_info->stream.avail_in ;
; 1705 : 
; 1706 :             for (i=0;i<uDoCopy;i++)

  0022f	3b e8		 cmp	 ebp, eax
  00231	0f 43 e8	 cmovae	 ebp, eax
  00234	45 33 c0	 xor	 r8d, r8d
  00237	85 ed		 test	 ebp, ebp
  00239	74 1e		 je	 SHORT $LN49@unzReadCur
  0023b	0f 1f 44 00 00	 npad	 5
$LL6@unzReadCur:

; 1707 :                 *(pfile_in_zip_read_info->stream.next_out+i) =

  00240	48 8b 43 08	 mov	 rax, QWORD PTR [rbx+8]
  00244	48 8b 4b 18	 mov	 rcx, QWORD PTR [rbx+24]
  00248	41 0f b6 04 00	 movzx	 eax, BYTE PTR [r8+rax]
  0024d	41 88 04 08	 mov	 BYTE PTR [r8+rcx], al
  00251	41 ff c0	 inc	 r8d
  00254	44 3b c5	 cmp	 r8d, ebp
  00257	72 e7		 jb	 SHORT $LL6@unzReadCur
$LN49@unzReadCur:

; 1708 :                         *(pfile_in_zip_read_info->stream.next_in+i);
; 1709 : 
; 1710 :             pfile_in_zip_read_info->total_out_64 = pfile_in_zip_read_info->total_out_64 + uDoCopy;
; 1711 : 
; 1712 :             pfile_in_zip_read_info->crc32 = crc32(pfile_in_zip_read_info->crc32,

  00259	48 8b 7b 18	 mov	 rdi, QWORD PTR [rbx+24]
  0025d	44 8b c5	 mov	 r8d, ebp
  00260	8b 8b 90 00 00
	00		 mov	 ecx, DWORD PTR [rbx+144]
  00266	48 8b d7	 mov	 rdx, rdi
  00269	8b f5		 mov	 esi, ebp
  0026b	48 01 b3 88 00
	00 00		 add	 QWORD PTR [rbx+136], rsi
  00272	e8 00 00 00 00	 call	 crc32

; 1713 :                                 pfile_in_zip_read_info->stream.next_out,
; 1714 :                                 uDoCopy);
; 1715 :             pfile_in_zip_read_info->rest_read_uncompressed-=uDoCopy;

  00277	48 29 b3 a0 00
	00 00		 sub	 QWORD PTR [rbx+160], rsi

; 1716 :             pfile_in_zip_read_info->stream.avail_in -= uDoCopy;

  0027e	29 6b 10	 sub	 DWORD PTR [rbx+16], ebp

; 1717 :             pfile_in_zip_read_info->stream.avail_out -= uDoCopy;

  00281	29 6b 20	 sub	 DWORD PTR [rbx+32], ebp

; 1718 :             pfile_in_zip_read_info->stream.next_out += uDoCopy;
; 1719 :             pfile_in_zip_read_info->stream.next_in += uDoCopy;

  00284	48 01 73 08	 add	 QWORD PTR [rbx+8], rsi

; 1720 :             pfile_in_zip_read_info->stream.total_out += uDoCopy;

  00288	01 6b 24	 add	 DWORD PTR [rbx+36], ebp
  0028b	89 83 90 00 00
	00		 mov	 DWORD PTR [rbx+144], eax

; 1721 :             iRead += uDoCopy;

  00291	44 03 e5	 add	 r12d, ebp
  00294	48 8d 04 2f	 lea	 rax, QWORD PTR [rdi+rbp]
  00298	48 89 43 18	 mov	 QWORD PTR [rbx+24], rax
$LN29@unzReadCur:

; 1645 :             (uInt)pfile_in_zip_read_info->rest_read_compressed+
; 1646 :             pfile_in_zip_read_info->stream.avail_in;
; 1647 : 
; 1648 :     while (pfile_in_zip_read_info->stream.avail_out>0)

  0029c	83 7b 20 00	 cmp	 DWORD PTR [rbx+32], 0
  002a0	0f 87 10 fe ff
	ff		 ja	 $LN82@unzReadCur
$LN53@unzReadCur:

; 1807 :                 break;
; 1808 :         }
; 1809 :     }
; 1810 : 
; 1811 :     if (err==Z_OK)
; 1812 :         return (int)iRead;

  002a6	41 8b c4	 mov	 eax, r12d
  002a9	e9 4a ff ff ff	 jmp	 $LN81@unzReadCur
$LN36@unzReadCur:

; 1668 :                 return UNZ_ERRNO;

  002ae	b8 ff ff ff ff	 mov	 eax, -1
  002b3	e9 40 ff ff ff	 jmp	 $LN81@unzReadCur
$LN34@unzReadCur:

; 1657 :                 return UNZ_EOF;

  002b8	33 c0		 xor	 eax, eax
  002ba	e9 39 ff ff ff	 jmp	 $LN81@unzReadCur
$LN51@unzReadCur:

; 1624 :         return UNZ_PARAMERROR;

  002bf	b8 9a ff ff ff	 mov	 eax, -102		; ffffffffffffff9aH

; 1814 : }

  002c4	48 83 c4 38	 add	 rsp, 56			; 00000038H
  002c8	41 5c		 pop	 r12
  002ca	5b		 pop	 rbx
  002cb	c3		 ret	 0
unzReadCurrentFile ENDP
_TEXT	ENDS
; Function compile flags: /Ogtpy
; File C:\Users\chris\Documents\GitHub\FastCopy-M\external\zlib\contrib\minizip\unzip.c
;	COMDAT unztell
_TEXT	SEGMENT
file$ = 8
unztell	PROC						; COMDAT

; 1821 :     unz64_s* s;
; 1822 :     file_in_zip64_read_info_s* pfile_in_zip_read_info;
; 1823 :     if (file==NULL)

  00000	48 85 c9	 test	 rcx, rcx
  00003	74 10		 je	 SHORT $LN5@unztell

; 1824 :         return UNZ_PARAMERROR;
; 1825 :     s=(unz64_s*)file;
; 1826 :     pfile_in_zip_read_info=s->pfile_in_zip_read;

  00005	48 8b 81 10 01
	00 00		 mov	 rax, QWORD PTR [rcx+272]

; 1827 : 
; 1828 :     if (pfile_in_zip_read_info==NULL)

  0000c	48 85 c0	 test	 rax, rax
  0000f	74 04		 je	 SHORT $LN5@unztell

; 1830 : 
; 1831 :     return (z_off_t)pfile_in_zip_read_info->stream.total_out;

  00011	8b 40 24	 mov	 eax, DWORD PTR [rax+36]

; 1832 : }

  00014	c3		 ret	 0
$LN5@unztell:

; 1829 :         return UNZ_PARAMERROR;

  00015	b8 9a ff ff ff	 mov	 eax, -102		; ffffffffffffff9aH

; 1832 : }

  0001a	c3		 ret	 0
unztell	ENDP
_TEXT	ENDS
; Function compile flags: /Ogtpy
; File C:\Users\chris\Documents\GitHub\FastCopy-M\external\zlib\contrib\minizip\unzip.c
;	COMDAT unztell64
_TEXT	SEGMENT
file$ = 8
unztell64 PROC						; COMDAT

; 1835 : 
; 1836 :     unz64_s* s;
; 1837 :     file_in_zip64_read_info_s* pfile_in_zip_read_info;
; 1838 :     if (file==NULL)

  00000	48 85 c9	 test	 rcx, rcx
  00003	74 14		 je	 SHORT $LN5@unztell64

; 1839 :         return (ZPOS64_T)-1;
; 1840 :     s=(unz64_s*)file;
; 1841 :     pfile_in_zip_read_info=s->pfile_in_zip_read;

  00005	48 8b 81 10 01
	00 00		 mov	 rax, QWORD PTR [rcx+272]

; 1842 : 
; 1843 :     if (pfile_in_zip_read_info==NULL)

  0000c	48 85 c0	 test	 rax, rax
  0000f	74 08		 je	 SHORT $LN5@unztell64

; 1845 : 
; 1846 :     return pfile_in_zip_read_info->total_out_64;

  00011	48 8b 80 88 00
	00 00		 mov	 rax, QWORD PTR [rax+136]

; 1847 : }

  00018	c3		 ret	 0
$LN5@unztell64:

; 1844 :         return (ZPOS64_T)-1;

  00019	48 c7 c0 ff ff
	ff ff		 mov	 rax, -1

; 1847 : }

  00020	c3		 ret	 0
unztell64 ENDP
_TEXT	ENDS
; Function compile flags: /Ogtpy
; File C:\Users\chris\Documents\GitHub\FastCopy-M\external\zlib\contrib\minizip\unzip.c
;	COMDAT unzeof
_TEXT	SEGMENT
file$ = 8
unzeof	PROC						; COMDAT

; 1854 :     unz64_s* s;
; 1855 :     file_in_zip64_read_info_s* pfile_in_zip_read_info;
; 1856 :     if (file==NULL)

  00000	48 85 c9	 test	 rcx, rcx
  00003	74 19		 je	 SHORT $LN7@unzeof

; 1857 :         return UNZ_PARAMERROR;
; 1858 :     s=(unz64_s*)file;
; 1859 :     pfile_in_zip_read_info=s->pfile_in_zip_read;

  00005	48 8b 91 10 01
	00 00		 mov	 rdx, QWORD PTR [rcx+272]

; 1860 : 
; 1861 :     if (pfile_in_zip_read_info==NULL)

  0000c	48 85 d2	 test	 rdx, rdx
  0000f	74 0d		 je	 SHORT $LN7@unzeof

; 1863 : 
; 1864 :     if (pfile_in_zip_read_info->rest_read_uncompressed == 0)

  00011	33 c0		 xor	 eax, eax
  00013	48 39 82 a0 00
	00 00		 cmp	 QWORD PTR [rdx+160], rax
  0001a	0f 94 c0	 sete	 al

; 1865 :         return 1;
; 1866 :     else
; 1867 :         return 0;
; 1868 : }

  0001d	c3		 ret	 0
$LN7@unzeof:

; 1862 :         return UNZ_PARAMERROR;

  0001e	b8 9a ff ff ff	 mov	 eax, -102		; ffffffffffffff9aH

; 1865 :         return 1;
; 1866 :     else
; 1867 :         return 0;
; 1868 : }

  00023	c3		 ret	 0
unzeof	ENDP
_TEXT	ENDS
; Function compile flags: /Ogtpy
; File C:\Users\chris\Documents\GitHub\FastCopy-M\external\zlib\contrib\minizip\unzip.c
;	COMDAT unzGetLocalExtrafield
_TEXT	SEGMENT
file$ = 48
buf$ = 56
len$ = 64
unzGetLocalExtrafield PROC				; COMDAT

; 1884 : extern int ZEXPORT unzGetLocalExtrafield(unzFile file, voidp buf, unsigned len) {

$LN21:
  00000	48 89 5c 24 08	 mov	 QWORD PTR [rsp+8], rbx
  00005	48 89 74 24 10	 mov	 QWORD PTR [rsp+16], rsi
  0000a	57		 push	 rdi
  0000b	48 83 ec 20	 sub	 rsp, 32			; 00000020H
  0000f	41 8b f8	 mov	 edi, r8d
  00012	48 8b f2	 mov	 rsi, rdx

; 1885 :     unz64_s* s;
; 1886 :     file_in_zip64_read_info_s* pfile_in_zip_read_info;
; 1887 :     uInt read_now;
; 1888 :     ZPOS64_T size_to_read;
; 1889 : 
; 1890 :     if (file==NULL)

  00015	48 85 c9	 test	 rcx, rcx
  00018	0f 84 b9 00 00
	00		 je	 $LN13@unzGetLoca

; 1891 :         return UNZ_PARAMERROR;
; 1892 :     s=(unz64_s*)file;
; 1893 :     pfile_in_zip_read_info=s->pfile_in_zip_read;

  0001e	48 8b 99 10 01
	00 00		 mov	 rbx, QWORD PTR [rcx+272]

; 1894 : 
; 1895 :     if (pfile_in_zip_read_info==NULL)

  00025	48 85 db	 test	 rbx, rbx
  00028	0f 84 a9 00 00
	00		 je	 $LN13@unzGetLoca

; 1896 :         return UNZ_PARAMERROR;
; 1897 : 
; 1898 :     size_to_read = (pfile_in_zip_read_info->size_local_extrafield -

  0002e	4c 8b 83 80 00
	00 00		 mov	 r8, QWORD PTR [rbx+128]
  00035	8b 4b 78	 mov	 ecx, DWORD PTR [rbx+120]
  00038	49 2b c8	 sub	 rcx, r8

; 1899 :                 pfile_in_zip_read_info->pos_local_extrafield);
; 1900 : 
; 1901 :     if (buf==NULL)

  0003b	48 85 d2	 test	 rdx, rdx
  0003e	75 12		 jne	 SHORT $LN4@unzGetLoca

; 1902 :         return (int)size_to_read;

  00040	8b c1		 mov	 eax, ecx

; 1923 : 
; 1924 :     return (int)read_now;
; 1925 : }

  00042	48 8b 5c 24 30	 mov	 rbx, QWORD PTR [rsp+48]
  00047	48 8b 74 24 38	 mov	 rsi, QWORD PTR [rsp+56]
  0004c	48 83 c4 20	 add	 rsp, 32			; 00000020H
  00050	5f		 pop	 rdi
  00051	c3		 ret	 0
$LN4@unzGetLoca:

; 1903 : 
; 1904 :     if (len>size_to_read)

  00052	48 3b f9	 cmp	 rdi, rcx
  00055	0f 47 f9	 cmova	 edi, ecx

; 1905 :         read_now = (uInt)size_to_read;
; 1906 :     else
; 1907 :         read_now = (uInt)len ;
; 1908 : 
; 1909 :     if (read_now==0)

  00058	85 ff		 test	 edi, edi
  0005a	75 12		 jne	 SHORT $LN7@unzGetLoca

; 1910 :         return 0;

  0005c	33 c0		 xor	 eax, eax

; 1923 : 
; 1924 :     return (int)read_now;
; 1925 : }

  0005e	48 8b 5c 24 30	 mov	 rbx, QWORD PTR [rsp+48]
  00063	48 8b 74 24 38	 mov	 rsi, QWORD PTR [rsp+56]
  00068	48 83 c4 20	 add	 rsp, 32			; 00000020H
  0006c	5f		 pop	 rdi
  0006d	c3		 ret	 0
$LN7@unzGetLoca:

; 1911 : 
; 1912 :     if (ZSEEK64(pfile_in_zip_read_info->z_filefunc,
; 1913 :               pfile_in_zip_read_info->filestream,
; 1914 :               pfile_in_zip_read_info->offset_local_extrafield +
; 1915 :               pfile_in_zip_read_info->pos_local_extrafield,
; 1916 :               ZLIB_FILEFUNC_SEEK_SET)!=0)

  0006e	4c 03 43 70	 add	 r8, QWORD PTR [rbx+112]
  00072	48 8d 8b a8 00
	00 00		 lea	 rcx, QWORD PTR [rbx+168]
  00079	48 8b 93 00 01
	00 00		 mov	 rdx, QWORD PTR [rbx+256]
  00080	45 33 c9	 xor	 r9d, r9d
  00083	e8 00 00 00 00	 call	 call_zseek64
  00088	85 c0		 test	 eax, eax
  0008a	75 36		 jne	 SHORT $LN11@unzGetLoca

; 1917 :         return UNZ_ERRNO;
; 1918 : 
; 1919 :     if (ZREAD64(pfile_in_zip_read_info->z_filefunc,
; 1920 :               pfile_in_zip_read_info->filestream,
; 1921 :               buf,read_now)!=read_now)

  0008c	48 8b 93 00 01
	00 00		 mov	 rdx, QWORD PTR [rbx+256]
  00093	44 8b cf	 mov	 r9d, edi
  00096	48 8b 8b e0 00
	00 00		 mov	 rcx, QWORD PTR [rbx+224]
  0009d	4c 8b c6	 mov	 r8, rsi
  000a0	ff 93 b0 00 00
	00		 call	 QWORD PTR [rbx+176]
  000a6	3b c7		 cmp	 eax, edi
  000a8	b9 ff ff ff ff	 mov	 ecx, -1
  000ad	0f 45 f9	 cmovne	 edi, ecx
  000b0	8b c7		 mov	 eax, edi

; 1923 : 
; 1924 :     return (int)read_now;
; 1925 : }

  000b2	48 8b 5c 24 30	 mov	 rbx, QWORD PTR [rsp+48]
  000b7	48 8b 74 24 38	 mov	 rsi, QWORD PTR [rsp+56]
  000bc	48 83 c4 20	 add	 rsp, 32			; 00000020H
  000c0	5f		 pop	 rdi
  000c1	c3		 ret	 0
$LN11@unzGetLoca:

; 1922 :         return UNZ_ERRNO;

  000c2	b8 ff ff ff ff	 mov	 eax, -1

; 1923 : 
; 1924 :     return (int)read_now;
; 1925 : }

  000c7	48 8b 5c 24 30	 mov	 rbx, QWORD PTR [rsp+48]
  000cc	48 8b 74 24 38	 mov	 rsi, QWORD PTR [rsp+56]
  000d1	48 83 c4 20	 add	 rsp, 32			; 00000020H
  000d5	5f		 pop	 rdi
  000d6	c3		 ret	 0
$LN13@unzGetLoca:
  000d7	48 8b 5c 24 30	 mov	 rbx, QWORD PTR [rsp+48]
  000dc	b8 9a ff ff ff	 mov	 eax, -102		; ffffffffffffff9aH
  000e1	48 8b 74 24 38	 mov	 rsi, QWORD PTR [rsp+56]
  000e6	48 83 c4 20	 add	 rsp, 32			; 00000020H
  000ea	5f		 pop	 rdi
  000eb	c3		 ret	 0
unzGetLocalExtrafield ENDP
_TEXT	ENDS
; Function compile flags: /Ogtpy
; File C:\Users\chris\Documents\GitHub\FastCopy-M\external\zlib\contrib\minizip\unzip.c
;	COMDAT unzCloseCurrentFile
_TEXT	SEGMENT
file$ = 48
unzCloseCurrentFile PROC				; COMDAT

; 1931 : extern int ZEXPORT unzCloseCurrentFile(unzFile file) {

$LN16:
  00000	48 89 5c 24 08	 mov	 QWORD PTR [rsp+8], rbx
  00005	48 89 74 24 10	 mov	 QWORD PTR [rsp+16], rsi
  0000a	57		 push	 rdi
  0000b	48 83 ec 20	 sub	 rsp, 32			; 00000020H

; 1932 :     int err=UNZ_OK;

  0000f	33 ff		 xor	 edi, edi
  00011	48 8b f1	 mov	 rsi, rcx

; 1933 : 
; 1934 :     unz64_s* s;
; 1935 :     file_in_zip64_read_info_s* pfile_in_zip_read_info;
; 1936 :     if (file==NULL)

  00014	48 85 c9	 test	 rcx, rcx
  00017	74 7d		 je	 SHORT $LN8@unzCloseCu

; 1937 :         return UNZ_PARAMERROR;
; 1938 :     s=(unz64_s*)file;
; 1939 :     pfile_in_zip_read_info=s->pfile_in_zip_read;

  00019	48 8b 99 10 01
	00 00		 mov	 rbx, QWORD PTR [rcx+272]

; 1940 : 
; 1941 :     if (pfile_in_zip_read_info==NULL)

  00020	48 85 db	 test	 rbx, rbx
  00023	74 71		 je	 SHORT $LN8@unzCloseCu

; 1942 :         return UNZ_PARAMERROR;
; 1943 : 
; 1944 : 
; 1945 :     if ((pfile_in_zip_read_info->rest_read_uncompressed == 0) &&

  00025	48 39 bb a0 00
	00 00		 cmp	 QWORD PTR [rbx+160], rdi
  0002c	75 1c		 jne	 SHORT $LN5@unzCloseCu
  0002e	39 bb 18 01 00
	00		 cmp	 DWORD PTR [rbx+280], edi
  00034	75 14		 jne	 SHORT $LN5@unzCloseCu

; 1946 :         (!pfile_in_zip_read_info->raw))
; 1947 :     {
; 1948 :         if (pfile_in_zip_read_info->crc32 != pfile_in_zip_read_info->crc32_wait)

  00036	8b 83 94 00 00
	00		 mov	 eax, DWORD PTR [rbx+148]
  0003c	b9 97 ff ff ff	 mov	 ecx, -105		; ffffffffffffff97H
  00041	39 83 90 00 00
	00		 cmp	 DWORD PTR [rbx+144], eax
  00047	0f 45 f9	 cmovne	 edi, ecx
$LN5@unzCloseCu:

; 1949 :             err=UNZ_CRCERROR;
; 1950 :     }
; 1951 : 
; 1952 : 
; 1953 :     TRYFREE(pfile_in_zip_read_info->read_buffer);

  0004a	48 8b 0b	 mov	 rcx, QWORD PTR [rbx]
  0004d	ff 15 00 00 00
	00		 call	 QWORD PTR __imp_free

; 1954 :     pfile_in_zip_read_info->read_buffer = NULL;
; 1955 :     if (pfile_in_zip_read_info->stream_initialised == Z_DEFLATED)

  00053	83 7b 68 08	 cmp	 DWORD PTR [rbx+104], 8
  00057	48 c7 03 00 00
	00 00		 mov	 QWORD PTR [rbx], 0
  0005e	75 09		 jne	 SHORT $LN6@unzCloseCu

; 1956 :         inflateEnd(&pfile_in_zip_read_info->stream);

  00060	48 8d 4b 08	 lea	 rcx, QWORD PTR [rbx+8]
  00064	e8 00 00 00 00	 call	 inflateEnd
$LN6@unzCloseCu:

; 1957 : #ifdef HAVE_BZIP2
; 1958 :     else if (pfile_in_zip_read_info->stream_initialised == Z_BZIP2ED)
; 1959 :         BZ2_bzDecompressEnd(&pfile_in_zip_read_info->bstream);
; 1960 : #endif
; 1961 : 
; 1962 : 
; 1963 :     pfile_in_zip_read_info->stream_initialised = 0;
; 1964 :     TRYFREE(pfile_in_zip_read_info);

  00069	48 8b cb	 mov	 rcx, rbx
  0006c	c7 43 68 00 00
	00 00		 mov	 DWORD PTR [rbx+104], 0
  00073	ff 15 00 00 00
	00		 call	 QWORD PTR __imp_free

; 1965 : 
; 1966 :     s->pfile_in_zip_read=NULL;
; 1967 : 
; 1968 :     return err;

  00079	8b c7		 mov	 eax, edi
  0007b	48 c7 86 10 01
	00 00 00 00 00
	00		 mov	 QWORD PTR [rsi+272], 0

; 1969 : }

  00086	48 8b 5c 24 30	 mov	 rbx, QWORD PTR [rsp+48]
  0008b	48 8b 74 24 38	 mov	 rsi, QWORD PTR [rsp+56]
  00090	48 83 c4 20	 add	 rsp, 32			; 00000020H
  00094	5f		 pop	 rdi
  00095	c3		 ret	 0
$LN8@unzCloseCu:
  00096	48 8b 5c 24 30	 mov	 rbx, QWORD PTR [rsp+48]
  0009b	b8 9a ff ff ff	 mov	 eax, -102		; ffffffffffffff9aH
  000a0	48 8b 74 24 38	 mov	 rsi, QWORD PTR [rsp+56]
  000a5	48 83 c4 20	 add	 rsp, 32			; 00000020H
  000a9	5f		 pop	 rdi
  000aa	c3		 ret	 0
unzCloseCurrentFile ENDP
_TEXT	ENDS
; Function compile flags: /Ogtpy
; File C:\Users\chris\Documents\GitHub\FastCopy-M\external\zlib\contrib\minizip\unzip.c
;	COMDAT unzGetGlobalComment
_TEXT	SEGMENT
file$ = 48
szComment$ = 56
uSizeBuf$ = 64
unzGetGlobalComment PROC				; COMDAT

; 1977 : extern int ZEXPORT unzGetGlobalComment(unzFile file, char * szComment, uLong uSizeBuf) {

$LN18:
  00000	48 89 5c 24 10	 mov	 QWORD PTR [rsp+16], rbx
  00005	48 89 6c 24 18	 mov	 QWORD PTR [rsp+24], rbp
  0000a	57		 push	 rdi
  0000b	48 83 ec 20	 sub	 rsp, 32			; 00000020H
  0000f	41 8b e8	 mov	 ebp, r8d
  00012	48 8b fa	 mov	 rdi, rdx
  00015	48 8b d9	 mov	 rbx, rcx

; 1978 :     unz64_s* s;
; 1979 :     uLong uReadThis ;
; 1980 :     if (file==NULL)

  00018	48 85 c9	 test	 rcx, rcx
  0001b	75 13		 jne	 SHORT $LN2@unzGetGlob

; 1981 :         return (int)UNZ_PARAMERROR;

  0001d	8d 41 9a	 lea	 eax, QWORD PTR [rcx-102]

; 2001 : }

  00020	48 8b 5c 24 38	 mov	 rbx, QWORD PTR [rsp+56]
  00025	48 8b 6c 24 40	 mov	 rbp, QWORD PTR [rsp+64]
  0002a	48 83 c4 20	 add	 rsp, 32			; 00000020H
  0002e	5f		 pop	 rdi
  0002f	c3		 ret	 0
$LN2@unzGetGlob:

; 1982 :     s=(unz64_s*)file;
; 1983 : 
; 1984 :     uReadThis = uSizeBuf;
; 1985 :     if (uReadThis>s->gi.size_comment)

  00030	3b 69 70	 cmp	 ebp, DWORD PTR [rcx+112]

; 1986 :         uReadThis = s->gi.size_comment;
; 1987 : 
; 1988 :     if (ZSEEK64(s->z_filefunc,s->filestream,s->central_pos+22,ZLIB_FILEFUNC_SEEK_SET)!=0)

  00033	4c 8b 81 98 00
	00 00		 mov	 r8, QWORD PTR [rcx+152]
  0003a	48 8b 51 60	 mov	 rdx, QWORD PTR [rcx+96]
  0003e	48 89 74 24 30	 mov	 QWORD PTR [rsp+48], rsi
  00043	8b f5		 mov	 esi, ebp
  00045	0f 47 71 70	 cmova	 esi, DWORD PTR [rcx+112]
  00049	49 83 c0 16	 add	 r8, 22
  0004d	45 33 c9	 xor	 r9d, r9d
  00050	e8 00 00 00 00	 call	 call_zseek64
  00055	85 c0		 test	 eax, eax
  00057	75 2f		 jne	 SHORT $LN9@unzGetGlob

; 1989 :         return UNZ_ERRNO;
; 1990 : 
; 1991 :     if (uReadThis>0)

  00059	85 f6		 test	 esi, esi
  0005b	74 17		 je	 SHORT $LN6@unzGetGlob

; 1992 :     {
; 1993 :       *szComment='\0';

  0005d	88 07		 mov	 BYTE PTR [rdi], al

; 1994 :       if (ZREAD64(s->z_filefunc,s->filestream,szComment,uReadThis)!=uReadThis)

  0005f	44 8b ce	 mov	 r9d, esi
  00062	48 8b 53 60	 mov	 rdx, QWORD PTR [rbx+96]
  00066	4c 8b c7	 mov	 r8, rdi
  00069	48 8b 4b 38	 mov	 rcx, QWORD PTR [rbx+56]
  0006d	ff 53 08	 call	 QWORD PTR [rbx+8]
  00070	3b c6		 cmp	 eax, esi
  00072	75 14		 jne	 SHORT $LN9@unzGetGlob
$LN6@unzGetGlob:

; 1996 :     }
; 1997 : 
; 1998 :     if ((szComment != NULL) && (uSizeBuf > s->gi.size_comment))

  00074	48 85 ff	 test	 rdi, rdi
  00077	74 0b		 je	 SHORT $LN7@unzGetGlob
  00079	8b 43 70	 mov	 eax, DWORD PTR [rbx+112]
  0007c	3b e8		 cmp	 ebp, eax
  0007e	76 04		 jbe	 SHORT $LN7@unzGetGlob

; 1999 :         *(szComment+s->gi.size_comment)='\0';

  00080	c6 04 38 00	 mov	 BYTE PTR [rax+rdi], 0
$LN7@unzGetGlob:

; 2000 :     return (int)uReadThis;

  00084	8b c6		 mov	 eax, esi
  00086	eb 05		 jmp	 SHORT $LN16@unzGetGlob
$LN9@unzGetGlob:

; 1995 :         return UNZ_ERRNO;

  00088	b8 ff ff ff ff	 mov	 eax, -1
$LN16@unzGetGlob:
  0008d	48 8b 74 24 30	 mov	 rsi, QWORD PTR [rsp+48]

; 2001 : }

  00092	48 8b 5c 24 38	 mov	 rbx, QWORD PTR [rsp+56]
  00097	48 8b 6c 24 40	 mov	 rbp, QWORD PTR [rsp+64]
  0009c	48 83 c4 20	 add	 rsp, 32			; 00000020H
  000a0	5f		 pop	 rdi
  000a1	c3		 ret	 0
unzGetGlobalComment ENDP
_TEXT	ENDS
END
