 zlibwapi

 Timestamp is 64e12b36 (Sun Aug 20 08:51:02 2023)

 Preferred load address is 10000000

 Start         Length     Name                   Class
 0001:00000000 0005db5dH .text$mn                CODE
 0001:0005db5d 000001d7H .text$x                 CODE
 0002:00000000 00000154H .idata$5                DATA
 0002:00000154 0000000cH .00cfg                  DATA
 0002:00000160 00000004H .CRT$XCA                DATA
 0002:00000164 00000004H .CRT$XCZ                DATA
 0002:00000168 00000004H .CRT$XIA                DATA
 0002:0000016c 00000010H .CRT$XIC                DATA
 0002:0000017c 00000004H .CRT$XIZ                DATA
 0002:00000180 00000004H .CRT$XPA                DATA
 0002:00000184 00000008H .CRT$XPX                DATA
 0002:0000018c 00000004H .CRT$XPXA               DATA
 0002:00000190 00000004H .CRT$XPZ                DATA
 0002:00000194 00000004H .CRT$XTA                DATA
 0002:00000198 00000008H .CRT$XTZ                DATA
 0002:0000019c 00000000H .gfids$y                DATA
 0002:000001a0 0000c8e0H .rdata                  DATA
 0002:0000ca80 00000040H .rdata$CastGuardVftablesA DATA
 0002:0000cac0 00000040H .rdata$CastGuardVftablesC DATA
 0002:0000cb00 000002a0H .rdata$r                DATA
 0002:0000cda0 000004c0H .rdata$voltmd           DATA
 0002:0000d260 0000037cH .rdata$zzzdbg           DATA
 0002:0000d5dc 00000004H .rtc$IAA                DATA
 0002:0000d5e0 00000004H .rtc$IZZ                DATA
 0002:0000d5e4 00000004H .rtc$TAA                DATA
 0002:0000d5e8 00000008H .rtc$TZZ                DATA
 0002:0000d5f0 00000c30H .xdata$x                DATA
 0002:0000e220 00000d50H .edata                  DATA
 0002:0000ef70 00000014H .idata$2                DATA
 0002:0000ef84 00000014H .idata$3                DATA
 0002:0000ef98 00000154H .idata$4                DATA
 0002:0000f0ec 0000062cH .idata$6                DATA
 0003:00000000 000008b0H .data                   DATA
 0003:000008b0 00000058H .data$r                 DATA
 0003:00000908 000000b8H .data$rs                DATA
 0003:000009c0 000012e0H .bss                    DATA
 0004:00000000 00000060H .rsrc$01                DATA
 0004:00000060 00000338H .rsrc$02                DATA

  Address         Publics by Value              Rva+Base       Lib:Object

 0000:00000000       ___AbsoluteZero            00000000     <absolute>
 0000:00000000       ___arm64x_extra_rfe_table  00000000     <absolute>
 0000:00000000       ___arm64x_extra_rfe_table_size 00000000     <absolute>
 0000:00000000       ___arm64x_native_entrypoint 00000000     <absolute>
 0000:00000000       ___arm64x_redirection_metadata 00000000     <absolute>
 0000:00000000       ___arm64x_redirection_metadata_count 00000000     <absolute>
 0000:00000000       ___dynamic_value_reloc_table 00000000     <absolute>
 0000:00000000       ___enclave_config          00000000     <absolute>
 0000:00000000       ___guard_check_icall_a64n_fptr 00000000     <absolute>
 0000:00000000       ___guard_eh_cont_count     00000000     <absolute>
 0000:00000000       ___guard_eh_cont_table     00000000     <absolute>
 0000:00000000       ___guard_fids_count        00000000     <absolute>
 0000:00000000       ___guard_fids_table        00000000     <absolute>
 0000:00000000       ___guard_iat_count         00000000     <absolute>
 0000:00000000       ___guard_iat_table         00000000     <absolute>
 0000:00000000       ___guard_longjmp_count     00000000     <absolute>
 0000:00000000       ___guard_longjmp_table     00000000     <absolute>
 0000:00000000       ___hybrid_auxiliary_delayload_iat 00000000     <absolute>
 0000:00000000       ___hybrid_auxiliary_delayload_iat_copy 00000000     <absolute>
 0000:00000000       ___hybrid_auxiliary_iat    00000000     <absolute>
 0000:00000000       ___hybrid_auxiliary_iat_copy 00000000     <absolute>
 0000:00000000       ___hybrid_code_map         00000000     <absolute>
 0000:00000000       ___hybrid_code_map_count   00000000     <absolute>
 0000:00000000       ___safe_se_handler_count   00000000     <absolute>
 0000:00000000       ___safe_se_handler_table   00000000     <absolute>
 0000:00000000       ___x64_code_ranges_to_entry_points 00000000     <absolute>
 0000:00000000       ___x64_code_ranges_to_entry_points_count 00000000     <absolute>
 0000:00000000       __except_list              00000000     <absolute>
 0000:00000100       ___guard_flags             00000100     <absolute>
 0000:00000000       ___ImageBase               10000000     <linker-defined>
 0001:00000000       _adler32_z@12              10001000 f   adler32.obj
 0001:00000280       _adler32@12                10001280 f   adler32.obj
 0001:000003c0       _adler32_combine@12        100013c0 f   adler32.obj
 0001:000003e0       _compress2@20              100013e0 f   compress.obj
 0001:000004c0       _compress@16               100014c0 f   compress.obj
 0001:000004e0       _compressBound@4           100014e0 f   compress.obj
 0001:000005b0       _get_crc_table@0           100015b0 f   crc32.obj
 0001:00000650       _crc32_z@12                10001650 f   crc32.obj
 0001:00000970       _crc32@12                  10001970 f   crc32.obj
 0001:00000980       _crc32_combine64@16        10001980 f   crc32.obj
 0001:000009b0       _crc32_combine@12          100019b0 f   crc32.obj
 0001:000009d0       _crc32_combine_gen64@8     100019d0 f   crc32.obj
 0001:000009f0       _crc32_combine_gen@4       100019f0 f   crc32.obj
 0001:00000a10       _crc32_combine_op@12       10001a10 f   crc32.obj
 0001:00000cd0       _deflateInit_@16           10001cd0 f   deflate.obj
 0001:00000cf0       _deflateInit2_@32          10001cf0 f   deflate.obj
 0001:00000f90       _deflateSetDictionary@12   10001f90 f   deflate.obj
 0001:00001130       _deflateGetDictionary@12   10002130 f   deflate.obj
 0001:00001190       _deflateResetKeep@4        10002190 f   deflate.obj
 0001:000012e0       _deflateReset@4            100022e0 f   deflate.obj
 0001:00001310       _deflateSetHeader@8        10002310 f   deflate.obj
 0001:00001340       _deflatePending@12         10002340 f   deflate.obj
 0001:00001380       _deflatePrime@12           10002380 f   deflate.obj
 0001:00001420       _deflateParams@12          10002420 f   deflate.obj
 0001:00001570       _deflateTune@20            10002570 f   deflate.obj
 0001:000015c0       _deflateBound@8            100025c0 f   deflate.obj
 0001:00001770       _deflate@8                 10002770 f   deflate.obj
 0001:000020a0       _deflateEnd@4              100030a0 f   deflate.obj
 0001:00002150       _deflateCopy@8             10003150 f   deflate.obj
 0001:000033f0       _gzclose@4                 100043f0 f   gzclose.obj
 0001:00003420       ___local_stdio_printf_options 10004420 f i gzlib.obj
 0001:00003430       _vsnprintf                 10004430 f i gzlib.obj
 0001:00003470       _snprintf                  10004470 f i gzlib.obj
 0001:00003820       _gzopen@8                  10004820 f   gzlib.obj
 0001:00003840       _gzdopen@8                 10004840 f   gzlib.obj
 0001:000038a0       _gzopen_w@8                100048a0 f   gzlib.obj
 0001:000038c0       _gzbuffer@8                100048c0 f   gzlib.obj
 0001:00003910       _gzrewind@4                10004910 f   gzlib.obj
 0001:00003970       _gzseek64@16               10004970 f   gzlib.obj
 0001:00003b20       _gzseek@12                 10004b20 f   gzlib.obj
 0001:00003b60       _gztell64@4                10004b60 f   gzlib.obj
 0001:00003bc0       _gztell@4                  10004bc0 f   gzlib.obj
 0001:00003bf0       _gzoffset64@4              10004bf0 f   gzlib.obj
 0001:00003c40       _gzoffset@4                10004c40 f   gzlib.obj
 0001:00003c70       _gzeof@4                   10004c70 f   gzlib.obj
 0001:00003ca0       _gzerror@8                 10004ca0 f   gzlib.obj
 0001:00003cf0       _gzclearerr@4              10004cf0 f   gzlib.obj
 0001:00003d40       _gz_error                  10004d40 f   gzlib.obj
 0001:00004410       _gzread@12                 10005410 f   gzread.obj
 0001:00004480       _gzfread@16                10005480 f   gzread.obj
 0001:00004500       _gzgetc@4                  10005500 f   gzread.obj
 0001:00004570       _gzgetc_@4                 10005570 f   gzread.obj
 0001:00004580       _gzungetc@8                10005580 f   gzread.obj
 0001:00004690       _gzgets@12                 10005690 f   gzread.obj
 0001:000047b0       _gzdirect@4                100057b0 f   gzread.obj
 0001:000047f0       _gzclose_r@4               100057f0 f   gzread.obj
 0001:00004c80       _gzwrite@12                10005c80 f   gzwrite.obj
 0001:00004cd0       _gzfwrite@16               10005cd0 f   gzwrite.obj
 0001:00004d40       _gzputc@8                  10005d40 f   gzwrite.obj
 0001:00004e00       _gzputs@8                  10005e00 f   gzwrite.obj
 0001:00004e70       _gzvprintf                 10005e70 f   gzwrite.obj
 0001:00004fa0       _gzprintf                  10005fa0 f   gzwrite.obj
 0001:00004fc0       _gzflush@8                 10005fc0 f   gzwrite.obj
 0001:00005030       _gzsetparams@12            10006030 f   gzwrite.obj
 0001:000050f0       _gzclose_w@4               100060f0 f   gzwrite.obj
 0001:000051c0       _inflateBackInit_@20       100061c0 f   infback.obj
 0001:000052d0       _inflateBack@20            100062d0 f   infback.obj
 0001:00006050       _inflateBackEnd@4          10007050 f   infback.obj
 0001:00006090       _inflate_fast              10007090 f   inffast.obj
 0001:00006500       _inflateResetKeep@4        10007500 f   inflate.obj
 0001:000065b0       _inflateReset@4            100075b0 f   inflate.obj
 0001:000065f0       _inflateReset2@8           100075f0 f   inflate.obj
 0001:00006680       _inflateInit2_@16          10007680 f   inflate.obj
 0001:00006750       _inflateInit_@12           10007750 f   inflate.obj
 0001:00006770       _inflatePrime@12           10007770 f   inflate.obj
 0001:00006910       _inflate@8                 10007910 f   inflate.obj
 0001:00008080       _inflateEnd@4              10009080 f   inflate.obj
 0001:000080e0       _inflateGetDictionary@12   100090e0 f   inflate.obj
 0001:00008150       _inflateSetDictionary@12   10009150 f   inflate.obj
 0001:000081f0       _inflateGetHeader@8        100091f0 f   inflate.obj
 0001:000082b0       _inflateSync@4             100092b0 f   inflate.obj
 0001:000083d0       _inflateSyncPoint@4        100093d0 f   inflate.obj
 0001:00008410       _inflateCopy@8             10009410 f   inflate.obj
 0001:00008570       _inflateUndermine@8        10009570 f   inflate.obj
 0001:000085a0       _inflateValidate@8         100095a0 f   inflate.obj
 0001:000085e0       _inflateMark@4             100095e0 f   inflate.obj
 0001:00008650       _inflateCodesUsed@4        10009650 f   inflate.obj
 0001:00008680       _inflate_table             10009680 f   inftrees.obj
 0001:00008b60       _call_zopen64              10009b60 f   ioapi.obj
 0001:00008b80       _call_zseek64              10009b80 f   ioapi.obj
 0001:00008bd0       _call_ztell64              10009bd0 f   ioapi.obj
 0001:00008c00       _fill_zlib_filefunc64_32_def_from_filefunc32 10009c00 f   ioapi.obj
 0001:00008e10       _fill_fopen64_filefunc     10009e10 f   ioapi.obj
 0001:00008f00       _win32_open64_file_func    10009f00 f   iowin32.obj
 0001:00008f60       _win32_open64_file_funcA   10009f60 f   iowin32.obj
 0001:00008fc0       _win32_open64_file_funcW   10009fc0 f   iowin32.obj
 0001:00009020       _win32_open_file_func      1000a020 f   iowin32.obj
 0001:00009080       _win32_read_file_func      1000a080 f   iowin32.obj
 0001:000090d0       _win32_write_file_func     1000a0d0 f   iowin32.obj
 0001:00009180       _win32_tell_file_func      1000a180 f   iowin32.obj
 0001:000091d0       _win32_tell64_file_func    1000a1d0 f   iowin32.obj
 0001:00009230       _win32_seek_file_func      1000a230 f   iowin32.obj
 0001:000092a0       _win32_seek64_file_func    1000a2a0 f   iowin32.obj
 0001:00009320       _win32_close_file_func     1000a320 f   iowin32.obj
 0001:00009350       _win32_error_file_func     1000a350 f   iowin32.obj
 0001:00009370       _fill_win32_filefunc       1000a370 f   iowin32.obj
 0001:000093b0       _fill_win32_filefunc64     1000a3b0 f   iowin32.obj
 0001:000093f0       _fill_win32_filefunc64A    1000a3f0 f   iowin32.obj
 0001:00009430       _fill_win32_filefunc64W    1000a430 f   iowin32.obj
 0001:00009680       __tr_init                  1000a680 f   trees.obj
 0001:0000a560       __tr_stored_block          1000b560 f   trees.obj
 0001:0000a660       __tr_flush_bits            1000b660 f   trees.obj
 0001:0000a670       __tr_align                 1000b670 f   trees.obj
 0001:0000ac00       __tr_flush_block           1000bc00 f   trees.obj
 0001:0000ae20       _uncompress2@16            1000be20 f   uncompr.obj
 0001:0000af50       _uncompress@16             1000bf50 f   uncompr.obj
 0001:0000b1a0       _unzStringFileNameCompare@12 1000c1a0 f   unzip.obj
 0001:0000ba20       _unzOpen2@8                1000ca20 f   unzip.obj
 0001:0000ba70       _unzOpen2_64@8             1000ca70 f   unzip.obj
 0001:0000bad0       _unzOpen@4                 1000cad0 f   unzip.obj
 0001:0000baf0       _unzOpen64@4               1000caf0 f   unzip.obj
 0001:0000bb10       _unzClose@4                1000cb10 f   unzip.obj
 0001:0000bb50       _unzGetGlobalInfo64@8      1000cb50 f   unzip.obj
 0001:0000bb80       _unzGetGlobalInfo@8        1000cb80 f   unzip.obj
 0001:0000c200       _unzGetCurrentFileInfo64@32 1000d200 f   unzip.obj
 0001:0000c230       _unzGetCurrentFileInfo@32  1000d230 f   unzip.obj
 0001:0000c2f0       _unzGoToFirstFile@4        1000d2f0 f   unzip.obj
 0001:0000c360       _unzGoToNextFile@4         1000d360 f   unzip.obj
 0001:0000c410       _unzLocateFile@12          1000d410 f   unzip.obj
 0001:0000c5c0       _unzGetFilePos64@8         1000d5c0 f   unzip.obj
 0001:0000c610       _unzGetFilePos@8           1000d610 f   unzip.obj
 0001:0000c640       _unzGoToFilePos64@8        1000d640 f   unzip.obj
 0001:0000c6b0       _unzGoToFilePos@8          1000d6b0 f   unzip.obj
 0001:0000c950       _unzOpenCurrentFile3@20    1000d950 f   unzip.obj
 0001:0000cbe0       _unzOpenCurrentFile@4      1000dbe0 f   unzip.obj
 0001:0000cc00       _unzOpenCurrentFilePassword@8 1000dc00 f   unzip.obj
 0001:0000cc20       _unzOpenCurrentFile2@16    1000dc20 f   unzip.obj
 0001:0000cc40       _unzGetCurrentFileZStreamPos64@4 1000dc40 f   unzip.obj
 0001:0000cc80       _unzReadCurrentFile@12     1000dc80 f   unzip.obj
 0001:0000cf50       _unztell@4                 1000df50 f   unzip.obj
 0001:0000cf80       _unztell64@4               1000df80 f   unzip.obj
 0001:0000cfb0       _unzeof@4                  1000dfb0 f   unzip.obj
 0001:0000cff0       _unzGetLocalExtrafield@12  1000dff0 f   unzip.obj
 0001:0000d0c0       _unzCloseCurrentFile@4     1000e0c0 f   unzip.obj
 0001:0000d150       _unzGetGlobalComment@12    1000e150 f   unzip.obj
 0001:0000e220       _zipOpen3@16               1000f220 f   zip.obj
 0001:0000e390       _zipOpen2@16               1000f390 f   zip.obj
 0001:0000e3e0       _zipOpen2_64@16            1000f3e0 f   zip.obj
 0001:0000e440       _zipOpen@8                 1000f440 f   zip.obj
 0001:0000e460       _zipOpen64@8               1000f460 f   zip.obj
 0001:0000e6c0       _zipOpenNewFileInZip4_64@76 1000f6c0 f   zip.obj
 0001:0000ec60       _zipOpenNewFileInZip3@64   1000fc60 f   zip.obj
 0001:0000ecb0       _zipOpenNewFileInZip3_64@68 1000fcb0 f   zip.obj
 0001:0000ed00       _zipOpenNewFileInZip2@44   1000fd00 f   zip.obj
 0001:0000ed40       _zipOpenNewFileInZip2_64@48 1000fd40 f   zip.obj
 0001:0000ed80       _zipOpenNewFileInZip64@44  1000fd80 f   zip.obj
 0001:0000edc0       _zipOpenNewFileInZip@40    1000fdc0 f   zip.obj
 0001:0000eec0       _zipWriteInFileInZip@12    1000fec0 f   zip.obj
 0001:0000efd0       _zipCloseFileInZipRaw@12   1000ffd0 f   zip.obj
 0001:0000eff0       _zipCloseFileInZipRaw64@16 1000fff0 f   zip.obj
 0001:0000f540       _zipCloseFileInZip@4       10010540 f   zip.obj
 0001:0000f8a0       _zipClose@8                100108a0 f   zip.obj
 0001:0000fa30       _zlibVersion@0             10010a30 f   zutil.obj
 0001:0000fa40       _zlibCompileFlags@0        10010a40 f   zutil.obj
 0001:0000fa50       _zError@4                  10010a50 f   zutil.obj
 0001:0000fa70       _zcalloc                   10010a70 f   zutil.obj
 0001:0000fa90       _zcfree                    10010a90 f   zutil.obj
 0001:0000faa0       _ReadFile@20               10010aa0 f   kernel32:KERNEL32.dll
 0001:0000faa6       _WriteFile@20              10010aa6 f   kernel32:KERNEL32.dll
 0001:0000faac       _SetFilePointer@16         10010aac f   kernel32:KERNEL32.dll
 0001:0000fab2       _CreateFileW@28            10010ab2 f   kernel32:KERNEL32.dll
 0001:0000fab8       _GetLastError@0            10010ab8 f   kernel32:KERNEL32.dll
 0001:0000fabe       _CreateFileA@28            10010abe f   kernel32:KERNEL32.dll
 0001:0000fac4       _CloseHandle@4             10010ac4 f   kernel32:KERNEL32.dll
 0001:0000fe0a       __CRT_INIT@12              10010e0a f   LIBCMT:dll_dllmain.obj
 0001:0000fe13       __DllMainCRTStartup@12     10010e13 f   LIBCMT:dll_dllmain.obj
 0001:0000fe83       ___security_init_cookie    10010e83 f   LIBCMT:gs_support.obj
 0001:0000fece       _DllMain@12                10010ece f   LIBCMT:dll_dllmain_stub.obj
 0001:0000fed4       ?__scrt_initialize_type_info@@YAXXZ 10010ed4 f   LIBCMT:tncleanup.obj
 0001:0000fee0       ?__scrt_uninitialize_type_info@@YAXXZ 10010ee0 f   LIBCMT:tncleanup.obj
 0001:0000feec       ___local_stdio_scanf_options 10010eec f i LIBCMT:default_local_stdio_options.obj
 0001:0000fef2       ___scrt_initialize_default_local_stdio_options 10010ef2 f   LIBCMT:default_local_stdio_options.obj
 0001:0000ff0f       ?configure_argv@__scrt_narrow_argv_policy@@SAHXZ 10010f0f f i LIBCMT:utility.obj
 0001:0000ff60       ?initialize_environment@__scrt_narrow_environment_policy@@SAHXZ 10010f60 f i LIBCMT:utility.obj
 0001:0000ff98       _NtCurrentTeb              10010f98 f i LIBCMT:utility.obj
 0001:0000ff9f       ___scrt_acquire_startup_lock 10010f9f f   LIBCMT:utility.obj
 0001:0000ffd1       ___scrt_dllmain_after_initialize_c 10010fd1 f   LIBCMT:utility.obj
 0001:0000fffc       ___scrt_dllmain_before_initialize_c 10010ffc f   LIBCMT:utility.obj
 0001:0001000a       ___scrt_dllmain_crt_thread_attach 1001100a f   LIBCMT:utility.obj
 0001:00010029       ___scrt_dllmain_crt_thread_detach 10011029 f   LIBCMT:utility.obj
 0001:00010036       ___scrt_dllmain_exception_filter 10011036 f   LIBCMT:utility.obj
 0001:0001006a       ___scrt_dllmain_uninitialize_c 1001106a f   LIBCMT:utility.obj
 0001:0001008d       ___scrt_dllmain_uninitialize_critical 1001108d f   LIBCMT:utility.obj
 0001:0001009a       ___scrt_initialize_crt     1001109a f   LIBCMT:utility.obj
 0001:000100d3       ___scrt_initialize_onexit_tables 100110d3 f   LIBCMT:utility.obj
 0001:0001015a       ___scrt_is_nonwritable_in_current_image 1001115a f   LIBCMT:utility.obj
 0001:000101ee       ___scrt_release_startup_lock 100111ee f   LIBCMT:utility.obj
 0001:0001020b       ___scrt_uninitialize_crt   1001120b f   LIBCMT:utility.obj
 0001:00010233       __onexit                   10011233 f   LIBCMT:utility.obj
 0001:00010260       _at_quick_exit             10011260 f   LIBCMT:utility.obj
 0001:00010283       _atexit                    10011283 f   LIBCMT:utility.obj
 0001:00010298       ___scrt_get_dyn_tls_init_callback 10011298 f   LIBCMT:dyn_tls_init.obj
 0001:0001029e       ___scrt_fastfail           1001129e f   LIBCMT:utility_desktop.obj
 0001:000103b9       ___scrt_get_show_window_mode 100113b9 f   LIBCMT:utility_desktop.obj
 0001:000103ea       ___scrt_initialize_mta     100113ea f   LIBCMT:utility_desktop.obj
 0001:000103ef       ___scrt_initialize_winrt   100113ef f   LIBCMT:utility_desktop.obj
 0001:000103f2       ___scrt_is_managed_app     100113f2 f   LIBCMT:utility_desktop.obj
 0001:00010434       ___scrt_set_unhandled_exception_filter 10011434 f   LIBCMT:utility_desktop.obj
 0001:00010440       ___scrt_exe_initialize_mta 10011440 f   LIBCMT:utility_desktop.obj
 0001:00010440       ___scrt_stub_for_initialize_mta 10011440 f   LIBCMT:utility_desktop.obj
 0001:00010443       ___scrt_unhandled_exception_filter@4 10011443 f   LIBCMT:utility_desktop.obj
 0001:00010499       __crt_debugger_hook        10011499 f   LIBCMT:utility_desktop.obj
 0001:000104a1       __RTC_Initialize           100114a1 f   LIBCMT:initsect.obj
 0001:000104cd       __RTC_Terminate            100114cd f   LIBCMT:initsect.obj
 0001:00010500       __SEH_prolog4              10011500 f   LIBCMT:sehprolg4.obj
 0001:00010550       __SEH_epilog4              10011550 f   LIBCMT:sehprolg4.obj
 0001:00010564       @_guard_check_icall_nop@4  10011564 f i LIBCMT:guard_support.obj
 0001:00010567       _ReadNoFence               10011567 f i LIBCMT:guard_support.obj
 0001:00010571       _ReadPointerNoFence        10011571 f i LIBCMT:guard_support.obj
 0001:0001057b       __InlineInterlockedExchangePointer 1001157b f i LIBCMT:guard_support.obj
 0001:00010588       ___castguard_check_failure_debugbreak 10011588 f i LIBCMT:guard_support.obj
 0001:000105a3       ___castguard_check_failure_fastfail 100115a3 f i LIBCMT:guard_support.obj
 0001:000105c2       ___castguard_check_failure_nop 100115c2 f i LIBCMT:guard_support.obj
 0001:000105c5       ___castguard_check_failure_os_handled 100115c5 f i LIBCMT:guard_support.obj
 0001:00010606       ___castguard_check_failure_user_handled 10011606 f i LIBCMT:guard_support.obj
 0001:00010674       ___castguard_set_user_handler 10011674 f i LIBCMT:guard_support.obj
 0001:00010683       ___castguard_slow_path_check_debugbreak 10011683 f i LIBCMT:guard_support.obj
 0001:000106b0       ___castguard_slow_path_check_fastfail 100116b0 f i LIBCMT:guard_support.obj
 0001:000106e1       ___castguard_slow_path_check_nop 100116e1 f i LIBCMT:guard_support.obj
 0001:000106e4       ___castguard_slow_path_check_os_handled 100116e4 f i LIBCMT:guard_support.obj
 0001:00010725       ___castguard_slow_path_check_user_handled 10011725 f i LIBCMT:guard_support.obj
 0001:00010786       __guard_icall_checks_enforced 10011786 f i LIBCMT:guard_support.obj
 0001:00010798       ___isa_available_init      10011798 f   LIBCMT:cpu_disp.obj
 0001:0001096c       __get_startup_argv_mode    1001196c f   LIBCMT:argv_mode.obj
 0001:00010970       ___scrt_is_ucrt_dll_in_use 10011970 f   LIBCMT:ucrt_detection.obj
 0001:0001097c       @__security_check_cookie@4 1001197c f   LIBCMT:secchk.obj
 0001:0001098a       ___raise_securityfailure   1001198a f   LIBCMT:gs_report.obj
 0001:000109b2       ___report_gsfailure        100119b2 f   LIBCMT:gs_report.obj
 0001:00010aac       ___report_rangecheckfailure 10011aac f   LIBCMT:gs_report.obj
 0001:00010ab8       ___report_securityfailure  10011ab8 f   LIBCMT:gs_report.obj
 0001:00010b87       ___report_securityfailureEx 10011b87 f   LIBCMT:gs_report.obj
 0001:00010ce0       __except_handler4          10011ce0 f   libvcruntime:chandler4.obj
 0001:00010e4c       ??$?RD@__crt_internal_free_policy@@QBEXQBD@Z 10011e4c f i libvcruntime:std_type_info.obj
 0001:00010e5c       ??$?RX@__crt_internal_free_policy@@QBEXQBX@Z 10011e5c f i libvcruntime:std_type_info.obj
 0001:00010e6c       ??$__crt_interlocked_compare_exchange_pointer@$$CBDPAD$$T@@YAPBDPDSBDQAD$$T@Z 10011e6c f i libvcruntime:std_type_info.obj
 0001:00010e7e       ??$__crt_interlocked_read_pointer@$$CBD@@YAPBDPDSBD@Z 10011e7e f i libvcruntime:std_type_info.obj
 0001:00010e89       ??0?$__crt_unique_heap_ptr@DU__crt_internal_free_policy@@@@QAE@QAD@Z 10011e89 f i libvcruntime:std_type_info.obj
 0001:00010e97       ??0?$__crt_unique_heap_ptr@XU__crt_internal_free_policy@@@@QAE@QAX@Z 10011e97 f i libvcruntime:std_type_info.obj
 0001:00010ea5       ??1?$__crt_unique_heap_ptr@DU__crt_internal_free_policy@@@@QAE@XZ 10011ea5 f i libvcruntime:std_type_info.obj
 0001:00010eb5       ??1?$__crt_unique_heap_ptr@XU__crt_internal_free_policy@@@@QAE@XZ 10011eb5 f i libvcruntime:std_type_info.obj
 0001:00010ec5       ??B?$__crt_unique_heap_ptr@DU__crt_internal_free_policy@@@@QBE_NXZ 10011ec5 f i libvcruntime:std_type_info.obj
 0001:00010ecc       ??B?$__crt_unique_heap_ptr@XU__crt_internal_free_policy@@@@QBE_NXZ 10011ecc f i libvcruntime:std_type_info.obj
 0001:00010ef3       ?__crt_interlocked_read_32@@YAHPDH@Z 10011ef3 f i libvcruntime:std_type_info.obj
 0001:00010efe       ?detach@?$__crt_unique_heap_ptr@XU__crt_internal_free_policy@@@@QAEPAXXZ 10011efe f i libvcruntime:std_type_info.obj
 0001:00010f04       ?get@?$__crt_unique_heap_ptr@DU__crt_internal_free_policy@@@@QBEPADXZ 10011f04 f i libvcruntime:std_type_info.obj
 0001:00010f07       ?get@?$__crt_unique_heap_ptr@XU__crt_internal_free_policy@@@@QBEPAXXZ 10011f07 f i libvcruntime:std_type_info.obj
 0001:00010f0a       ?is_valid@?$__crt_unique_heap_ptr@DU__crt_internal_free_policy@@@@QBE_NXZ 10011f0a f i libvcruntime:std_type_info.obj
 0001:00010f11       ?is_valid@?$__crt_unique_heap_ptr@XU__crt_internal_free_policy@@@@QBE_NXZ 10011f11 f i libvcruntime:std_type_info.obj
 0001:00010f18       ?release@?$__crt_unique_heap_ptr@DU__crt_internal_free_policy@@@@QAEXXZ 10011f18 f i libvcruntime:std_type_info.obj
 0001:00010f28       ?release@?$__crt_unique_heap_ptr@XU__crt_internal_free_policy@@@@QAEXXZ 10011f28 f i libvcruntime:std_type_info.obj
 0001:00010f38       ___std_type_info_compare   10011f38 f   libvcruntime:std_type_info.obj
 0001:00010f74       ___std_type_info_destroy_list 10011f74 f   libvcruntime:std_type_info.obj
 0001:00010f97       ___std_type_info_hash      10011f97 f   libvcruntime:std_type_info.obj
 0001:00010fbd       ___std_type_info_name      10011fbd f   libvcruntime:std_type_info.obj
 0001:00011083       ___vcrt_initialize         10012083 f   libvcruntime:initialization.obj
 0001:000110a2       ___vcrt_thread_attach      100120a2 f   libvcruntime:initialization.obj
 0001:000110ad       ___vcrt_thread_detach      100120ad f   libvcruntime:initialization.obj
 0001:000110b8       ___vcrt_uninitialize       100120b8 f   libvcruntime:initialization.obj
 0001:000110cf       ___vcrt_uninitialize_critical 100120cf f   libvcruntime:initialization.obj
 0001:000110da       ___DestructExceptionObject 100120da f   libvcruntime:ehhelpers.obj
 0001:0001117b       ?_CallMemberFunction0@@YGXQAX0@Z 1001217b f i libvcruntime:ehhelpers.obj
 0001:000111e0       ?raw_name@type_info@@QBEPBDXZ 100121e0 f i libvcruntime:ehhelpers.obj
 0001:000111e4       __IsExceptionObjectToBeDestroyed 100121e4 f   libvcruntime:ehhelpers.obj
 0001:0001120a       __SetWinRTOutOfMemoryExceptionCallback 1001220a f   libvcruntime:ehhelpers.obj
 0001:00011217       ___AdjustPointer           10012217 f   libvcruntime:ehhelpers.obj
 0001:0001123c       ___FrameUnwindFilter       1001223c f   libvcruntime:ehhelpers.obj
 0001:00011292       ___GetPlatformExceptionInfo 10012292 f   libvcruntime:ehhelpers.obj
 0001:000112de       ___current_exception       100122de f   libvcruntime:ehhelpers.obj
 0001:000112e7       ___current_exception_context 100122e7 f   libvcruntime:ehhelpers.obj
 0001:000112f0       ___processing_throw        100122f0 f   libvcruntime:ehhelpers.obj
 0001:000112f9       ___std_terminate           100122f9 f   libvcruntime:ehhelpers.obj
 0001:000112fe       __is_exception_typeof      100122fe f   libvcruntime:ehhelpers.obj
 0001:000113b0       _memset                    100123b0 f   libvcruntime:memset.obj
 0001:00011510       __local_unwind4            10012510 f   libvcruntime:exsup4.obj
 0001:00011600       __seh_longjmp_unwind4@4    10012600 f   libvcruntime:exsup4.obj
 0001:00011630       @_EH4_CallFilterFunc@8     10012630 f   libvcruntime:exsup4.obj
 0001:00011650       @_EH4_TransferToHandler@8  10012650 f   libvcruntime:exsup4.obj
 0001:00011670       @_EH4_GlobalUnwind2@8      10012670 f   libvcruntime:exsup4.obj
 0001:00011690       @_EH4_LocalUnwind@16       10012690 f   libvcruntime:exsup4.obj
 0001:000116b2       ___except_validate_context_record 100126b2 f   libvcruntime:jbcxrval.obj
 0001:000116e2       ___except_validate_jump_buffer 100126e2 f   libvcruntime:jbcxrval.obj
 0001:0001170f       ___except_validate_jump_buffer_common 1001270f f i libvcruntime:jbcxrval.obj
 0001:00011748       ??$?0$00@DName@@QAE@PBDU?$StringLifeSelector@$00@@@Z 10012748 f i libvcruntime:undname.obj
 0001:0001177b       ??$?0$00@pcharNode@@QAE@PBDHU?$StringLifeSelector@$00@@@Z 1001277b f i libvcruntime:undname.obj
 0001:00011796       ??$?0$01@DName@@QAE@PBDU?$StringLifeSelector@$01@@@Z 10012796 f i libvcruntime:undname.obj
 0001:000117c9       ??$?0$01@pcharNode@@QAE@PBDHU?$StringLifeSelector@$01@@@Z 100127c9 f i libvcruntime:undname.obj
 0001:00011809       ??$?0$0A@@DName@@QAE@PBDU?$StringLifeSelector@$0A@@@@Z 10012809 f i libvcruntime:undname.obj
 0001:0001183c       ??$?0$0A@@pcharNode@@QAE@PBDHU?$StringLifeSelector@$0A@@@@Z 1001283c f i libvcruntime:undname.obj
 0001:0001187c       ??$?0_K$0A@@?$optional@_K@std@@QAE@$$QA_K@Z 1001287c f i libvcruntime:undname.obj
 0001:00011896       ??$?0_K@?$_Optional_construct_base@_K@std@@QAE@Uin_place_t@1@$$QA_K@Z 10012896 f i libvcruntime:undname.obj
 0001:000118b0       ??$?0_K@?$_Optional_destruct_base@_K$00@std@@QAE@Uin_place_t@1@$$QA_K@Z 100128b0 f i libvcruntime:undname.obj
 0001:000118ca       ??$append@VDNameNode@@@DName@@AAEXPBVDNameNode@@@Z 100128ca f i libvcruntime:undname.obj
 0001:0001190b       ??$append@VDNameStatusNode@@@DName@@AAEXPBVDNameStatusNode@@@Z 1001290b f i libvcruntime:undname.obj
 0001:0001194c       ??$append@VcharNode@@@DName@@AAEXPBVcharNode@@@Z 1001294c f i libvcruntime:undname.obj
 0001:0001198d       ??$append@VpDNameNode@@@DName@@AAEXPBVpDNameNode@@@Z 1001298d f i libvcruntime:undname.obj
 0001:000119ce       ??$append@VpcharNode@@@DName@@AAEXPBVpcharNode@@@Z 100129ce f i libvcruntime:undname.obj
 0001:00011a0f       ??$doPchar@$00@DName@@AAEXPBDH@Z 10012a0f f i libvcruntime:undname.obj
 0001:00011a7a       ??$doPchar@$01@DName@@AAEXPBDH@Z 10012a7a f i libvcruntime:undname.obj
 0001:00011aeb       ??$doPchar@$0A@@DName@@AAEXPBDH@Z 10012aeb f i libvcruntime:undname.obj
 0001:00011b5c       ??$forward@_K@std@@YA$$QA_KAA_K@Z 10012b5c f i libvcruntime:undname.obj
 0001:00011c20       ??$size@D$04@std@@YAIAAY04$$CBD@Z 10012c20 f i libvcruntime:undname.obj
 0001:00011c24       ??0?$_Optional_construct_base@_K@std@@QAE@XZ 10012c24 f i libvcruntime:undname.obj
 0001:00011c2b       ??0?$_Optional_destruct_base@_K$00@std@@QAE@XZ 10012c2b f i libvcruntime:undname.obj
 0001:00011c32       ??0?$optional@_K@std@@QAE@XZ 10012c32 f i libvcruntime:undname.obj
 0001:00011c39       ??0Block@_HeapManager@@QAE@XZ 10012c39 f i libvcruntime:undname.obj
 0001:00011c3f       ??0DName@@QAE@AAPBDD@Z     10012c3f f   libvcruntime:undname.obj
 0001:00011cbf       ??0DName@@QAE@ABUStringLiteral@@@Z 10012cbf f   libvcruntime:undname.obj
 0001:00011ce6       ??0DName@@QAE@ABV0@@Z      10012ce6 f i libvcruntime:undname.obj
 0001:00011cfc       ??0DName@@QAE@D@Z          10012cfc f   libvcruntime:undname.obj
 0001:00011d18       ??0DName@@QAE@PAV0@@Z      10012d18 f   libvcruntime:undname.obj
 0001:00011d61       ??0DName@@QAE@W4DNameStatus@@@Z 10012d61 f   libvcruntime:undname.obj
 0001:00011da1       ??0DName@@QAE@XZ           10012da1 f i libvcruntime:undname.obj
 0001:00011dab       ??0DName@@QAE@_J@Z         10012dab f   libvcruntime:undname.obj
 0001:00011e35       ??0DName@@QAE@_K@Z         10012e35 f   libvcruntime:undname.obj
 0001:00011e99       ??0DNameNode@@IAE@XZ       10012e99 f i libvcruntime:undname.obj
 0001:00011ea2       ??0Replicator@@QAE@XZ      10012ea2 f i libvcruntime:undname.obj
 0001:00011eb1       ??0UnDecorator@@QAE@PBDP6APADJ@ZK@Z 10012eb1 f i libvcruntime:undname.obj
 0001:00011efd       ??0_Nontrivial_dummy_type@std@@QAE@XZ 10012efd f i libvcruntime:undname.obj
 0001:00011f00       ??0charNode@@QAE@D@Z       10012f00 f i libvcruntime:undname.obj
 0001:00011f15       ??0pDNameNode@@QAE@PAVDName@@@Z 10012f15 f   libvcruntime:undname.obj
 0001:00011f3d       ??0pairNode@@QAE@PBVDNameNode@@0@Z 10012f3d f i libvcruntime:undname.obj
 0001:00011f63       ??2@YAPAXIAAV_HeapManager@@H@Z 10012f63 f   libvcruntime:undname.obj
 0001:00011f82       ??4DName@@QAEAAV0@ABUStringLiteral@@@Z 10012f82 f   libvcruntime:undname.obj
 0001:00011fa3       ??4DName@@QAEAAV0@ABV0@@Z  10012fa3 f   libvcruntime:undname.obj
 0001:00011fb9       ??4DName@@QAEAAV0@D@Z      10012fb9 f i libvcruntime:undname.obj
 0001:00011fd5       ??4DName@@QAEAAV0@PAV0@@Z  10012fd5 f   libvcruntime:undname.obj
 0001:00012018       ??4DName@@QAEAAV0@W4DNameStatus@@@Z 10013018 f   libvcruntime:undname.obj
 0001:0001204a       ??AReplicator@@QBE?AVDName@@H@Z 1001304a f   libvcruntime:undname.obj
 0001:00012086       ??B?$optional@_K@std@@QBE_NXZ 10013086 f i libvcruntime:undname.obj
 0001:0001208a       ??D?$_Optional_construct_base@_K@std@@QGAEAA_KXZ 1001308a f i libvcruntime:undname.obj
 0001:0001208d       ??H@YA?AVDName@@ABUStringLiteral@@ABV0@@Z 1001308d f i libvcruntime:undname.obj
 0001:000120af       ??H@YA?AVDName@@DABV0@@Z   100130af f i libvcruntime:undname.obj
 0001:000120da       ??H@YA?AVDName@@W4DNameStatus@@ABV0@@Z 100130da f i libvcruntime:undname.obj
 0001:000120fc       ??HDName@@QBE?AV0@ABUStringLiteral@@@Z 100130fc f   libvcruntime:undname.obj
 0001:0001211e       ??HDName@@QBE?AV0@ABV0@@Z  1001311e f   libvcruntime:undname.obj
 0001:00012140       ??HDName@@QBE?AV0@D@Z      10013140 f   libvcruntime:undname.obj
 0001:00012162       ??HDName@@QBE?AV0@PAV0@@Z  10013162 f   libvcruntime:undname.obj
 0001:00012184       ??HDName@@QBE?AV0@W4DNameStatus@@@Z 10013184 f   libvcruntime:undname.obj
 0001:000121a6       ??HStringLiteral@@QBE?AU0@H@Z 100131a6 f i libvcruntime:undname.obj
 0001:000121c0       ??YDName@@QAEAAV0@ABUStringLiteral@@@Z 100131c0 f   libvcruntime:undname.obj
 0001:00012218       ??YDName@@QAEAAV0@ABV0@@Z  10013218 f   libvcruntime:undname.obj
 0001:0001226f       ??YDName@@QAEAAV0@D@Z      1001326f f   libvcruntime:undname.obj
 0001:000122c4       ??YDName@@QAEAAV0@PAV0@@Z  100132c4 f   libvcruntime:undname.obj
 0001:00012328       ??YDName@@QAEAAV0@W4DNameStatus@@@Z 10013328 f   libvcruntime:undname.obj
 0001:00012368       ??YReplicator@@QAEAAV0@ABVDName@@@Z 10013368 f   libvcruntime:undname.obj
 0001:000123a8       ??_5DName@@QAEAAV0@ABV0@@Z 100133a8 f   libvcruntime:undname.obj
 0001:000123c7       ??__K_l@@YA?AUStringLiteral@@PBDI@Z 100133c7 f i libvcruntime:undname.obj
 0001:000123d2       ?Constructor@_HeapManager@@QAEXP6APAXI@ZP6AXPAX@Z@Z 100133d2 f i libvcruntime:undname.obj
 0001:000123ef       ?Destructor@_HeapManager@@QAEXXZ 100133ef f i libvcruntime:undname.obj
 0001:00012433       ?UScore@UnDecorator@@SA?AUStringLiteral@@W4Tokens@@@Z 10013433 f   libvcruntime:undname.obj
 0001:0001245a       ?composeDeclaration@UnDecorator@@CA?AVDName@@ABV2@@Z 1001345a f i libvcruntime:undname.obj
 0001:00013152       ?doAccessSpecifiers@UnDecorator@@SAHXZ 10014152 f i libvcruntime:undname.obj
 0001:00013160       ?doAllocationLanguage@UnDecorator@@SAHXZ 10014160 f i libvcruntime:undname.obj
 0001:0001316e       ?doAllocationModel@UnDecorator@@SAHXZ 1001416e f i libvcruntime:undname.obj
 0001:0001317c       ?doEcsu@UnDecorator@@SAHXZ 1001417c f i libvcruntime:undname.obj
 0001:0001318a       ?doEllipsis@UnDecorator@@SAHXZ 1001418a f i libvcruntime:undname.obj
 0001:00013198       ?doFunctionReturns@UnDecorator@@SAHXZ 10014198 f i libvcruntime:undname.obj
 0001:000131a6       ?doMSKeywords@UnDecorator@@SAHXZ 100141a6 f i libvcruntime:undname.obj
 0001:000131b3       ?doMemberTypes@UnDecorator@@SAHXZ 100141b3 f i libvcruntime:undname.obj
 0001:000131c1       ?doNameOnly@UnDecorator@@SAHXZ 100141c1 f i libvcruntime:undname.obj
 0001:000131cc       ?doNoIdentCharCheck@UnDecorator@@SAHXZ 100141cc f i libvcruntime:undname.obj
 0001:000131d7       ?doPchar@DName@@AAEXD@Z    100141d7 f   libvcruntime:undname.obj
 0001:0001320f       ?doPtr64@UnDecorator@@SAHXZ 1001420f f i libvcruntime:undname.obj
 0001:0001321d       ?doRestrictionSpec@UnDecorator@@SAHXZ 1001421d f i libvcruntime:undname.obj
 0001:0001322b       ?doThisTypes@UnDecorator@@SAHXZ 1001422b f i libvcruntime:undname.obj
 0001:0001323d       ?doThrowTypes@UnDecorator@@SAHXZ 1001423d f i libvcruntime:undname.obj
 0001:0001324b       ?doTypeOnly@UnDecorator@@SAHXZ 1001424b f i libvcruntime:undname.obj
 0001:00013256       ?doUnderScore@UnDecorator@@SAHXZ 10014256 f i libvcruntime:undname.obj
 0001:00013261       ?getAddressOf@UnDecorator@@CA?AVDName@@XZ 10014261 f   libvcruntime:undname.obj
 0001:000132c9       ?getArgumentList@UnDecorator@@CA?AVDName@@XZ 100142c9 f   libvcruntime:undname.obj
 0001:00013433       ?getArgumentTypes@UnDecorator@@CA?AVDName@@XZ 10014433 f   libvcruntime:undname.obj
 0001:0001353b       ?getArrayAccess@UnDecorator@@CA?AVDName@@XZ 1001453b f   libvcruntime:undname.obj
 0001:000135af       ?getArrayObject@UnDecorator@@CA?AVDName@@XZ 100145af f   libvcruntime:undname.obj
 0001:0001363a       ?getArrayType@UnDecorator@@CA?AVDName@@ABV2@@Z 1001463a f i libvcruntime:undname.obj
 0001:000137d7       ?getBasedType@UnDecorator@@CA?AVDName@@XZ 100147d7 f   libvcruntime:undname.obj
 0001:00013886       ?getBasicDataType@UnDecorator@@CA?AVDName@@ABV2@@Z 10014886 f   libvcruntime:undname.obj
 0001:00013de2       ?getCHPEName@UnDecorator@@QAEPADPADH@Z 10014de2 f i libvcruntime:undname.obj
 0001:00013ebf       ?getCallIndex@UnDecorator@@CA?AVDName@@XZ 10014ebf f i libvcruntime:undname.obj
 0001:00013ed3       ?getCallingConvention@UnDecorator@@CA?AVDName@@XZ 10014ed3 f   libvcruntime:undname.obj
 0001:00013fa8       ?getDataIndirectType@UnDecorator@@CA?AVDName@@ABV2@W4IndirectionKind@@0H@Z 10014fa8 f   libvcruntime:undname.obj
 0001:0001475a       ?getDataIndirectType@UnDecorator@@CA?AVDName@@XZ 1001575a f i libvcruntime:undname.obj
 0001:00014788       ?getDataType@UnDecorator@@CA?AVDName@@PAV2@@Z 10015788 f   libvcruntime:undname.obj
 0001:0001485f       ?getDecoratedName@UnDecorator@@CA?AVDName@@XZ 1001585f f   libvcruntime:undname.obj
 0001:00014ab3       ?getDimension@UnDecorator@@CA?AVDName@@_N@Z 10015ab3 f   libvcruntime:undname.obj
 0001:00014bba       ?getDispatchTarget@UnDecorator@@CA?AVDName@@XZ 10015bba f   libvcruntime:undname.obj
 0001:00014c0b       ?getDisplacement@UnDecorator@@CA?AVDName@@XZ 10015c0b f i libvcruntime:undname.obj
 0001:00014c1f       ?getECSUDataType@UnDecorator@@CA?AVDName@@XZ 10015c1f f   libvcruntime:undname.obj
 0001:00014dc9       ?getECSUName@UnDecorator@@CA?AVDName@@XZ 10015dc9 f i libvcruntime:undname.obj
 0001:00014dda       ?getEnumType@UnDecorator@@CA?AVDName@@XZ 10015dda f i libvcruntime:undname.obj
 0001:00014efa       ?getExtendedDataIndirectType@UnDecorator@@CA?AVDName@@AAW4IndirectionKind@@AA_NH@Z 10015efa f   libvcruntime:undname.obj
 0001:000150a6       ?getExternalDataType@UnDecorator@@CA?AVDName@@ABV2@@Z 100160a6 f i libvcruntime:undname.obj
 0001:0001510b       ?getFloatingPoint@UnDecorator@@CA?AVDName@@H@Z 1001610b f   libvcruntime:undname.obj
 0001:000151c9       ?getFunctionIndirectType@UnDecorator@@CA?AVDName@@ABV2@@Z 100161c9 f   libvcruntime:undname.obj
 0001:00015573       ?getGuardNumber@UnDecorator@@CA?AVDName@@XZ 10016573 f i libvcruntime:undname.obj
 0001:00015587       ?getLastChar@DName@@QBEDXZ 10016587 f i libvcruntime:undname.obj
 0001:000155a7       ?getLastChar@DNameStatusNode@@UBEDXZ 100165a7 f i libvcruntime:undname.obj
 0001:000155b3       ?getLastChar@charNode@@UBEDXZ 100165b3 f i libvcruntime:undname.obj
 0001:000155b7       ?getLastChar@pDNameNode@@UBEDXZ 100165b7 f i libvcruntime:undname.obj
 0001:000155c5       ?getLastChar@pairNode@@UBEDXZ 100165c5 f i libvcruntime:undname.obj
 0001:000155fa       ?getLastChar@pcharNode@@UBEDXZ 100165fa f i libvcruntime:undname.obj
 0001:0001560c       ?getLexicalFrame@UnDecorator@@CA?AVDName@@XZ 1001660c f i libvcruntime:undname.obj
 0001:0001563d       ?getMemberAccess@UnDecorator@@CA?AVDName@@XZ 1001663d f   libvcruntime:undname.obj
 0001:000156ad       ?getMemoryWithBuffer@_HeapManager@@QAEPAXI@Z 100166ad f   libvcruntime:undname.obj
 0001:00015717       ?getMemoryWithoutBuffer@_HeapManager@@QAEPAXI@Z 10016717 f   libvcruntime:undname.obj
 0001:00015737       ?getNoexcept@UnDecorator@@CA?AVDName@@XZ 10016737 f   libvcruntime:undname.obj
 0001:0001577f       ?getNumberOfDimensions@UnDecorator@@CAHXZ 1001677f f   libvcruntime:undname.obj
 0001:000157e1       ?getOperatorName@UnDecorator@@CA?AVDName@@_NPA_N@Z 100167e1 f i libvcruntime:undname.obj
 0001:0001600b       ?getPointerToMember@UnDecorator@@CA?AVDName@@XZ 1001700b f   libvcruntime:undname.obj
 0001:000160c7       ?getPointerType@UnDecorator@@CA?AVDName@@ABV2@0@Z 100170c7 f i libvcruntime:undname.obj
 0001:000160e2       ?getPointerTypeArray@UnDecorator@@CA?AVDName@@ABV2@0@Z 100170e2 f i libvcruntime:undname.obj
 0001:000160fd       ?getPrimaryDataType@UnDecorator@@CA?AVDName@@ABV2@@Z 100170fd f   libvcruntime:undname.obj
 0001:0001634b       ?getPtrRefDataType@UnDecorator@@CA?AVDName@@ABV2@H@Z 1001734b f   libvcruntime:undname.obj
 0001:000164b8       ?getPtrRefType@UnDecorator@@CA?AVDName@@ABV2@0W4IndirectionKind@@@Z 100174b8 f   libvcruntime:undname.obj
 0001:000165c9       ?getReferenceType@UnDecorator@@CA?AVDName@@ABV2@0W4IndirectionKind@@@Z 100175c9 f i libvcruntime:undname.obj
 0001:000165e5       ?getRestrictionSpec@UnDecorator@@CA?AVDName@@XZ 100175e5 f   libvcruntime:undname.obj
 0001:000166fe       ?getReturnType@UnDecorator@@CA?AVDName@@PAV2@@Z 100176fe f   libvcruntime:undname.obj
 0001:0001672d       ?getScope@UnDecorator@@CA?AVDName@@XZ 1001772d f   libvcruntime:undname.obj
 0001:00016aeb       ?getScopedName@UnDecorator@@CA?AVDName@@XZ 10017aeb f   libvcruntime:undname.obj
 0001:00016bde       ?getSignedDimension@UnDecorator@@CA?AVDName@@XZ 10017bde f   libvcruntime:undname.obj
 0001:00016c2f       ?getStorageConvention@UnDecorator@@CA?AVDName@@XZ 10017c2f f i libvcruntime:undname.obj
 0001:00016c40       ?getString@DName@@QBEPADPAD0@Z 10017c40 f i libvcruntime:undname.obj
 0001:00016c6d       ?getString@DName@@QBEPADPADH@Z 10017c6d f i libvcruntime:undname.obj
 0001:00016cc2       ?getString@DNameStatusNode@@UBEPADPAD0@Z 10017cc2 f i libvcruntime:undname.obj
 0001:00016d09       ?getString@charNode@@UBEPADPAD0@Z 10017d09 f i libvcruntime:undname.obj
 0001:00016d1e       ?getString@pDNameNode@@UBEPADPAD0@Z 10017d1e f i libvcruntime:undname.obj
 0001:00016d35       ?getString@pairNode@@UBEPADPAD0@Z 10017d35 f i libvcruntime:undname.obj
 0001:00016d7b       ?getString@pcharNode@@UBEPADPAD0@Z 10017d7b f i libvcruntime:undname.obj
 0001:00016d96       ?getStringEncoding@UnDecorator@@CA?AVDName@@W4PrefixKind@@H@Z 10017d96 f   libvcruntime:undname.obj
 0001:00016e29       ?getStringHelper@@YAPADPADPBD1H@Z 10017e29 f i libvcruntime:undname.obj
 0001:00016e53       ?getStringObject@UnDecorator@@CA?AVDName@@XZ 10017e53 f   libvcruntime:undname.obj
 0001:00016e9e       ?getSymbolName@UnDecorator@@CA?AVDName@@XZ 10017e9e f i libvcruntime:undname.obj
 0001:00016ee6       ?getTemplateArgumentList@UnDecorator@@CA?AVDName@@XZ 10017ee6 f   libvcruntime:undname.obj
 0001:00017096       ?getTemplateName@UnDecorator@@CA?AVDName@@_N@Z 10018096 f   libvcruntime:undname.obj
 0001:000171f6       ?getTemplateNonTypeArgument@UnDecorator@@CA?AVDName@@XZ 100181f6 f   libvcruntime:undname.obj
 0001:000175be       ?getTemplateTypeArgument@UnDecorator@@CA?AVDName@@XZ 100185be f   libvcruntime:undname.obj
 0001:000176cf       ?getThisType@UnDecorator@@CA?AVDName@@XZ 100186cf f i libvcruntime:undname.obj
 0001:000176fe       ?getThrowTypes@UnDecorator@@CA?AVDName@@XZ 100186fe f   libvcruntime:undname.obj
 0001:0001771d       ?getTypeEncoding@UnDecorator@@CAHXZ 1001871d f i libvcruntime:undname.obj
 0001:00017a5d       ?getUndecoratedName@UnDecorator@@QAEPADPADH@Z 10018a5d f i libvcruntime:undname.obj
 0001:00017b7c       ?getUnionObject@UnDecorator@@CA?AVDName@@XZ 10018b7c f   libvcruntime:undname.obj
 0001:00017c23       ?getVCallThunkType@UnDecorator@@CA?AVDName@@XZ 10018c23 f i libvcruntime:undname.obj
 0001:00017c6d       ?getValue@UnDecorator@@CA?AV?$optional@_K@std@@XZ 10018c6d f   libvcruntime:undname.obj
 0001:00017cc4       ?getValueObject@UnDecorator@@CA?AVDName@@XZ 10018cc4 f   libvcruntime:undname.obj
 0001:00017dbe       ?getVbTableType@UnDecorator@@CA?AVDName@@ABV2@@Z 10018dbe f i libvcruntime:undname.obj
 0001:00017dd3       ?getVdispMapType@UnDecorator@@CA?AVDName@@ABV2@@Z 10018dd3 f i libvcruntime:undname.obj
 0001:00017e34       ?getVfTableType@UnDecorator@@CA?AVDName@@ABV2@@Z 10018e34 f i libvcruntime:undname.obj
 0001:00017f88       ?getZName@UnDecorator@@CA?AVDName@@_N0@Z 10018f88 f   libvcruntime:undname.obj
 0001:000181a1       ?get_current_character_and_increment_buffer@UnDecorator@@CADXZ 100191a1 f i libvcruntime:undname.obj
 0001:000181b5       ?haveTemplateParameters@UnDecorator@@SAHXZ 100191b5 f i libvcruntime:undname.obj
 0001:000181c0       ?increment_buffer@UnDecorator@@CA_NI@Z 100191c0 f i libvcruntime:undname.obj
 0001:000181e8       ?increment_buffer_no_check@UnDecorator@@CAXI@Z 100191e8 f i libvcruntime:undname.obj
 0001:000181f6       ?increment_buffer_no_check@UnDecorator@@CAXXZ 100191f6 f i libvcruntime:undname.obj
 0001:000181fd       ?isArray@DName@@QBEHXZ     100191fd f i libvcruntime:undname.obj
 0001:00018207       ?isComArray@DName@@QBEHXZ  10019207 f i libvcruntime:undname.obj
 0001:00018211       ?isEmpty@DName@@QBEHXZ     10019211 f i libvcruntime:undname.obj
 0001:00018219       ?isFull@Replicator@@QBEHXZ 10019219 f i libvcruntime:undname.obj
 0001:00018222       ?isNoTE@DName@@QBEHXZ      10019222 f i libvcruntime:undname.obj
 0001:0001822c       ?isPinPtr@DName@@QBEHXZ    1001922c f i libvcruntime:undname.obj
 0001:00018236       ?isPtrRef@DName@@QBEHXZ    10019236 f i libvcruntime:undname.obj
 0001:00018240       ?isUDC@DName@@QBEHXZ       10019240 f i libvcruntime:undname.obj
 0001:00018251       ?isUDTThunk@DName@@QBEHXZ  10019251 f i libvcruntime:undname.obj
 0001:00018262       ?isVCallThunk@DName@@QBEHXZ 10019262 f i libvcruntime:undname.obj
 0001:0001826c       ?isValid@DName@@QBEHXZ     1001926c f i libvcruntime:undname.obj
 0001:00018276       ?length@DName@@QBEHXZ      10019276 f i libvcruntime:undname.obj
 0001:00018295       ?length@DNameStatusNode@@UBEHXZ 10019295 f i libvcruntime:undname.obj
 0001:00018299       ?length@charNode@@UBEHXZ   10019299 f i libvcruntime:undname.obj
 0001:0001829d       ?length@pDNameNode@@UBEHXZ 1001929d f i libvcruntime:undname.obj
 0001:000182ab       ?length@pairNode@@UBEHXZ   100192ab f i libvcruntime:undname.obj
 0001:000182f4       ?length@pcharNode@@UBEHXZ  100192f4 f i libvcruntime:undname.obj
 0001:000182f8       ?make@DNameStatusNode@@SAPBV1@W4DNameStatus@@@Z 100192f8 f i libvcruntime:undname.obj
 0001:00018314       ?parseDecoratedName@UnDecorator@@CA?AVDName@@XZ 10019314 f   libvcruntime:undname.obj
 0001:0001840f       ?raw_length@DNameStatusNode@@UBEHXZ 1001940f f i libvcruntime:undname.obj
 0001:00018413       ?raw_length@charNode@@UBEHXZ 10019413 f i libvcruntime:undname.obj
 0001:00018417       ?raw_length@pDNameNode@@UBEHXZ 10019417 f i libvcruntime:undname.obj
 0001:0001841b       ?raw_length@pairNode@@UBEHXZ 1001941b f i libvcruntime:undname.obj
 0001:0001841f       ?raw_length@pcharNode@@UBEHXZ 1001941f f i libvcruntime:undname.obj
 0001:00018423       ?setIsArray@DName@@QAEXXZ  10019423 f i libvcruntime:undname.obj
 0001:0001842b       ?setIsComArray@DName@@QAEXXZ 1001942b f i libvcruntime:undname.obj
 0001:00018433       ?setIsNoTE@DName@@QAEXXZ   10019433 f i libvcruntime:undname.obj
 0001:0001843b       ?setIsPinPtr@DName@@QAEXXZ 1001943b f i libvcruntime:undname.obj
 0001:00018443       ?setIsUDC@DName@@QAEXXZ    10019443 f i libvcruntime:undname.obj
 0001:00018450       ?setIsVCallThunk@DName@@QAEXXZ 10019450 f i libvcruntime:undname.obj
 0001:00018458       ?setPtrRef@DName@@QAEAAV1@XZ 10019458 f i libvcruntime:undname.obj
 0001:00018462       ?status@DName@@QBE?AW4DNameStatus@@XZ 10019462 f i libvcruntime:undname.obj
 0001:000184ce       ___unDName                 100194ce f   libvcruntime:undname.obj
 0001:000184f1       ___unDNameEx               100194f1 f   libvcruntime:undname.obj
 0001:00018590       __vsprintf_s_l             10019590 f i libvcruntime:undname.obj
 0001:000185bd       _sprintf_s                 100195bd f i libvcruntime:undname.obj
 0001:000185d9       _unDNameGenerateCHPE       100195d9 f   libvcruntime:undname.obj
 0001:00018676       ??$?RU__vcrt_ptd@@@__crt_internal_free_policy@@QBEXQBU__vcrt_ptd@@@Z 10019676 f i libvcruntime:per_thread_data.obj
 0001:00018686       ??0?$__crt_unique_heap_ptr@U__vcrt_ptd@@U__crt_internal_free_policy@@@@QAE@QAU__vcrt_ptd@@@Z 10019686 f i libvcruntime:per_thread_data.obj
 0001:000186a3       ??1?$__crt_unique_heap_ptr@U__vcrt_ptd@@U__crt_internal_free_policy@@@@QAE@XZ 100196a3 f i libvcruntime:per_thread_data.obj
 0001:000186bc       ??B?$__crt_unique_heap_ptr@U__vcrt_ptd@@U__crt_internal_free_policy@@@@QBE_NXZ 100196bc f i libvcruntime:per_thread_data.obj
 0001:000186c3       ?detach@?$__crt_unique_heap_ptr@U__vcrt_ptd@@U__crt_internal_free_policy@@@@QAEPAU__vcrt_ptd@@XZ 100196c3 f i libvcruntime:per_thread_data.obj
 0001:000186c9       ?get@?$__crt_unique_heap_ptr@U__vcrt_ptd@@U__crt_internal_free_policy@@@@QBEPAU__vcrt_ptd@@XZ 100196c9 f i libvcruntime:per_thread_data.obj
 0001:000186cc       ?is_valid@?$__crt_unique_heap_ptr@U__vcrt_ptd@@U__crt_internal_free_policy@@@@QBE_NXZ 100196cc f i libvcruntime:per_thread_data.obj
 0001:000186d3       ?release@?$__crt_unique_heap_ptr@U__vcrt_ptd@@U__crt_internal_free_policy@@@@QAEXXZ 100196d3 f i libvcruntime:per_thread_data.obj
 0001:000186fd       ___vcrt_freefls@4          100196fd f   libvcruntime:per_thread_data.obj
 0001:00018719       ___vcrt_freeptd            10019719 f   libvcruntime:per_thread_data.obj
 0001:0001874f       ___vcrt_getptd             1001974f f   libvcruntime:per_thread_data.obj
 0001:0001875d       ___vcrt_getptd_noexit      1001975d f   libvcruntime:per_thread_data.obj
 0001:000187ef       ___vcrt_getptd_noinit      100197ef f   libvcruntime:per_thread_data.obj
 0001:00018826       ___vcrt_initialize_ptd     10019826 f   libvcruntime:per_thread_data.obj
 0001:00018859       ___vcrt_uninitialize_ptd   10019859 f   libvcruntime:per_thread_data.obj
 0001:00018874       ___vcrt_initialize_locks   10019874 f   libvcruntime:locks.obj
 0001:000188b0       ___vcrt_lock               100198b0 f   libvcruntime:locks.obj
 0001:000188c5       ___vcrt_uninitialize_locks 100198c5 f   libvcruntime:locks.obj
 0001:000188f4       ___vcrt_unlock             100198f4 f   libvcruntime:locks.obj
 0001:00018910       __global_unwind2           10019910 f   libvcruntime:exsup.obj
 0001:00018990       __local_unwind2            10019990 f   libvcruntime:exsup.obj
 0001:00018a30       __abnormal_termination     10019a30 f   libvcruntime:exsup.obj
 0001:00018a60       __NLG_Notify1              10019a60 f   libvcruntime:exsup.obj
 0001:00018a70       __NLG_Notify               10019a70 f   libvcruntime:exsup.obj
 0001:00018a87       __NLG_Dispatch             10019a87     libvcruntime:exsup.obj
 0001:00018a87       __NLG_Dispatch2            10019a87     libvcruntime:exsup.obj
 0001:00018a90       __NLG_Call                 10019a90 f   libvcruntime:exsup.obj
 0001:00018a92       __NLG_Return2              10019a92     libvcruntime:exsup.obj
 0001:00018a93       ??$__crt_interlocked_exchange_pointer@$$A6AXXZP6AXXZ@@YAP6AXXZPDS6AXXZQ6AXXZ@Z 10019a93 f i libvcruntime:purevirt.obj
 0001:00018aa0       ??$__crt_interlocked_read_pointer@$$A6AXXZ@@YAP6AXXZPDS6AXXZ@Z 10019aa0 f i libvcruntime:purevirt.obj
 0001:00018aab       __get_purecall_handler     10019aab f   libvcruntime:purevirt.obj
 0001:00018ab2       __purecall                 10019ab2 f   libvcruntime:purevirt.obj
 0001:00018ace       __set_purecall_handler     10019ace f   libvcruntime:purevirt.obj
 0001:00018add       ??$?0AAViterator@TryBlockMap@__FrameHandler3@@AAV012@$0A@@?$pair@Viterator@TryBlockMap@__FrameHandler3@@V123@@std@@QAE@AAViterator@TryBlockMap@__FrameHandler3@@0@Z 10019add f i libvcruntime:trnsctrl.obj
 0001:00018b01       ??$forward@AAViterator@TryBlockMap@__FrameHandler3@@@std@@YAAAViterator@TryBlockMap@__FrameHandler3@@AAV123@@Z 10019b01 f i libvcruntime:trnsctrl.obj
 0001:00018b09       ??0iterator@TryBlockMap@__FrameHandler3@@QAE@AAV12@I@Z 10019b09 f i libvcruntime:trnsctrl.obj
 0001:00018b1d       ?GetRangeOfTrysToCheck@__FrameHandler3@@SA?AU?$pair@Viterator@TryBlockMap@__FrameHandler3@@V123@@std@@AAVTryBlockMap@1@HPAXPBU_s_FuncInfo@@H@Z 10019b1d f   libvcruntime:trnsctrl.obj
 0001:00018b8d       ?_CallCatchBlock2@@YAPAXPAUEHRegistrationNode@@PBU_s_FuncInfo@@PAXHK@Z 10019b8d f   libvcruntime:trnsctrl.obj
 0001:00018bea       ?_CallSETranslator@@YAHPAUEHExceptionRecord@@PAUEHRegistrationNode@@PAX2PBU_s_FuncInfo@@H1@Z 10019bea f   libvcruntime:trnsctrl.obj
 0001:00018ce0       ?_JumpToContinuation@@YGXPAXPAUEHRegistrationNode@@@Z 10019ce0 f   libvcruntime:trnsctrl.obj
 0001:00018d10       ?_UnwindNestedFrames@@YGXPAUEHRegistrationNode@@PAUEHExceptionRecord@@@Z 10019d10 f   libvcruntime:trnsctrl.obj
 0001:00018d63       __CatchGuardHandler        10019d63 f   libvcruntime:trnsctrl.obj
 0001:00018d94       __CreateFrameInfo          10019d94 f   libvcruntime:trnsctrl.obj
 0001:00018db8       __FindAndUnlinkFrame       10019db8 f   libvcruntime:trnsctrl.obj
 0001:00018e00       __TranslatorGuardHandler   10019e00 f   libvcruntime:trnsctrl.obj
 0001:00018e9d       ___CxxFrameHandler         10019e9d f   libvcruntime:trnsctrl.obj
 0001:00018ed3       ___CxxFrameHandler2        10019ed3 f   libvcruntime:trnsctrl.obj
 0001:00018f09       ___CxxFrameHandler3        10019f09 f   libvcruntime:trnsctrl.obj
 0001:00018f3f       ___CxxLongjmpUnwind@4      10019f3f f   libvcruntime:trnsctrl.obj
 0001:00018f70       _memcpy                    10019f70 f   libvcruntime:memcpy.obj
 0001:000194e4       ??$__crt_interlocked_exchange_pointer@UHINSTANCE__@@PAU1@@@YAPAUHINSTANCE__@@PDSAU0@QAU0@@Z 1001a4e4 f i libvcruntime:winapi_downlevel.obj
 0001:000194f1       ??$__crt_interlocked_exchange_pointer@UHINSTANCE__@@PAX@@YAPAUHINSTANCE__@@PDSAU0@QAX@Z 1001a4f1 f i libvcruntime:winapi_downlevel.obj
 0001:000194fe       ??$__crt_interlocked_exchange_pointer@XPAX@@YAPAXPDSAXQAX@Z 1001a4fe f i libvcruntime:winapi_downlevel.obj
 0001:0001950b       ??$__crt_interlocked_read_pointer@UHINSTANCE__@@@@YAPAUHINSTANCE__@@PDSAU0@@Z 1001a50b f i libvcruntime:winapi_downlevel.obj
 0001:00019516       ??$__crt_interlocked_read_pointer@X@@YAPAXPDSAX@Z 1001a516 f i libvcruntime:winapi_downlevel.obj
 0001:000197a2       ___vcrt_FlsAlloc           1001a7a2 f   libvcruntime:winapi_downlevel.obj
 0001:000197dd       ___vcrt_FlsFree            1001a7dd f   libvcruntime:winapi_downlevel.obj
 0001:00019818       ___vcrt_FlsGetValue        1001a818 f   libvcruntime:winapi_downlevel.obj
 0001:00019853       ___vcrt_FlsSetValue        1001a853 f   libvcruntime:winapi_downlevel.obj
 0001:00019891       ___vcrt_InitializeCriticalSectionEx 1001a891 f   libvcruntime:winapi_downlevel.obj
 0001:0001a00a       ??$TypeMatchHelper@V__FrameHandler3@@@@YAHPBU_s_HandlerType@@PBU_s_CatchableType@@PBU_s_ThrowInfo@@@Z 1001b00a f i libvcruntime:frame.obj
 0001:0001a098       ??$__InternalCxxFrameHandler@V__FrameHandler3@@@@YA?AW4_EXCEPTION_DISPOSITION@@PAUEHExceptionRecord@@PAUEHRegistrationNode@@PAU_CONTEXT@@PAXPBU_s_FuncInfo@@H1E@Z 1001b098 f i libvcruntime:frame.obj
 0001:0001a19a       ??$__InternalCxxFrameHandlerWrapper@V__FrameHandler3@@@@YA?AW4_EXCEPTION_DISPOSITION@@PAUEHExceptionRecord@@PAUEHRegistrationNode@@PAU_CONTEXT@@PAXPBU_s_FuncInfo@@H1E@Z 1001b19a f i libvcruntime:frame.obj
 0001:0001a1a3       ??0HandlerMap@__FrameHandler3@@QAE@PBU_s_TryBlockMapEntry@@II@Z 1001b1a3 f i libvcruntime:frame.obj
 0001:0001a1ba       ??0TryBlockMap@__FrameHandler3@@QAE@PBU_s_FuncInfo@@I@Z 1001b1ba f i libvcruntime:frame.obj
 0001:0001a1ce       ??0bad_exception@std@@QAE@ABV01@@Z 1001b1ce f i libvcruntime:frame.obj
 0001:0001a1e9       ??0bad_exception@std@@QAE@XZ 1001b1e9 f i libvcruntime:frame.obj
 0001:0001a201       ??0exception@std@@QAE@ABV01@@Z 1001b201 f i libvcruntime:frame.obj
 0001:0001a22d       ??0exception@std@@QAE@QBDH@Z 1001b22d f i libvcruntime:frame.obj
 0001:0001a24a       ??0iterator@HandlerMap@__FrameHandler3@@QAE@AAV12@I@Z 1001b24a f i libvcruntime:frame.obj
 0001:0001a25e       ??1bad_exception@std@@UAE@XZ 1001b25e f i libvcruntime:frame.obj
 0001:0001a26f       ??1exception@std@@UAE@XZ   1001b26f f i libvcruntime:frame.obj
 0001:0001a280       ??8iterator@HandlerMap@__FrameHandler3@@QBE_NABV012@@Z 1001b280 f i libvcruntime:frame.obj
 0001:0001a293       ??8type_info@@QBE_NABV0@@Z 1001b293 f i libvcruntime:frame.obj
 0001:0001a2b2       ??9iterator@HandlerMap@__FrameHandler3@@QBE_NABV012@@Z 1001b2b2 f i libvcruntime:frame.obj
 0001:0001a2c5       ??Diterator@HandlerMap@__FrameHandler3@@QAE?BU_s_HandlerType@@XZ 1001b2c5 f i libvcruntime:frame.obj
 0001:0001a2e4       ??Diterator@TryBlockMap@__FrameHandler3@@QAE?BU_s_TryBlockMapEntry@@XZ 1001b2e4 f i libvcruntime:frame.obj
 0001:0001a306       ??Eiterator@HandlerMap@__FrameHandler3@@QAEAAV012@XZ 1001b306 f i libvcruntime:frame.obj
 0001:0001a30c       ??Eiterator@TryBlockMap@__FrameHandler3@@QAEAAV012@XZ 1001b30c f i libvcruntime:frame.obj
 0001:0001a312       ??Miterator@TryBlockMap@__FrameHandler3@@QBE_NABV012@@Z 1001b312 f i libvcruntime:frame.obj
 0001:0001a325       ??_Ebad_exception@std@@UAEPAXI@Z 1001b325 f i libvcruntime:frame.obj
 0001:0001a325       ??_Gbad_exception@std@@UAEPAXI@Z 1001b325 f i libvcruntime:frame.obj
 0001:0001a352       ??_Eexception@std@@UAEPAXI@Z 1001b352 f i libvcruntime:frame.obj
 0001:0001a352       ??_Gexception@std@@UAEPAXI@Z 1001b352 f i libvcruntime:frame.obj
 0001:0001a37f       ?BuildCatchObject@__FrameHandler3@@SAXPAUEHExceptionRecord@@PAXPBU_s_HandlerType@@PBU_s_CatchableType@@@Z 1001b37f f   libvcruntime:frame.obj
 0001:0001a384       ?BuildCatchObjectHelper@__FrameHandler3@@SAHPAUEHExceptionRecord@@PAXPBU_s_HandlerType@@PBU_s_CatchableType@@@Z 1001b384 f   libvcruntime:frame.obj
 0001:0001a5e5       ?FrameUnwindToEmptyState@__FrameHandler3@@SAXPAUEHRegistrationNode@@PAXPBU_s_FuncInfo@@@Z 1001b5e5 f   libvcruntime:frame.obj
 0001:0001a5fd       ?FrameUnwindToState@__FrameHandler3@@SAXPAUEHRegistrationNode@@PAXPBU_s_FuncInfo@@H@Z 1001b5fd f   libvcruntime:frame.obj
 0001:0001a6e5       ?GetMaxState@__FrameHandler3@@SAHPAXPBU_s_FuncInfo@@@Z 1001b6e5 f i libvcruntime:frame.obj
 0001:0001a7c3       ?TypeMatch@__FrameHandler3@@SAHPBU_s_HandlerType@@PBU_s_CatchableType@@PBU_s_ThrowInfo@@@Z 1001b7c3 f   libvcruntime:frame.obj
 0001:0001a7cc       ?_CallMemberFunction1@@YGXQAX00@Z 1001b7cc f i libvcruntime:frame.obj
 0001:0001a7dc       ?_CallMemberFunction2@@YGXQAX00H@Z 1001b7dc f i libvcruntime:frame.obj
 0001:0001a7ef       ?begin@HandlerMap@__FrameHandler3@@QAE?AViterator@12@XZ 1001b7ef f i libvcruntime:frame.obj
 0001:0001a7ff       ?end@HandlerMap@__FrameHandler3@@QAE?AViterator@12@XZ 1001b7ff f i libvcruntime:frame.obj
 0001:0001a810       ?getESTypes@__FrameHandler3@@SAPBU_s_ESTypeList@@PBU_s_FuncInfo@@@Z 1001b810 f i libvcruntime:frame.obj
 0001:0001a81b       ?getLastEntry@HandlerMap@__FrameHandler3@@QAEPBU_s_HandlerType@@XZ 1001b81b f i libvcruntime:frame.obj
 0001:0001a829       ?getMagicNum@__FrameHandler3@@SAIPBU_s_FuncInfo@@@Z 1001b829 f i libvcruntime:frame.obj
 0001:0001a838       ?getNumTryBlocks@TryBlockMap@__FrameHandler3@@QAEIXZ 1001b838 f i libvcruntime:frame.obj
 0001:0001a83e       ?isEHs@__FrameHandler3@@SA_NPBU_s_FuncInfo@@@Z 1001b83e f i libvcruntime:frame.obj
 0001:0001a84b       ?isNoExcept@__FrameHandler3@@SA_NPBU_s_FuncInfo@@@Z 1001b84b f i libvcruntime:frame.obj
 0001:0001a85b       ?what@exception@std@@UBEPBDXZ 1001b85b f i libvcruntime:frame.obj
 0001:0001a868       ___BuildCatchObject        1001b868 f   libvcruntime:frame.obj
 0001:0001a86d       ___BuildCatchObjectHelper  1001b86d f   libvcruntime:frame.obj
 0001:0001a876       ___TypeMatch               1001b876 f   libvcruntime:frame.obj
 0001:0001a87f       ___vcrt_EncodePointer      1001b87f f i libvcruntime:frame.obj
 0001:0001a890       __CallSettingFrame@12      1001b890 f   libvcruntime:lowhelpr.obj
 0001:0001a8b7       __NLG_Return               1001b8b7     libvcruntime:lowhelpr.obj
 0001:0001a8f0       __get_unexpected           1001b8f0 f   libvcruntime:unexpected.obj
 0001:0001a902       _set_unexpected            1001b902 f   libvcruntime:unexpected.obj
 0001:0001a920       _unexpected                1001b920 f   libvcruntime:unexpected.obj
 0001:0001a93d       ?GetCurrentState@__FrameHandler3@@SAHPAUEHRegistrationNode@@PAXPBU_s_FuncInfo@@@Z 1001b93d f   libvcruntime:ehstate.obj
 0001:0001a95a       ?SetState@__FrameHandler3@@SAXPAUEHRegistrationNode@@PBU_s_FuncInfo@@H@Z 1001b95a f   libvcruntime:ehstate.obj
 0001:0001a968       ??$?RD@__crt_public_free_policy@@QBEXQBD@Z 1001b968 f i libvcruntime:std_exception.obj
 0001:0001a978       ??0?$__crt_unique_heap_ptr@DU__crt_public_free_policy@@@@QAE@QAD@Z 1001b978 f i libvcruntime:std_exception.obj
 0001:0001a986       ??1?$__crt_unique_heap_ptr@DU__crt_public_free_policy@@@@QAE@XZ 1001b986 f i libvcruntime:std_exception.obj
 0001:0001a996       ??B?$__crt_unique_heap_ptr@DU__crt_public_free_policy@@@@QBE_NXZ 1001b996 f i libvcruntime:std_exception.obj
 0001:0001a99d       ?detach@?$__crt_unique_heap_ptr@DU__crt_public_free_policy@@@@QAEPADXZ 1001b99d f i libvcruntime:std_exception.obj
 0001:0001a9a3       ?get@?$__crt_unique_heap_ptr@DU__crt_public_free_policy@@@@QBEPADXZ 1001b9a3 f i libvcruntime:std_exception.obj
 0001:0001a9a6       ?is_valid@?$__crt_unique_heap_ptr@DU__crt_public_free_policy@@@@QBE_NXZ 1001b9a6 f i libvcruntime:std_exception.obj
 0001:0001a9ad       ?release@?$__crt_unique_heap_ptr@DU__crt_public_free_policy@@@@QAEXXZ 1001b9ad f i libvcruntime:std_exception.obj
 0001:0001a9bd       ___std_exception_copy      1001b9bd f   libvcruntime:std_exception.obj
 0001:0001aa20       ___std_exception_destroy   1001ba20 f   libvcruntime:std_exception.obj
 0001:0001aa3f       __CxxThrowException@8      1001ba3f f   libvcruntime:throw.obj
 0001:0001aab0       _memmove                   1001bab0 f   libvcruntime:memmove.obj
 0001:0001b33a       ??0?$cached@H@__crt_cached_ptd_host@@QAE@XZ 1001c33a f i libucrt:lseek.obj
 0001:0001b341       ??0?$cached@K@__crt_cached_ptd_host@@QAE@XZ 1001c341 f i libucrt:lseek.obj
 0001:0001b348       ??0__crt_cached_ptd_host@@QAE@QAU__crt_locale_pointers@@@Z 1001c348 f i libucrt:lseek.obj
 0001:0001b390       ??0__crt_scoped_get_last_error_reset@@QAE@XZ 1001c390 f i libucrt:lseek.obj
 0001:0001b3a1       ??1__crt_cached_ptd_host@@QAE@XZ 1001c3a1 f i libucrt:lseek.obj
 0001:0001b3dd       ??1__crt_scoped_get_last_error_reset@@QAE@XZ 1001c3dd f i libucrt:lseek.obj
 0001:0001b3e6       ?check_synchronize_global_state_index@__crt_cached_ptd_host@@AAEIABV__crt_scoped_get_last_error_reset@@@Z 1001c3e6 f i libucrt:lseek.obj
 0001:0001b3fe       ?check_synchronize_per_thread_data@__crt_cached_ptd_host@@AAEPAU__acrt_ptd@@XZ 1001c3fe f i libucrt:lseek.obj
 0001:0001b4e5       ?force_synchronize_global_state_index@__crt_cached_ptd_host@@AAEIABV__crt_scoped_get_last_error_reset@@@Z 1001c4e5 f i libucrt:lseek.obj
 0001:0001b4f2       ?force_synchronize_per_thread_data@__crt_cached_ptd_host@@AAEPAU__acrt_ptd@@XZ 1001c4f2 f i libucrt:lseek.obj
 0001:0001b538       ?get_current_state_index@__crt_state_management@@YAIABV__crt_scoped_get_last_error_reset@@@Z 1001c538 f i libucrt:lseek.obj
 0001:0001b53b       ?get_doserrno@__crt_cached_ptd_host@@QAE@XZ 1001c53b f i libucrt:lseek.obj
 0001:0001b53f       ?get_errno@__crt_cached_ptd_host@@QAE@XZ 1001c53f f i libucrt:lseek.obj
 0001:0001b543       ?get_raw_ptd@__crt_cached_ptd_host@@QAEPAU__acrt_ptd@@XZ 1001c543 f i libucrt:lseek.obj
 0001:0001b560       ?set@?$cached@H@__crt_cached_ptd_host@@QAEHH@Z 1001c560 f i libucrt:lseek.obj
 0001:0001b572       ?set@?$cached@K@__crt_cached_ptd_host@@QAEKK@Z 1001c572 f i libucrt:lseek.obj
 0001:0001b584       ?unsafe_value@?$cached@H@__crt_cached_ptd_host@@QAEHXZ 1001c584 f i libucrt:lseek.obj
 0001:0001b587       ?unsafe_value@?$cached@K@__crt_cached_ptd_host@@QAEKXZ 1001c587 f i libucrt:lseek.obj
 0001:0001b58a       ?valid@?$cached@H@__crt_cached_ptd_host@@QBE_NXZ 1001c58a f i libucrt:lseek.obj
 0001:0001b58e       ?valid@?$cached@K@__crt_cached_ptd_host@@QBE_NXZ 1001c58e f i libucrt:lseek.obj
 0001:0001b592       ___acrt_enable_global_locale_sync 1001c592 f i libucrt:lseek.obj
 0001:0001b5a7       ___acrt_locale_changed     1001c5a7 f i libucrt:lseek.obj
 0001:0001b5b2       __lseek                    1001c5b2 f   libucrt:lseek.obj
 0001:0001b5e9       __lseek_internal           1001c5e9 f   libucrt:lseek.obj
 0001:0001b5f4       __lseek_nolock             1001c5f4 f   libucrt:lseek.obj
 0001:0001b62b       __lseek_nolock_internal    1001c62b f   libucrt:lseek.obj
 0001:0001b636       __lseeki64                 1001c636 f   libucrt:lseek.obj
 0001:0001b676       __lseeki64_internal        1001c676 f   libucrt:lseek.obj
 0001:0001b694       __lseeki64_nolock          1001c694 f   libucrt:lseek.obj
 0001:0001b6d4       __lseeki64_nolock_internal 1001c6d4 f   libucrt:lseek.obj
 0001:0001b6f2       ??$__acrt_convert_wcs_mbs_cp@D_WV<lambda_62f6974d9771e494a5ea317cc32e971c>@@U__crt_win32_buffer_internal_dynamic_resizing@@@@YAHQBDAAV?$__crt_win32_buffer@_WU__crt_win32_buffer_internal_dynamic_resizing@@@@ABV<lambda_62f6974d9771e494a5ea317cc32e971c>@@I@Z 1001c6f2 f i libucrt:open.obj
 0001:0001b7a4       ??$__acrt_mbs_to_wcs_cp@U__crt_win32_buffer_internal_dynamic_resizing@@@@YAHQBDAAV?$__crt_win32_buffer@_WU__crt_win32_buffer_internal_dynamic_resizing@@@@I@Z 1001c7a4 f i libucrt:open.obj
 0001:0001bb19       ??$tsopen_nolock@PAHABQAHABQBDABHABHABHABH@?$__crt_char_traits@D@@SAH$$QAPAHABQAHABQBDABH333@Z 1001cb19 f i libucrt:open.obj
 0001:0001bb4b       ??$tsopen_nolock@PAHABQAHABQB_WABHABHABHABH@?$__crt_char_traits@_W@@SAH$$QAPAHABQAHABQB_WABH333@Z 1001cb4b f i libucrt:open.obj
 0001:0001bb7d       ??$tsopen_nolock@PAHPAHABQBDABHHABHH@?$__crt_char_traits@D@@SAH$$QAPAH0ABQBDABH$$QAH23@Z 1001cb7d f i libucrt:open.obj
 0001:0001bbaf       ??$tsopen_nolock@PAHPAHABQB_WABHHABHH@?$__crt_char_traits@_W@@SAH$$QAPAH0ABQB_WABH$$QAH23@Z 1001cbaf f i libucrt:open.obj
 0001:0001bbe1       ??0?$__crt_win32_buffer@_WU__crt_win32_buffer_internal_dynamic_resizing@@@@QAE@XZ 1001cbe1 f i libucrt:open.obj
 0001:0001bbf7       ??0_LocaleUpdate@@QAE@QAU__crt_locale_pointers@@@Z 1001cbf7 f i libucrt:open.obj
 0001:0001bc79       ??1?$__crt_win32_buffer@_WU__crt_win32_buffer_internal_dynamic_resizing@@@@QAE@XZ 1001cc79 f i libucrt:open.obj
 0001:0001bc7e       ??1_LocaleUpdate@@QAE@XZ   1001cc7e f i libucrt:open.obj
 0001:0001bc8e       ??R<lambda_62f6974d9771e494a5ea317cc32e971c>@@QBE@IQBDQA_WI@Z 1001cc8e f i libucrt:open.obj
 0001:0001bcaf       ?GetLocaleT@_LocaleUpdate@@QAEPAU__crt_locale_pointers@@XZ 1001ccaf f i libucrt:open.obj
 0001:0001bcb3       ?__acrt_get_utf8_acp_compatibility_codepage@@YAIXZ 1001ccb3 f i libucrt:open.obj
 0001:0001bcf2       ?_deallocate@?$__crt_win32_buffer@_WU__crt_win32_buffer_internal_dynamic_resizing@@@@AAEXXZ 1001ccf2 f i libucrt:open.obj
 0001:0001bd0c       ?allocate@?$__crt_win32_buffer@_WU__crt_win32_buffer_internal_dynamic_resizing@@@@QAEHI@Z 1001cd0c f i libucrt:open.obj
 0001:0001bd4b       ?allocate@__crt_win32_buffer_internal_dynamic_resizing@@SAHQAPAXIABV__crt_win32_buffer_empty_debug_info@@@Z 1001cd4b f i libucrt:open.obj
 0001:0001bd6a       ?capacity@?$__crt_win32_buffer@_WU__crt_win32_buffer_internal_dynamic_resizing@@@@QBEIXZ 1001cd6a f i libucrt:open.obj
 0001:0001bfe9       ?data@?$__crt_win32_buffer@_WU__crt_win32_buffer_internal_dynamic_resizing@@@@QAEPA_WXZ 1001cfe9 f i libucrt:open.obj
 0001:0001bfed       ?deallocate@__crt_win32_buffer_internal_dynamic_resizing@@SAXQAXABV__crt_win32_buffer_empty_debug_info@@@Z 1001cfed f i libucrt:open.obj
 0001:0001bffd       ?debug_info@?$__crt_win32_buffer@_WU__crt_win32_buffer_internal_dynamic_resizing@@@@QBEABV__crt_win32_buffer_empty_debug_info@@XZ 1001cffd f i libucrt:open.obj
 0001:0001c2e3       ?set_to_nullptr@?$__crt_win32_buffer@_WU__crt_win32_buffer_internal_dynamic_resizing@@@@QAEXXZ 1001d2e3 f i libucrt:open.obj
 0001:0001c2fa       ?size@?$__crt_win32_buffer@_WU__crt_win32_buffer_internal_dynamic_resizing@@@@QAEXI@Z 1001d2fa f i libucrt:open.obj
 0001:0001c3b3       ___acrt_disable_global_locale_sync 1001d3b3 f i libucrt:open.obj
 0001:0001c3c6       __invoke_watson_if_error   1001d3c6 f i libucrt:open.obj
 0001:0001c3e8       __open                     1001d3e8 f   libucrt:open.obj
 0001:0001c400       __sopen                    1001d400 f   libucrt:open.obj
 0001:0001c433       __sopen_dispatch           1001d433 f   libucrt:open.obj
 0001:0001c43e       __sopen_nolock             1001d43e f   libucrt:open.obj
 0001:0001c4ac       __sopen_s                  1001d4ac f   libucrt:open.obj
 0001:0001c4cc       __wopen                    1001d4cc f   libucrt:open.obj
 0001:0001c4e4       __wsopen                   1001d4e4 f   libucrt:open.obj
 0001:0001c517       __wsopen_dispatch          1001d517 f   libucrt:open.obj
 0001:0001c522       __wsopen_nolock            1001d522 f   libucrt:open.obj
 0001:0001c84c       __wsopen_s                 1001d84c f   libucrt:open.obj
 0001:0001cbe8       ?get_locale@__crt_cached_ptd_host@@QAEPAU__crt_locale_pointers@@XZ 1001dbe8 f i libucrt:wcstombs.obj
 0001:0001cbfd       ?update_locale@__crt_cached_ptd_host@@AAEXXZ 1001dbfd f i libucrt:wcstombs.obj
 0001:0001cc08       ?update_locale_slow@__crt_cached_ptd_host@@AAEXXZ 1001dc08 f i libucrt:wcstombs.obj
 0001:0001cc61       ?value_or@?$cached@H@__crt_cached_ptd_host@@QBEHH@Z 1001dc61 f i libucrt:wcstombs.obj
 0001:0001cca2       __wcstombs_l               1001dca2 f   libucrt:wcstombs.obj
 0001:0001ccda       __wcstombs_s_l             1001dcda f   libucrt:wcstombs.obj
 0001:0001cd18       _wcstombs                  1001dd18 f   libucrt:wcstombs.obj
 0001:0001cd4f       _wcstombs_s                1001dd4f f   libucrt:wcstombs.obj
 0001:0001cd8c       ??$?0ABV?$stream_output_adapter@D@__crt_stdio_output@@AB_KABQBDAAV__crt_cached_ptd_host@@ABQAD@?$format_validation_base@DV?$stream_output_adapter@D@__crt_stdio_output@@@__crt_stdio_output@@IAE@ABV?$stream_output_adapter@D@1@AB_KABQBDAAV__crt_cached_ptd_host@@ABQAD@Z 1001dd8c f i libucrt:output.obj
 0001:0001cdaf       ??$?0ABV?$stream_output_adapter@D@__crt_stdio_output@@AB_KABQBDAAV__crt_cached_ptd_host@@ABQAD@?$positional_parameter_base@DV?$stream_output_adapter@D@__crt_stdio_output@@@__crt_stdio_output@@IAE@ABV?$stream_output_adapter@D@1@AB_KABQBDAAV__crt_cached_ptd_host@@ABQAD@Z 1001ddaf f i libucrt:output.obj
 0001:0001cdf7       ??$?0ABV?$stream_output_adapter@D@__crt_stdio_output@@AB_KABQBDAAV__crt_cached_ptd_host@@ABQAD@?$standard_base@DV?$stream_output_adapter@D@__crt_stdio_output@@@__crt_stdio_output@@IAE@ABV?$stream_output_adapter@D@1@AB_KABQBDAAV__crt_cached_ptd_host@@ABQAD@Z 1001ddf7 f i libucrt:output.obj
 0001:0001ce2a       ??$?0ABV?$stream_output_adapter@_W@__crt_stdio_output@@AB_KABQB_WAAV__crt_cached_ptd_host@@ABQAD@?$format_validation_base@_WV?$stream_output_adapter@_W@__crt_stdio_output@@@__crt_stdio_output@@IAE@ABV?$stream_output_adapter@_W@1@AB_KABQB_WAAV__crt_cached_ptd_host@@ABQAD@Z 1001de2a f i libucrt:output.obj
 0001:0001ce4d       ??$?0ABV?$stream_output_adapter@_W@__crt_stdio_output@@AB_KABQB_WAAV__crt_cached_ptd_host@@ABQAD@?$positional_parameter_base@_WV?$stream_output_adapter@_W@__crt_stdio_output@@@__crt_stdio_output@@IAE@ABV?$stream_output_adapter@_W@1@AB_KABQB_WAAV__crt_cached_ptd_host@@ABQAD@Z 1001de4d f i libucrt:output.obj
 0001:0001ce95       ??$?0ABV?$stream_output_adapter@_W@__crt_stdio_output@@AB_KABQB_WAAV__crt_cached_ptd_host@@ABQAD@?$standard_base@_WV?$stream_output_adapter@_W@__crt_stdio_output@@@__crt_stdio_output@@IAE@ABV?$stream_output_adapter@_W@1@AB_KABQB_WAAV__crt_cached_ptd_host@@ABQAD@Z 1001de95 f i libucrt:output.obj
 0001:0001cec8       ??$?0ABV?$string_output_adapter@D@__crt_stdio_output@@AB_KABQBDAAV__crt_cached_ptd_host@@ABQAD@?$format_validation_base@DV?$string_output_adapter@D@__crt_stdio_output@@@__crt_stdio_output@@IAE@ABV?$string_output_adapter@D@1@AB_KABQBDAAV__crt_cached_ptd_host@@ABQAD@Z 1001dec8 f i libucrt:output.obj
 0001:0001ceeb       ??$?0ABV?$string_output_adapter@D@__crt_stdio_output@@AB_KABQBDAAV__crt_cached_ptd_host@@ABQAD@?$positional_parameter_base@DV?$string_output_adapter@D@__crt_stdio_output@@@__crt_stdio_output@@IAE@ABV?$string_output_adapter@D@1@AB_KABQBDAAV__crt_cached_ptd_host@@ABQAD@Z 1001deeb f i libucrt:output.obj
 0001:0001cf33       ??$?0ABV?$string_output_adapter@D@__crt_stdio_output@@AB_KABQBDAAV__crt_cached_ptd_host@@ABQAD@?$standard_base@DV?$string_output_adapter@D@__crt_stdio_output@@@__crt_stdio_output@@IAE@ABV?$string_output_adapter@D@1@AB_KABQBDAAV__crt_cached_ptd_host@@ABQAD@Z 1001df33 f i libucrt:output.obj
 0001:0001cf66       ??$?0ABV?$string_output_adapter@_W@__crt_stdio_output@@AB_KABQB_WAAV__crt_cached_ptd_host@@ABQAD@?$format_validation_base@_WV?$string_output_adapter@_W@__crt_stdio_output@@@__crt_stdio_output@@IAE@ABV?$string_output_adapter@_W@1@AB_KABQB_WAAV__crt_cached_ptd_host@@ABQAD@Z 1001df66 f i libucrt:output.obj
 0001:0001cf89       ??$?0ABV?$string_output_adapter@_W@__crt_stdio_output@@AB_KABQB_WAAV__crt_cached_ptd_host@@ABQAD@?$positional_parameter_base@_WV?$string_output_adapter@_W@__crt_stdio_output@@@__crt_stdio_output@@IAE@ABV?$string_output_adapter@_W@1@AB_KABQB_WAAV__crt_cached_ptd_host@@ABQAD@Z 1001df89 f i libucrt:output.obj
 0001:0001cfd1       ??$?0ABV?$string_output_adapter@_W@__crt_stdio_output@@AB_KABQB_WAAV__crt_cached_ptd_host@@ABQAD@?$standard_base@_WV?$string_output_adapter@_W@__crt_stdio_output@@@__crt_stdio_output@@IAE@ABV?$string_output_adapter@_W@1@AB_KABQB_WAAV__crt_cached_ptd_host@@ABQAD@Z 1001dfd1 f i libucrt:output.obj
 0001:0001d30a       ??$__crt_interlocked_read@J@@YAJPDJ@Z 1001e30a f i libucrt:output.obj
 0001:0001d317       ??$_tcstol_internal@DPAPAD$0A@@@YAJAAV__crt_cached_ptd_host@@QBDQAPADH@Z 1001e317 f i libucrt:output.obj
 0001:0001d342       ??$_tcstol_internal@_WPAPA_W$0A@@@YAJAAV__crt_cached_ptd_host@@QB_WQAPA_WH@Z 1001e342 f i libucrt:output.obj
 0001:0001e29c       ??$count@D@formatting_buffer@__crt_stdio_output@@QBEIXZ 1001f29c f i libucrt:output.obj
 0001:0001e2b4       ??$count@_W@formatting_buffer@__crt_stdio_output@@QBEIXZ 1001f2b4 f i libucrt:output.obj
 0001:0001e2cd       ??$data@D@formatting_buffer@__crt_stdio_output@@QAEPADXZ 1001f2cd f i libucrt:output.obj
 0001:0001e2da       ??$data@_W@formatting_buffer@__crt_stdio_output@@QAEPA_WXZ 1001f2da f i libucrt:output.obj
 0001:0001e2e7       ??$ensure_buffer_is_big_enough@D@formatting_buffer@__crt_stdio_output@@QAE_NIAAV__crt_cached_ptd_host@@@Z 1001f2e7 f i libucrt:output.obj
 0001:0001e368       ??$ensure_buffer_is_big_enough@_W@formatting_buffer@__crt_stdio_output@@QAE_NIAAV__crt_cached_ptd_host@@@Z 1001f368 f i libucrt:output.obj
 0001:0001e3ea       ??$extract_argument_from_va_list@C_J@?$positional_parameter_base@DV?$stream_output_adapter@D@__crt_stdio_output@@@__crt_stdio_output@@IAE_NAA_J@Z 1001f3ea f i libucrt:output.obj
 0001:0001e479       ??$extract_argument_from_va_list@C_J@?$positional_parameter_base@DV?$string_output_adapter@D@__crt_stdio_output@@@__crt_stdio_output@@IAE_NAA_J@Z 1001f479 f i libucrt:output.obj
 0001:0001e508       ??$extract_argument_from_va_list@C_J@?$positional_parameter_base@_WV?$stream_output_adapter@_W@__crt_stdio_output@@@__crt_stdio_output@@IAE_NAA_J@Z 1001f508 f i libucrt:output.obj
 0001:0001e598       ??$extract_argument_from_va_list@C_J@?$positional_parameter_base@_WV?$string_output_adapter@_W@__crt_stdio_output@@@__crt_stdio_output@@IAE_NAA_J@Z 1001f598 f i libucrt:output.obj
 0001:0001e628       ??$extract_argument_from_va_list@C_J@?$standard_base@DV?$stream_output_adapter@D@__crt_stdio_output@@@__crt_stdio_output@@IAE_NAA_J@Z 1001f628 f i libucrt:output.obj
 0001:0001e648       ??$extract_argument_from_va_list@C_J@?$standard_base@DV?$string_output_adapter@D@__crt_stdio_output@@@__crt_stdio_output@@IAE_NAA_J@Z 1001f648 f i libucrt:output.obj
 0001:0001e668       ??$extract_argument_from_va_list@C_J@?$standard_base@_WV?$stream_output_adapter@_W@__crt_stdio_output@@@__crt_stdio_output@@IAE_NAA_J@Z 1001f668 f i libucrt:output.obj
 0001:0001e688       ??$extract_argument_from_va_list@C_J@?$standard_base@_WV?$string_output_adapter@_W@__crt_stdio_output@@@__crt_stdio_output@@IAE_NAA_J@Z 1001f688 f i libucrt:output.obj
 0001:0001e6a8       ??$extract_argument_from_va_list@E_J@?$positional_parameter_base@DV?$stream_output_adapter@D@__crt_stdio_output@@@__crt_stdio_output@@IAE_NAA_J@Z 1001f6a8 f i libucrt:output.obj
 0001:0001e737       ??$extract_argument_from_va_list@E_J@?$positional_parameter_base@DV?$string_output_adapter@D@__crt_stdio_output@@@__crt_stdio_output@@IAE_NAA_J@Z 1001f737 f i libucrt:output.obj
 0001:0001e7c6       ??$extract_argument_from_va_list@E_J@?$positional_parameter_base@_WV?$stream_output_adapter@_W@__crt_stdio_output@@@__crt_stdio_output@@IAE_NAA_J@Z 1001f7c6 f i libucrt:output.obj
 0001:0001e856       ??$extract_argument_from_va_list@E_J@?$positional_parameter_base@_WV?$string_output_adapter@_W@__crt_stdio_output@@@__crt_stdio_output@@IAE_NAA_J@Z 1001f856 f i libucrt:output.obj
 0001:0001e8e6       ??$extract_argument_from_va_list@E_J@?$standard_base@DV?$stream_output_adapter@D@__crt_stdio_output@@@__crt_stdio_output@@IAE_NAA_J@Z 1001f8e6 f i libucrt:output.obj
 0001:0001e906       ??$extract_argument_from_va_list@E_J@?$standard_base@DV?$string_output_adapter@D@__crt_stdio_output@@@__crt_stdio_output@@IAE_NAA_J@Z 1001f906 f i libucrt:output.obj
 0001:0001e926       ??$extract_argument_from_va_list@E_J@?$standard_base@_WV?$stream_output_adapter@_W@__crt_stdio_output@@@__crt_stdio_output@@IAE_NAA_J@Z 1001f926 f i libucrt:output.obj
 0001:0001e946       ??$extract_argument_from_va_list@E_J@?$standard_base@_WV?$string_output_adapter@_W@__crt_stdio_output@@@__crt_stdio_output@@IAE_NAA_J@Z 1001f946 f i libucrt:output.obj
 0001:0001e966       ??$extract_argument_from_va_list@F_J@?$positional_parameter_base@DV?$stream_output_adapter@D@__crt_stdio_output@@@__crt_stdio_output@@IAE_NAA_J@Z 1001f966 f i libucrt:output.obj
 0001:0001e9f5       ??$extract_argument_from_va_list@F_J@?$positional_parameter_base@DV?$string_output_adapter@D@__crt_stdio_output@@@__crt_stdio_output@@IAE_NAA_J@Z 1001f9f5 f i libucrt:output.obj
 0001:0001ea84       ??$extract_argument_from_va_list@F_J@?$positional_parameter_base@_WV?$stream_output_adapter@_W@__crt_stdio_output@@@__crt_stdio_output@@IAE_NAA_J@Z 1001fa84 f i libucrt:output.obj
 0001:0001eb14       ??$extract_argument_from_va_list@F_J@?$positional_parameter_base@_WV?$string_output_adapter@_W@__crt_stdio_output@@@__crt_stdio_output@@IAE_NAA_J@Z 1001fb14 f i libucrt:output.obj
 0001:0001eba4       ??$extract_argument_from_va_list@F_J@?$standard_base@DV?$stream_output_adapter@D@__crt_stdio_output@@@__crt_stdio_output@@IAE_NAA_J@Z 1001fba4 f i libucrt:output.obj
 0001:0001ebc4       ??$extract_argument_from_va_list@F_J@?$standard_base@DV?$string_output_adapter@D@__crt_stdio_output@@@__crt_stdio_output@@IAE_NAA_J@Z 1001fbc4 f i libucrt:output.obj
 0001:0001ebe4       ??$extract_argument_from_va_list@F_J@?$standard_base@_WV?$stream_output_adapter@_W@__crt_stdio_output@@@__crt_stdio_output@@IAE_NAA_J@Z 1001fbe4 f i libucrt:output.obj
 0001:0001ec04       ??$extract_argument_from_va_list@F_J@?$standard_base@_WV?$string_output_adapter@_W@__crt_stdio_output@@@__crt_stdio_output@@IAE_NAA_J@Z 1001fc04 f i libucrt:output.obj
 0001:0001ec24       ??$extract_argument_from_va_list@GD@?$positional_parameter_base@DV?$stream_output_adapter@D@__crt_stdio_output@@@__crt_stdio_output@@IAE_NAAD@Z 1001fc24 f i libucrt:output.obj
 0001:0001ecb2       ??$extract_argument_from_va_list@GD@?$positional_parameter_base@DV?$string_output_adapter@D@__crt_stdio_output@@@__crt_stdio_output@@IAE_NAAD@Z 1001fcb2 f i libucrt:output.obj
 0001:0001ed40       ??$extract_argument_from_va_list@GD@?$standard_base@DV?$stream_output_adapter@D@__crt_stdio_output@@@__crt_stdio_output@@IAE_NAAD@Z 1001fd40 f i libucrt:output.obj
 0001:0001ed5b       ??$extract_argument_from_va_list@GD@?$standard_base@DV?$string_output_adapter@D@__crt_stdio_output@@@__crt_stdio_output@@IAE_NAAD@Z 1001fd5b f i libucrt:output.obj
 0001:0001ed76       ??$extract_argument_from_va_list@G_J@?$positional_parameter_base@DV?$stream_output_adapter@D@__crt_stdio_output@@@__crt_stdio_output@@IAE_NAA_J@Z 1001fd76 f i libucrt:output.obj
 0001:0001ee05       ??$extract_argument_from_va_list@G_J@?$positional_parameter_base@DV?$string_output_adapter@D@__crt_stdio_output@@@__crt_stdio_output@@IAE_NAA_J@Z 1001fe05 f i libucrt:output.obj
 0001:0001ee94       ??$extract_argument_from_va_list@G_J@?$positional_parameter_base@_WV?$stream_output_adapter@_W@__crt_stdio_output@@@__crt_stdio_output@@IAE_NAA_J@Z 1001fe94 f i libucrt:output.obj
 0001:0001ef24       ??$extract_argument_from_va_list@G_J@?$positional_parameter_base@_WV?$string_output_adapter@_W@__crt_stdio_output@@@__crt_stdio_output@@IAE_NAA_J@Z 1001ff24 f i libucrt:output.obj
 0001:0001efb4       ??$extract_argument_from_va_list@G_J@?$standard_base@DV?$stream_output_adapter@D@__crt_stdio_output@@@__crt_stdio_output@@IAE_NAA_J@Z 1001ffb4 f i libucrt:output.obj
 0001:0001efd4       ??$extract_argument_from_va_list@G_J@?$standard_base@DV?$string_output_adapter@D@__crt_stdio_output@@@__crt_stdio_output@@IAE_NAA_J@Z 1001ffd4 f i libucrt:output.obj
 0001:0001eff4       ??$extract_argument_from_va_list@G_J@?$standard_base@_WV?$stream_output_adapter@_W@__crt_stdio_output@@@__crt_stdio_output@@IAE_NAA_J@Z 1001fff4 f i libucrt:output.obj
 0001:0001f014       ??$extract_argument_from_va_list@G_J@?$standard_base@_WV?$string_output_adapter@_W@__crt_stdio_output@@@__crt_stdio_output@@IAE_NAA_J@Z 10020014 f i libucrt:output.obj
 0001:0001f034       ??$extract_argument_from_va_list@H_J@?$positional_parameter_base@DV?$stream_output_adapter@D@__crt_stdio_output@@@__crt_stdio_output@@IAE_NAA_J@Z 10020034 f i libucrt:output.obj
 0001:0001f0bd       ??$extract_argument_from_va_list@H_J@?$positional_parameter_base@DV?$string_output_adapter@D@__crt_stdio_output@@@__crt_stdio_output@@IAE_NAA_J@Z 100200bd f i libucrt:output.obj
 0001:0001f146       ??$extract_argument_from_va_list@H_J@?$positional_parameter_base@_WV?$stream_output_adapter@_W@__crt_stdio_output@@@__crt_stdio_output@@IAE_NAA_J@Z 10020146 f i libucrt:output.obj
 0001:0001f1d0       ??$extract_argument_from_va_list@H_J@?$positional_parameter_base@_WV?$string_output_adapter@_W@__crt_stdio_output@@@__crt_stdio_output@@IAE_NAA_J@Z 100201d0 f i libucrt:output.obj
 0001:0001f25a       ??$extract_argument_from_va_list@H_J@?$standard_base@DV?$stream_output_adapter@D@__crt_stdio_output@@@__crt_stdio_output@@IAE_NAA_J@Z 1002025a f i libucrt:output.obj
 0001:0001f279       ??$extract_argument_from_va_list@H_J@?$standard_base@DV?$string_output_adapter@D@__crt_stdio_output@@@__crt_stdio_output@@IAE_NAA_J@Z 10020279 f i libucrt:output.obj
 0001:0001f298       ??$extract_argument_from_va_list@H_J@?$standard_base@_WV?$stream_output_adapter@_W@__crt_stdio_output@@@__crt_stdio_output@@IAE_NAA_J@Z 10020298 f i libucrt:output.obj
 0001:0001f2b7       ??$extract_argument_from_va_list@H_J@?$standard_base@_WV?$string_output_adapter@_W@__crt_stdio_output@@@__crt_stdio_output@@IAE_NAA_J@Z 100202b7 f i libucrt:output.obj
 0001:0001f2d6       ??$extract_argument_from_va_list@I_J@?$positional_parameter_base@DV?$stream_output_adapter@D@__crt_stdio_output@@@__crt_stdio_output@@IAE_NAA_J@Z 100202d6 f i libucrt:output.obj
 0001:0001f36c       ??$extract_argument_from_va_list@I_J@?$positional_parameter_base@DV?$string_output_adapter@D@__crt_stdio_output@@@__crt_stdio_output@@IAE_NAA_J@Z 1002036c f i libucrt:output.obj
 0001:0001f402       ??$extract_argument_from_va_list@I_J@?$positional_parameter_base@_WV?$stream_output_adapter@_W@__crt_stdio_output@@@__crt_stdio_output@@IAE_NAA_J@Z 10020402 f i libucrt:output.obj
 0001:0001f499       ??$extract_argument_from_va_list@I_J@?$positional_parameter_base@_WV?$string_output_adapter@_W@__crt_stdio_output@@@__crt_stdio_output@@IAE_NAA_J@Z 10020499 f i libucrt:output.obj
 0001:0001f530       ??$extract_argument_from_va_list@I_J@?$standard_base@DV?$stream_output_adapter@D@__crt_stdio_output@@@__crt_stdio_output@@IAE_NAA_J@Z 10020530 f i libucrt:output.obj
 0001:0001f54f       ??$extract_argument_from_va_list@I_J@?$standard_base@DV?$string_output_adapter@D@__crt_stdio_output@@@__crt_stdio_output@@IAE_NAA_J@Z 1002054f f i libucrt:output.obj
 0001:0001f56e       ??$extract_argument_from_va_list@I_J@?$standard_base@_WV?$stream_output_adapter@_W@__crt_stdio_output@@@__crt_stdio_output@@IAE_NAA_J@Z 1002056e f i libucrt:output.obj
 0001:0001f58d       ??$extract_argument_from_va_list@I_J@?$standard_base@_WV?$string_output_adapter@_W@__crt_stdio_output@@@__crt_stdio_output@@IAE_NAA_J@Z 1002058d f i libucrt:output.obj
 0001:0001f5ac       ??$extract_argument_from_va_list@PADPAD@?$positional_parameter_base@DV?$stream_output_adapter@D@__crt_stdio_output@@@__crt_stdio_output@@IAE_NAAPAD@Z 100205ac f i libucrt:output.obj
 0001:0001f63a       ??$extract_argument_from_va_list@PADPAD@?$positional_parameter_base@DV?$string_output_adapter@D@__crt_stdio_output@@@__crt_stdio_output@@IAE_NAAPAD@Z 1002063a f i libucrt:output.obj
 0001:0001f6c8       ??$extract_argument_from_va_list@PADPAD@?$positional_parameter_base@_WV?$stream_output_adapter@_W@__crt_stdio_output@@@__crt_stdio_output@@IAE_NAAPAD@Z 100206c8 f i libucrt:output.obj
 0001:0001f757       ??$extract_argument_from_va_list@PADPAD@?$positional_parameter_base@_WV?$string_output_adapter@_W@__crt_stdio_output@@@__crt_stdio_output@@IAE_NAAPAD@Z 10020757 f i libucrt:output.obj
 0001:0001f7e6       ??$extract_argument_from_va_list@PADPAD@?$standard_base@DV?$stream_output_adapter@D@__crt_stdio_output@@@__crt_stdio_output@@IAE_NAAPAD@Z 100207e6 f i libucrt:output.obj
 0001:0001f803       ??$extract_argument_from_va_list@PADPAD@?$standard_base@DV?$string_output_adapter@D@__crt_stdio_output@@@__crt_stdio_output@@IAE_NAAPAD@Z 10020803 f i libucrt:output.obj
 0001:0001f820       ??$extract_argument_from_va_list@PADPAD@?$standard_base@_WV?$stream_output_adapter@_W@__crt_stdio_output@@@__crt_stdio_output@@IAE_NAAPAD@Z 10020820 f i libucrt:output.obj
 0001:0001f83d       ??$extract_argument_from_va_list@PADPAD@?$standard_base@_WV?$string_output_adapter@_W@__crt_stdio_output@@@__crt_stdio_output@@IAE_NAAPAD@Z 1002083d f i libucrt:output.obj
 0001:0001f85a       ??$extract_argument_from_va_list@PAUansi_string@?1??type_case_Z@?$output_processor@DV?$stream_output_adapter@D@__crt_stdio_output@@V?$format_validation_base@DV?$stream_output_adapter@D@__crt_stdio_output@@@2@@__crt_stdio_output@@AAE_NXZ@PAU1?1??234@AAE_NXZ@@?$standard_base@DV?$stream_output_adapter@D@__crt_stdio_output@@@__crt_stdio_output@@IAE_NAAPAUansi_string@?1??type_case_Z@?$output_processor@DV?$stream_output_adapter@D@__crt_stdio_output@@V?$format_validation_base@DV?$stream_output_adapter@D@__crt_stdio_output@@@2@@1@AAE_NXZ@@Z 1002085a f i libucrt:output.obj
 0001:0001f877       ??$extract_argument_from_va_list@PAUansi_string@?1??type_case_Z@?$output_processor@DV?$stream_output_adapter@D@__crt_stdio_output@@V?$positional_parameter_base@DV?$stream_output_adapter@D@__crt_stdio_output@@@2@@__crt_stdio_output@@AAE_NXZ@PAU1?1??234@AAE_NXZ@@?$positional_parameter_base@DV?$stream_output_adapter@D@__crt_stdio_output@@@__crt_stdio_output@@IAE_NAAPAUansi_string@?1??type_case_Z@?$output_processor@DV?$stream_output_adapter@D@__crt_stdio_output@@V?$positional_parameter_base@DV?$stream_output_adapter@D@__crt_stdio_output@@@2@@1@AAE_NXZ@@Z 10020877 f i libucrt:output.obj
 0001:0001f905       ??$extract_argument_from_va_list@PAUansi_string@?1??type_case_Z@?$output_processor@DV?$stream_output_adapter@D@__crt_stdio_output@@V?$positional_parameter_base@DV?$stream_output_adapter@D@__crt_stdio_output@@@2@@__crt_stdio_output@@AAE_NXZ@PAU1?1??234@AAE_NXZ@@?$standard_base@DV?$stream_output_adapter@D@__crt_stdio_output@@@__crt_stdio_output@@IAE_NAAPAUansi_string@?1??type_case_Z@?$output_processor@DV?$stream_output_adapter@D@__crt_stdio_output@@V?$positional_parameter_base@DV?$stream_output_adapter@D@__crt_stdio_output@@@2@@1@AAE_NXZ@@Z 10020905 f i libucrt:output.obj
 0001:0001f922       ??$extract_argument_from_va_list@PAUansi_string@?1??type_case_Z@?$output_processor@DV?$stream_output_adapter@D@__crt_stdio_output@@V?$standard_base@DV?$stream_output_adapter@D@__crt_stdio_output@@@2@@__crt_stdio_output@@AAE_NXZ@PAU1?1??234@AAE_NXZ@@?$standard_base@DV?$stream_output_adapter@D@__crt_stdio_output@@@__crt_stdio_output@@IAE_NAAPAUansi_string@?1??type_case_Z@?$output_processor@DV?$stream_output_adapter@D@__crt_stdio_output@@V?$standard_base@DV?$stream_output_adapter@D@__crt_stdio_output@@@2@@1@AAE_NXZ@@Z 10020922 f i libucrt:output.obj
 0001:0001f93f       ??$extract_argument_from_va_list@PAUansi_string@?1??type_case_Z@?$output_processor@DV?$string_output_adapter@D@__crt_stdio_output@@V?$format_validation_base@DV?$string_output_adapter@D@__crt_stdio_output@@@2@@__crt_stdio_output@@AAE_NXZ@PAU1?1??234@AAE_NXZ@@?$standard_base@DV?$string_output_adapter@D@__crt_stdio_output@@@__crt_stdio_output@@IAE_NAAPAUansi_string@?1??type_case_Z@?$output_processor@DV?$string_output_adapter@D@__crt_stdio_output@@V?$format_validation_base@DV?$string_output_adapter@D@__crt_stdio_output@@@2@@1@AAE_NXZ@@Z 1002093f f i libucrt:output.obj
 0001:0001f95c       ??$extract_argument_from_va_list@PAUansi_string@?1??type_case_Z@?$output_processor@DV?$string_output_adapter@D@__crt_stdio_output@@V?$positional_parameter_base@DV?$string_output_adapter@D@__crt_stdio_output@@@2@@__crt_stdio_output@@AAE_NXZ@PAU1?1??234@AAE_NXZ@@?$positional_parameter_base@DV?$string_output_adapter@D@__crt_stdio_output@@@__crt_stdio_output@@IAE_NAAPAUansi_string@?1??type_case_Z@?$output_processor@DV?$string_output_adapter@D@__crt_stdio_output@@V?$positional_parameter_base@DV?$string_output_adapter@D@__crt_stdio_output@@@2@@1@AAE_NXZ@@Z 1002095c f i libucrt:output.obj
 0001:0001f9ea       ??$extract_argument_from_va_list@PAUansi_string@?1??type_case_Z@?$output_processor@DV?$string_output_adapter@D@__crt_stdio_output@@V?$positional_parameter_base@DV?$string_output_adapter@D@__crt_stdio_output@@@2@@__crt_stdio_output@@AAE_NXZ@PAU1?1??234@AAE_NXZ@@?$standard_base@DV?$string_output_adapter@D@__crt_stdio_output@@@__crt_stdio_output@@IAE_NAAPAUansi_string@?1??type_case_Z@?$output_processor@DV?$string_output_adapter@D@__crt_stdio_output@@V?$positional_parameter_base@DV?$string_output_adapter@D@__crt_stdio_output@@@2@@1@AAE_NXZ@@Z 100209ea f i libucrt:output.obj
 0001:0001fa07       ??$extract_argument_from_va_list@PAUansi_string@?1??type_case_Z@?$output_processor@DV?$string_output_adapter@D@__crt_stdio_output@@V?$standard_base@DV?$string_output_adapter@D@__crt_stdio_output@@@2@@__crt_stdio_output@@AAE_NXZ@PAU1?1??234@AAE_NXZ@@?$standard_base@DV?$string_output_adapter@D@__crt_stdio_output@@@__crt_stdio_output@@IAE_NAAPAUansi_string@?1??type_case_Z@?$output_processor@DV?$string_output_adapter@D@__crt_stdio_output@@V?$standard_base@DV?$string_output_adapter@D@__crt_stdio_output@@@2@@1@AAE_NXZ@@Z 10020a07 f i libucrt:output.obj
 0001:0001fa24       ??$extract_argument_from_va_list@PAUansi_string@?1??type_case_Z@?$output_processor@_WV?$stream_output_adapter@_W@__crt_stdio_output@@V?$format_validation_base@_WV?$stream_output_adapter@_W@__crt_stdio_output@@@2@@__crt_stdio_output@@AAE_NXZ@PAU1?1??234@AAE_NXZ@@?$standard_base@_WV?$stream_output_adapter@_W@__crt_stdio_output@@@__crt_stdio_output@@IAE_NAAPAUansi_string@?1??type_case_Z@?$output_processor@_WV?$stream_output_adapter@_W@__crt_stdio_output@@V?$format_validation_base@_WV?$stream_output_adapter@_W@__crt_stdio_output@@@2@@1@AAE_NXZ@@Z 10020a24 f i libucrt:output.obj
 0001:0001fa41       ??$extract_argument_from_va_list@PAUansi_string@?1??type_case_Z@?$output_processor@_WV?$stream_output_adapter@_W@__crt_stdio_output@@V?$positional_parameter_base@_WV?$stream_output_adapter@_W@__crt_stdio_output@@@2@@__crt_stdio_output@@AAE_NXZ@PAU1?1??234@AAE_NXZ@@?$positional_parameter_base@_WV?$stream_output_adapter@_W@__crt_stdio_output@@@__crt_stdio_output@@IAE_NAAPAUansi_string@?1??type_case_Z@?$output_processor@_WV?$stream_output_adapter@_W@__crt_stdio_output@@V?$positional_parameter_base@_WV?$stream_output_adapter@_W@__crt_stdio_output@@@2@@1@AAE_NXZ@@Z 10020a41 f i libucrt:output.obj
 0001:0001fad0       ??$extract_argument_from_va_list@PAUansi_string@?1??type_case_Z@?$output_processor@_WV?$stream_output_adapter@_W@__crt_stdio_output@@V?$positional_parameter_base@_WV?$stream_output_adapter@_W@__crt_stdio_output@@@2@@__crt_stdio_output@@AAE_NXZ@PAU1?1??234@AAE_NXZ@@?$standard_base@_WV?$stream_output_adapter@_W@__crt_stdio_output@@@__crt_stdio_output@@IAE_NAAPAUansi_string@?1??type_case_Z@?$output_processor@_WV?$stream_output_adapter@_W@__crt_stdio_output@@V?$positional_parameter_base@_WV?$stream_output_adapter@_W@__crt_stdio_output@@@2@@1@AAE_NXZ@@Z 10020ad0 f i libucrt:output.obj
 0001:0001faed       ??$extract_argument_from_va_list@PAUansi_string@?1??type_case_Z@?$output_processor@_WV?$stream_output_adapter@_W@__crt_stdio_output@@V?$standard_base@_WV?$stream_output_adapter@_W@__crt_stdio_output@@@2@@__crt_stdio_output@@AAE_NXZ@PAU1?1??234@AAE_NXZ@@?$standard_base@_WV?$stream_output_adapter@_W@__crt_stdio_output@@@__crt_stdio_output@@IAE_NAAPAUansi_string@?1??type_case_Z@?$output_processor@_WV?$stream_output_adapter@_W@__crt_stdio_output@@V?$standard_base@_WV?$stream_output_adapter@_W@__crt_stdio_output@@@2@@1@AAE_NXZ@@Z 10020aed f i libucrt:output.obj
 0001:0001fb0a       ??$extract_argument_from_va_list@PAUansi_string@?1??type_case_Z@?$output_processor@_WV?$string_output_adapter@_W@__crt_stdio_output@@V?$format_validation_base@_WV?$string_output_adapter@_W@__crt_stdio_output@@@2@@__crt_stdio_output@@AAE_NXZ@PAU1?1??234@AAE_NXZ@@?$standard_base@_WV?$string_output_adapter@_W@__crt_stdio_output@@@__crt_stdio_output@@IAE_NAAPAUansi_string@?1??type_case_Z@?$output_processor@_WV?$string_output_adapter@_W@__crt_stdio_output@@V?$format_validation_base@_WV?$string_output_adapter@_W@__crt_stdio_output@@@2@@1@AAE_NXZ@@Z 10020b0a f i libucrt:output.obj
 0001:0001fb27       ??$extract_argument_from_va_list@PAUansi_string@?1??type_case_Z@?$output_processor@_WV?$string_output_adapter@_W@__crt_stdio_output@@V?$positional_parameter_base@_WV?$string_output_adapter@_W@__crt_stdio_output@@@2@@__crt_stdio_output@@AAE_NXZ@PAU1?1??234@AAE_NXZ@@?$positional_parameter_base@_WV?$string_output_adapter@_W@__crt_stdio_output@@@__crt_stdio_output@@IAE_NAAPAUansi_string@?1??type_case_Z@?$output_processor@_WV?$string_output_adapter@_W@__crt_stdio_output@@V?$positional_parameter_base@_WV?$string_output_adapter@_W@__crt_stdio_output@@@2@@1@AAE_NXZ@@Z 10020b27 f i libucrt:output.obj
 0001:0001fbb6       ??$extract_argument_from_va_list@PAUansi_string@?1??type_case_Z@?$output_processor@_WV?$string_output_adapter@_W@__crt_stdio_output@@V?$positional_parameter_base@_WV?$string_output_adapter@_W@__crt_stdio_output@@@2@@__crt_stdio_output@@AAE_NXZ@PAU1?1??234@AAE_NXZ@@?$standard_base@_WV?$string_output_adapter@_W@__crt_stdio_output@@@__crt_stdio_output@@IAE_NAAPAUansi_string@?1??type_case_Z@?$output_processor@_WV?$string_output_adapter@_W@__crt_stdio_output@@V?$positional_parameter_base@_WV?$string_output_adapter@_W@__crt_stdio_output@@@2@@1@AAE_NXZ@@Z 10020bb6 f i libucrt:output.obj
 0001:0001fbd3       ??$extract_argument_from_va_list@PAUansi_string@?1??type_case_Z@?$output_processor@_WV?$string_output_adapter@_W@__crt_stdio_output@@V?$standard_base@_WV?$string_output_adapter@_W@__crt_stdio_output@@@2@@__crt_stdio_output@@AAE_NXZ@PAU1?1??234@AAE_NXZ@@?$standard_base@_WV?$string_output_adapter@_W@__crt_stdio_output@@@__crt_stdio_output@@IAE_NAAPAUansi_string@?1??type_case_Z@?$output_processor@_WV?$string_output_adapter@_W@__crt_stdio_output@@V?$standard_base@_WV?$string_output_adapter@_W@__crt_stdio_output@@@2@@1@AAE_NXZ@@Z 10020bd3 f i libucrt:output.obj
 0001:0001fbf0       ??$extract_argument_from_va_list@PAXPAX@?$positional_parameter_base@DV?$stream_output_adapter@D@__crt_stdio_output@@@__crt_stdio_output@@IAE_NAAPAX@Z 10020bf0 f i libucrt:output.obj
 0001:0001fc7e       ??$extract_argument_from_va_list@PAXPAX@?$positional_parameter_base@DV?$string_output_adapter@D@__crt_stdio_output@@@__crt_stdio_output@@IAE_NAAPAX@Z 10020c7e f i libucrt:output.obj
 0001:0001fd0c       ??$extract_argument_from_va_list@PAXPAX@?$positional_parameter_base@_WV?$stream_output_adapter@_W@__crt_stdio_output@@@__crt_stdio_output@@IAE_NAAPAX@Z 10020d0c f i libucrt:output.obj
 0001:0001fd9b       ??$extract_argument_from_va_list@PAXPAX@?$positional_parameter_base@_WV?$string_output_adapter@_W@__crt_stdio_output@@@__crt_stdio_output@@IAE_NAAPAX@Z 10020d9b f i libucrt:output.obj
 0001:0001fe2a       ??$extract_argument_from_va_list@PAXPAX@?$standard_base@DV?$stream_output_adapter@D@__crt_stdio_output@@@__crt_stdio_output@@IAE_NAAPAX@Z 10020e2a f i libucrt:output.obj
 0001:0001fe47       ??$extract_argument_from_va_list@PAXPAX@?$standard_base@DV?$string_output_adapter@D@__crt_stdio_output@@@__crt_stdio_output@@IAE_NAAPAX@Z 10020e47 f i libucrt:output.obj
 0001:0001fe64       ??$extract_argument_from_va_list@PAXPAX@?$standard_base@_WV?$stream_output_adapter@_W@__crt_stdio_output@@@__crt_stdio_output@@IAE_NAAPAX@Z 10020e64 f i libucrt:output.obj
 0001:0001fe81       ??$extract_argument_from_va_list@PAXPAX@?$standard_base@_WV?$string_output_adapter@_W@__crt_stdio_output@@@__crt_stdio_output@@IAE_NAAPAX@Z 10020e81 f i libucrt:output.obj
 0001:0001fe9e       ??$extract_argument_from_va_list@U_CRT_DOUBLE@@U1@@?$positional_parameter_base@DV?$stream_output_adapter@D@__crt_stdio_output@@@__crt_stdio_output@@IAE_NAAU_CRT_DOUBLE@@@Z 10020e9e f i libucrt:output.obj
 0001:0001ff34       ??$extract_argument_from_va_list@U_CRT_DOUBLE@@U1@@?$positional_parameter_base@DV?$string_output_adapter@D@__crt_stdio_output@@@__crt_stdio_output@@IAE_NAAU_CRT_DOUBLE@@@Z 10020f34 f i libucrt:output.obj
 0001:0001ffca       ??$extract_argument_from_va_list@U_CRT_DOUBLE@@U1@@?$positional_parameter_base@_WV?$stream_output_adapter@_W@__crt_stdio_output@@@__crt_stdio_output@@IAE_NAAU_CRT_DOUBLE@@@Z 10020fca f i libucrt:output.obj
 0001:00020061       ??$extract_argument_from_va_list@U_CRT_DOUBLE@@U1@@?$positional_parameter_base@_WV?$string_output_adapter@_W@__crt_stdio_output@@@__crt_stdio_output@@IAE_NAAU_CRT_DOUBLE@@@Z 10021061 f i libucrt:output.obj
 0001:000200f8       ??$extract_argument_from_va_list@U_CRT_DOUBLE@@U1@@?$standard_base@DV?$stream_output_adapter@D@__crt_stdio_output@@@__crt_stdio_output@@IAE_NAAU_CRT_DOUBLE@@@Z 100210f8 f i libucrt:output.obj
 0001:00020119       ??$extract_argument_from_va_list@U_CRT_DOUBLE@@U1@@?$standard_base@DV?$string_output_adapter@D@__crt_stdio_output@@@__crt_stdio_output@@IAE_NAAU_CRT_DOUBLE@@@Z 10021119 f i libucrt:output.obj
 0001:0002013a       ??$extract_argument_from_va_list@U_CRT_DOUBLE@@U1@@?$standard_base@_WV?$stream_output_adapter@_W@__crt_stdio_output@@@__crt_stdio_output@@IAE_NAAU_CRT_DOUBLE@@@Z 1002113a f i libucrt:output.obj
 0001:0002015b       ??$extract_argument_from_va_list@U_CRT_DOUBLE@@U1@@?$standard_base@_WV?$string_output_adapter@_W@__crt_stdio_output@@@__crt_stdio_output@@IAE_NAAU_CRT_DOUBLE@@@Z 1002115b f i libucrt:output.obj
 0001:0002017c       ??$extract_argument_from_va_list@_J_J@?$positional_parameter_base@DV?$stream_output_adapter@D@__crt_stdio_output@@@__crt_stdio_output@@IAE_NAA_J@Z 1002117c f i libucrt:output.obj
 0001:00020216       ??$extract_argument_from_va_list@_J_J@?$positional_parameter_base@DV?$string_output_adapter@D@__crt_stdio_output@@@__crt_stdio_output@@IAE_NAA_J@Z 10021216 f i libucrt:output.obj
 0001:000202b0       ??$extract_argument_from_va_list@_J_J@?$positional_parameter_base@_WV?$stream_output_adapter@_W@__crt_stdio_output@@@__crt_stdio_output@@IAE_NAA_J@Z 100212b0 f i libucrt:output.obj
 0001:0002034b       ??$extract_argument_from_va_list@_J_J@?$positional_parameter_base@_WV?$string_output_adapter@_W@__crt_stdio_output@@@__crt_stdio_output@@IAE_NAA_J@Z 1002134b f i libucrt:output.obj
 0001:000203e6       ??$extract_argument_from_va_list@_J_J@?$standard_base@DV?$stream_output_adapter@D@__crt_stdio_output@@@__crt_stdio_output@@IAE_NAA_J@Z 100213e6 f i libucrt:output.obj
 0001:00020407       ??$extract_argument_from_va_list@_J_J@?$standard_base@DV?$string_output_adapter@D@__crt_stdio_output@@@__crt_stdio_output@@IAE_NAA_J@Z 10021407 f i libucrt:output.obj
 0001:00020428       ??$extract_argument_from_va_list@_J_J@?$standard_base@_WV?$stream_output_adapter@_W@__crt_stdio_output@@@__crt_stdio_output@@IAE_NAA_J@Z 10021428 f i libucrt:output.obj
 0001:00020449       ??$extract_argument_from_va_list@_J_J@?$standard_base@_WV?$string_output_adapter@_W@__crt_stdio_output@@@__crt_stdio_output@@IAE_NAA_J@Z 10021449 f i libucrt:output.obj
 0001:0002046a       ??$extract_argument_from_va_list@_K_J@?$positional_parameter_base@DV?$stream_output_adapter@D@__crt_stdio_output@@@__crt_stdio_output@@IAE_NAA_J@Z 1002146a f i libucrt:output.obj
 0001:00020504       ??$extract_argument_from_va_list@_K_J@?$positional_parameter_base@DV?$string_output_adapter@D@__crt_stdio_output@@@__crt_stdio_output@@IAE_NAA_J@Z 10021504 f i libucrt:output.obj
 0001:0002059e       ??$extract_argument_from_va_list@_K_J@?$positional_parameter_base@_WV?$stream_output_adapter@_W@__crt_stdio_output@@@__crt_stdio_output@@IAE_NAA_J@Z 1002159e f i libucrt:output.obj
 0001:00020639       ??$extract_argument_from_va_list@_K_J@?$positional_parameter_base@_WV?$string_output_adapter@_W@__crt_stdio_output@@@__crt_stdio_output@@IAE_NAA_J@Z 10021639 f i libucrt:output.obj
 0001:000206d4       ??$extract_argument_from_va_list@_K_J@?$standard_base@DV?$stream_output_adapter@D@__crt_stdio_output@@@__crt_stdio_output@@IAE_NAA_J@Z 100216d4 f i libucrt:output.obj
 0001:000206f5       ??$extract_argument_from_va_list@_K_J@?$standard_base@DV?$string_output_adapter@D@__crt_stdio_output@@@__crt_stdio_output@@IAE_NAA_J@Z 100216f5 f i libucrt:output.obj
 0001:00020716       ??$extract_argument_from_va_list@_K_J@?$standard_base@_WV?$stream_output_adapter@_W@__crt_stdio_output@@@__crt_stdio_output@@IAE_NAA_J@Z 10021716 f i libucrt:output.obj
 0001:00020737       ??$extract_argument_from_va_list@_K_J@?$standard_base@_WV?$string_output_adapter@_W@__crt_stdio_output@@@__crt_stdio_output@@IAE_NAA_J@Z 10021737 f i libucrt:output.obj
 0001:00020758       ??$extract_argument_from_va_list@_W_W@?$positional_parameter_base@DV?$stream_output_adapter@D@__crt_stdio_output@@@__crt_stdio_output@@IAE_NAA_W@Z 10021758 f i libucrt:output.obj
 0001:000207ea       ??$extract_argument_from_va_list@_W_W@?$positional_parameter_base@DV?$string_output_adapter@D@__crt_stdio_output@@@__crt_stdio_output@@IAE_NAA_W@Z 100217ea f i libucrt:output.obj
 0001:0002087c       ??$extract_argument_from_va_list@_W_W@?$positional_parameter_base@_WV?$stream_output_adapter@_W@__crt_stdio_output@@@__crt_stdio_output@@IAE_NAA_W@Z 1002187c f i libucrt:output.obj
 0001:0002090f       ??$extract_argument_from_va_list@_W_W@?$positional_parameter_base@_WV?$string_output_adapter@_W@__crt_stdio_output@@@__crt_stdio_output@@IAE_NAA_W@Z 1002190f f i libucrt:output.obj
 0001:000209a2       ??$extract_argument_from_va_list@_W_W@?$standard_base@DV?$stream_output_adapter@D@__crt_stdio_output@@@__crt_stdio_output@@IAE_NAA_W@Z 100219a2 f i libucrt:output.obj
 0001:000209bf       ??$extract_argument_from_va_list@_W_W@?$standard_base@DV?$string_output_adapter@D@__crt_stdio_output@@@__crt_stdio_output@@IAE_NAA_W@Z 100219bf f i libucrt:output.obj
 0001:000209dc       ??$extract_argument_from_va_list@_W_W@?$standard_base@_WV?$stream_output_adapter@_W@__crt_stdio_output@@@__crt_stdio_output@@IAE_NAA_W@Z 100219dc f i libucrt:output.obj
 0001:000209f9       ??$extract_argument_from_va_list@_W_W@?$standard_base@_WV?$string_output_adapter@_W@__crt_stdio_output@@@__crt_stdio_output@@IAE_NAA_W@Z 100219f9 f i libucrt:output.obj
 0001:00020a16       ??$get_parameter_type@D@?$positional_parameter_base@DV?$stream_output_adapter@D@__crt_stdio_output@@@__crt_stdio_output@@CA?AW4parameter_type@01@PAD@Z 10021a16 f i libucrt:output.obj
 0001:00020a1a       ??$get_parameter_type@D@?$positional_parameter_base@DV?$string_output_adapter@D@__crt_stdio_output@@@__crt_stdio_output@@CA?AW4parameter_type@01@PAD@Z 10021a1a f i libucrt:output.obj
 0001:00020a1e       ??$get_parameter_type@D@?$positional_parameter_base@_WV?$stream_output_adapter@_W@__crt_stdio_output@@@__crt_stdio_output@@CA?AW4parameter_type@01@PAD@Z 10021a1e f i libucrt:output.obj
 0001:00020a22       ??$get_parameter_type@D@?$positional_parameter_base@_WV?$string_output_adapter@_W@__crt_stdio_output@@@__crt_stdio_output@@CA?AW4parameter_type@01@PAD@Z 10021a22 f i libucrt:output.obj
 0001:00020a26       ??$get_parameter_type@Uansi_string@?1??type_case_Z@?$output_processor@DV?$stream_output_adapter@D@__crt_stdio_output@@V?$positional_parameter_base@DV?$stream_output_adapter@D@__crt_stdio_output@@@2@@__crt_stdio_output@@AAE_NXZ@@?$positional_parameter_base@DV?$stream_output_adapter@D@__crt_stdio_output@@@__crt_stdio_output@@CA?AW4parameter_type@01@PAUansi_string@?1??type_case_Z@?$output_processor@DV?$stream_output_adapter@D@__crt_stdio_output@@V?$positional_parameter_base@DV?$stream_output_adapter@D@__crt_stdio_output@@@2@@1@AAE_NXZ@@Z 10021a26 f i libucrt:output.obj
 0001:00020a2a       ??$get_parameter_type@Uansi_string@?1??type_case_Z@?$output_processor@DV?$string_output_adapter@D@__crt_stdio_output@@V?$positional_parameter_base@DV?$string_output_adapter@D@__crt_stdio_output@@@2@@__crt_stdio_output@@AAE_NXZ@@?$positional_parameter_base@DV?$string_output_adapter@D@__crt_stdio_output@@@__crt_stdio_output@@CA?AW4parameter_type@01@PAUansi_string@?1??type_case_Z@?$output_processor@DV?$string_output_adapter@D@__crt_stdio_output@@V?$positional_parameter_base@DV?$string_output_adapter@D@__crt_stdio_output@@@2@@1@AAE_NXZ@@Z 10021a2a f i libucrt:output.obj
 0001:00020a2e       ??$get_parameter_type@Uansi_string@?1??type_case_Z@?$output_processor@_WV?$stream_output_adapter@_W@__crt_stdio_output@@V?$positional_parameter_base@_WV?$stream_output_adapter@_W@__crt_stdio_output@@@2@@__crt_stdio_output@@AAE_NXZ@@?$positional_parameter_base@_WV?$stream_output_adapter@_W@__crt_stdio_output@@@__crt_stdio_output@@CA?AW4parameter_type@01@PAUansi_string@?1??type_case_Z@?$output_processor@_WV?$stream_output_adapter@_W@__crt_stdio_output@@V?$positional_parameter_base@_WV?$stream_output_adapter@_W@__crt_stdio_output@@@2@@1@AAE_NXZ@@Z 10021a2e f i libucrt:output.obj
 0001:00020a32       ??$get_parameter_type@Uansi_string@?1??type_case_Z@?$output_processor@_WV?$string_output_adapter@_W@__crt_stdio_output@@V?$positional_parameter_base@_WV?$string_output_adapter@_W@__crt_stdio_output@@@2@@__crt_stdio_output@@AAE_NXZ@@?$positional_parameter_base@_WV?$string_output_adapter@_W@__crt_stdio_output@@@__crt_stdio_output@@CA?AW4parameter_type@01@PAUansi_string@?1??type_case_Z@?$output_processor@_WV?$string_output_adapter@_W@__crt_stdio_output@@V?$positional_parameter_base@_WV?$string_output_adapter@_W@__crt_stdio_output@@@2@@1@AAE_NXZ@@Z 10021a32 f i libucrt:output.obj
 0001:00020a36       ??$get_parameter_type@X@?$positional_parameter_base@DV?$stream_output_adapter@D@__crt_stdio_output@@@__crt_stdio_output@@CA?AW4parameter_type@01@PAX@Z 10021a36 f i libucrt:output.obj
 0001:00020a3a       ??$get_parameter_type@X@?$positional_parameter_base@DV?$string_output_adapter@D@__crt_stdio_output@@@__crt_stdio_output@@CA?AW4parameter_type@01@PAX@Z 10021a3a f i libucrt:output.obj
 0001:00020a3e       ??$get_parameter_type@X@?$positional_parameter_base@_WV?$stream_output_adapter@_W@__crt_stdio_output@@@__crt_stdio_output@@CA?AW4parameter_type@01@PAX@Z 10021a3e f i libucrt:output.obj
 0001:00020a42       ??$get_parameter_type@X@?$positional_parameter_base@_WV?$string_output_adapter@_W@__crt_stdio_output@@@__crt_stdio_output@@CA?AW4parameter_type@01@PAX@Z 10021a42 f i libucrt:output.obj
 0001:00020a46       ??$is_character_specifier@D@?$positional_parameter_base@DV?$stream_output_adapter@D@__crt_stdio_output@@@__crt_stdio_output@@CA_ND@Z 10021a46 f i libucrt:output.obj
 0001:00020a5e       ??$is_character_specifier@D@?$positional_parameter_base@DV?$string_output_adapter@D@__crt_stdio_output@@@__crt_stdio_output@@CA_ND@Z 10021a5e f i libucrt:output.obj
 0001:00020a76       ??$is_character_specifier@_W@?$positional_parameter_base@_WV?$stream_output_adapter@_W@__crt_stdio_output@@@__crt_stdio_output@@CA_N_W@Z 10021a76 f i libucrt:output.obj
 0001:00020a91       ??$is_character_specifier@_W@?$positional_parameter_base@_WV?$string_output_adapter@_W@__crt_stdio_output@@@__crt_stdio_output@@CA_N_W@Z 10021a91 f i libucrt:output.obj
 0001:00020aac       ??$is_integral_specifier@D@?$positional_parameter_base@DV?$stream_output_adapter@D@__crt_stdio_output@@@__crt_stdio_output@@CA_ND@Z 10021aac f i libucrt:output.obj
 0001:00020ad8       ??$is_integral_specifier@D@?$positional_parameter_base@DV?$string_output_adapter@D@__crt_stdio_output@@@__crt_stdio_output@@CA_ND@Z 10021ad8 f i libucrt:output.obj
 0001:00020b04       ??$is_integral_specifier@_W@?$positional_parameter_base@_WV?$stream_output_adapter@_W@__crt_stdio_output@@@__crt_stdio_output@@CA_N_W@Z 10021b04 f i libucrt:output.obj
 0001:00020b3f       ??$is_integral_specifier@_W@?$positional_parameter_base@_WV?$string_output_adapter@_W@__crt_stdio_output@@@__crt_stdio_output@@CA_N_W@Z 10021b3f f i libucrt:output.obj
 0001:00020b7a       ??$is_overflow_condition@K@__crt_strtox@@YA_NIK@Z 10021b7a f i libucrt:output.obj
 0001:00020bae       ??$is_pointer_specifier@D@?$positional_parameter_base@DV?$stream_output_adapter@D@__crt_stdio_output@@@__crt_stdio_output@@CA_ND@Z 10021bae f i libucrt:output.obj
 0001:00020bbc       ??$is_pointer_specifier@D@?$positional_parameter_base@DV?$string_output_adapter@D@__crt_stdio_output@@@__crt_stdio_output@@CA_ND@Z 10021bbc f i libucrt:output.obj
 0001:00020bca       ??$is_pointer_specifier@_W@?$positional_parameter_base@_WV?$stream_output_adapter@_W@__crt_stdio_output@@@__crt_stdio_output@@CA_N_W@Z 10021bca f i libucrt:output.obj
 0001:00020bd9       ??$is_pointer_specifier@_W@?$positional_parameter_base@_WV?$string_output_adapter@_W@__crt_stdio_output@@@__crt_stdio_output@@CA_N_W@Z 10021bd9 f i libucrt:output.obj
 0001:00020be8       ??$is_string_specifier@D@?$positional_parameter_base@DV?$stream_output_adapter@D@__crt_stdio_output@@@__crt_stdio_output@@CA_ND@Z 10021be8 f i libucrt:output.obj
 0001:00020c00       ??$is_string_specifier@D@?$positional_parameter_base@DV?$string_output_adapter@D@__crt_stdio_output@@@__crt_stdio_output@@CA_ND@Z 10021c00 f i libucrt:output.obj
 0001:00020c18       ??$is_string_specifier@_W@?$positional_parameter_base@_WV?$stream_output_adapter@_W@__crt_stdio_output@@@__crt_stdio_output@@CA_N_W@Z 10021c18 f i libucrt:output.obj
 0001:00020c33       ??$is_string_specifier@_W@?$positional_parameter_base@_WV?$string_output_adapter@_W@__crt_stdio_output@@@__crt_stdio_output@@CA_N_W@Z 10021c33 f i libucrt:output.obj
 0001:00020c4e       ??$is_wide_character_specifier@D@__crt_stdio_output@@YA_N_KDW4length_modifier@0@@Z 10021c4e f i libucrt:output.obj
 0001:00020c7f       ??$is_wide_character_specifier@_W@__crt_stdio_output@@YA_N_K_WW4length_modifier@0@@Z 10021c7f f i libucrt:output.obj
 0001:00020ccd       ??$make_c_string_character_source@DPAPAD@__crt_strtox@@YA?AV?$c_string_character_source@D@0@QBDQAPAD@Z 10021ccd f i libucrt:output.obj
 0001:00020ce8       ??$make_c_string_character_source@_WPAPA_W@__crt_strtox@@YA?AV?$c_string_character_source@_W@0@QB_WQAPA_W@Z 10021ce8 f i libucrt:output.obj
 0001:00020d03       ??$parse_integer@KV?$c_string_character_source@D@__crt_strtox@@$0A@@__crt_strtox@@YAKAAV__crt_cached_ptd_host@@V?$c_string_character_source@D@0@H_N@Z 10021d03 f i libucrt:output.obj
 0001:00020f12       ??$parse_integer@KV?$c_string_character_source@_W@__crt_strtox@@$0A@@__crt_strtox@@YAKAAV__crt_cached_ptd_host@@V?$c_string_character_source@_W@0@H_N@Z 10021f12 f i libucrt:output.obj
 0001:000214e5       ??$peek_va_arg@C@__crt_stdio_output@@YACPAD@Z 100224e5 f i libucrt:output.obj
 0001:000214f1       ??$peek_va_arg@E@__crt_stdio_output@@YAEPAD@Z 100224f1 f i libucrt:output.obj
 0001:000214fd       ??$peek_va_arg@F@__crt_stdio_output@@YAFPAD@Z 100224fd f i libucrt:output.obj
 0001:0002150a       ??$peek_va_arg@G@__crt_stdio_output@@YAGPAD@Z 1002250a f i libucrt:output.obj
 0001:00021517       ??$peek_va_arg@H@__crt_stdio_output@@YAHPAD@Z 10022517 f i libucrt:output.obj
 0001:00021523       ??$peek_va_arg@I@__crt_stdio_output@@YAIPAD@Z 10022523 f i libucrt:output.obj
 0001:0002152f       ??$peek_va_arg@PAD@__crt_stdio_output@@YAPADPAD@Z 1002252f f i libucrt:output.obj
 0001:0002153b       ??$peek_va_arg@PAUansi_string@?1??type_case_Z@?$output_processor@DV?$stream_output_adapter@D@__crt_stdio_output@@V?$positional_parameter_base@DV?$stream_output_adapter@D@__crt_stdio_output@@@2@@__crt_stdio_output@@AAE_NXZ@@__crt_stdio_output@@YAPAUansi_string@?1??type_case_Z@?$output_processor@DV?$stream_output_adapter@D@__crt_stdio_output@@V?$positional_parameter_base@DV?$stream_output_adapter@D@__crt_stdio_output@@@2@@0@AAE_NXZ@PAD@Z 1002253b f i libucrt:output.obj
 0001:00021547       ??$peek_va_arg@PAUansi_string@?1??type_case_Z@?$output_processor@DV?$string_output_adapter@D@__crt_stdio_output@@V?$positional_parameter_base@DV?$string_output_adapter@D@__crt_stdio_output@@@2@@__crt_stdio_output@@AAE_NXZ@@__crt_stdio_output@@YAPAUansi_string@?1??type_case_Z@?$output_processor@DV?$string_output_adapter@D@__crt_stdio_output@@V?$positional_parameter_base@DV?$string_output_adapter@D@__crt_stdio_output@@@2@@0@AAE_NXZ@PAD@Z 10022547 f i libucrt:output.obj
 0001:00021553       ??$peek_va_arg@PAUansi_string@?1??type_case_Z@?$output_processor@_WV?$stream_output_adapter@_W@__crt_stdio_output@@V?$positional_parameter_base@_WV?$stream_output_adapter@_W@__crt_stdio_output@@@2@@__crt_stdio_output@@AAE_NXZ@@__crt_stdio_output@@YAPAUansi_string@?1??type_case_Z@?$output_processor@_WV?$stream_output_adapter@_W@__crt_stdio_output@@V?$positional_parameter_base@_WV?$stream_output_adapter@_W@__crt_stdio_output@@@2@@0@AAE_NXZ@PAD@Z 10022553 f i libucrt:output.obj
 0001:0002155f       ??$peek_va_arg@PAUansi_string@?1??type_case_Z@?$output_processor@_WV?$string_output_adapter@_W@__crt_stdio_output@@V?$positional_parameter_base@_WV?$string_output_adapter@_W@__crt_stdio_output@@@2@@__crt_stdio_output@@AAE_NXZ@@__crt_stdio_output@@YAPAUansi_string@?1??type_case_Z@?$output_processor@_WV?$string_output_adapter@_W@__crt_stdio_output@@V?$positional_parameter_base@_WV?$string_output_adapter@_W@__crt_stdio_output@@@2@@0@AAE_NXZ@PAD@Z 1002255f f i libucrt:output.obj
 0001:0002156b       ??$peek_va_arg@PAX@__crt_stdio_output@@YAPAXPAD@Z 1002256b f i libucrt:output.obj
 0001:00021577       ??$peek_va_arg@U_CRT_DOUBLE@@@__crt_stdio_output@@YA?AU_CRT_DOUBLE@@PAD@Z 10022577 f i libucrt:output.obj
 0001:00021586       ??$peek_va_arg@_J@__crt_stdio_output@@YA_JPAD@Z 10022586 f i libucrt:output.obj
 0001:00021595       ??$peek_va_arg@_K@__crt_stdio_output@@YA_KPAD@Z 10022595 f i libucrt:output.obj
 0001:000215a4       ??$peek_va_arg@_W@__crt_stdio_output@@YA_WPAD@Z 100225a4 f i libucrt:output.obj
 0001:000215b1       ??$puttc_nolock_internal@ABDPAU_iobuf@@AAV__crt_cached_ptd_host@@@?$__crt_char_traits@D@@SAHABD$$QAPAU_iobuf@@AAV__crt_cached_ptd_host@@@Z 100225b1 f i libucrt:output.obj
 0001:000215cf       ??$puttc_nolock_internal@AB_WPAU_iobuf@@AAV__crt_cached_ptd_host@@@?$__crt_char_traits@_W@@SAGAB_W$$QAPAU_iobuf@@AAV__crt_cached_ptd_host@@@Z 100225cf f i libucrt:output.obj
 0001:000215ed       ??$read_va_arg@C@__crt_stdio_output@@YACAAPAD@Z 100225ed f i libucrt:output.obj
 0001:00021600       ??$read_va_arg@E@__crt_stdio_output@@YAEAAPAD@Z 10022600 f i libucrt:output.obj
 0001:00021613       ??$read_va_arg@F@__crt_stdio_output@@YAFAAPAD@Z 10022613 f i libucrt:output.obj
 0001:00021627       ??$read_va_arg@G@__crt_stdio_output@@YAGAAPAD@Z 10022627 f i libucrt:output.obj
 0001:0002163b       ??$read_va_arg@H@__crt_stdio_output@@YAHAAPAD@Z 1002263b f i libucrt:output.obj
 0001:0002164e       ??$read_va_arg@I@__crt_stdio_output@@YAIAAPAD@Z 1002264e f i libucrt:output.obj
 0001:00021661       ??$read_va_arg@PAD@__crt_stdio_output@@YAPADAAPAD@Z 10022661 f i libucrt:output.obj
 0001:00021674       ??$read_va_arg@PAUansi_string@?1??type_case_Z@?$output_processor@DV?$stream_output_adapter@D@__crt_stdio_output@@V?$format_validation_base@DV?$stream_output_adapter@D@__crt_stdio_output@@@2@@__crt_stdio_output@@AAE_NXZ@@__crt_stdio_output@@YAPAUansi_string@?1??type_case_Z@?$output_processor@DV?$stream_output_adapter@D@__crt_stdio_output@@V?$format_validation_base@DV?$stream_output_adapter@D@__crt_stdio_output@@@2@@0@AAE_NXZ@AAPAD@Z 10022674 f i libucrt:output.obj
 0001:00021687       ??$read_va_arg@PAUansi_string@?1??type_case_Z@?$output_processor@DV?$stream_output_adapter@D@__crt_stdio_output@@V?$positional_parameter_base@DV?$stream_output_adapter@D@__crt_stdio_output@@@2@@__crt_stdio_output@@AAE_NXZ@@__crt_stdio_output@@YAPAUansi_string@?1??type_case_Z@?$output_processor@DV?$stream_output_adapter@D@__crt_stdio_output@@V?$positional_parameter_base@DV?$stream_output_adapter@D@__crt_stdio_output@@@2@@0@AAE_NXZ@AAPAD@Z 10022687 f i libucrt:output.obj
 0001:0002169a       ??$read_va_arg@PAUansi_string@?1??type_case_Z@?$output_processor@DV?$stream_output_adapter@D@__crt_stdio_output@@V?$standard_base@DV?$stream_output_adapter@D@__crt_stdio_output@@@2@@__crt_stdio_output@@AAE_NXZ@@__crt_stdio_output@@YAPAUansi_string@?1??type_case_Z@?$output_processor@DV?$stream_output_adapter@D@__crt_stdio_output@@V?$standard_base@DV?$stream_output_adapter@D@__crt_stdio_output@@@2@@0@AAE_NXZ@AAPAD@Z 1002269a f i libucrt:output.obj
 0001:000216ad       ??$read_va_arg@PAUansi_string@?1??type_case_Z@?$output_processor@DV?$string_output_adapter@D@__crt_stdio_output@@V?$format_validation_base@DV?$string_output_adapter@D@__crt_stdio_output@@@2@@__crt_stdio_output@@AAE_NXZ@@__crt_stdio_output@@YAPAUansi_string@?1??type_case_Z@?$output_processor@DV?$string_output_adapter@D@__crt_stdio_output@@V?$format_validation_base@DV?$string_output_adapter@D@__crt_stdio_output@@@2@@0@AAE_NXZ@AAPAD@Z 100226ad f i libucrt:output.obj
 0001:000216c0       ??$read_va_arg@PAUansi_string@?1??type_case_Z@?$output_processor@DV?$string_output_adapter@D@__crt_stdio_output@@V?$positional_parameter_base@DV?$string_output_adapter@D@__crt_stdio_output@@@2@@__crt_stdio_output@@AAE_NXZ@@__crt_stdio_output@@YAPAUansi_string@?1??type_case_Z@?$output_processor@DV?$string_output_adapter@D@__crt_stdio_output@@V?$positional_parameter_base@DV?$string_output_adapter@D@__crt_stdio_output@@@2@@0@AAE_NXZ@AAPAD@Z 100226c0 f i libucrt:output.obj
 0001:000216d3       ??$read_va_arg@PAUansi_string@?1??type_case_Z@?$output_processor@DV?$string_output_adapter@D@__crt_stdio_output@@V?$standard_base@DV?$string_output_adapter@D@__crt_stdio_output@@@2@@__crt_stdio_output@@AAE_NXZ@@__crt_stdio_output@@YAPAUansi_string@?1??type_case_Z@?$output_processor@DV?$string_output_adapter@D@__crt_stdio_output@@V?$standard_base@DV?$string_output_adapter@D@__crt_stdio_output@@@2@@0@AAE_NXZ@AAPAD@Z 100226d3 f i libucrt:output.obj
 0001:000216e6       ??$read_va_arg@PAUansi_string@?1??type_case_Z@?$output_processor@_WV?$stream_output_adapter@_W@__crt_stdio_output@@V?$format_validation_base@_WV?$stream_output_adapter@_W@__crt_stdio_output@@@2@@__crt_stdio_output@@AAE_NXZ@@__crt_stdio_output@@YAPAUansi_string@?1??type_case_Z@?$output_processor@_WV?$stream_output_adapter@_W@__crt_stdio_output@@V?$format_validation_base@_WV?$stream_output_adapter@_W@__crt_stdio_output@@@2@@0@AAE_NXZ@AAPAD@Z 100226e6 f i libucrt:output.obj
 0001:000216f9       ??$read_va_arg@PAUansi_string@?1??type_case_Z@?$output_processor@_WV?$stream_output_adapter@_W@__crt_stdio_output@@V?$positional_parameter_base@_WV?$stream_output_adapter@_W@__crt_stdio_output@@@2@@__crt_stdio_output@@AAE_NXZ@@__crt_stdio_output@@YAPAUansi_string@?1??type_case_Z@?$output_processor@_WV?$stream_output_adapter@_W@__crt_stdio_output@@V?$positional_parameter_base@_WV?$stream_output_adapter@_W@__crt_stdio_output@@@2@@0@AAE_NXZ@AAPAD@Z 100226f9 f i libucrt:output.obj
 0001:0002170c       ??$read_va_arg@PAUansi_string@?1??type_case_Z@?$output_processor@_WV?$stream_output_adapter@_W@__crt_stdio_output@@V?$standard_base@_WV?$stream_output_adapter@_W@__crt_stdio_output@@@2@@__crt_stdio_output@@AAE_NXZ@@__crt_stdio_output@@YAPAUansi_string@?1??type_case_Z@?$output_processor@_WV?$stream_output_adapter@_W@__crt_stdio_output@@V?$standard_base@_WV?$stream_output_adapter@_W@__crt_stdio_output@@@2@@0@AAE_NXZ@AAPAD@Z 1002270c f i libucrt:output.obj
 0001:0002171f       ??$read_va_arg@PAUansi_string@?1??type_case_Z@?$output_processor@_WV?$string_output_adapter@_W@__crt_stdio_output@@V?$format_validation_base@_WV?$string_output_adapter@_W@__crt_stdio_output@@@2@@__crt_stdio_output@@AAE_NXZ@@__crt_stdio_output@@YAPAUansi_string@?1??type_case_Z@?$output_processor@_WV?$string_output_adapter@_W@__crt_stdio_output@@V?$format_validation_base@_WV?$string_output_adapter@_W@__crt_stdio_output@@@2@@0@AAE_NXZ@AAPAD@Z 1002271f f i libucrt:output.obj
 0001:00021732       ??$read_va_arg@PAUansi_string@?1??type_case_Z@?$output_processor@_WV?$string_output_adapter@_W@__crt_stdio_output@@V?$positional_parameter_base@_WV?$string_output_adapter@_W@__crt_stdio_output@@@2@@__crt_stdio_output@@AAE_NXZ@@__crt_stdio_output@@YAPAUansi_string@?1??type_case_Z@?$output_processor@_WV?$string_output_adapter@_W@__crt_stdio_output@@V?$positional_parameter_base@_WV?$string_output_adapter@_W@__crt_stdio_output@@@2@@0@AAE_NXZ@AAPAD@Z 10022732 f i libucrt:output.obj
 0001:00021745       ??$read_va_arg@PAUansi_string@?1??type_case_Z@?$output_processor@_WV?$string_output_adapter@_W@__crt_stdio_output@@V?$standard_base@_WV?$string_output_adapter@_W@__crt_stdio_output@@@2@@__crt_stdio_output@@AAE_NXZ@@__crt_stdio_output@@YAPAUansi_string@?1??type_case_Z@?$output_processor@_WV?$string_output_adapter@_W@__crt_stdio_output@@V?$standard_base@_WV?$string_output_adapter@_W@__crt_stdio_output@@@2@@0@AAE_NXZ@AAPAD@Z 10022745 f i libucrt:output.obj
 0001:00021758       ??$read_va_arg@PAX@__crt_stdio_output@@YAPAXAAPAD@Z 10022758 f i libucrt:output.obj
 0001:0002176b       ??$read_va_arg@U_CRT_DOUBLE@@@__crt_stdio_output@@YA?AU_CRT_DOUBLE@@AAPAD@Z 1002276b f i libucrt:output.obj
 0001:00021781       ??$read_va_arg@_J@__crt_stdio_output@@YA_JAAPAD@Z 10022781 f i libucrt:output.obj
 0001:00021797       ??$read_va_arg@_K@__crt_stdio_output@@YA_KAAPAD@Z 10022797 f i libucrt:output.obj
 0001:000217ad       ??$read_va_arg@_W@__crt_stdio_output@@YA_WAAPAD@Z 100227ad f i libucrt:output.obj
 0001:000217c1       ??$scratch_count@D@formatting_buffer@__crt_stdio_output@@QBEIXZ 100227c1 f i libucrt:output.obj
 0001:000217c6       ??$scratch_data@D@formatting_buffer@__crt_stdio_output@@QAEPADXZ 100227c6 f i libucrt:output.obj
 0001:000217e4       ??$type_case_integer@$07@?$output_processor@DV?$stream_output_adapter@D@__crt_stdio_output@@V?$format_validation_base@DV?$stream_output_adapter@D@__crt_stdio_output@@@2@@__crt_stdio_output@@AAE_N_N@Z 100227e4 f i libucrt:output.obj
 0001:00021971       ??$type_case_integer@$07@?$output_processor@DV?$stream_output_adapter@D@__crt_stdio_output@@V?$positional_parameter_base@DV?$stream_output_adapter@D@__crt_stdio_output@@@2@@__crt_stdio_output@@AAE_N_N@Z 10022971 f i libucrt:output.obj
 0001:00021b0d       ??$type_case_integer@$07@?$output_processor@DV?$stream_output_adapter@D@__crt_stdio_output@@V?$standard_base@DV?$stream_output_adapter@D@__crt_stdio_output@@@2@@__crt_stdio_output@@AAE_N_N@Z 10022b0d f i libucrt:output.obj
 0001:00021c9a       ??$type_case_integer@$07@?$output_processor@DV?$string_output_adapter@D@__crt_stdio_output@@V?$format_validation_base@DV?$string_output_adapter@D@__crt_stdio_output@@@2@@__crt_stdio_output@@AAE_N_N@Z 10022c9a f i libucrt:output.obj
 0001:00021e27       ??$type_case_integer@$07@?$output_processor@DV?$string_output_adapter@D@__crt_stdio_output@@V?$positional_parameter_base@DV?$string_output_adapter@D@__crt_stdio_output@@@2@@__crt_stdio_output@@AAE_N_N@Z 10022e27 f i libucrt:output.obj
 0001:00021fc3       ??$type_case_integer@$07@?$output_processor@DV?$string_output_adapter@D@__crt_stdio_output@@V?$standard_base@DV?$string_output_adapter@D@__crt_stdio_output@@@2@@__crt_stdio_output@@AAE_N_N@Z 10022fc3 f i libucrt:output.obj
 0001:00022150       ??$type_case_integer@$07@?$output_processor@_WV?$stream_output_adapter@_W@__crt_stdio_output@@V?$format_validation_base@_WV?$stream_output_adapter@_W@__crt_stdio_output@@@2@@__crt_stdio_output@@AAE_N_N@Z 10023150 f i libucrt:output.obj
 0001:000222e2       ??$type_case_integer@$07@?$output_processor@_WV?$stream_output_adapter@_W@__crt_stdio_output@@V?$positional_parameter_base@_WV?$stream_output_adapter@_W@__crt_stdio_output@@@2@@__crt_stdio_output@@AAE_N_N@Z 100232e2 f i libucrt:output.obj
 0001:00022482       ??$type_case_integer@$07@?$output_processor@_WV?$stream_output_adapter@_W@__crt_stdio_output@@V?$standard_base@_WV?$stream_output_adapter@_W@__crt_stdio_output@@@2@@__crt_stdio_output@@AAE_N_N@Z 10023482 f i libucrt:output.obj
 0001:00022614       ??$type_case_integer@$07@?$output_processor@_WV?$string_output_adapter@_W@__crt_stdio_output@@V?$format_validation_base@_WV?$string_output_adapter@_W@__crt_stdio_output@@@2@@__crt_stdio_output@@AAE_N_N@Z 10023614 f i libucrt:output.obj
 0001:000227a6       ??$type_case_integer@$07@?$output_processor@_WV?$string_output_adapter@_W@__crt_stdio_output@@V?$positional_parameter_base@_WV?$string_output_adapter@_W@__crt_stdio_output@@@2@@__crt_stdio_output@@AAE_N_N@Z 100237a6 f i libucrt:output.obj
 0001:00022946       ??$type_case_integer@$07@?$output_processor@_WV?$string_output_adapter@_W@__crt_stdio_output@@V?$standard_base@_WV?$string_output_adapter@_W@__crt_stdio_output@@@2@@__crt_stdio_output@@AAE_N_N@Z 10023946 f i libucrt:output.obj
 0001:00022ad8       ??$type_case_integer@$09@?$output_processor@DV?$stream_output_adapter@D@__crt_stdio_output@@V?$format_validation_base@DV?$stream_output_adapter@D@__crt_stdio_output@@@2@@__crt_stdio_output@@AAE_N_N@Z 10023ad8 f i libucrt:output.obj
 0001:00022c65       ??$type_case_integer@$09@?$output_processor@DV?$stream_output_adapter@D@__crt_stdio_output@@V?$positional_parameter_base@DV?$stream_output_adapter@D@__crt_stdio_output@@@2@@__crt_stdio_output@@AAE_N_N@Z 10023c65 f i libucrt:output.obj
 0001:00022e01       ??$type_case_integer@$09@?$output_processor@DV?$stream_output_adapter@D@__crt_stdio_output@@V?$standard_base@DV?$stream_output_adapter@D@__crt_stdio_output@@@2@@__crt_stdio_output@@AAE_N_N@Z 10023e01 f i libucrt:output.obj
 0001:00022f8e       ??$type_case_integer@$09@?$output_processor@DV?$string_output_adapter@D@__crt_stdio_output@@V?$format_validation_base@DV?$string_output_adapter@D@__crt_stdio_output@@@2@@__crt_stdio_output@@AAE_N_N@Z 10023f8e f i libucrt:output.obj
 0001:0002311b       ??$type_case_integer@$09@?$output_processor@DV?$string_output_adapter@D@__crt_stdio_output@@V?$positional_parameter_base@DV?$string_output_adapter@D@__crt_stdio_output@@@2@@__crt_stdio_output@@AAE_N_N@Z 1002411b f i libucrt:output.obj
 0001:000232b7       ??$type_case_integer@$09@?$output_processor@DV?$string_output_adapter@D@__crt_stdio_output@@V?$standard_base@DV?$string_output_adapter@D@__crt_stdio_output@@@2@@__crt_stdio_output@@AAE_N_N@Z 100242b7 f i libucrt:output.obj
 0001:00023444       ??$type_case_integer@$09@?$output_processor@_WV?$stream_output_adapter@_W@__crt_stdio_output@@V?$format_validation_base@_WV?$stream_output_adapter@_W@__crt_stdio_output@@@2@@__crt_stdio_output@@AAE_N_N@Z 10024444 f i libucrt:output.obj
 0001:000235d6       ??$type_case_integer@$09@?$output_processor@_WV?$stream_output_adapter@_W@__crt_stdio_output@@V?$positional_parameter_base@_WV?$stream_output_adapter@_W@__crt_stdio_output@@@2@@__crt_stdio_output@@AAE_N_N@Z 100245d6 f i libucrt:output.obj
 0001:00023776       ??$type_case_integer@$09@?$output_processor@_WV?$stream_output_adapter@_W@__crt_stdio_output@@V?$standard_base@_WV?$stream_output_adapter@_W@__crt_stdio_output@@@2@@__crt_stdio_output@@AAE_N_N@Z 10024776 f i libucrt:output.obj
 0001:00023908       ??$type_case_integer@$09@?$output_processor@_WV?$string_output_adapter@_W@__crt_stdio_output@@V?$format_validation_base@_WV?$string_output_adapter@_W@__crt_stdio_output@@@2@@__crt_stdio_output@@AAE_N_N@Z 10024908 f i libucrt:output.obj
 0001:00023a9a       ??$type_case_integer@$09@?$output_processor@_WV?$string_output_adapter@_W@__crt_stdio_output@@V?$positional_parameter_base@_WV?$string_output_adapter@_W@__crt_stdio_output@@@2@@__crt_stdio_output@@AAE_N_N@Z 10024a9a f i libucrt:output.obj
 0001:00023c3a       ??$type_case_integer@$09@?$output_processor@_WV?$string_output_adapter@_W@__crt_stdio_output@@V?$standard_base@_WV?$string_output_adapter@_W@__crt_stdio_output@@@2@@__crt_stdio_output@@AAE_N_N@Z 10024c3a f i libucrt:output.obj
 0001:00023dcc       ??$type_case_integer@$0BA@@?$output_processor@DV?$stream_output_adapter@D@__crt_stdio_output@@V?$format_validation_base@DV?$stream_output_adapter@D@__crt_stdio_output@@@2@@__crt_stdio_output@@AAE_N_N@Z 10024dcc f i libucrt:output.obj
 0001:00023f59       ??$type_case_integer@$0BA@@?$output_processor@DV?$stream_output_adapter@D@__crt_stdio_output@@V?$positional_parameter_base@DV?$stream_output_adapter@D@__crt_stdio_output@@@2@@__crt_stdio_output@@AAE_N_N@Z 10024f59 f i libucrt:output.obj
 0001:000240f5       ??$type_case_integer@$0BA@@?$output_processor@DV?$stream_output_adapter@D@__crt_stdio_output@@V?$standard_base@DV?$stream_output_adapter@D@__crt_stdio_output@@@2@@__crt_stdio_output@@AAE_N_N@Z 100250f5 f i libucrt:output.obj
 0001:00024282       ??$type_case_integer@$0BA@@?$output_processor@DV?$string_output_adapter@D@__crt_stdio_output@@V?$format_validation_base@DV?$string_output_adapter@D@__crt_stdio_output@@@2@@__crt_stdio_output@@AAE_N_N@Z 10025282 f i libucrt:output.obj
 0001:0002440f       ??$type_case_integer@$0BA@@?$output_processor@DV?$string_output_adapter@D@__crt_stdio_output@@V?$positional_parameter_base@DV?$string_output_adapter@D@__crt_stdio_output@@@2@@__crt_stdio_output@@AAE_N_N@Z 1002540f f i libucrt:output.obj
 0001:000245ab       ??$type_case_integer@$0BA@@?$output_processor@DV?$string_output_adapter@D@__crt_stdio_output@@V?$standard_base@DV?$string_output_adapter@D@__crt_stdio_output@@@2@@__crt_stdio_output@@AAE_N_N@Z 100255ab f i libucrt:output.obj
 0001:00024738       ??$type_case_integer@$0BA@@?$output_processor@_WV?$stream_output_adapter@_W@__crt_stdio_output@@V?$format_validation_base@_WV?$stream_output_adapter@_W@__crt_stdio_output@@@2@@__crt_stdio_output@@AAE_N_N@Z 10025738 f i libucrt:output.obj
 0001:000248ca       ??$type_case_integer@$0BA@@?$output_processor@_WV?$stream_output_adapter@_W@__crt_stdio_output@@V?$positional_parameter_base@_WV?$stream_output_adapter@_W@__crt_stdio_output@@@2@@__crt_stdio_output@@AAE_N_N@Z 100258ca f i libucrt:output.obj
 0001:00024a6a       ??$type_case_integer@$0BA@@?$output_processor@_WV?$stream_output_adapter@_W@__crt_stdio_output@@V?$standard_base@_WV?$stream_output_adapter@_W@__crt_stdio_output@@@2@@__crt_stdio_output@@AAE_N_N@Z 10025a6a f i libucrt:output.obj
 0001:00024bfc       ??$type_case_integer@$0BA@@?$output_processor@_WV?$string_output_adapter@_W@__crt_stdio_output@@V?$format_validation_base@_WV?$string_output_adapter@_W@__crt_stdio_output@@@2@@__crt_stdio_output@@AAE_N_N@Z 10025bfc f i libucrt:output.obj
 0001:00024d8e       ??$type_case_integer@$0BA@@?$output_processor@_WV?$string_output_adapter@_W@__crt_stdio_output@@V?$positional_parameter_base@_WV?$string_output_adapter@_W@__crt_stdio_output@@@2@@__crt_stdio_output@@AAE_N_N@Z 10025d8e f i libucrt:output.obj
 0001:00024f2e       ??$type_case_integer@$0BA@@?$output_processor@_WV?$string_output_adapter@_W@__crt_stdio_output@@V?$standard_base@_WV?$string_output_adapter@_W@__crt_stdio_output@@@2@@__crt_stdio_output@@AAE_N_N@Z 10025f2e f i libucrt:output.obj
 0001:000250c0       ??$type_case_integer_parse_into_buffer@I$07@?$output_processor@DV?$stream_output_adapter@D@__crt_stdio_output@@V?$format_validation_base@DV?$stream_output_adapter@D@__crt_stdio_output@@@2@@__crt_stdio_output@@AAEXI_N@Z 100260c0 f i libucrt:output.obj
 0001:00025123       ??$type_case_integer_parse_into_buffer@I$07@?$output_processor@DV?$stream_output_adapter@D@__crt_stdio_output@@V?$positional_parameter_base@DV?$stream_output_adapter@D@__crt_stdio_output@@@2@@__crt_stdio_output@@AAEXI_N@Z 10026123 f i libucrt:output.obj
 0001:00025186       ??$type_case_integer_parse_into_buffer@I$07@?$output_processor@DV?$stream_output_adapter@D@__crt_stdio_output@@V?$standard_base@DV?$stream_output_adapter@D@__crt_stdio_output@@@2@@__crt_stdio_output@@AAEXI_N@Z 10026186 f i libucrt:output.obj
 0001:000251e9       ??$type_case_integer_parse_into_buffer@I$07@?$output_processor@DV?$string_output_adapter@D@__crt_stdio_output@@V?$format_validation_base@DV?$string_output_adapter@D@__crt_stdio_output@@@2@@__crt_stdio_output@@AAEXI_N@Z 100261e9 f i libucrt:output.obj
 0001:0002524c       ??$type_case_integer_parse_into_buffer@I$07@?$output_processor@DV?$string_output_adapter@D@__crt_stdio_output@@V?$positional_parameter_base@DV?$string_output_adapter@D@__crt_stdio_output@@@2@@__crt_stdio_output@@AAEXI_N@Z 1002624c f i libucrt:output.obj
 0001:000252af       ??$type_case_integer_parse_into_buffer@I$07@?$output_processor@DV?$string_output_adapter@D@__crt_stdio_output@@V?$standard_base@DV?$string_output_adapter@D@__crt_stdio_output@@@2@@__crt_stdio_output@@AAEXI_N@Z 100262af f i libucrt:output.obj
 0001:00025312       ??$type_case_integer_parse_into_buffer@I$07@?$output_processor@_WV?$stream_output_adapter@_W@__crt_stdio_output@@V?$format_validation_base@_WV?$stream_output_adapter@_W@__crt_stdio_output@@@2@@__crt_stdio_output@@AAEXI_N@Z 10026312 f i libucrt:output.obj
 0001:00025385       ??$type_case_integer_parse_into_buffer@I$07@?$output_processor@_WV?$stream_output_adapter@_W@__crt_stdio_output@@V?$positional_parameter_base@_WV?$stream_output_adapter@_W@__crt_stdio_output@@@2@@__crt_stdio_output@@AAEXI_N@Z 10026385 f i libucrt:output.obj
 0001:000253f8       ??$type_case_integer_parse_into_buffer@I$07@?$output_processor@_WV?$stream_output_adapter@_W@__crt_stdio_output@@V?$standard_base@_WV?$stream_output_adapter@_W@__crt_stdio_output@@@2@@__crt_stdio_output@@AAEXI_N@Z 100263f8 f i libucrt:output.obj
 0001:0002546b       ??$type_case_integer_parse_into_buffer@I$07@?$output_processor@_WV?$string_output_adapter@_W@__crt_stdio_output@@V?$format_validation_base@_WV?$string_output_adapter@_W@__crt_stdio_output@@@2@@__crt_stdio_output@@AAEXI_N@Z 1002646b f i libucrt:output.obj
 0001:000254de       ??$type_case_integer_parse_into_buffer@I$07@?$output_processor@_WV?$string_output_adapter@_W@__crt_stdio_output@@V?$positional_parameter_base@_WV?$string_output_adapter@_W@__crt_stdio_output@@@2@@__crt_stdio_output@@AAEXI_N@Z 100264de f i libucrt:output.obj
 0001:00025551       ??$type_case_integer_parse_into_buffer@I$07@?$output_processor@_WV?$string_output_adapter@_W@__crt_stdio_output@@V?$standard_base@_WV?$string_output_adapter@_W@__crt_stdio_output@@@2@@__crt_stdio_output@@AAEXI_N@Z 10026551 f i libucrt:output.obj
 0001:000255c4       ??$type_case_integer_parse_into_buffer@I$09@?$output_processor@DV?$stream_output_adapter@D@__crt_stdio_output@@V?$format_validation_base@DV?$stream_output_adapter@D@__crt_stdio_output@@@2@@__crt_stdio_output@@AAEXI_N@Z 100265c4 f i libucrt:output.obj
 0001:0002564b       ??$type_case_integer_parse_into_buffer@I$09@?$output_processor@DV?$stream_output_adapter@D@__crt_stdio_output@@V?$positional_parameter_base@DV?$stream_output_adapter@D@__crt_stdio_output@@@2@@__crt_stdio_output@@AAEXI_N@Z 1002664b f i libucrt:output.obj
 0001:000256d2       ??$type_case_integer_parse_into_buffer@I$09@?$output_processor@DV?$stream_output_adapter@D@__crt_stdio_output@@V?$standard_base@DV?$stream_output_adapter@D@__crt_stdio_output@@@2@@__crt_stdio_output@@AAEXI_N@Z 100266d2 f i libucrt:output.obj
 0001:00025759       ??$type_case_integer_parse_into_buffer@I$09@?$output_processor@DV?$string_output_adapter@D@__crt_stdio_output@@V?$format_validation_base@DV?$string_output_adapter@D@__crt_stdio_output@@@2@@__crt_stdio_output@@AAEXI_N@Z 10026759 f i libucrt:output.obj
 0001:000257e0       ??$type_case_integer_parse_into_buffer@I$09@?$output_processor@DV?$string_output_adapter@D@__crt_stdio_output@@V?$positional_parameter_base@DV?$string_output_adapter@D@__crt_stdio_output@@@2@@__crt_stdio_output@@AAEXI_N@Z 100267e0 f i libucrt:output.obj
 0001:00025867       ??$type_case_integer_parse_into_buffer@I$09@?$output_processor@DV?$string_output_adapter@D@__crt_stdio_output@@V?$standard_base@DV?$string_output_adapter@D@__crt_stdio_output@@@2@@__crt_stdio_output@@AAEXI_N@Z 10026867 f i libucrt:output.obj
 0001:000258ee       ??$type_case_integer_parse_into_buffer@I$09@?$output_processor@_WV?$stream_output_adapter@_W@__crt_stdio_output@@V?$format_validation_base@_WV?$stream_output_adapter@_W@__crt_stdio_output@@@2@@__crt_stdio_output@@AAEXI_N@Z 100268ee f i libucrt:output.obj
 0001:0002598a       ??$type_case_integer_parse_into_buffer@I$09@?$output_processor@_WV?$stream_output_adapter@_W@__crt_stdio_output@@V?$positional_parameter_base@_WV?$stream_output_adapter@_W@__crt_stdio_output@@@2@@__crt_stdio_output@@AAEXI_N@Z 1002698a f i libucrt:output.obj
 0001:00025a26       ??$type_case_integer_parse_into_buffer@I$09@?$output_processor@_WV?$stream_output_adapter@_W@__crt_stdio_output@@V?$standard_base@_WV?$stream_output_adapter@_W@__crt_stdio_output@@@2@@__crt_stdio_output@@AAEXI_N@Z 10026a26 f i libucrt:output.obj
 0001:00025ac2       ??$type_case_integer_parse_into_buffer@I$09@?$output_processor@_WV?$string_output_adapter@_W@__crt_stdio_output@@V?$format_validation_base@_WV?$string_output_adapter@_W@__crt_stdio_output@@@2@@__crt_stdio_output@@AAEXI_N@Z 10026ac2 f i libucrt:output.obj
 0001:00025b5e       ??$type_case_integer_parse_into_buffer@I$09@?$output_processor@_WV?$string_output_adapter@_W@__crt_stdio_output@@V?$positional_parameter_base@_WV?$string_output_adapter@_W@__crt_stdio_output@@@2@@__crt_stdio_output@@AAEXI_N@Z 10026b5e f i libucrt:output.obj
 0001:00025bfa       ??$type_case_integer_parse_into_buffer@I$09@?$output_processor@_WV?$string_output_adapter@_W@__crt_stdio_output@@V?$standard_base@_WV?$string_output_adapter@_W@__crt_stdio_output@@@2@@__crt_stdio_output@@AAEXI_N@Z 10026bfa f i libucrt:output.obj
 0001:00025c96       ??$type_case_integer_parse_into_buffer@I$0BA@@?$output_processor@DV?$stream_output_adapter@D@__crt_stdio_output@@V?$format_validation_base@DV?$stream_output_adapter@D@__crt_stdio_output@@@2@@__crt_stdio_output@@AAEXI_N@Z 10026c96 f i libucrt:output.obj
 0001:00025d13       ??$type_case_integer_parse_into_buffer@I$0BA@@?$output_processor@DV?$stream_output_adapter@D@__crt_stdio_output@@V?$positional_parameter_base@DV?$stream_output_adapter@D@__crt_stdio_output@@@2@@__crt_stdio_output@@AAEXI_N@Z 10026d13 f i libucrt:output.obj
 0001:00025d90       ??$type_case_integer_parse_into_buffer@I$0BA@@?$output_processor@DV?$stream_output_adapter@D@__crt_stdio_output@@V?$standard_base@DV?$stream_output_adapter@D@__crt_stdio_output@@@2@@__crt_stdio_output@@AAEXI_N@Z 10026d90 f i libucrt:output.obj
 0001:00025e0d       ??$type_case_integer_parse_into_buffer@I$0BA@@?$output_processor@DV?$string_output_adapter@D@__crt_stdio_output@@V?$format_validation_base@DV?$string_output_adapter@D@__crt_stdio_output@@@2@@__crt_stdio_output@@AAEXI_N@Z 10026e0d f i libucrt:output.obj
 0001:00025e8a       ??$type_case_integer_parse_into_buffer@I$0BA@@?$output_processor@DV?$string_output_adapter@D@__crt_stdio_output@@V?$positional_parameter_base@DV?$string_output_adapter@D@__crt_stdio_output@@@2@@__crt_stdio_output@@AAEXI_N@Z 10026e8a f i libucrt:output.obj
 0001:00025f07       ??$type_case_integer_parse_into_buffer@I$0BA@@?$output_processor@DV?$string_output_adapter@D@__crt_stdio_output@@V?$standard_base@DV?$string_output_adapter@D@__crt_stdio_output@@@2@@__crt_stdio_output@@AAEXI_N@Z 10026f07 f i libucrt:output.obj
 0001:00025f84       ??$type_case_integer_parse_into_buffer@I$0BA@@?$output_processor@_WV?$stream_output_adapter@_W@__crt_stdio_output@@V?$format_validation_base@_WV?$stream_output_adapter@_W@__crt_stdio_output@@@2@@__crt_stdio_output@@AAEXI_N@Z 10026f84 f i libucrt:output.obj
 0001:0002600e       ??$type_case_integer_parse_into_buffer@I$0BA@@?$output_processor@_WV?$stream_output_adapter@_W@__crt_stdio_output@@V?$positional_parameter_base@_WV?$stream_output_adapter@_W@__crt_stdio_output@@@2@@__crt_stdio_output@@AAEXI_N@Z 1002700e f i libucrt:output.obj
 0001:00026098       ??$type_case_integer_parse_into_buffer@I$0BA@@?$output_processor@_WV?$stream_output_adapter@_W@__crt_stdio_output@@V?$standard_base@_WV?$stream_output_adapter@_W@__crt_stdio_output@@@2@@__crt_stdio_output@@AAEXI_N@Z 10027098 f i libucrt:output.obj
 0001:00026122       ??$type_case_integer_parse_into_buffer@I$0BA@@?$output_processor@_WV?$string_output_adapter@_W@__crt_stdio_output@@V?$format_validation_base@_WV?$string_output_adapter@_W@__crt_stdio_output@@@2@@__crt_stdio_output@@AAEXI_N@Z 10027122 f i libucrt:output.obj
 0001:000261ac       ??$type_case_integer_parse_into_buffer@I$0BA@@?$output_processor@_WV?$string_output_adapter@_W@__crt_stdio_output@@V?$positional_parameter_base@_WV?$string_output_adapter@_W@__crt_stdio_output@@@2@@__crt_stdio_output@@AAEXI_N@Z 100271ac f i libucrt:output.obj
 0001:00026236       ??$type_case_integer_parse_into_buffer@I$0BA@@?$output_processor@_WV?$string_output_adapter@_W@__crt_stdio_output@@V?$standard_base@_WV?$string_output_adapter@_W@__crt_stdio_output@@@2@@__crt_stdio_output@@AAEXI_N@Z 10027236 f i libucrt:output.obj
 0001:000262c0       ??$type_case_integer_parse_into_buffer@_K$07@?$output_processor@DV?$stream_output_adapter@D@__crt_stdio_output@@V?$format_validation_base@DV?$stream_output_adapter@D@__crt_stdio_output@@@2@@__crt_stdio_output@@AAEX_K_N@Z 100272c0 f i libucrt:output.obj
 0001:00026338       ??$type_case_integer_parse_into_buffer@_K$07@?$output_processor@DV?$stream_output_adapter@D@__crt_stdio_output@@V?$positional_parameter_base@DV?$stream_output_adapter@D@__crt_stdio_output@@@2@@__crt_stdio_output@@AAEX_K_N@Z 10027338 f i libucrt:output.obj
 0001:000263b0       ??$type_case_integer_parse_into_buffer@_K$07@?$output_processor@DV?$stream_output_adapter@D@__crt_stdio_output@@V?$standard_base@DV?$stream_output_adapter@D@__crt_stdio_output@@@2@@__crt_stdio_output@@AAEX_K_N@Z 100273b0 f i libucrt:output.obj
 0001:00026428       ??$type_case_integer_parse_into_buffer@_K$07@?$output_processor@DV?$string_output_adapter@D@__crt_stdio_output@@V?$format_validation_base@DV?$string_output_adapter@D@__crt_stdio_output@@@2@@__crt_stdio_output@@AAEX_K_N@Z 10027428 f i libucrt:output.obj
 0001:000264a0       ??$type_case_integer_parse_into_buffer@_K$07@?$output_processor@DV?$string_output_adapter@D@__crt_stdio_output@@V?$positional_parameter_base@DV?$string_output_adapter@D@__crt_stdio_output@@@2@@__crt_stdio_output@@AAEX_K_N@Z 100274a0 f i libucrt:output.obj
 0001:00026518       ??$type_case_integer_parse_into_buffer@_K$07@?$output_processor@DV?$string_output_adapter@D@__crt_stdio_output@@V?$standard_base@DV?$string_output_adapter@D@__crt_stdio_output@@@2@@__crt_stdio_output@@AAEX_K_N@Z 10027518 f i libucrt:output.obj
 0001:00026590       ??$type_case_integer_parse_into_buffer@_K$07@?$output_processor@_WV?$stream_output_adapter@_W@__crt_stdio_output@@V?$format_validation_base@_WV?$stream_output_adapter@_W@__crt_stdio_output@@@2@@__crt_stdio_output@@AAEX_K_N@Z 10027590 f i libucrt:output.obj
 0001:00026617       ??$type_case_integer_parse_into_buffer@_K$07@?$output_processor@_WV?$stream_output_adapter@_W@__crt_stdio_output@@V?$positional_parameter_base@_WV?$stream_output_adapter@_W@__crt_stdio_output@@@2@@__crt_stdio_output@@AAEX_K_N@Z 10027617 f i libucrt:output.obj
 0001:0002669e       ??$type_case_integer_parse_into_buffer@_K$07@?$output_processor@_WV?$stream_output_adapter@_W@__crt_stdio_output@@V?$standard_base@_WV?$stream_output_adapter@_W@__crt_stdio_output@@@2@@__crt_stdio_output@@AAEX_K_N@Z 1002769e f i libucrt:output.obj
 0001:00026725       ??$type_case_integer_parse_into_buffer@_K$07@?$output_processor@_WV?$string_output_adapter@_W@__crt_stdio_output@@V?$format_validation_base@_WV?$string_output_adapter@_W@__crt_stdio_output@@@2@@__crt_stdio_output@@AAEX_K_N@Z 10027725 f i libucrt:output.obj
 0001:000267ac       ??$type_case_integer_parse_into_buffer@_K$07@?$output_processor@_WV?$string_output_adapter@_W@__crt_stdio_output@@V?$positional_parameter_base@_WV?$string_output_adapter@_W@__crt_stdio_output@@@2@@__crt_stdio_output@@AAEX_K_N@Z 100277ac f i libucrt:output.obj
 0001:00026833       ??$type_case_integer_parse_into_buffer@_K$07@?$output_processor@_WV?$string_output_adapter@_W@__crt_stdio_output@@V?$standard_base@_WV?$string_output_adapter@_W@__crt_stdio_output@@@2@@__crt_stdio_output@@AAEX_K_N@Z 10027833 f i libucrt:output.obj
 0001:000268ba       ??$type_case_integer_parse_into_buffer@_K$09@?$output_processor@DV?$stream_output_adapter@D@__crt_stdio_output@@V?$format_validation_base@DV?$stream_output_adapter@D@__crt_stdio_output@@@2@@__crt_stdio_output@@AAEX_K_N@Z 100278ba f i libucrt:output.obj
 0001:00026961       ??$type_case_integer_parse_into_buffer@_K$09@?$output_processor@DV?$stream_output_adapter@D@__crt_stdio_output@@V?$positional_parameter_base@DV?$stream_output_adapter@D@__crt_stdio_output@@@2@@__crt_stdio_output@@AAEX_K_N@Z 10027961 f i libucrt:output.obj
 0001:00026a08       ??$type_case_integer_parse_into_buffer@_K$09@?$output_processor@DV?$stream_output_adapter@D@__crt_stdio_output@@V?$standard_base@DV?$stream_output_adapter@D@__crt_stdio_output@@@2@@__crt_stdio_output@@AAEX_K_N@Z 10027a08 f i libucrt:output.obj
 0001:00026aaf       ??$type_case_integer_parse_into_buffer@_K$09@?$output_processor@DV?$string_output_adapter@D@__crt_stdio_output@@V?$format_validation_base@DV?$string_output_adapter@D@__crt_stdio_output@@@2@@__crt_stdio_output@@AAEX_K_N@Z 10027aaf f i libucrt:output.obj
 0001:00026b56       ??$type_case_integer_parse_into_buffer@_K$09@?$output_processor@DV?$string_output_adapter@D@__crt_stdio_output@@V?$positional_parameter_base@DV?$string_output_adapter@D@__crt_stdio_output@@@2@@__crt_stdio_output@@AAEX_K_N@Z 10027b56 f i libucrt:output.obj
 0001:00026bfd       ??$type_case_integer_parse_into_buffer@_K$09@?$output_processor@DV?$string_output_adapter@D@__crt_stdio_output@@V?$standard_base@DV?$string_output_adapter@D@__crt_stdio_output@@@2@@__crt_stdio_output@@AAEX_K_N@Z 10027bfd f i libucrt:output.obj
 0001:00026ca4       ??$type_case_integer_parse_into_buffer@_K$09@?$output_processor@_WV?$stream_output_adapter@_W@__crt_stdio_output@@V?$format_validation_base@_WV?$stream_output_adapter@_W@__crt_stdio_output@@@2@@__crt_stdio_output@@AAEX_K_N@Z 10027ca4 f i libucrt:output.obj
 0001:00026d61       ??$type_case_integer_parse_into_buffer@_K$09@?$output_processor@_WV?$stream_output_adapter@_W@__crt_stdio_output@@V?$positional_parameter_base@_WV?$stream_output_adapter@_W@__crt_stdio_output@@@2@@__crt_stdio_output@@AAEX_K_N@Z 10027d61 f i libucrt:output.obj
 0001:00026e1e       ??$type_case_integer_parse_into_buffer@_K$09@?$output_processor@_WV?$stream_output_adapter@_W@__crt_stdio_output@@V?$standard_base@_WV?$stream_output_adapter@_W@__crt_stdio_output@@@2@@__crt_stdio_output@@AAEX_K_N@Z 10027e1e f i libucrt:output.obj
 0001:00026edb       ??$type_case_integer_parse_into_buffer@_K$09@?$output_processor@_WV?$string_output_adapter@_W@__crt_stdio_output@@V?$format_validation_base@_WV?$string_output_adapter@_W@__crt_stdio_output@@@2@@__crt_stdio_output@@AAEX_K_N@Z 10027edb f i libucrt:output.obj
 0001:00026f98       ??$type_case_integer_parse_into_buffer@_K$09@?$output_processor@_WV?$string_output_adapter@_W@__crt_stdio_output@@V?$positional_parameter_base@_WV?$string_output_adapter@_W@__crt_stdio_output@@@2@@__crt_stdio_output@@AAEX_K_N@Z 10027f98 f i libucrt:output.obj
 0001:00027055       ??$type_case_integer_parse_into_buffer@_K$09@?$output_processor@_WV?$string_output_adapter@_W@__crt_stdio_output@@V?$standard_base@_WV?$string_output_adapter@_W@__crt_stdio_output@@@2@@__crt_stdio_output@@AAEX_K_N@Z 10028055 f i libucrt:output.obj
 0001:00027112       ??$type_case_integer_parse_into_buffer@_K$0BA@@?$output_processor@DV?$stream_output_adapter@D@__crt_stdio_output@@V?$format_validation_base@DV?$stream_output_adapter@D@__crt_stdio_output@@@2@@__crt_stdio_output@@AAEX_K_N@Z 10028112 f i libucrt:output.obj
 0001:0002719c       ??$type_case_integer_parse_into_buffer@_K$0BA@@?$output_processor@DV?$stream_output_adapter@D@__crt_stdio_output@@V?$positional_parameter_base@DV?$stream_output_adapter@D@__crt_stdio_output@@@2@@__crt_stdio_output@@AAEX_K_N@Z 1002819c f i libucrt:output.obj
 0001:00027226       ??$type_case_integer_parse_into_buffer@_K$0BA@@?$output_processor@DV?$stream_output_adapter@D@__crt_stdio_output@@V?$standard_base@DV?$stream_output_adapter@D@__crt_stdio_output@@@2@@__crt_stdio_output@@AAEX_K_N@Z 10028226 f i libucrt:output.obj
 0001:000272b0       ??$type_case_integer_parse_into_buffer@_K$0BA@@?$output_processor@DV?$string_output_adapter@D@__crt_stdio_output@@V?$format_validation_base@DV?$string_output_adapter@D@__crt_stdio_output@@@2@@__crt_stdio_output@@AAEX_K_N@Z 100282b0 f i libucrt:output.obj
 0001:0002733a       ??$type_case_integer_parse_into_buffer@_K$0BA@@?$output_processor@DV?$string_output_adapter@D@__crt_stdio_output@@V?$positional_parameter_base@DV?$string_output_adapter@D@__crt_stdio_output@@@2@@__crt_stdio_output@@AAEX_K_N@Z 1002833a f i libucrt:output.obj
 0001:000273c4       ??$type_case_integer_parse_into_buffer@_K$0BA@@?$output_processor@DV?$string_output_adapter@D@__crt_stdio_output@@V?$standard_base@DV?$string_output_adapter@D@__crt_stdio_output@@@2@@__crt_stdio_output@@AAEX_K_N@Z 100283c4 f i libucrt:output.obj
 0001:0002744e       ??$type_case_integer_parse_into_buffer@_K$0BA@@?$output_processor@_WV?$stream_output_adapter@_W@__crt_stdio_output@@V?$format_validation_base@_WV?$stream_output_adapter@_W@__crt_stdio_output@@@2@@__crt_stdio_output@@AAEX_K_N@Z 1002844e f i libucrt:output.obj
 0001:000274e4       ??$type_case_integer_parse_into_buffer@_K$0BA@@?$output_processor@_WV?$stream_output_adapter@_W@__crt_stdio_output@@V?$positional_parameter_base@_WV?$stream_output_adapter@_W@__crt_stdio_output@@@2@@__crt_stdio_output@@AAEX_K_N@Z 100284e4 f i libucrt:output.obj
 0001:0002757a       ??$type_case_integer_parse_into_buffer@_K$0BA@@?$output_processor@_WV?$stream_output_adapter@_W@__crt_stdio_output@@V?$standard_base@_WV?$stream_output_adapter@_W@__crt_stdio_output@@@2@@__crt_stdio_output@@AAEX_K_N@Z 1002857a f i libucrt:output.obj
 0001:00027610       ??$type_case_integer_parse_into_buffer@_K$0BA@@?$output_processor@_WV?$string_output_adapter@_W@__crt_stdio_output@@V?$format_validation_base@_WV?$string_output_adapter@_W@__crt_stdio_output@@@2@@__crt_stdio_output@@AAEX_K_N@Z 10028610 f i libucrt:output.obj
 0001:000276a6       ??$type_case_integer_parse_into_buffer@_K$0BA@@?$output_processor@_WV?$string_output_adapter@_W@__crt_stdio_output@@V?$positional_parameter_base@_WV?$string_output_adapter@_W@__crt_stdio_output@@@2@@__crt_stdio_output@@AAEX_K_N@Z 100286a6 f i libucrt:output.obj
 0001:0002773c       ??$type_case_integer_parse_into_buffer@_K$0BA@@?$output_processor@_WV?$string_output_adapter@_W@__crt_stdio_output@@V?$standard_base@_WV?$string_output_adapter@_W@__crt_stdio_output@@@2@@__crt_stdio_output@@AAEX_K_N@Z 1002873c f i libucrt:output.obj
 0001:000277d2       ??$write_multiple_characters@V?$stream_output_adapter@D@__crt_stdio_output@@D@__crt_stdio_output@@YAXABV?$stream_output_adapter@D@0@DHQAHAAV__crt_cached_ptd_host@@@Z 100287d2 f i libucrt:output.obj
 0001:00027801       ??$write_multiple_characters@V?$stream_output_adapter@_W@__crt_stdio_output@@D@__crt_stdio_output@@YAXABV?$stream_output_adapter@_W@0@DHQAHAAV__crt_cached_ptd_host@@@Z 10028801 f i libucrt:output.obj
 0001:00027835       ??$write_multiple_characters@V?$string_output_adapter@D@__crt_stdio_output@@D@__crt_stdio_output@@YAXABV?$string_output_adapter@D@0@DHQAHAAV__crt_cached_ptd_host@@@Z 10028835 f i libucrt:output.obj
 0001:00027898       ??$write_multiple_characters@V?$string_output_adapter@_W@__crt_stdio_output@@D@__crt_stdio_output@@YAXABV?$string_output_adapter@_W@0@DHQAHAAV__crt_cached_ptd_host@@@Z 10028898 f i libucrt:output.obj
 0001:00027ac7       ??0?$c_string_character_source@D@__crt_strtox@@QAE@QBDQAPBD@Z 10028ac7 f i libucrt:output.obj
 0001:00027ae3       ??0?$c_string_character_source@_W@__crt_strtox@@QAE@QB_WQAPB_W@Z 10028ae3 f i libucrt:output.obj
 0001:00027aff       ??0?$common_data@D@__crt_stdio_output@@IAE@AAV__crt_cached_ptd_host@@@Z 10028aff f i libucrt:output.obj
 0001:00027b46       ??0?$common_data@_W@__crt_stdio_output@@IAE@AAV__crt_cached_ptd_host@@@Z 10028b46 f i libucrt:output.obj
 0001:00027b92       ??0?$output_adapter_data@DV?$stream_output_adapter@D@__crt_stdio_output@@@__crt_stdio_output@@IAE@ABV?$stream_output_adapter@D@1@_KQBDAAV__crt_cached_ptd_host@@QAD@Z 10028b92 f i libucrt:output.obj
 0001:00027bf9       ??0?$output_adapter_data@DV?$string_output_adapter@D@__crt_stdio_output@@@__crt_stdio_output@@IAE@ABV?$string_output_adapter@D@1@_KQBDAAV__crt_cached_ptd_host@@QAD@Z 10028bf9 f i libucrt:output.obj
 0001:00027c60       ??0?$output_adapter_data@_WV?$stream_output_adapter@_W@__crt_stdio_output@@@__crt_stdio_output@@IAE@ABV?$stream_output_adapter@_W@1@_KQB_WAAV__crt_cached_ptd_host@@QAD@Z 10028c60 f i libucrt:output.obj
 0001:00027ccc       ??0?$output_adapter_data@_WV?$string_output_adapter@_W@__crt_stdio_output@@@__crt_stdio_output@@IAE@ABV?$string_output_adapter@_W@1@_KQB_WAAV__crt_cached_ptd_host@@QAD@Z 10028ccc f i libucrt:output.obj
 0001:00027d38       ??0?$output_processor@DV?$stream_output_adapter@D@__crt_stdio_output@@V?$format_validation_base@DV?$stream_output_adapter@D@__crt_stdio_output@@@2@@__crt_stdio_output@@QAE@ABV?$stream_output_adapter@D@1@_KQBDAAV__crt_cached_ptd_host@@QAD@Z 10028d38 f i libucrt:output.obj
 0001:00027d65       ??0?$output_processor@DV?$stream_output_adapter@D@__crt_stdio_output@@V?$positional_parameter_base@DV?$stream_output_adapter@D@__crt_stdio_output@@@2@@__crt_stdio_output@@QAE@ABV?$stream_output_adapter@D@1@_KQBDAAV__crt_cached_ptd_host@@QAD@Z 10028d65 f i libucrt:output.obj
 0001:00027d8b       ??0?$output_processor@DV?$stream_output_adapter@D@__crt_stdio_output@@V?$standard_base@DV?$stream_output_adapter@D@__crt_stdio_output@@@2@@__crt_stdio_output@@QAE@ABV?$stream_output_adapter@D@1@_KQBDAAV__crt_cached_ptd_host@@QAD@Z 10028d8b f i libucrt:output.obj
 0001:00027db8       ??0?$output_processor@DV?$string_output_adapter@D@__crt_stdio_output@@V?$format_validation_base@DV?$string_output_adapter@D@__crt_stdio_output@@@2@@__crt_stdio_output@@QAE@ABV?$string_output_adapter@D@1@_KQBDAAV__crt_cached_ptd_host@@QAD@Z 10028db8 f i libucrt:output.obj
 0001:00027de5       ??0?$output_processor@DV?$string_output_adapter@D@__crt_stdio_output@@V?$positional_parameter_base@DV?$string_output_adapter@D@__crt_stdio_output@@@2@@__crt_stdio_output@@QAE@ABV?$string_output_adapter@D@1@_KQBDAAV__crt_cached_ptd_host@@QAD@Z 10028de5 f i libucrt:output.obj
 0001:00027e0b       ??0?$output_processor@DV?$string_output_adapter@D@__crt_stdio_output@@V?$standard_base@DV?$string_output_adapter@D@__crt_stdio_output@@@2@@__crt_stdio_output@@QAE@ABV?$string_output_adapter@D@1@_KQBDAAV__crt_cached_ptd_host@@QAD@Z 10028e0b f i libucrt:output.obj
 0001:00027e38       ??0?$output_processor@_WV?$stream_output_adapter@_W@__crt_stdio_output@@V?$format_validation_base@_WV?$stream_output_adapter@_W@__crt_stdio_output@@@2@@__crt_stdio_output@@QAE@ABV?$stream_output_adapter@_W@1@_KQB_WAAV__crt_cached_ptd_host@@QAD@Z 10028e38 f i libucrt:output.obj
 0001:00027e65       ??0?$output_processor@_WV?$stream_output_adapter@_W@__crt_stdio_output@@V?$positional_parameter_base@_WV?$stream_output_adapter@_W@__crt_stdio_output@@@2@@__crt_stdio_output@@QAE@ABV?$stream_output_adapter@_W@1@_KQB_WAAV__crt_cached_ptd_host@@QAD@Z 10028e65 f i libucrt:output.obj
 0001:00027e8b       ??0?$output_processor@_WV?$stream_output_adapter@_W@__crt_stdio_output@@V?$standard_base@_WV?$stream_output_adapter@_W@__crt_stdio_output@@@2@@__crt_stdio_output@@QAE@ABV?$stream_output_adapter@_W@1@_KQB_WAAV__crt_cached_ptd_host@@QAD@Z 10028e8b f i libucrt:output.obj
 0001:00027eb8       ??0?$output_processor@_WV?$string_output_adapter@_W@__crt_stdio_output@@V?$format_validation_base@_WV?$string_output_adapter@_W@__crt_stdio_output@@@2@@__crt_stdio_output@@QAE@ABV?$string_output_adapter@_W@1@_KQB_WAAV__crt_cached_ptd_host@@QAD@Z 10028eb8 f i libucrt:output.obj
 0001:00027ee5       ??0?$output_processor@_WV?$string_output_adapter@_W@__crt_stdio_output@@V?$positional_parameter_base@_WV?$string_output_adapter@_W@__crt_stdio_output@@@2@@__crt_stdio_output@@QAE@ABV?$string_output_adapter@_W@1@_KQB_WAAV__crt_cached_ptd_host@@QAD@Z 10028ee5 f i libucrt:output.obj
 0001:00027f0b       ??0?$output_processor@_WV?$string_output_adapter@_W@__crt_stdio_output@@V?$standard_base@_WV?$string_output_adapter@_W@__crt_stdio_output@@@2@@__crt_stdio_output@@QAE@ABV?$string_output_adapter@_W@1@_KQB_WAAV__crt_cached_ptd_host@@QAD@Z 10028f0b f i libucrt:output.obj
 0001:00027f38       ??0?$stream_output_adapter@D@__crt_stdio_output@@QAE@QAU_iobuf@@@Z 10028f38 f i libucrt:output.obj
 0001:00027f48       ??0?$stream_output_adapter@_W@__crt_stdio_output@@QAE@QAU_iobuf@@@Z 10028f48 f i libucrt:output.obj
 0001:00027f58       ??0?$string_output_adapter@D@__crt_stdio_output@@QAE@QAU?$string_output_adapter_context@D@1@@Z 10028f58 f i libucrt:output.obj
 0001:00027f68       ??0?$string_output_adapter@_W@__crt_stdio_output@@QAE@QAU?$string_output_adapter_context@_W@1@@Z 10028f68 f i libucrt:output.obj
 0001:00027f78       ??0__acrt_stdio_temporary_buffering_guard@@QAE@QAU_iobuf@@AAV__crt_cached_ptd_host@@@Z 10028f78 f i libucrt:output.obj
 0001:00027f9c       ??0__crt_stdio_stream@@QAE@QAU_iobuf@@@Z 10028f9c f i libucrt:output.obj
 0001:00027fac       ??0formatting_buffer@__crt_stdio_output@@QAE@XZ 10028fac f i libucrt:output.obj
 0001:00027fbd       ??0guard@?$cached@H@__crt_cached_ptd_host@@QAE@AAU12@@Z 10028fbd f i libucrt:output.obj
 0001:00027fdc       ??1?$c_string_character_source@D@__crt_strtox@@QAE@XZ 10028fdc f i libucrt:output.obj
 0001:00027fe8       ??1?$c_string_character_source@_W@__crt_strtox@@QAE@XZ 10028fe8 f i libucrt:output.obj
 0001:00027ff4       ??1?$common_data@D@__crt_stdio_output@@QAE@XZ 10028ff4 f i libucrt:output.obj
 0001:00027ffc       ??1?$common_data@_W@__crt_stdio_output@@QAE@XZ 10028ffc f i libucrt:output.obj
 0001:00028004       ??1?$format_validation_base@DV?$stream_output_adapter@D@__crt_stdio_output@@@__crt_stdio_output@@QAE@XZ 10029004 f i libucrt:output.obj
 0001:0002800c       ??1?$format_validation_base@DV?$string_output_adapter@D@__crt_stdio_output@@@__crt_stdio_output@@QAE@XZ 1002900c f i libucrt:output.obj
 0001:00028014       ??1?$format_validation_base@_WV?$stream_output_adapter@_W@__crt_stdio_output@@@__crt_stdio_output@@QAE@XZ 10029014 f i libucrt:output.obj
 0001:0002801c       ??1?$format_validation_base@_WV?$string_output_adapter@_W@__crt_stdio_output@@@__crt_stdio_output@@QAE@XZ 1002901c f i libucrt:output.obj
 0001:00028024       ??1?$output_adapter_data@DV?$stream_output_adapter@D@__crt_stdio_output@@@__crt_stdio_output@@QAE@XZ 10029024 f i libucrt:output.obj
 0001:0002802c       ??1?$output_adapter_data@DV?$string_output_adapter@D@__crt_stdio_output@@@__crt_stdio_output@@QAE@XZ 1002902c f i libucrt:output.obj
 0001:00028034       ??1?$output_adapter_data@_WV?$stream_output_adapter@_W@__crt_stdio_output@@@__crt_stdio_output@@QAE@XZ 10029034 f i libucrt:output.obj
 0001:0002803c       ??1?$output_adapter_data@_WV?$string_output_adapter@_W@__crt_stdio_output@@@__crt_stdio_output@@QAE@XZ 1002903c f i libucrt:output.obj
 0001:00028044       ??1?$output_processor@DV?$stream_output_adapter@D@__crt_stdio_output@@V?$format_validation_base@DV?$stream_output_adapter@D@__crt_stdio_output@@@2@@__crt_stdio_output@@QAE@XZ 10029044 f i libucrt:output.obj
 0001:0002804c       ??1?$output_processor@DV?$stream_output_adapter@D@__crt_stdio_output@@V?$positional_parameter_base@DV?$stream_output_adapter@D@__crt_stdio_output@@@2@@__crt_stdio_output@@QAE@XZ 1002904c f i libucrt:output.obj
 0001:00028054       ??1?$output_processor@DV?$stream_output_adapter@D@__crt_stdio_output@@V?$standard_base@DV?$stream_output_adapter@D@__crt_stdio_output@@@2@@__crt_stdio_output@@QAE@XZ 10029054 f i libucrt:output.obj
 0001:0002805c       ??1?$output_processor@DV?$string_output_adapter@D@__crt_stdio_output@@V?$format_validation_base@DV?$string_output_adapter@D@__crt_stdio_output@@@2@@__crt_stdio_output@@QAE@XZ 1002905c f i libucrt:output.obj
 0001:00028064       ??1?$output_processor@DV?$string_output_adapter@D@__crt_stdio_output@@V?$positional_parameter_base@DV?$string_output_adapter@D@__crt_stdio_output@@@2@@__crt_stdio_output@@QAE@XZ 10029064 f i libucrt:output.obj
 0001:0002806c       ??1?$output_processor@DV?$string_output_adapter@D@__crt_stdio_output@@V?$standard_base@DV?$string_output_adapter@D@__crt_stdio_output@@@2@@__crt_stdio_output@@QAE@XZ 1002906c f i libucrt:output.obj
 0001:00028074       ??1?$output_processor@_WV?$stream_output_adapter@_W@__crt_stdio_output@@V?$format_validation_base@_WV?$stream_output_adapter@_W@__crt_stdio_output@@@2@@__crt_stdio_output@@QAE@XZ 10029074 f i libucrt:output.obj
 0001:0002807c       ??1?$output_processor@_WV?$stream_output_adapter@_W@__crt_stdio_output@@V?$positional_parameter_base@_WV?$stream_output_adapter@_W@__crt_stdio_output@@@2@@__crt_stdio_output@@QAE@XZ 1002907c f i libucrt:output.obj
 0001:00028084       ??1?$output_processor@_WV?$stream_output_adapter@_W@__crt_stdio_output@@V?$standard_base@_WV?$stream_output_adapter@_W@__crt_stdio_output@@@2@@__crt_stdio_output@@QAE@XZ 10029084 f i libucrt:output.obj
 0001:0002808c       ??1?$output_processor@_WV?$string_output_adapter@_W@__crt_stdio_output@@V?$format_validation_base@_WV?$string_output_adapter@_W@__crt_stdio_output@@@2@@__crt_stdio_output@@QAE@XZ 1002908c f i libucrt:output.obj
 0001:00028094       ??1?$output_processor@_WV?$string_output_adapter@_W@__crt_stdio_output@@V?$positional_parameter_base@_WV?$string_output_adapter@_W@__crt_stdio_output@@@2@@__crt_stdio_output@@QAE@XZ 10029094 f i libucrt:output.obj
 0001:0002809c       ??1?$output_processor@_WV?$string_output_adapter@_W@__crt_stdio_output@@V?$standard_base@_WV?$string_output_adapter@_W@__crt_stdio_output@@@2@@__crt_stdio_output@@QAE@XZ 1002909c f i libucrt:output.obj
 0001:000280a4       ??1?$positional_parameter_base@DV?$stream_output_adapter@D@__crt_stdio_output@@@__crt_stdio_output@@QAE@XZ 100290a4 f i libucrt:output.obj
 0001:000280ac       ??1?$positional_parameter_base@DV?$string_output_adapter@D@__crt_stdio_output@@@__crt_stdio_output@@QAE@XZ 100290ac f i libucrt:output.obj
 0001:000280b4       ??1?$positional_parameter_base@_WV?$stream_output_adapter@_W@__crt_stdio_output@@@__crt_stdio_output@@QAE@XZ 100290b4 f i libucrt:output.obj
 0001:000280bc       ??1?$positional_parameter_base@_WV?$string_output_adapter@_W@__crt_stdio_output@@@__crt_stdio_output@@QAE@XZ 100290bc f i libucrt:output.obj
 0001:000280c4       ??1?$standard_base@DV?$stream_output_adapter@D@__crt_stdio_output@@@__crt_stdio_output@@QAE@XZ 100290c4 f i libucrt:output.obj
 0001:000280cc       ??1?$standard_base@DV?$string_output_adapter@D@__crt_stdio_output@@@__crt_stdio_output@@QAE@XZ 100290cc f i libucrt:output.obj
 0001:000280d4       ??1?$standard_base@_WV?$stream_output_adapter@_W@__crt_stdio_output@@@__crt_stdio_output@@QAE@XZ 100290d4 f i libucrt:output.obj
 0001:000280dc       ??1?$standard_base@_WV?$string_output_adapter@_W@__crt_stdio_output@@@__crt_stdio_output@@QAE@XZ 100290dc f i libucrt:output.obj
 0001:000280e4       ??1__acrt_stdio_temporary_buffering_guard@@QAE@XZ 100290e4 f i libucrt:output.obj
 0001:000280f7       ??1formatting_buffer@__crt_stdio_output@@QAE@XZ 100290f7 f i libucrt:output.obj
 0001:00028111       ??1guard@?$cached@H@__crt_cached_ptd_host@@QAE@XZ 10029111 f i libucrt:output.obj
 0001:00028127       ??4?$__crt_unique_heap_ptr@DU__crt_internal_free_policy@@@@QAEAAV0@$$QAV0@@Z 10029127 f i libucrt:output.obj
 0001:0002814b       ??A?$spectre_mitigated_lookup_table@Ustate_transition_pair@__crt_stdio_output@@$0IA@@__crt_stdio_output@@QBEABUstate_transition_pair@1@I@Z 1002914b f i libucrt:output.obj
 0001:0002815d       ??C__crt_stdio_stream@@QBEPAU__crt_stdio_stream_data@@XZ 1002915d f i libucrt:output.obj
 0001:000285c6       ?adjust_hexit@?$output_processor@DV?$stream_output_adapter@D@__crt_stdio_output@@V?$format_validation_base@DV?$stream_output_adapter@D@__crt_stdio_output@@@2@@__crt_stdio_output@@CADH_N@Z 100295c6 f i libucrt:output.obj
 0001:000285da       ?adjust_hexit@?$output_processor@DV?$stream_output_adapter@D@__crt_stdio_output@@V?$positional_parameter_base@DV?$stream_output_adapter@D@__crt_stdio_output@@@2@@__crt_stdio_output@@CADH_N@Z 100295da f i libucrt:output.obj
 0001:000285ee       ?adjust_hexit@?$output_processor@DV?$stream_output_adapter@D@__crt_stdio_output@@V?$standard_base@DV?$stream_output_adapter@D@__crt_stdio_output@@@2@@__crt_stdio_output@@CADH_N@Z 100295ee f i libucrt:output.obj
 0001:00028602       ?adjust_hexit@?$output_processor@DV?$string_output_adapter@D@__crt_stdio_output@@V?$format_validation_base@DV?$string_output_adapter@D@__crt_stdio_output@@@2@@__crt_stdio_output@@CADH_N@Z 10029602 f i libucrt:output.obj
 0001:00028616       ?adjust_hexit@?$output_processor@DV?$string_output_adapter@D@__crt_stdio_output@@V?$positional_parameter_base@DV?$string_output_adapter@D@__crt_stdio_output@@@2@@__crt_stdio_output@@CADH_N@Z 10029616 f i libucrt:output.obj
 0001:0002862a       ?adjust_hexit@?$output_processor@DV?$string_output_adapter@D@__crt_stdio_output@@V?$standard_base@DV?$string_output_adapter@D@__crt_stdio_output@@@2@@__crt_stdio_output@@CADH_N@Z 1002962a f i libucrt:output.obj
 0001:0002863e       ?adjust_hexit@?$output_processor@_WV?$stream_output_adapter@_W@__crt_stdio_output@@V?$format_validation_base@_WV?$stream_output_adapter@_W@__crt_stdio_output@@@2@@__crt_stdio_output@@CADH_N@Z 1002963e f i libucrt:output.obj
 0001:00028652       ?adjust_hexit@?$output_processor@_WV?$stream_output_adapter@_W@__crt_stdio_output@@V?$positional_parameter_base@_WV?$stream_output_adapter@_W@__crt_stdio_output@@@2@@__crt_stdio_output@@CADH_N@Z 10029652 f i libucrt:output.obj
 0001:00028666       ?adjust_hexit@?$output_processor@_WV?$stream_output_adapter@_W@__crt_stdio_output@@V?$standard_base@_WV?$stream_output_adapter@_W@__crt_stdio_output@@@2@@__crt_stdio_output@@CADH_N@Z 10029666 f i libucrt:output.obj
 0001:0002867a       ?adjust_hexit@?$output_processor@_WV?$string_output_adapter@_W@__crt_stdio_output@@V?$format_validation_base@_WV?$string_output_adapter@_W@__crt_stdio_output@@@2@@__crt_stdio_output@@CADH_N@Z 1002967a f i libucrt:output.obj
 0001:0002868e       ?adjust_hexit@?$output_processor@_WV?$string_output_adapter@_W@__crt_stdio_output@@V?$positional_parameter_base@_WV?$string_output_adapter@_W@__crt_stdio_output@@@2@@__crt_stdio_output@@CADH_N@Z 1002968e f i libucrt:output.obj
 0001:000286a2       ?adjust_hexit@?$output_processor@_WV?$string_output_adapter@_W@__crt_stdio_output@@V?$standard_base@_WV?$string_output_adapter@_W@__crt_stdio_output@@@2@@__crt_stdio_output@@CADH_N@Z 100296a2 f i libucrt:output.obj
 0001:000286b6       ?advance_to_next_pass@?$positional_parameter_base@DV?$stream_output_adapter@D@__crt_stdio_output@@@__crt_stdio_output@@IAE_NXZ 100296b6 f i libucrt:output.obj
 0001:00028704       ?advance_to_next_pass@?$positional_parameter_base@DV?$string_output_adapter@D@__crt_stdio_output@@@__crt_stdio_output@@IAE_NXZ 10029704 f i libucrt:output.obj
 0001:00028752       ?advance_to_next_pass@?$positional_parameter_base@_WV?$stream_output_adapter@_W@__crt_stdio_output@@@__crt_stdio_output@@IAE_NXZ 10029752 f i libucrt:output.obj
 0001:000287a0       ?advance_to_next_pass@?$positional_parameter_base@_WV?$string_output_adapter@_W@__crt_stdio_output@@@__crt_stdio_output@@IAE_NXZ 100297a0 f i libucrt:output.obj
 0001:000287ee       ?advance_to_next_pass@?$standard_base@DV?$stream_output_adapter@D@__crt_stdio_output@@@__crt_stdio_output@@IAE_NXZ 100297ee f i libucrt:output.obj
 0001:000287ff       ?advance_to_next_pass@?$standard_base@DV?$string_output_adapter@D@__crt_stdio_output@@@__crt_stdio_output@@IAE_NXZ 100297ff f i libucrt:output.obj
 0001:00028810       ?advance_to_next_pass@?$standard_base@_WV?$stream_output_adapter@_W@__crt_stdio_output@@@__crt_stdio_output@@IAE_NXZ 10029810 f i libucrt:output.obj
 0001:00028821       ?advance_to_next_pass@?$standard_base@_WV?$string_output_adapter@_W@__crt_stdio_output@@@__crt_stdio_output@@IAE_NXZ 10029821 f i libucrt:output.obj
 0001:00028832       ?check@?$cached@H@__crt_cached_ptd_host@@QBE_NH@Z 10029832 f i libucrt:output.obj
 0001:0002884e       ?create_guard@?$cached@H@__crt_cached_ptd_host@@QAE?AVguard@12@XZ 1002984e f i libucrt:output.obj
 0001:0002886b       ?crop_zeroes@__crt_stdio_output@@YAXPADQAU__crt_locale_pointers@@@Z 1002986b f i libucrt:output.obj
 0001:000288cb       ?disable@guard@?$cached@H@__crt_cached_ptd_host@@QAEXXZ 100298cb f i libucrt:output.obj
 0001:000288d0       ?enable@guard@?$cached@H@__crt_cached_ptd_host@@QAEXXZ 100298d0 f i libucrt:output.obj
 0001:000288d5       ?find_next_state@?$output_processor@DV?$stream_output_adapter@D@__crt_stdio_output@@V?$format_validation_base@DV?$stream_output_adapter@D@__crt_stdio_output@@@2@@__crt_stdio_output@@ABE?AW4state@2@DW432@@Z 100298d5 f i libucrt:output.obj
 0001:00028912       ?find_next_state@?$output_processor@DV?$stream_output_adapter@D@__crt_stdio_output@@V?$positional_parameter_base@DV?$stream_output_adapter@D@__crt_stdio_output@@@2@@__crt_stdio_output@@ABE?AW4state@2@DW432@@Z 10029912 f i libucrt:output.obj
 0001:0002894f       ?find_next_state@?$output_processor@DV?$stream_output_adapter@D@__crt_stdio_output@@V?$standard_base@DV?$stream_output_adapter@D@__crt_stdio_output@@@2@@__crt_stdio_output@@ABE?AW4state@2@DW432@@Z 1002994f f i libucrt:output.obj
 0001:0002898a       ?find_next_state@?$output_processor@DV?$string_output_adapter@D@__crt_stdio_output@@V?$format_validation_base@DV?$string_output_adapter@D@__crt_stdio_output@@@2@@__crt_stdio_output@@ABE?AW4state@2@DW432@@Z 1002998a f i libucrt:output.obj
 0001:000289c7       ?find_next_state@?$output_processor@DV?$string_output_adapter@D@__crt_stdio_output@@V?$positional_parameter_base@DV?$string_output_adapter@D@__crt_stdio_output@@@2@@__crt_stdio_output@@ABE?AW4state@2@DW432@@Z 100299c7 f i libucrt:output.obj
 0001:00028a04       ?find_next_state@?$output_processor@DV?$string_output_adapter@D@__crt_stdio_output@@V?$standard_base@DV?$string_output_adapter@D@__crt_stdio_output@@@2@@__crt_stdio_output@@ABE?AW4state@2@DW432@@Z 10029a04 f i libucrt:output.obj
 0001:00028a3f       ?find_next_state@?$output_processor@_WV?$stream_output_adapter@_W@__crt_stdio_output@@V?$format_validation_base@_WV?$stream_output_adapter@_W@__crt_stdio_output@@@2@@__crt_stdio_output@@ABE?AW4state@2@_WW432@@Z 10029a3f f i libucrt:output.obj
 0001:00028a7b       ?find_next_state@?$output_processor@_WV?$stream_output_adapter@_W@__crt_stdio_output@@V?$positional_parameter_base@_WV?$stream_output_adapter@_W@__crt_stdio_output@@@2@@__crt_stdio_output@@ABE?AW4state@2@_WW432@@Z 10029a7b f i libucrt:output.obj
 0001:00028ab7       ?find_next_state@?$output_processor@_WV?$stream_output_adapter@_W@__crt_stdio_output@@V?$standard_base@_WV?$stream_output_adapter@_W@__crt_stdio_output@@@2@@__crt_stdio_output@@ABE?AW4state@2@_WW432@@Z 10029ab7 f i libucrt:output.obj
 0001:00028af1       ?find_next_state@?$output_processor@_WV?$string_output_adapter@_W@__crt_stdio_output@@V?$format_validation_base@_WV?$string_output_adapter@_W@__crt_stdio_output@@@2@@__crt_stdio_output@@ABE?AW4state@2@_WW432@@Z 10029af1 f i libucrt:output.obj
 0001:00028b2d       ?find_next_state@?$output_processor@_WV?$string_output_adapter@_W@__crt_stdio_output@@V?$positional_parameter_base@_WV?$string_output_adapter@_W@__crt_stdio_output@@@2@@__crt_stdio_output@@ABE?AW4state@2@_WW432@@Z 10029b2d f i libucrt:output.obj
 0001:00028b69       ?find_next_state@?$output_processor@_WV?$string_output_adapter@_W@__crt_stdio_output@@V?$standard_base@_WV?$string_output_adapter@_W@__crt_stdio_output@@@2@@__crt_stdio_output@@ABE?AW4state@2@_WW432@@Z 10029b69 f i libucrt:output.obj
 0001:00028ba3       ?force_decimal_point@__crt_stdio_output@@YAXPADQAU__crt_locale_pointers@@@Z 10029ba3 f i libucrt:output.obj
 0001:00028bff       ?get@?$c_string_character_source@D@__crt_strtox@@QAEDXZ 10029bff f i libucrt:output.obj
 0001:00028c07       ?get@?$c_string_character_source@_W@__crt_strtox@@QAE_WXZ 10029c07 f i libucrt:output.obj
 0001:00028c12       ?get_flags@__crt_stdio_stream@@QBEJXZ 10029c12 f i libucrt:output.obj
 0001:00028c19       ?get_parameter_type@?$positional_parameter_base@DV?$stream_output_adapter@D@__crt_stdio_output@@@__crt_stdio_output@@CA?AW4parameter_type@12@F@Z 10029c19 f i libucrt:output.obj
 0001:00028c1d       ?get_parameter_type@?$positional_parameter_base@DV?$stream_output_adapter@D@__crt_stdio_output@@@__crt_stdio_output@@CA?AW4parameter_type@12@G@Z 10029c1d f i libucrt:output.obj
 0001:00028c21       ?get_parameter_type@?$positional_parameter_base@DV?$stream_output_adapter@D@__crt_stdio_output@@@__crt_stdio_output@@CA?AW4parameter_type@12@H@Z 10029c21 f i libucrt:output.obj
 0001:00028c25       ?get_parameter_type@?$positional_parameter_base@DV?$stream_output_adapter@D@__crt_stdio_output@@@__crt_stdio_output@@CA?AW4parameter_type@12@I@Z 10029c25 f i libucrt:output.obj
 0001:00028c29       ?get_parameter_type@?$positional_parameter_base@DV?$stream_output_adapter@D@__crt_stdio_output@@@__crt_stdio_output@@CA?AW4parameter_type@12@U_CRT_DOUBLE@@@Z 10029c29 f i libucrt:output.obj
 0001:00028c2d       ?get_parameter_type@?$positional_parameter_base@DV?$stream_output_adapter@D@__crt_stdio_output@@@__crt_stdio_output@@CA?AW4parameter_type@12@_J@Z 10029c2d f i libucrt:output.obj
 0001:00028c31       ?get_parameter_type@?$positional_parameter_base@DV?$stream_output_adapter@D@__crt_stdio_output@@@__crt_stdio_output@@CA?AW4parameter_type@12@_K@Z 10029c31 f i libucrt:output.obj
 0001:00028c35       ?get_parameter_type@?$positional_parameter_base@DV?$stream_output_adapter@D@__crt_stdio_output@@@__crt_stdio_output@@CA?AW4parameter_type@12@_W@Z 10029c35 f i libucrt:output.obj
 0001:00028c39       ?get_parameter_type@?$positional_parameter_base@DV?$string_output_adapter@D@__crt_stdio_output@@@__crt_stdio_output@@CA?AW4parameter_type@12@F@Z 10029c39 f i libucrt:output.obj
 0001:00028c3d       ?get_parameter_type@?$positional_parameter_base@DV?$string_output_adapter@D@__crt_stdio_output@@@__crt_stdio_output@@CA?AW4parameter_type@12@G@Z 10029c3d f i libucrt:output.obj
 0001:00028c41       ?get_parameter_type@?$positional_parameter_base@DV?$string_output_adapter@D@__crt_stdio_output@@@__crt_stdio_output@@CA?AW4parameter_type@12@H@Z 10029c41 f i libucrt:output.obj
 0001:00028c45       ?get_parameter_type@?$positional_parameter_base@DV?$string_output_adapter@D@__crt_stdio_output@@@__crt_stdio_output@@CA?AW4parameter_type@12@I@Z 10029c45 f i libucrt:output.obj
 0001:00028c49       ?get_parameter_type@?$positional_parameter_base@DV?$string_output_adapter@D@__crt_stdio_output@@@__crt_stdio_output@@CA?AW4parameter_type@12@U_CRT_DOUBLE@@@Z 10029c49 f i libucrt:output.obj
 0001:00028c4d       ?get_parameter_type@?$positional_parameter_base@DV?$string_output_adapter@D@__crt_stdio_output@@@__crt_stdio_output@@CA?AW4parameter_type@12@_J@Z 10029c4d f i libucrt:output.obj
 0001:00028c51       ?get_parameter_type@?$positional_parameter_base@DV?$string_output_adapter@D@__crt_stdio_output@@@__crt_stdio_output@@CA?AW4parameter_type@12@_K@Z 10029c51 f i libucrt:output.obj
 0001:00028c55       ?get_parameter_type@?$positional_parameter_base@DV?$string_output_adapter@D@__crt_stdio_output@@@__crt_stdio_output@@CA?AW4parameter_type@12@_W@Z 10029c55 f i libucrt:output.obj
 0001:00028c59       ?get_parameter_type@?$positional_parameter_base@_WV?$stream_output_adapter@_W@__crt_stdio_output@@@__crt_stdio_output@@CA?AW4parameter_type@12@F@Z 10029c59 f i libucrt:output.obj
 0001:00028c5d       ?get_parameter_type@?$positional_parameter_base@_WV?$stream_output_adapter@_W@__crt_stdio_output@@@__crt_stdio_output@@CA?AW4parameter_type@12@G@Z 10029c5d f i libucrt:output.obj
 0001:00028c61       ?get_parameter_type@?$positional_parameter_base@_WV?$stream_output_adapter@_W@__crt_stdio_output@@@__crt_stdio_output@@CA?AW4parameter_type@12@H@Z 10029c61 f i libucrt:output.obj
 0001:00028c65       ?get_parameter_type@?$positional_parameter_base@_WV?$stream_output_adapter@_W@__crt_stdio_output@@@__crt_stdio_output@@CA?AW4parameter_type@12@I@Z 10029c65 f i libucrt:output.obj
 0001:00028c69       ?get_parameter_type@?$positional_parameter_base@_WV?$stream_output_adapter@_W@__crt_stdio_output@@@__crt_stdio_output@@CA?AW4parameter_type@12@U_CRT_DOUBLE@@@Z 10029c69 f i libucrt:output.obj
 0001:00028c6d       ?get_parameter_type@?$positional_parameter_base@_WV?$stream_output_adapter@_W@__crt_stdio_output@@@__crt_stdio_output@@CA?AW4parameter_type@12@_J@Z 10029c6d f i libucrt:output.obj
 0001:00028c71       ?get_parameter_type@?$positional_parameter_base@_WV?$stream_output_adapter@_W@__crt_stdio_output@@@__crt_stdio_output@@CA?AW4parameter_type@12@_K@Z 10029c71 f i libucrt:output.obj
 0001:00028c75       ?get_parameter_type@?$positional_parameter_base@_WV?$stream_output_adapter@_W@__crt_stdio_output@@@__crt_stdio_output@@CA?AW4parameter_type@12@_W@Z 10029c75 f i libucrt:output.obj
 0001:00028c79       ?get_parameter_type@?$positional_parameter_base@_WV?$string_output_adapter@_W@__crt_stdio_output@@@__crt_stdio_output@@CA?AW4parameter_type@12@F@Z 10029c79 f i libucrt:output.obj
 0001:00028c7d       ?get_parameter_type@?$positional_parameter_base@_WV?$string_output_adapter@_W@__crt_stdio_output@@@__crt_stdio_output@@CA?AW4parameter_type@12@G@Z 10029c7d f i libucrt:output.obj
 0001:00028c81       ?get_parameter_type@?$positional_parameter_base@_WV?$string_output_adapter@_W@__crt_stdio_output@@@__crt_stdio_output@@CA?AW4parameter_type@12@H@Z 10029c81 f i libucrt:output.obj
 0001:00028c85       ?get_parameter_type@?$positional_parameter_base@_WV?$string_output_adapter@_W@__crt_stdio_output@@@__crt_stdio_output@@CA?AW4parameter_type@12@I@Z 10029c85 f i libucrt:output.obj
 0001:00028c89       ?get_parameter_type@?$positional_parameter_base@_WV?$string_output_adapter@_W@__crt_stdio_output@@@__crt_stdio_output@@CA?AW4parameter_type@12@U_CRT_DOUBLE@@@Z 10029c89 f i libucrt:output.obj
 0001:00028c8d       ?get_parameter_type@?$positional_parameter_base@_WV?$string_output_adapter@_W@__crt_stdio_output@@@__crt_stdio_output@@CA?AW4parameter_type@12@_J@Z 10029c8d f i libucrt:output.obj
 0001:00028c91       ?get_parameter_type@?$positional_parameter_base@_WV?$string_output_adapter@_W@__crt_stdio_output@@@__crt_stdio_output@@CA?AW4parameter_type@12@_K@Z 10029c91 f i libucrt:output.obj
 0001:00028c95       ?get_parameter_type@?$positional_parameter_base@_WV?$string_output_adapter@_W@__crt_stdio_output@@@__crt_stdio_output@@CA?AW4parameter_type@12@_W@Z 10029c95 f i libucrt:output.obj
 0001:00028c99       ?has_flag@?$output_processor@DV?$stream_output_adapter@D@__crt_stdio_output@@V?$format_validation_base@DV?$stream_output_adapter@D@__crt_stdio_output@@@2@@__crt_stdio_output@@ABE_NI@Z 10029c99 f i libucrt:output.obj
 0001:00028cab       ?has_flag@?$output_processor@DV?$stream_output_adapter@D@__crt_stdio_output@@V?$positional_parameter_base@DV?$stream_output_adapter@D@__crt_stdio_output@@@2@@__crt_stdio_output@@ABE_NI@Z 10029cab f i libucrt:output.obj
 0001:00028cbd       ?has_flag@?$output_processor@DV?$stream_output_adapter@D@__crt_stdio_output@@V?$standard_base@DV?$stream_output_adapter@D@__crt_stdio_output@@@2@@__crt_stdio_output@@ABE_NI@Z 10029cbd f i libucrt:output.obj
 0001:00028ccf       ?has_flag@?$output_processor@DV?$string_output_adapter@D@__crt_stdio_output@@V?$format_validation_base@DV?$string_output_adapter@D@__crt_stdio_output@@@2@@__crt_stdio_output@@ABE_NI@Z 10029ccf f i libucrt:output.obj
 0001:00028ce1       ?has_flag@?$output_processor@DV?$string_output_adapter@D@__crt_stdio_output@@V?$positional_parameter_base@DV?$string_output_adapter@D@__crt_stdio_output@@@2@@__crt_stdio_output@@ABE_NI@Z 10029ce1 f i libucrt:output.obj
 0001:00028cf3       ?has_flag@?$output_processor@DV?$string_output_adapter@D@__crt_stdio_output@@V?$standard_base@DV?$string_output_adapter@D@__crt_stdio_output@@@2@@__crt_stdio_output@@ABE_NI@Z 10029cf3 f i libucrt:output.obj
 0001:00028d05       ?has_flag@?$output_processor@_WV?$stream_output_adapter@_W@__crt_stdio_output@@V?$format_validation_base@_WV?$stream_output_adapter@_W@__crt_stdio_output@@@2@@__crt_stdio_output@@ABE_NI@Z 10029d05 f i libucrt:output.obj
 0001:00028d17       ?has_flag@?$output_processor@_WV?$stream_output_adapter@_W@__crt_stdio_output@@V?$positional_parameter_base@_WV?$stream_output_adapter@_W@__crt_stdio_output@@@2@@__crt_stdio_output@@ABE_NI@Z 10029d17 f i libucrt:output.obj
 0001:00028d29       ?has_flag@?$output_processor@_WV?$stream_output_adapter@_W@__crt_stdio_output@@V?$standard_base@_WV?$stream_output_adapter@_W@__crt_stdio_output@@@2@@__crt_stdio_output@@ABE_NI@Z 10029d29 f i libucrt:output.obj
 0001:00028d3b       ?has_flag@?$output_processor@_WV?$string_output_adapter@_W@__crt_stdio_output@@V?$format_validation_base@_WV?$string_output_adapter@_W@__crt_stdio_output@@@2@@__crt_stdio_output@@ABE_NI@Z 10029d3b f i libucrt:output.obj
 0001:00028d4d       ?has_flag@?$output_processor@_WV?$string_output_adapter@_W@__crt_stdio_output@@V?$positional_parameter_base@_WV?$string_output_adapter@_W@__crt_stdio_output@@@2@@__crt_stdio_output@@ABE_NI@Z 10029d4d f i libucrt:output.obj
 0001:00028d5f       ?has_flag@?$output_processor@_WV?$string_output_adapter@_W@__crt_stdio_output@@V?$standard_base@_WV?$string_output_adapter@_W@__crt_stdio_output@@@2@@__crt_stdio_output@@ABE_NI@Z 10029d5f f i libucrt:output.obj
 0001:00028d71       ?is_positional_parameter_reappearance_consistent@?$positional_parameter_base@DV?$stream_output_adapter@D@__crt_stdio_output@@@__crt_stdio_output@@AAE_NABUparameter_data@12@W4parameter_type@12@DW4length_modifier@2@@Z 10029d71 f i libucrt:output.obj
 0001:00028e8b       ?is_positional_parameter_reappearance_consistent@?$positional_parameter_base@DV?$string_output_adapter@D@__crt_stdio_output@@@__crt_stdio_output@@AAE_NABUparameter_data@12@W4parameter_type@12@DW4length_modifier@2@@Z 10029e8b f i libucrt:output.obj
 0001:00028fa5       ?is_positional_parameter_reappearance_consistent@?$positional_parameter_base@_WV?$stream_output_adapter@_W@__crt_stdio_output@@@__crt_stdio_output@@AAE_NABUparameter_data@12@W4parameter_type@12@_WW4length_modifier@2@@Z 10029fa5 f i libucrt:output.obj
 0001:000290c0       ?is_positional_parameter_reappearance_consistent@?$positional_parameter_base@_WV?$string_output_adapter@_W@__crt_stdio_output@@@__crt_stdio_output@@AAE_NABUparameter_data@12@W4parameter_type@12@_WW4length_modifier@2@@Z 1002a0c0 f i libucrt:output.obj
 0001:000291db       ?is_string_backed@__crt_stdio_stream@@QBE_NXZ 1002a1db f i libucrt:output.obj
 0001:000291e7       ?maximum_signed_value@__crt_strtox@@YAJK@Z 1002a1e7 f i libucrt:output.obj
 0001:000291ed       ?minimum_signed_value@__crt_strtox@@YAJK@Z 1002a1ed f i libucrt:output.obj
 0001:000291f3       ?narrow_null_string@?$output_processor@DV?$stream_output_adapter@D@__crt_stdio_output@@V?$format_validation_base@DV?$stream_output_adapter@D@__crt_stdio_output@@@2@@__crt_stdio_output@@CAPADXZ 1002a1f3 f i libucrt:output.obj
 0001:000291f9       ?narrow_null_string@?$output_processor@DV?$stream_output_adapter@D@__crt_stdio_output@@V?$positional_parameter_base@DV?$stream_output_adapter@D@__crt_stdio_output@@@2@@__crt_stdio_output@@CAPADXZ 1002a1f9 f i libucrt:output.obj
 0001:000291ff       ?narrow_null_string@?$output_processor@DV?$stream_output_adapter@D@__crt_stdio_output@@V?$standard_base@DV?$stream_output_adapter@D@__crt_stdio_output@@@2@@__crt_stdio_output@@CAPADXZ 1002a1ff f i libucrt:output.obj
 0001:00029205       ?narrow_null_string@?$output_processor@DV?$string_output_adapter@D@__crt_stdio_output@@V?$format_validation_base@DV?$string_output_adapter@D@__crt_stdio_output@@@2@@__crt_stdio_output@@CAPADXZ 1002a205 f i libucrt:output.obj
 0001:0002920b       ?narrow_null_string@?$output_processor@DV?$string_output_adapter@D@__crt_stdio_output@@V?$positional_parameter_base@DV?$string_output_adapter@D@__crt_stdio_output@@@2@@__crt_stdio_output@@CAPADXZ 1002a20b f i libucrt:output.obj
 0001:00029211       ?narrow_null_string@?$output_processor@DV?$string_output_adapter@D@__crt_stdio_output@@V?$standard_base@DV?$string_output_adapter@D@__crt_stdio_output@@@2@@__crt_stdio_output@@CAPADXZ 1002a211 f i libucrt:output.obj
 0001:00029217       ?narrow_null_string@?$output_processor@_WV?$stream_output_adapter@_W@__crt_stdio_output@@V?$format_validation_base@_WV?$stream_output_adapter@_W@__crt_stdio_output@@@2@@__crt_stdio_output@@CAPADXZ 1002a217 f i libucrt:output.obj
 0001:0002921d       ?narrow_null_string@?$output_processor@_WV?$stream_output_adapter@_W@__crt_stdio_output@@V?$positional_parameter_base@_WV?$stream_output_adapter@_W@__crt_stdio_output@@@2@@__crt_stdio_output@@CAPADXZ 1002a21d f i libucrt:output.obj
 0001:00029223       ?narrow_null_string@?$output_processor@_WV?$stream_output_adapter@_W@__crt_stdio_output@@V?$standard_base@_WV?$stream_output_adapter@_W@__crt_stdio_output@@@2@@__crt_stdio_output@@CAPADXZ 1002a223 f i libucrt:output.obj
 0001:00029229       ?narrow_null_string@?$output_processor@_WV?$string_output_adapter@_W@__crt_stdio_output@@V?$format_validation_base@_WV?$string_output_adapter@_W@__crt_stdio_output@@@2@@__crt_stdio_output@@CAPADXZ 1002a229 f i libucrt:output.obj
 0001:0002922f       ?narrow_null_string@?$output_processor@_WV?$string_output_adapter@_W@__crt_stdio_output@@V?$positional_parameter_base@_WV?$string_output_adapter@_W@__crt_stdio_output@@@2@@__crt_stdio_output@@CAPADXZ 1002a22f f i libucrt:output.obj
 0001:00029235       ?narrow_null_string@?$output_processor@_WV?$string_output_adapter@_W@__crt_stdio_output@@V?$standard_base@_WV?$string_output_adapter@_W@__crt_stdio_output@@@2@@__crt_stdio_output@@CAPADXZ 1002a235 f i libucrt:output.obj
 0001:0002923b       ?parse_digit@__crt_strtox@@YAID@Z 1002a23b f i libucrt:output.obj
 0001:00029275       ?parse_digit@__crt_strtox@@YAI_W@Z 1002a275 f i libucrt:output.obj
 0001:0002943d       ?parse_int_from_format_string@?$output_processor@DV?$stream_output_adapter@D@__crt_stdio_output@@V?$format_validation_base@DV?$stream_output_adapter@D@__crt_stdio_output@@@2@@__crt_stdio_output@@AAE_NQAH@Z 1002a43d f i libucrt:output.obj
 0001:000294b5       ?parse_int_from_format_string@?$output_processor@DV?$stream_output_adapter@D@__crt_stdio_output@@V?$positional_parameter_base@DV?$stream_output_adapter@D@__crt_stdio_output@@@2@@__crt_stdio_output@@AAE_NQAH@Z 1002a4b5 f i libucrt:output.obj
 0001:0002952d       ?parse_int_from_format_string@?$output_processor@DV?$stream_output_adapter@D@__crt_stdio_output@@V?$standard_base@DV?$stream_output_adapter@D@__crt_stdio_output@@@2@@__crt_stdio_output@@AAE_NQAH@Z 1002a52d f i libucrt:output.obj
 0001:000295a5       ?parse_int_from_format_string@?$output_processor@DV?$string_output_adapter@D@__crt_stdio_output@@V?$format_validation_base@DV?$string_output_adapter@D@__crt_stdio_output@@@2@@__crt_stdio_output@@AAE_NQAH@Z 1002a5a5 f i libucrt:output.obj
 0001:0002961d       ?parse_int_from_format_string@?$output_processor@DV?$string_output_adapter@D@__crt_stdio_output@@V?$positional_parameter_base@DV?$string_output_adapter@D@__crt_stdio_output@@@2@@__crt_stdio_output@@AAE_NQAH@Z 1002a61d f i libucrt:output.obj
 0001:00029695       ?parse_int_from_format_string@?$output_processor@DV?$string_output_adapter@D@__crt_stdio_output@@V?$standard_base@DV?$string_output_adapter@D@__crt_stdio_output@@@2@@__crt_stdio_output@@AAE_NQAH@Z 1002a695 f i libucrt:output.obj
 0001:0002970d       ?parse_int_from_format_string@?$output_processor@_WV?$stream_output_adapter@_W@__crt_stdio_output@@V?$format_validation_base@_WV?$stream_output_adapter@_W@__crt_stdio_output@@@2@@__crt_stdio_output@@AAE_NQAH@Z 1002a70d f i libucrt:output.obj
 0001:00029787       ?parse_int_from_format_string@?$output_processor@_WV?$stream_output_adapter@_W@__crt_stdio_output@@V?$positional_parameter_base@_WV?$stream_output_adapter@_W@__crt_stdio_output@@@2@@__crt_stdio_output@@AAE_NQAH@Z 1002a787 f i libucrt:output.obj
 0001:00029801       ?parse_int_from_format_string@?$output_processor@_WV?$stream_output_adapter@_W@__crt_stdio_output@@V?$standard_base@_WV?$stream_output_adapter@_W@__crt_stdio_output@@@2@@__crt_stdio_output@@AAE_NQAH@Z 1002a801 f i libucrt:output.obj
 0001:0002987b       ?parse_int_from_format_string@?$output_processor@_WV?$string_output_adapter@_W@__crt_stdio_output@@V?$format_validation_base@_WV?$string_output_adapter@_W@__crt_stdio_output@@@2@@__crt_stdio_output@@AAE_NQAH@Z 1002a87b f i libucrt:output.obj
 0001:000298f5       ?parse_int_from_format_string@?$output_processor@_WV?$string_output_adapter@_W@__crt_stdio_output@@V?$positional_parameter_base@_WV?$string_output_adapter@_W@__crt_stdio_output@@@2@@__crt_stdio_output@@AAE_NQAH@Z 1002a8f5 f i libucrt:output.obj
 0001:0002996f       ?parse_int_from_format_string@?$output_processor@_WV?$string_output_adapter@_W@__crt_stdio_output@@V?$standard_base@_WV?$string_output_adapter@_W@__crt_stdio_output@@@2@@__crt_stdio_output@@AAE_NQAH@Z 1002a96f f i libucrt:output.obj
 0001:000299e9       ?process@?$output_processor@DV?$stream_output_adapter@D@__crt_stdio_output@@V?$format_validation_base@DV?$stream_output_adapter@D@__crt_stdio_output@@@2@@__crt_stdio_output@@QAEHXZ 1002a9e9 f i libucrt:output.obj
 0001:00029ca9       ?process@?$output_processor@DV?$stream_output_adapter@D@__crt_stdio_output@@V?$positional_parameter_base@DV?$stream_output_adapter@D@__crt_stdio_output@@@2@@__crt_stdio_output@@QAEHXZ 1002aca9 f i libucrt:output.obj
 0001:00029f7d       ?process@?$output_processor@DV?$stream_output_adapter@D@__crt_stdio_output@@V?$standard_base@DV?$stream_output_adapter@D@__crt_stdio_output@@@2@@__crt_stdio_output@@QAEHXZ 1002af7d f i libucrt:output.obj
 0001:0002a22d       ?process@?$output_processor@DV?$string_output_adapter@D@__crt_stdio_output@@V?$format_validation_base@DV?$string_output_adapter@D@__crt_stdio_output@@@2@@__crt_stdio_output@@QAEHXZ 1002b22d f i libucrt:output.obj
 0001:0002a511       ?process@?$output_processor@DV?$string_output_adapter@D@__crt_stdio_output@@V?$positional_parameter_base@DV?$string_output_adapter@D@__crt_stdio_output@@@2@@__crt_stdio_output@@QAEHXZ 1002b511 f i libucrt:output.obj
 0001:0002a811       ?process@?$output_processor@DV?$string_output_adapter@D@__crt_stdio_output@@V?$standard_base@DV?$string_output_adapter@D@__crt_stdio_output@@@2@@__crt_stdio_output@@QAEHXZ 1002b811 f i libucrt:output.obj
 0001:0002aae5       ?process@?$output_processor@_WV?$stream_output_adapter@_W@__crt_stdio_output@@V?$format_validation_base@_WV?$stream_output_adapter@_W@__crt_stdio_output@@@2@@__crt_stdio_output@@QAEHXZ 1002bae5 f i libucrt:output.obj
 0001:0002ad01       ?process@?$output_processor@_WV?$stream_output_adapter@_W@__crt_stdio_output@@V?$positional_parameter_base@_WV?$stream_output_adapter@_W@__crt_stdio_output@@@2@@__crt_stdio_output@@QAEHXZ 1002bd01 f i libucrt:output.obj
 0001:0002af55       ?process@?$output_processor@_WV?$stream_output_adapter@_W@__crt_stdio_output@@V?$standard_base@_WV?$stream_output_adapter@_W@__crt_stdio_output@@@2@@__crt_stdio_output@@QAEHXZ 1002bf55 f i libucrt:output.obj
 0001:0002b165       ?process@?$output_processor@_WV?$string_output_adapter@_W@__crt_stdio_output@@V?$format_validation_base@_WV?$string_output_adapter@_W@__crt_stdio_output@@@2@@__crt_stdio_output@@QAEHXZ 1002c165 f i libucrt:output.obj
 0001:0002b3a5       ?process@?$output_processor@_WV?$string_output_adapter@_W@__crt_stdio_output@@V?$positional_parameter_base@_WV?$string_output_adapter@_W@__crt_stdio_output@@@2@@__crt_stdio_output@@QAEHXZ 1002c3a5 f i libucrt:output.obj
 0001:0002b60d       ?process@?$output_processor@_WV?$string_output_adapter@_W@__crt_stdio_output@@V?$standard_base@_WV?$string_output_adapter@_W@__crt_stdio_output@@@2@@__crt_stdio_output@@QAEHXZ 1002c60d f i libucrt:output.obj
 0001:0002b849       ?public_stream@__crt_stdio_stream@@QBEPAU_iobuf@@XZ 1002c849 f i libucrt:output.obj
 0001:0002b84c       ?restore_state@?$c_string_character_source@D@__crt_strtox@@QAE_NQBD@Z 1002c84c f i libucrt:output.obj
 0001:0002b85c       ?restore_state@?$c_string_character_source@_W@__crt_strtox@@QAE_NQB_W@Z 1002c85c f i libucrt:output.obj
 0001:0002b86c       ?save_state@?$c_string_character_source@D@__crt_strtox@@QBEPBDXZ 1002c86c f i libucrt:output.obj
 0001:0002b86f       ?save_state@?$c_string_character_source@_W@__crt_strtox@@QBEPB_WXZ 1002c86f f i libucrt:output.obj
 0001:0002b872       ?set_flag@?$output_processor@DV?$stream_output_adapter@D@__crt_stdio_output@@V?$format_validation_base@DV?$stream_output_adapter@D@__crt_stdio_output@@@2@@__crt_stdio_output@@AAEXI@Z 1002c872 f i libucrt:output.obj
 0001:0002b881       ?set_flag@?$output_processor@DV?$stream_output_adapter@D@__crt_stdio_output@@V?$positional_parameter_base@DV?$stream_output_adapter@D@__crt_stdio_output@@@2@@__crt_stdio_output@@AAEXI@Z 1002c881 f i libucrt:output.obj
 0001:0002b890       ?set_flag@?$output_processor@DV?$stream_output_adapter@D@__crt_stdio_output@@V?$standard_base@DV?$stream_output_adapter@D@__crt_stdio_output@@@2@@__crt_stdio_output@@AAEXI@Z 1002c890 f i libucrt:output.obj
 0001:0002b89f       ?set_flag@?$output_processor@DV?$string_output_adapter@D@__crt_stdio_output@@V?$format_validation_base@DV?$string_output_adapter@D@__crt_stdio_output@@@2@@__crt_stdio_output@@AAEXI@Z 1002c89f f i libucrt:output.obj
 0001:0002b8ae       ?set_flag@?$output_processor@DV?$string_output_adapter@D@__crt_stdio_output@@V?$positional_parameter_base@DV?$string_output_adapter@D@__crt_stdio_output@@@2@@__crt_stdio_output@@AAEXI@Z 1002c8ae f i libucrt:output.obj
 0001:0002b8bd       ?set_flag@?$output_processor@DV?$string_output_adapter@D@__crt_stdio_output@@V?$standard_base@DV?$string_output_adapter@D@__crt_stdio_output@@@2@@__crt_stdio_output@@AAEXI@Z 1002c8bd f i libucrt:output.obj
 0001:0002b8cc       ?set_flag@?$output_processor@_WV?$stream_output_adapter@_W@__crt_stdio_output@@V?$format_validation_base@_WV?$stream_output_adapter@_W@__crt_stdio_output@@@2@@__crt_stdio_output@@AAEXI@Z 1002c8cc f i libucrt:output.obj
 0001:0002b8db       ?set_flag@?$output_processor@_WV?$stream_output_adapter@_W@__crt_stdio_output@@V?$positional_parameter_base@_WV?$stream_output_adapter@_W@__crt_stdio_output@@@2@@__crt_stdio_output@@AAEXI@Z 1002c8db f i libucrt:output.obj
 0001:0002b8ea       ?set_flag@?$output_processor@_WV?$stream_output_adapter@_W@__crt_stdio_output@@V?$standard_base@_WV?$stream_output_adapter@_W@__crt_stdio_output@@@2@@__crt_stdio_output@@AAEXI@Z 1002c8ea f i libucrt:output.obj
 0001:0002b8f9       ?set_flag@?$output_processor@_WV?$string_output_adapter@_W@__crt_stdio_output@@V?$format_validation_base@_WV?$string_output_adapter@_W@__crt_stdio_output@@@2@@__crt_stdio_output@@AAEXI@Z 1002c8f9 f i libucrt:output.obj
 0001:0002b908       ?set_flag@?$output_processor@_WV?$string_output_adapter@_W@__crt_stdio_output@@V?$positional_parameter_base@_WV?$string_output_adapter@_W@__crt_stdio_output@@@2@@__crt_stdio_output@@AAEXI@Z 1002c908 f i libucrt:output.obj
 0001:0002b917       ?set_flag@?$output_processor@_WV?$string_output_adapter@_W@__crt_stdio_output@@V?$standard_base@_WV?$string_output_adapter@_W@__crt_stdio_output@@@2@@__crt_stdio_output@@AAEXI@Z 1002c917 f i libucrt:output.obj
 0001:0002b926       ?should_format@?$positional_parameter_base@DV?$stream_output_adapter@D@__crt_stdio_output@@@__crt_stdio_output@@IAE_NXZ 1002c926 f i libucrt:output.obj
 0001:0002b93c       ?should_format@?$positional_parameter_base@DV?$string_output_adapter@D@__crt_stdio_output@@@__crt_stdio_output@@IAE_NXZ 1002c93c f i libucrt:output.obj
 0001:0002b952       ?should_format@?$positional_parameter_base@_WV?$stream_output_adapter@_W@__crt_stdio_output@@@__crt_stdio_output@@IAE_NXZ 1002c952 f i libucrt:output.obj
 0001:0002b968       ?should_format@?$positional_parameter_base@_WV?$string_output_adapter@_W@__crt_stdio_output@@@__crt_stdio_output@@IAE_NXZ 1002c968 f i libucrt:output.obj
 0001:0002b97e       ?should_format@?$standard_base@DV?$stream_output_adapter@D@__crt_stdio_output@@@__crt_stdio_output@@IAE_NXZ 1002c97e f i libucrt:output.obj
 0001:0002b981       ?should_format@?$standard_base@DV?$string_output_adapter@D@__crt_stdio_output@@@__crt_stdio_output@@IAE_NXZ 1002c981 f i libucrt:output.obj
 0001:0002b984       ?should_format@?$standard_base@_WV?$stream_output_adapter@_W@__crt_stdio_output@@@__crt_stdio_output@@IAE_NXZ 1002c984 f i libucrt:output.obj
 0001:0002b987       ?should_format@?$standard_base@_WV?$string_output_adapter@_W@__crt_stdio_output@@@__crt_stdio_output@@IAE_NXZ 1002c987 f i libucrt:output.obj
 0001:0002b98a       ?should_skip_normal_state_processing@?$positional_parameter_base@DV?$stream_output_adapter@D@__crt_stdio_output@@@__crt_stdio_output@@IAE_NXZ 1002c98a f i libucrt:output.obj
 0001:0002b9b4       ?should_skip_normal_state_processing@?$positional_parameter_base@DV?$string_output_adapter@D@__crt_stdio_output@@@__crt_stdio_output@@IAE_NXZ 1002c9b4 f i libucrt:output.obj
 0001:0002b9de       ?should_skip_normal_state_processing@?$positional_parameter_base@_WV?$stream_output_adapter@_W@__crt_stdio_output@@@__crt_stdio_output@@IAE_NXZ 1002c9de f i libucrt:output.obj
 0001:0002ba08       ?should_skip_normal_state_processing@?$positional_parameter_base@_WV?$string_output_adapter@_W@__crt_stdio_output@@@__crt_stdio_output@@IAE_NXZ 1002ca08 f i libucrt:output.obj
 0001:0002ba32       ?should_skip_normal_state_processing@?$standard_base@DV?$stream_output_adapter@D@__crt_stdio_output@@@__crt_stdio_output@@IAE_NXZ 1002ca32 f i libucrt:output.obj
 0001:0002ba35       ?should_skip_normal_state_processing@?$standard_base@DV?$string_output_adapter@D@__crt_stdio_output@@@__crt_stdio_output@@IAE_NXZ 1002ca35 f i libucrt:output.obj
 0001:0002ba38       ?should_skip_normal_state_processing@?$standard_base@_WV?$stream_output_adapter@_W@__crt_stdio_output@@@__crt_stdio_output@@IAE_NXZ 1002ca38 f i libucrt:output.obj
 0001:0002ba3b       ?should_skip_normal_state_processing@?$standard_base@_WV?$string_output_adapter@_W@__crt_stdio_output@@@__crt_stdio_output@@IAE_NXZ 1002ca3b f i libucrt:output.obj
 0001:0002ba3e       ?should_skip_type_state_output@?$positional_parameter_base@DV?$stream_output_adapter@D@__crt_stdio_output@@@__crt_stdio_output@@IBE_NXZ 1002ca3e f i libucrt:output.obj
 0001:0002ba55       ?should_skip_type_state_output@?$positional_parameter_base@DV?$string_output_adapter@D@__crt_stdio_output@@@__crt_stdio_output@@IBE_NXZ 1002ca55 f i libucrt:output.obj
 0001:0002ba6c       ?should_skip_type_state_output@?$positional_parameter_base@_WV?$stream_output_adapter@_W@__crt_stdio_output@@@__crt_stdio_output@@IBE_NXZ 1002ca6c f i libucrt:output.obj
 0001:0002ba83       ?should_skip_type_state_output@?$positional_parameter_base@_WV?$string_output_adapter@_W@__crt_stdio_output@@@__crt_stdio_output@@IBE_NXZ 1002ca83 f i libucrt:output.obj
 0001:0002ba9a       ?should_skip_type_state_output@?$standard_base@DV?$stream_output_adapter@D@__crt_stdio_output@@@__crt_stdio_output@@IBE_NXZ 1002ca9a f i libucrt:output.obj
 0001:0002ba9d       ?should_skip_type_state_output@?$standard_base@DV?$string_output_adapter@D@__crt_stdio_output@@@__crt_stdio_output@@IBE_NXZ 1002ca9d f i libucrt:output.obj
 0001:0002baa0       ?should_skip_type_state_output@?$standard_base@_WV?$stream_output_adapter@_W@__crt_stdio_output@@@__crt_stdio_output@@IBE_NXZ 1002caa0 f i libucrt:output.obj
 0001:0002baa3       ?should_skip_type_state_output@?$standard_base@_WV?$string_output_adapter@_W@__crt_stdio_output@@@__crt_stdio_output@@IBE_NXZ 1002caa3 f i libucrt:output.obj
 0001:0002baa6       ?state_case_dot@?$output_processor@DV?$stream_output_adapter@D@__crt_stdio_output@@V?$format_validation_base@DV?$stream_output_adapter@D@__crt_stdio_output@@@2@@__crt_stdio_output@@AAE_NXZ 1002caa6 f i libucrt:output.obj
 0001:0002baad       ?state_case_dot@?$output_processor@DV?$stream_output_adapter@D@__crt_stdio_output@@V?$positional_parameter_base@DV?$stream_output_adapter@D@__crt_stdio_output@@@2@@__crt_stdio_output@@AAE_NXZ 1002caad f i libucrt:output.obj
 0001:0002bab4       ?state_case_dot@?$output_processor@DV?$stream_output_adapter@D@__crt_stdio_output@@V?$standard_base@DV?$stream_output_adapter@D@__crt_stdio_output@@@2@@__crt_stdio_output@@AAE_NXZ 1002cab4 f i libucrt:output.obj
 0001:0002babb       ?state_case_dot@?$output_processor@DV?$string_output_adapter@D@__crt_stdio_output@@V?$format_validation_base@DV?$string_output_adapter@D@__crt_stdio_output@@@2@@__crt_stdio_output@@AAE_NXZ 1002cabb f i libucrt:output.obj
 0001:0002bac2       ?state_case_dot@?$output_processor@DV?$string_output_adapter@D@__crt_stdio_output@@V?$positional_parameter_base@DV?$string_output_adapter@D@__crt_stdio_output@@@2@@__crt_stdio_output@@AAE_NXZ 1002cac2 f i libucrt:output.obj
 0001:0002bac9       ?state_case_dot@?$output_processor@DV?$string_output_adapter@D@__crt_stdio_output@@V?$standard_base@DV?$string_output_adapter@D@__crt_stdio_output@@@2@@__crt_stdio_output@@AAE_NXZ 1002cac9 f i libucrt:output.obj
 0001:0002bad0       ?state_case_dot@?$output_processor@_WV?$stream_output_adapter@_W@__crt_stdio_output@@V?$format_validation_base@_WV?$stream_output_adapter@_W@__crt_stdio_output@@@2@@__crt_stdio_output@@AAE_NXZ 1002cad0 f i libucrt:output.obj
 0001:0002bad7       ?state_case_dot@?$output_processor@_WV?$stream_output_adapter@_W@__crt_stdio_output@@V?$positional_parameter_base@_WV?$stream_output_adapter@_W@__crt_stdio_output@@@2@@__crt_stdio_output@@AAE_NXZ 1002cad7 f i libucrt:output.obj
 0001:0002bade       ?state_case_dot@?$output_processor@_WV?$stream_output_adapter@_W@__crt_stdio_output@@V?$standard_base@_WV?$stream_output_adapter@_W@__crt_stdio_output@@@2@@__crt_stdio_output@@AAE_NXZ 1002cade f i libucrt:output.obj
 0001:0002bae5       ?state_case_dot@?$output_processor@_WV?$string_output_adapter@_W@__crt_stdio_output@@V?$format_validation_base@_WV?$string_output_adapter@_W@__crt_stdio_output@@@2@@__crt_stdio_output@@AAE_NXZ 1002cae5 f i libucrt:output.obj
 0001:0002baec       ?state_case_dot@?$output_processor@_WV?$string_output_adapter@_W@__crt_stdio_output@@V?$positional_parameter_base@_WV?$string_output_adapter@_W@__crt_stdio_output@@@2@@__crt_stdio_output@@AAE_NXZ 1002caec f i libucrt:output.obj
 0001:0002baf3       ?state_case_dot@?$output_processor@_WV?$string_output_adapter@_W@__crt_stdio_output@@V?$standard_base@_WV?$string_output_adapter@_W@__crt_stdio_output@@@2@@__crt_stdio_output@@AAE_NXZ 1002caf3 f i libucrt:output.obj
 0001:0002bafa       ?state_case_flag@?$output_processor@DV?$stream_output_adapter@D@__crt_stdio_output@@V?$format_validation_base@DV?$stream_output_adapter@D@__crt_stdio_output@@@2@@__crt_stdio_output@@AAE_NXZ 1002cafa f i libucrt:output.obj
 0001:0002bb37       ?state_case_flag@?$output_processor@DV?$stream_output_adapter@D@__crt_stdio_output@@V?$positional_parameter_base@DV?$stream_output_adapter@D@__crt_stdio_output@@@2@@__crt_stdio_output@@AAE_NXZ 1002cb37 f i libucrt:output.obj
 0001:0002bb74       ?state_case_flag@?$output_processor@DV?$stream_output_adapter@D@__crt_stdio_output@@V?$standard_base@DV?$stream_output_adapter@D@__crt_stdio_output@@@2@@__crt_stdio_output@@AAE_NXZ 1002cb74 f i libucrt:output.obj
 0001:0002bbb1       ?state_case_flag@?$output_processor@DV?$string_output_adapter@D@__crt_stdio_output@@V?$format_validation_base@DV?$string_output_adapter@D@__crt_stdio_output@@@2@@__crt_stdio_output@@AAE_NXZ 1002cbb1 f i libucrt:output.obj
 0001:0002bbee       ?state_case_flag@?$output_processor@DV?$string_output_adapter@D@__crt_stdio_output@@V?$positional_parameter_base@DV?$string_output_adapter@D@__crt_stdio_output@@@2@@__crt_stdio_output@@AAE_NXZ 1002cbee f i libucrt:output.obj
 0001:0002bc2b       ?state_case_flag@?$output_processor@DV?$string_output_adapter@D@__crt_stdio_output@@V?$standard_base@DV?$string_output_adapter@D@__crt_stdio_output@@@2@@__crt_stdio_output@@AAE_NXZ 1002cc2b f i libucrt:output.obj
 0001:0002bc68       ?state_case_flag@?$output_processor@_WV?$stream_output_adapter@_W@__crt_stdio_output@@V?$format_validation_base@_WV?$stream_output_adapter@_W@__crt_stdio_output@@@2@@__crt_stdio_output@@AAE_NXZ 1002cc68 f i libucrt:output.obj
 0001:0002bca5       ?state_case_flag@?$output_processor@_WV?$stream_output_adapter@_W@__crt_stdio_output@@V?$positional_parameter_base@_WV?$stream_output_adapter@_W@__crt_stdio_output@@@2@@__crt_stdio_output@@AAE_NXZ 1002cca5 f i libucrt:output.obj
 0001:0002bce2       ?state_case_flag@?$output_processor@_WV?$stream_output_adapter@_W@__crt_stdio_output@@V?$standard_base@_WV?$stream_output_adapter@_W@__crt_stdio_output@@@2@@__crt_stdio_output@@AAE_NXZ 1002cce2 f i libucrt:output.obj
 0001:0002bd1f       ?state_case_flag@?$output_processor@_WV?$string_output_adapter@_W@__crt_stdio_output@@V?$format_validation_base@_WV?$string_output_adapter@_W@__crt_stdio_output@@@2@@__crt_stdio_output@@AAE_NXZ 1002cd1f f i libucrt:output.obj
 0001:0002bd5c       ?state_case_flag@?$output_processor@_WV?$string_output_adapter@_W@__crt_stdio_output@@V?$positional_parameter_base@_WV?$string_output_adapter@_W@__crt_stdio_output@@@2@@__crt_stdio_output@@AAE_NXZ 1002cd5c f i libucrt:output.obj
 0001:0002bd99       ?state_case_flag@?$output_processor@_WV?$string_output_adapter@_W@__crt_stdio_output@@V?$standard_base@_WV?$string_output_adapter@_W@__crt_stdio_output@@@2@@__crt_stdio_output@@AAE_NXZ 1002cd99 f i libucrt:output.obj
 0001:0002bdd6       ?state_case_normal@?$output_processor@DV?$stream_output_adapter@D@__crt_stdio_output@@V?$format_validation_base@DV?$stream_output_adapter@D@__crt_stdio_output@@@2@@__crt_stdio_output@@AAE_NXZ 1002cdd6 f i libucrt:output.obj
 0001:0002be93       ?state_case_normal@?$output_processor@DV?$stream_output_adapter@D@__crt_stdio_output@@V?$positional_parameter_base@DV?$stream_output_adapter@D@__crt_stdio_output@@@2@@__crt_stdio_output@@AAE_NXZ 1002ce93 f i libucrt:output.obj
 0001:0002bf5b       ?state_case_normal@?$output_processor@DV?$stream_output_adapter@D@__crt_stdio_output@@V?$standard_base@DV?$stream_output_adapter@D@__crt_stdio_output@@@2@@__crt_stdio_output@@AAE_NXZ 1002cf5b f i libucrt:output.obj
 0001:0002c018       ?state_case_normal@?$output_processor@DV?$string_output_adapter@D@__crt_stdio_output@@V?$format_validation_base@DV?$string_output_adapter@D@__crt_stdio_output@@@2@@__crt_stdio_output@@AAE_NXZ 1002d018 f i libucrt:output.obj
 0001:0002c114       ?state_case_normal@?$output_processor@DV?$string_output_adapter@D@__crt_stdio_output@@V?$positional_parameter_base@DV?$string_output_adapter@D@__crt_stdio_output@@@2@@__crt_stdio_output@@AAE_NXZ 1002d114 f i libucrt:output.obj
 0001:0002c21b       ?state_case_normal@?$output_processor@DV?$string_output_adapter@D@__crt_stdio_output@@V?$standard_base@DV?$string_output_adapter@D@__crt_stdio_output@@@2@@__crt_stdio_output@@AAE_NXZ 1002d21b f i libucrt:output.obj
 0001:0002c317       ?state_case_normal@?$output_processor@_WV?$stream_output_adapter@_W@__crt_stdio_output@@V?$format_validation_base@_WV?$stream_output_adapter@_W@__crt_stdio_output@@@2@@__crt_stdio_output@@AAE_NXZ 1002d317 f i libucrt:output.obj
 0001:0002c335       ?state_case_normal@?$output_processor@_WV?$stream_output_adapter@_W@__crt_stdio_output@@V?$positional_parameter_base@_WV?$stream_output_adapter@_W@__crt_stdio_output@@@2@@__crt_stdio_output@@AAE_NXZ 1002d335 f i libucrt:output.obj
 0001:0002c362       ?state_case_normal@?$output_processor@_WV?$stream_output_adapter@_W@__crt_stdio_output@@V?$standard_base@_WV?$stream_output_adapter@_W@__crt_stdio_output@@@2@@__crt_stdio_output@@AAE_NXZ 1002d362 f i libucrt:output.obj
 0001:0002c380       ?state_case_normal@?$output_processor@_WV?$string_output_adapter@_W@__crt_stdio_output@@V?$format_validation_base@_WV?$string_output_adapter@_W@__crt_stdio_output@@@2@@__crt_stdio_output@@AAE_NXZ 1002d380 f i libucrt:output.obj
 0001:0002c3c8       ?state_case_normal@?$output_processor@_WV?$string_output_adapter@_W@__crt_stdio_output@@V?$positional_parameter_base@_WV?$string_output_adapter@_W@__crt_stdio_output@@@2@@__crt_stdio_output@@AAE_NXZ 1002d3c8 f i libucrt:output.obj
 0001:0002c41b       ?state_case_normal@?$output_processor@_WV?$string_output_adapter@_W@__crt_stdio_output@@V?$standard_base@_WV?$string_output_adapter@_W@__crt_stdio_output@@@2@@__crt_stdio_output@@AAE_NXZ 1002d41b f i libucrt:output.obj
 0001:0002c463       ?state_case_normal_common@?$output_processor@DV?$stream_output_adapter@D@__crt_stdio_output@@V?$format_validation_base@DV?$stream_output_adapter@D@__crt_stdio_output@@@2@@__crt_stdio_output@@AAE_NXZ 1002d463 f i libucrt:output.obj
 0001:0002c4fb       ?state_case_normal_common@?$output_processor@DV?$stream_output_adapter@D@__crt_stdio_output@@V?$positional_parameter_base@DV?$stream_output_adapter@D@__crt_stdio_output@@@2@@__crt_stdio_output@@AAE_NXZ 1002d4fb f i libucrt:output.obj
 0001:0002c593       ?state_case_normal_common@?$output_processor@DV?$stream_output_adapter@D@__crt_stdio_output@@V?$standard_base@DV?$stream_output_adapter@D@__crt_stdio_output@@@2@@__crt_stdio_output@@AAE_NXZ 1002d593 f i libucrt:output.obj
 0001:0002c62b       ?state_case_normal_common@?$output_processor@DV?$string_output_adapter@D@__crt_stdio_output@@V?$format_validation_base@DV?$string_output_adapter@D@__crt_stdio_output@@@2@@__crt_stdio_output@@AAE_NXZ 1002d62b f i libucrt:output.obj
 0001:0002c70b       ?state_case_normal_common@?$output_processor@DV?$string_output_adapter@D@__crt_stdio_output@@V?$positional_parameter_base@DV?$string_output_adapter@D@__crt_stdio_output@@@2@@__crt_stdio_output@@AAE_NXZ 1002d70b f i libucrt:output.obj
 0001:0002c7eb       ?state_case_normal_common@?$output_processor@DV?$string_output_adapter@D@__crt_stdio_output@@V?$standard_base@DV?$string_output_adapter@D@__crt_stdio_output@@@2@@__crt_stdio_output@@AAE_NXZ 1002d7eb f i libucrt:output.obj
 0001:0002c8cb       ?state_case_normal_common@?$output_processor@_WV?$stream_output_adapter@_W@__crt_stdio_output@@V?$format_validation_base@_WV?$stream_output_adapter@_W@__crt_stdio_output@@@2@@__crt_stdio_output@@AAE_NXZ 1002d8cb f i libucrt:output.obj
 0001:0002c8e9       ?state_case_normal_common@?$output_processor@_WV?$stream_output_adapter@_W@__crt_stdio_output@@V?$positional_parameter_base@_WV?$stream_output_adapter@_W@__crt_stdio_output@@@2@@__crt_stdio_output@@AAE_NXZ 1002d8e9 f i libucrt:output.obj
 0001:0002c907       ?state_case_normal_common@?$output_processor@_WV?$stream_output_adapter@_W@__crt_stdio_output@@V?$standard_base@_WV?$stream_output_adapter@_W@__crt_stdio_output@@@2@@__crt_stdio_output@@AAE_NXZ 1002d907 f i libucrt:output.obj
 0001:0002c925       ?state_case_normal_common@?$output_processor@_WV?$string_output_adapter@_W@__crt_stdio_output@@V?$format_validation_base@_WV?$string_output_adapter@_W@__crt_stdio_output@@@2@@__crt_stdio_output@@AAE_NXZ 1002d925 f i libucrt:output.obj
 0001:0002c96d       ?state_case_normal_common@?$output_processor@_WV?$string_output_adapter@_W@__crt_stdio_output@@V?$positional_parameter_base@_WV?$string_output_adapter@_W@__crt_stdio_output@@@2@@__crt_stdio_output@@AAE_NXZ 1002d96d f i libucrt:output.obj
 0001:0002c9b5       ?state_case_normal_common@?$output_processor@_WV?$string_output_adapter@_W@__crt_stdio_output@@V?$standard_base@_WV?$string_output_adapter@_W@__crt_stdio_output@@@2@@__crt_stdio_output@@AAE_NXZ 1002d9b5 f i libucrt:output.obj
 0001:0002c9fd       ?state_case_normal_tchar@?$output_processor@DV?$stream_output_adapter@D@__crt_stdio_output@@V?$format_validation_base@DV?$stream_output_adapter@D@__crt_stdio_output@@@2@@__crt_stdio_output@@AAE_ND@Z 1002d9fd f i libucrt:output.obj
 0001:0002ca84       ?state_case_normal_tchar@?$output_processor@DV?$stream_output_adapter@D@__crt_stdio_output@@V?$positional_parameter_base@DV?$stream_output_adapter@D@__crt_stdio_output@@@2@@__crt_stdio_output@@AAE_ND@Z 1002da84 f i libucrt:output.obj
 0001:0002cb0b       ?state_case_normal_tchar@?$output_processor@DV?$stream_output_adapter@D@__crt_stdio_output@@V?$standard_base@DV?$stream_output_adapter@D@__crt_stdio_output@@@2@@__crt_stdio_output@@AAE_ND@Z 1002db0b f i libucrt:output.obj
 0001:0002cb92       ?state_case_normal_tchar@?$output_processor@DV?$string_output_adapter@D@__crt_stdio_output@@V?$format_validation_base@DV?$string_output_adapter@D@__crt_stdio_output@@@2@@__crt_stdio_output@@AAE_ND@Z 1002db92 f i libucrt:output.obj
 0001:0002cc3d       ?state_case_normal_tchar@?$output_processor@DV?$string_output_adapter@D@__crt_stdio_output@@V?$positional_parameter_base@DV?$string_output_adapter@D@__crt_stdio_output@@@2@@__crt_stdio_output@@AAE_ND@Z 1002dc3d f i libucrt:output.obj
 0001:0002cce8       ?state_case_normal_tchar@?$output_processor@DV?$string_output_adapter@D@__crt_stdio_output@@V?$standard_base@DV?$string_output_adapter@D@__crt_stdio_output@@@2@@__crt_stdio_output@@AAE_ND@Z 1002dce8 f i libucrt:output.obj
 0001:0002cd93       ?state_case_normal_tchar@?$output_processor@_WV?$stream_output_adapter@_W@__crt_stdio_output@@V?$format_validation_base@_WV?$stream_output_adapter@_W@__crt_stdio_output@@@2@@__crt_stdio_output@@AAE_N_W@Z 1002dd93 f i libucrt:output.obj
 0001:0002cd9c       ?state_case_normal_tchar@?$output_processor@_WV?$stream_output_adapter@_W@__crt_stdio_output@@V?$positional_parameter_base@_WV?$stream_output_adapter@_W@__crt_stdio_output@@@2@@__crt_stdio_output@@AAE_N_W@Z 1002dd9c f i libucrt:output.obj
 0001:0002cda5       ?state_case_normal_tchar@?$output_processor@_WV?$stream_output_adapter@_W@__crt_stdio_output@@V?$standard_base@_WV?$stream_output_adapter@_W@__crt_stdio_output@@@2@@__crt_stdio_output@@AAE_N_W@Z 1002dda5 f i libucrt:output.obj
 0001:0002cdae       ?state_case_normal_tchar@?$output_processor@_WV?$string_output_adapter@_W@__crt_stdio_output@@V?$format_validation_base@_WV?$string_output_adapter@_W@__crt_stdio_output@@@2@@__crt_stdio_output@@AAE_N_W@Z 1002ddae f i libucrt:output.obj
 0001:0002cdb7       ?state_case_normal_tchar@?$output_processor@_WV?$string_output_adapter@_W@__crt_stdio_output@@V?$positional_parameter_base@_WV?$string_output_adapter@_W@__crt_stdio_output@@@2@@__crt_stdio_output@@AAE_N_W@Z 1002ddb7 f i libucrt:output.obj
 0001:0002cdc0       ?state_case_normal_tchar@?$output_processor@_WV?$string_output_adapter@_W@__crt_stdio_output@@V?$standard_base@_WV?$string_output_adapter@_W@__crt_stdio_output@@@2@@__crt_stdio_output@@AAE_N_W@Z 1002ddc0 f i libucrt:output.obj
 0001:0002cdc9       ?state_case_percent@?$output_processor@DV?$stream_output_adapter@D@__crt_stdio_output@@V?$format_validation_base@DV?$stream_output_adapter@D@__crt_stdio_output@@@2@@__crt_stdio_output@@AAE_NXZ 1002ddc9 f i libucrt:output.obj
 0001:0002cde1       ?state_case_percent@?$output_processor@DV?$stream_output_adapter@D@__crt_stdio_output@@V?$positional_parameter_base@DV?$stream_output_adapter@D@__crt_stdio_output@@@2@@__crt_stdio_output@@AAE_NXZ 1002dde1 f i libucrt:output.obj
 0001:0002cdf9       ?state_case_percent@?$output_processor@DV?$stream_output_adapter@D@__crt_stdio_output@@V?$standard_base@DV?$stream_output_adapter@D@__crt_stdio_output@@@2@@__crt_stdio_output@@AAE_NXZ 1002ddf9 f i libucrt:output.obj
 0001:0002ce11       ?state_case_percent@?$output_processor@DV?$string_output_adapter@D@__crt_stdio_output@@V?$format_validation_base@DV?$string_output_adapter@D@__crt_stdio_output@@@2@@__crt_stdio_output@@AAE_NXZ 1002de11 f i libucrt:output.obj
 0001:0002ce29       ?state_case_percent@?$output_processor@DV?$string_output_adapter@D@__crt_stdio_output@@V?$positional_parameter_base@DV?$string_output_adapter@D@__crt_stdio_output@@@2@@__crt_stdio_output@@AAE_NXZ 1002de29 f i libucrt:output.obj
 0001:0002ce41       ?state_case_percent@?$output_processor@DV?$string_output_adapter@D@__crt_stdio_output@@V?$standard_base@DV?$string_output_adapter@D@__crt_stdio_output@@@2@@__crt_stdio_output@@AAE_NXZ 1002de41 f i libucrt:output.obj
 0001:0002ce59       ?state_case_percent@?$output_processor@_WV?$stream_output_adapter@_W@__crt_stdio_output@@V?$format_validation_base@_WV?$stream_output_adapter@_W@__crt_stdio_output@@@2@@__crt_stdio_output@@AAE_NXZ 1002de59 f i libucrt:output.obj
 0001:0002ce71       ?state_case_percent@?$output_processor@_WV?$stream_output_adapter@_W@__crt_stdio_output@@V?$positional_parameter_base@_WV?$stream_output_adapter@_W@__crt_stdio_output@@@2@@__crt_stdio_output@@AAE_NXZ 1002de71 f i libucrt:output.obj
 0001:0002ce89       ?state_case_percent@?$output_processor@_WV?$stream_output_adapter@_W@__crt_stdio_output@@V?$standard_base@_WV?$stream_output_adapter@_W@__crt_stdio_output@@@2@@__crt_stdio_output@@AAE_NXZ 1002de89 f i libucrt:output.obj
 0001:0002cea1       ?state_case_percent@?$output_processor@_WV?$string_output_adapter@_W@__crt_stdio_output@@V?$format_validation_base@_WV?$string_output_adapter@_W@__crt_stdio_output@@@2@@__crt_stdio_output@@AAE_NXZ 1002dea1 f i libucrt:output.obj
 0001:0002ceb9       ?state_case_percent@?$output_processor@_WV?$string_output_adapter@_W@__crt_stdio_output@@V?$positional_parameter_base@_WV?$string_output_adapter@_W@__crt_stdio_output@@@2@@__crt_stdio_output@@AAE_NXZ 1002deb9 f i libucrt:output.obj
 0001:0002ced1       ?state_case_percent@?$output_processor@_WV?$string_output_adapter@_W@__crt_stdio_output@@V?$standard_base@_WV?$string_output_adapter@_W@__crt_stdio_output@@@2@@__crt_stdio_output@@AAE_NXZ 1002ded1 f i libucrt:output.obj
 0001:0002cee9       ?state_case_precision@?$output_processor@DV?$stream_output_adapter@D@__crt_stdio_output@@V?$format_validation_base@DV?$stream_output_adapter@D@__crt_stdio_output@@@2@@__crt_stdio_output@@AAE_NXZ 1002dee9 f i libucrt:output.obj
 0001:0002cf15       ?state_case_precision@?$output_processor@DV?$stream_output_adapter@D@__crt_stdio_output@@V?$positional_parameter_base@DV?$stream_output_adapter@D@__crt_stdio_output@@@2@@__crt_stdio_output@@AAE_NXZ 1002df15 f i libucrt:output.obj
 0001:0002cf4f       ?state_case_precision@?$output_processor@DV?$stream_output_adapter@D@__crt_stdio_output@@V?$standard_base@DV?$stream_output_adapter@D@__crt_stdio_output@@@2@@__crt_stdio_output@@AAE_NXZ 1002df4f f i libucrt:output.obj
 0001:0002cf7b       ?state_case_precision@?$output_processor@DV?$string_output_adapter@D@__crt_stdio_output@@V?$format_validation_base@DV?$string_output_adapter@D@__crt_stdio_output@@@2@@__crt_stdio_output@@AAE_NXZ 1002df7b f i libucrt:output.obj
 0001:0002cfa7       ?state_case_precision@?$output_processor@DV?$string_output_adapter@D@__crt_stdio_output@@V?$positional_parameter_base@DV?$string_output_adapter@D@__crt_stdio_output@@@2@@__crt_stdio_output@@AAE_NXZ 1002dfa7 f i libucrt:output.obj
 0001:0002cfe1       ?state_case_precision@?$output_processor@DV?$string_output_adapter@D@__crt_stdio_output@@V?$standard_base@DV?$string_output_adapter@D@__crt_stdio_output@@@2@@__crt_stdio_output@@AAE_NXZ 1002dfe1 f i libucrt:output.obj
 0001:0002d00d       ?state_case_precision@?$output_processor@_WV?$stream_output_adapter@_W@__crt_stdio_output@@V?$format_validation_base@_WV?$stream_output_adapter@_W@__crt_stdio_output@@@2@@__crt_stdio_output@@AAE_NXZ 1002e00d f i libucrt:output.obj
 0001:0002d03a       ?state_case_precision@?$output_processor@_WV?$stream_output_adapter@_W@__crt_stdio_output@@V?$positional_parameter_base@_WV?$stream_output_adapter@_W@__crt_stdio_output@@@2@@__crt_stdio_output@@AAE_NXZ 1002e03a f i libucrt:output.obj
 0001:0002d075       ?state_case_precision@?$output_processor@_WV?$stream_output_adapter@_W@__crt_stdio_output@@V?$standard_base@_WV?$stream_output_adapter@_W@__crt_stdio_output@@@2@@__crt_stdio_output@@AAE_NXZ 1002e075 f i libucrt:output.obj
 0001:0002d0a2       ?state_case_precision@?$output_processor@_WV?$string_output_adapter@_W@__crt_stdio_output@@V?$format_validation_base@_WV?$string_output_adapter@_W@__crt_stdio_output@@@2@@__crt_stdio_output@@AAE_NXZ 1002e0a2 f i libucrt:output.obj
 0001:0002d0cf       ?state_case_precision@?$output_processor@_WV?$string_output_adapter@_W@__crt_stdio_output@@V?$positional_parameter_base@_WV?$string_output_adapter@_W@__crt_stdio_output@@@2@@__crt_stdio_output@@AAE_NXZ 1002e0cf f i libucrt:output.obj
 0001:0002d10a       ?state_case_precision@?$output_processor@_WV?$string_output_adapter@_W@__crt_stdio_output@@V?$standard_base@_WV?$string_output_adapter@_W@__crt_stdio_output@@@2@@__crt_stdio_output@@AAE_NXZ 1002e10a f i libucrt:output.obj
 0001:0002d137       ?state_case_size@?$output_processor@DV?$stream_output_adapter@D@__crt_stdio_output@@V?$format_validation_base@DV?$stream_output_adapter@D@__crt_stdio_output@@@2@@__crt_stdio_output@@AAE_NXZ 1002e137 f i libucrt:output.obj
 0001:0002d290       ?state_case_size@?$output_processor@DV?$stream_output_adapter@D@__crt_stdio_output@@V?$positional_parameter_base@DV?$stream_output_adapter@D@__crt_stdio_output@@@2@@__crt_stdio_output@@AAE_NXZ 1002e290 f i libucrt:output.obj
 0001:0002d3e9       ?state_case_size@?$output_processor@DV?$stream_output_adapter@D@__crt_stdio_output@@V?$standard_base@DV?$stream_output_adapter@D@__crt_stdio_output@@@2@@__crt_stdio_output@@AAE_NXZ 1002e3e9 f i libucrt:output.obj
 0001:0002d542       ?state_case_size@?$output_processor@DV?$string_output_adapter@D@__crt_stdio_output@@V?$format_validation_base@DV?$string_output_adapter@D@__crt_stdio_output@@@2@@__crt_stdio_output@@AAE_NXZ 1002e542 f i libucrt:output.obj
 0001:0002d69b       ?state_case_size@?$output_processor@DV?$string_output_adapter@D@__crt_stdio_output@@V?$positional_parameter_base@DV?$string_output_adapter@D@__crt_stdio_output@@@2@@__crt_stdio_output@@AAE_NXZ 1002e69b f i libucrt:output.obj
 0001:0002d7f4       ?state_case_size@?$output_processor@DV?$string_output_adapter@D@__crt_stdio_output@@V?$standard_base@DV?$string_output_adapter@D@__crt_stdio_output@@@2@@__crt_stdio_output@@AAE_NXZ 1002e7f4 f i libucrt:output.obj
 0001:0002d94d       ?state_case_size@?$output_processor@_WV?$stream_output_adapter@_W@__crt_stdio_output@@V?$format_validation_base@_WV?$stream_output_adapter@_W@__crt_stdio_output@@@2@@__crt_stdio_output@@AAE_NXZ 1002e94d f i libucrt:output.obj
 0001:0002dad7       ?state_case_size@?$output_processor@_WV?$stream_output_adapter@_W@__crt_stdio_output@@V?$positional_parameter_base@_WV?$stream_output_adapter@_W@__crt_stdio_output@@@2@@__crt_stdio_output@@AAE_NXZ 1002ead7 f i libucrt:output.obj
 0001:0002dc61       ?state_case_size@?$output_processor@_WV?$stream_output_adapter@_W@__crt_stdio_output@@V?$standard_base@_WV?$stream_output_adapter@_W@__crt_stdio_output@@@2@@__crt_stdio_output@@AAE_NXZ 1002ec61 f i libucrt:output.obj
 0001:0002ddeb       ?state_case_size@?$output_processor@_WV?$string_output_adapter@_W@__crt_stdio_output@@V?$format_validation_base@_WV?$string_output_adapter@_W@__crt_stdio_output@@@2@@__crt_stdio_output@@AAE_NXZ 1002edeb f i libucrt:output.obj
 0001:0002df75       ?state_case_size@?$output_processor@_WV?$string_output_adapter@_W@__crt_stdio_output@@V?$positional_parameter_base@_WV?$string_output_adapter@_W@__crt_stdio_output@@@2@@__crt_stdio_output@@AAE_NXZ 1002ef75 f i libucrt:output.obj
 0001:0002e0ff       ?state_case_size@?$output_processor@_WV?$string_output_adapter@_W@__crt_stdio_output@@V?$standard_base@_WV?$string_output_adapter@_W@__crt_stdio_output@@@2@@__crt_stdio_output@@AAE_NXZ 1002f0ff f i libucrt:output.obj
 0001:0002e289       ?state_case_type@?$output_processor@DV?$stream_output_adapter@D@__crt_stdio_output@@V?$format_validation_base@DV?$stream_output_adapter@D@__crt_stdio_output@@@2@@__crt_stdio_output@@AAE_NXZ 1002f289 f i libucrt:output.obj
 0001:0002e5cb       ?state_case_type@?$output_processor@DV?$stream_output_adapter@D@__crt_stdio_output@@V?$positional_parameter_base@DV?$stream_output_adapter@D@__crt_stdio_output@@@2@@__crt_stdio_output@@AAE_NXZ 1002f5cb f i libucrt:output.obj
 0001:0002e91c       ?state_case_type@?$output_processor@DV?$stream_output_adapter@D@__crt_stdio_output@@V?$standard_base@DV?$stream_output_adapter@D@__crt_stdio_output@@@2@@__crt_stdio_output@@AAE_NXZ 1002f91c f i libucrt:output.obj
 0001:0002ec5e       ?state_case_type@?$output_processor@DV?$string_output_adapter@D@__crt_stdio_output@@V?$format_validation_base@DV?$string_output_adapter@D@__crt_stdio_output@@@2@@__crt_stdio_output@@AAE_NXZ 1002fc5e f i libucrt:output.obj
 0001:0002efbd       ?state_case_type@?$output_processor@DV?$string_output_adapter@D@__crt_stdio_output@@V?$positional_parameter_base@DV?$string_output_adapter@D@__crt_stdio_output@@@2@@__crt_stdio_output@@AAE_NXZ 1002ffbd f i libucrt:output.obj
 0001:0002f32b       ?state_case_type@?$output_processor@DV?$string_output_adapter@D@__crt_stdio_output@@V?$standard_base@DV?$string_output_adapter@D@__crt_stdio_output@@@2@@__crt_stdio_output@@AAE_NXZ 1003032b f i libucrt:output.obj
 0001:0002f68a       ?state_case_type@?$output_processor@_WV?$stream_output_adapter@_W@__crt_stdio_output@@V?$format_validation_base@_WV?$stream_output_adapter@_W@__crt_stdio_output@@@2@@__crt_stdio_output@@AAE_NXZ 1003068a f i libucrt:output.obj
 0001:0002f9e8       ?state_case_type@?$output_processor@_WV?$stream_output_adapter@_W@__crt_stdio_output@@V?$positional_parameter_base@_WV?$stream_output_adapter@_W@__crt_stdio_output@@@2@@__crt_stdio_output@@AAE_NXZ 100309e8 f i libucrt:output.obj
 0001:0002fd55       ?state_case_type@?$output_processor@_WV?$stream_output_adapter@_W@__crt_stdio_output@@V?$standard_base@_WV?$stream_output_adapter@_W@__crt_stdio_output@@@2@@__crt_stdio_output@@AAE_NXZ 10030d55 f i libucrt:output.obj
 0001:000300b3       ?state_case_type@?$output_processor@_WV?$string_output_adapter@_W@__crt_stdio_output@@V?$format_validation_base@_WV?$string_output_adapter@_W@__crt_stdio_output@@@2@@__crt_stdio_output@@AAE_NXZ 100310b3 f i libucrt:output.obj
 0001:000304a7       ?state_case_type@?$output_processor@_WV?$string_output_adapter@_W@__crt_stdio_output@@V?$positional_parameter_base@_WV?$string_output_adapter@_W@__crt_stdio_output@@@2@@__crt_stdio_output@@AAE_NXZ 100314a7 f i libucrt:output.obj
 0001:000308aa       ?state_case_type@?$output_processor@_WV?$string_output_adapter@_W@__crt_stdio_output@@V?$standard_base@_WV?$string_output_adapter@_W@__crt_stdio_output@@@2@@__crt_stdio_output@@AAE_NXZ 100318aa f i libucrt:output.obj
 0001:00030c9e       ?state_case_width@?$output_processor@DV?$stream_output_adapter@D@__crt_stdio_output@@V?$format_validation_base@DV?$stream_output_adapter@D@__crt_stdio_output@@@2@@__crt_stdio_output@@AAE_NXZ 10031c9e f i libucrt:output.obj
 0001:00030ccf       ?state_case_width@?$output_processor@DV?$stream_output_adapter@D@__crt_stdio_output@@V?$positional_parameter_base@DV?$stream_output_adapter@D@__crt_stdio_output@@@2@@__crt_stdio_output@@AAE_NXZ 10031ccf f i libucrt:output.obj
 0001:00030d0f       ?state_case_width@?$output_processor@DV?$stream_output_adapter@D@__crt_stdio_output@@V?$standard_base@DV?$stream_output_adapter@D@__crt_stdio_output@@@2@@__crt_stdio_output@@AAE_NXZ 10031d0f f i libucrt:output.obj
 0001:00030d40       ?state_case_width@?$output_processor@DV?$string_output_adapter@D@__crt_stdio_output@@V?$format_validation_base@DV?$string_output_adapter@D@__crt_stdio_output@@@2@@__crt_stdio_output@@AAE_NXZ 10031d40 f i libucrt:output.obj
 0001:00030d71       ?state_case_width@?$output_processor@DV?$string_output_adapter@D@__crt_stdio_output@@V?$positional_parameter_base@DV?$string_output_adapter@D@__crt_stdio_output@@@2@@__crt_stdio_output@@AAE_NXZ 10031d71 f i libucrt:output.obj
 0001:00030db1       ?state_case_width@?$output_processor@DV?$string_output_adapter@D@__crt_stdio_output@@V?$standard_base@DV?$string_output_adapter@D@__crt_stdio_output@@@2@@__crt_stdio_output@@AAE_NXZ 10031db1 f i libucrt:output.obj
 0001:00030de2       ?state_case_width@?$output_processor@_WV?$stream_output_adapter@_W@__crt_stdio_output@@V?$format_validation_base@_WV?$stream_output_adapter@_W@__crt_stdio_output@@@2@@__crt_stdio_output@@AAE_NXZ 10031de2 f i libucrt:output.obj
 0001:00030e14       ?state_case_width@?$output_processor@_WV?$stream_output_adapter@_W@__crt_stdio_output@@V?$positional_parameter_base@_WV?$stream_output_adapter@_W@__crt_stdio_output@@@2@@__crt_stdio_output@@AAE_NXZ 10031e14 f i libucrt:output.obj
 0001:00030e55       ?state_case_width@?$output_processor@_WV?$stream_output_adapter@_W@__crt_stdio_output@@V?$standard_base@_WV?$stream_output_adapter@_W@__crt_stdio_output@@@2@@__crt_stdio_output@@AAE_NXZ 10031e55 f i libucrt:output.obj
 0001:00030e87       ?state_case_width@?$output_processor@_WV?$string_output_adapter@_W@__crt_stdio_output@@V?$format_validation_base@_WV?$string_output_adapter@_W@__crt_stdio_output@@@2@@__crt_stdio_output@@AAE_NXZ 10031e87 f i libucrt:output.obj
 0001:00030eb9       ?state_case_width@?$output_processor@_WV?$string_output_adapter@_W@__crt_stdio_output@@V?$positional_parameter_base@_WV?$string_output_adapter@_W@__crt_stdio_output@@@2@@__crt_stdio_output@@AAE_NXZ 10031eb9 f i libucrt:output.obj
 0001:00030efa       ?state_case_width@?$output_processor@_WV?$string_output_adapter@_W@__crt_stdio_output@@V?$standard_base@_WV?$string_output_adapter@_W@__crt_stdio_output@@@2@@__crt_stdio_output@@AAE_NXZ 10031efa f i libucrt:output.obj
 0001:00030f2c       ?state_count@?$format_validation_base@DV?$stream_output_adapter@D@__crt_stdio_output@@@__crt_stdio_output@@KAIXZ 10031f2c f i libucrt:output.obj
 0001:00030f30       ?state_count@?$format_validation_base@DV?$string_output_adapter@D@__crt_stdio_output@@@__crt_stdio_output@@KAIXZ 10031f30 f i libucrt:output.obj
 0001:00030f34       ?state_count@?$format_validation_base@_WV?$stream_output_adapter@_W@__crt_stdio_output@@@__crt_stdio_output@@KAIXZ 10031f34 f i libucrt:output.obj
 0001:00030f38       ?state_count@?$format_validation_base@_WV?$string_output_adapter@_W@__crt_stdio_output@@@__crt_stdio_output@@KAIXZ 10031f38 f i libucrt:output.obj
 0001:00030f3c       ?state_count@?$standard_base@DV?$stream_output_adapter@D@__crt_stdio_output@@@__crt_stdio_output@@KAIXZ 10031f3c f i libucrt:output.obj
 0001:00030f40       ?state_count@?$standard_base@DV?$string_output_adapter@D@__crt_stdio_output@@@__crt_stdio_output@@KAIXZ 10031f40 f i libucrt:output.obj
 0001:00030f44       ?state_count@?$standard_base@_WV?$stream_output_adapter@_W@__crt_stdio_output@@@__crt_stdio_output@@KAIXZ 10031f44 f i libucrt:output.obj
 0001:00030f48       ?state_count@?$standard_base@_WV?$string_output_adapter@_W@__crt_stdio_output@@@__crt_stdio_output@@KAIXZ 10031f48 f i libucrt:output.obj
 0001:00030f4c       ?state_transition_table@?$format_validation_base@DV?$stream_output_adapter@D@__crt_stdio_output@@@__crt_stdio_output@@KAABV?$spectre_mitigated_lookup_table@Ustate_transition_pair@__crt_stdio_output@@$0IA@@2@XZ 10031f4c f i libucrt:output.obj
 0001:00030f52       ?state_transition_table@?$format_validation_base@DV?$string_output_adapter@D@__crt_stdio_output@@@__crt_stdio_output@@KAABV?$spectre_mitigated_lookup_table@Ustate_transition_pair@__crt_stdio_output@@$0IA@@2@XZ 10031f52 f i libucrt:output.obj
 0001:00030f58       ?state_transition_table@?$format_validation_base@_WV?$stream_output_adapter@_W@__crt_stdio_output@@@__crt_stdio_output@@KAABV?$spectre_mitigated_lookup_table@Ustate_transition_pair@__crt_stdio_output@@$0IA@@2@XZ 10031f58 f i libucrt:output.obj
 0001:00030f5e       ?state_transition_table@?$format_validation_base@_WV?$string_output_adapter@_W@__crt_stdio_output@@@__crt_stdio_output@@KAABV?$spectre_mitigated_lookup_table@Ustate_transition_pair@__crt_stdio_output@@$0IA@@2@XZ 10031f5e f i libucrt:output.obj
 0001:00030f64       ?state_transition_table@?$standard_base@DV?$stream_output_adapter@D@__crt_stdio_output@@@__crt_stdio_output@@KAABV?$spectre_mitigated_lookup_table@Ustate_transition_pair@__crt_stdio_output@@$0IA@@2@XZ 10031f64 f i libucrt:output.obj
 0001:00030f6a       ?state_transition_table@?$standard_base@DV?$string_output_adapter@D@__crt_stdio_output@@@__crt_stdio_output@@KAABV?$spectre_mitigated_lookup_table@Ustate_transition_pair@__crt_stdio_output@@$0IA@@2@XZ 10031f6a f i libucrt:output.obj
 0001:00030f70       ?state_transition_table@?$standard_base@_WV?$stream_output_adapter@_W@__crt_stdio_output@@@__crt_stdio_output@@KAABV?$spectre_mitigated_lookup_table@Ustate_transition_pair@__crt_stdio_output@@$0IA@@2@XZ 10031f70 f i libucrt:output.obj
 0001:00030f76       ?state_transition_table@?$standard_base@_WV?$string_output_adapter@_W@__crt_stdio_output@@@__crt_stdio_output@@KAABV?$spectre_mitigated_lookup_table@Ustate_transition_pair@__crt_stdio_output@@$0IA@@2@XZ 10031f76 f i libucrt:output.obj
 0001:00030f7c       ?tchar_string@?$common_data@D@__crt_stdio_output@@IAEAAPADD@Z 10031f7c f i libucrt:output.obj
 0001:00030f82       ?tchar_string@?$common_data@D@__crt_stdio_output@@IAEAAPADXZ 10031f82 f i libucrt:output.obj
 0001:00030f86       ?tchar_string@?$common_data@_W@__crt_stdio_output@@IAEAAPA_WXZ 10031f86 f i libucrt:output.obj
 0001:00030f8a       ?tchar_string@?$common_data@_W@__crt_stdio_output@@IAEAAPA_W_W@Z 10031f8a f i libucrt:output.obj
 0001:00030f90       ?to_integer_size@__crt_stdio_output@@YAIW4length_modifier@1@@Z 10031f90 f i libucrt:output.obj
 0001:00030fe4       ?type_case_X@?$output_processor@DV?$stream_output_adapter@D@__crt_stdio_output@@V?$format_validation_base@DV?$stream_output_adapter@D@__crt_stdio_output@@@2@@__crt_stdio_output@@AAE_NXZ 10031fe4 f i libucrt:output.obj
 0001:00030fec       ?type_case_X@?$output_processor@DV?$stream_output_adapter@D@__crt_stdio_output@@V?$positional_parameter_base@DV?$stream_output_adapter@D@__crt_stdio_output@@@2@@__crt_stdio_output@@AAE_NXZ 10031fec f i libucrt:output.obj
 0001:00030ff4       ?type_case_X@?$output_processor@DV?$stream_output_adapter@D@__crt_stdio_output@@V?$standard_base@DV?$stream_output_adapter@D@__crt_stdio_output@@@2@@__crt_stdio_output@@AAE_NXZ 10031ff4 f i libucrt:output.obj
 0001:00030ffc       ?type_case_X@?$output_processor@DV?$string_output_adapter@D@__crt_stdio_output@@V?$format_validation_base@DV?$string_output_adapter@D@__crt_stdio_output@@@2@@__crt_stdio_output@@AAE_NXZ 10031ffc f i libucrt:output.obj
 0001:00031004       ?type_case_X@?$output_processor@DV?$string_output_adapter@D@__crt_stdio_output@@V?$positional_parameter_base@DV?$string_output_adapter@D@__crt_stdio_output@@@2@@__crt_stdio_output@@AAE_NXZ 10032004 f i libucrt:output.obj
 0001:0003100c       ?type_case_X@?$output_processor@DV?$string_output_adapter@D@__crt_stdio_output@@V?$standard_base@DV?$string_output_adapter@D@__crt_stdio_output@@@2@@__crt_stdio_output@@AAE_NXZ 1003200c f i libucrt:output.obj
 0001:00031014       ?type_case_X@?$output_processor@_WV?$stream_output_adapter@_W@__crt_stdio_output@@V?$format_validation_base@_WV?$stream_output_adapter@_W@__crt_stdio_output@@@2@@__crt_stdio_output@@AAE_NXZ 10032014 f i libucrt:output.obj
 0001:0003101c       ?type_case_X@?$output_processor@_WV?$stream_output_adapter@_W@__crt_stdio_output@@V?$positional_parameter_base@_WV?$stream_output_adapter@_W@__crt_stdio_output@@@2@@__crt_stdio_output@@AAE_NXZ 1003201c f i libucrt:output.obj
 0001:00031024       ?type_case_X@?$output_processor@_WV?$stream_output_adapter@_W@__crt_stdio_output@@V?$standard_base@_WV?$stream_output_adapter@_W@__crt_stdio_output@@@2@@__crt_stdio_output@@AAE_NXZ 10032024 f i libucrt:output.obj
 0001:0003102c       ?type_case_X@?$output_processor@_WV?$string_output_adapter@_W@__crt_stdio_output@@V?$format_validation_base@_WV?$string_output_adapter@_W@__crt_stdio_output@@@2@@__crt_stdio_output@@AAE_NXZ 1003202c f i libucrt:output.obj
 0001:00031034       ?type_case_X@?$output_processor@_WV?$string_output_adapter@_W@__crt_stdio_output@@V?$positional_parameter_base@_WV?$string_output_adapter@_W@__crt_stdio_output@@@2@@__crt_stdio_output@@AAE_NXZ 10032034 f i libucrt:output.obj
 0001:0003103c       ?type_case_X@?$output_processor@_WV?$string_output_adapter@_W@__crt_stdio_output@@V?$standard_base@_WV?$string_output_adapter@_W@__crt_stdio_output@@@2@@__crt_stdio_output@@AAE_NXZ 1003203c f i libucrt:output.obj
 0001:00031044       ?type_case_Z@?$output_processor@DV?$stream_output_adapter@D@__crt_stdio_output@@V?$format_validation_base@DV?$stream_output_adapter@D@__crt_stdio_output@@@2@@__crt_stdio_output@@AAE_NXZ 10032044 f i libucrt:output.obj
 0001:000310a7       ?type_case_Z@?$output_processor@DV?$stream_output_adapter@D@__crt_stdio_output@@V?$positional_parameter_base@DV?$stream_output_adapter@D@__crt_stdio_output@@@2@@__crt_stdio_output@@AAE_NXZ 100320a7 f i libucrt:output.obj
 0001:00031121       ?type_case_Z@?$output_processor@DV?$stream_output_adapter@D@__crt_stdio_output@@V?$standard_base@DV?$stream_output_adapter@D@__crt_stdio_output@@@2@@__crt_stdio_output@@AAE_NXZ 10032121 f i libucrt:output.obj
 0001:00031184       ?type_case_Z@?$output_processor@DV?$string_output_adapter@D@__crt_stdio_output@@V?$format_validation_base@DV?$string_output_adapter@D@__crt_stdio_output@@@2@@__crt_stdio_output@@AAE_NXZ 10032184 f i libucrt:output.obj
 0001:000311e7       ?type_case_Z@?$output_processor@DV?$string_output_adapter@D@__crt_stdio_output@@V?$positional_parameter_base@DV?$string_output_adapter@D@__crt_stdio_output@@@2@@__crt_stdio_output@@AAE_NXZ 100321e7 f i libucrt:output.obj
 0001:00031261       ?type_case_Z@?$output_processor@DV?$string_output_adapter@D@__crt_stdio_output@@V?$standard_base@DV?$string_output_adapter@D@__crt_stdio_output@@@2@@__crt_stdio_output@@AAE_NXZ 10032261 f i libucrt:output.obj
 0001:000312c4       ?type_case_Z@?$output_processor@_WV?$stream_output_adapter@_W@__crt_stdio_output@@V?$format_validation_base@_WV?$stream_output_adapter@_W@__crt_stdio_output@@@2@@__crt_stdio_output@@AAE_NXZ 100322c4 f i libucrt:output.obj
 0001:00031327       ?type_case_Z@?$output_processor@_WV?$stream_output_adapter@_W@__crt_stdio_output@@V?$positional_parameter_base@_WV?$stream_output_adapter@_W@__crt_stdio_output@@@2@@__crt_stdio_output@@AAE_NXZ 10032327 f i libucrt:output.obj
 0001:000313a1       ?type_case_Z@?$output_processor@_WV?$stream_output_adapter@_W@__crt_stdio_output@@V?$standard_base@_WV?$stream_output_adapter@_W@__crt_stdio_output@@@2@@__crt_stdio_output@@AAE_NXZ 100323a1 f i libucrt:output.obj
 0001:00031404       ?type_case_Z@?$output_processor@_WV?$string_output_adapter@_W@__crt_stdio_output@@V?$format_validation_base@_WV?$string_output_adapter@_W@__crt_stdio_output@@@2@@__crt_stdio_output@@AAE_NXZ 10032404 f i libucrt:output.obj
 0001:00031467       ?type_case_Z@?$output_processor@_WV?$string_output_adapter@_W@__crt_stdio_output@@V?$positional_parameter_base@_WV?$string_output_adapter@_W@__crt_stdio_output@@@2@@__crt_stdio_output@@AAE_NXZ 10032467 f i libucrt:output.obj
 0001:000314e1       ?type_case_Z@?$output_processor@_WV?$string_output_adapter@_W@__crt_stdio_output@@V?$standard_base@_WV?$string_output_adapter@_W@__crt_stdio_output@@@2@@__crt_stdio_output@@AAE_NXZ 100324e1 f i libucrt:output.obj
 0001:00031544       ?type_case_a@?$output_processor@DV?$stream_output_adapter@D@__crt_stdio_output@@V?$format_validation_base@DV?$stream_output_adapter@D@__crt_stdio_output@@@2@@__crt_stdio_output@@AAE_NXZ 10032544 f i libucrt:output.obj
 0001:000316d5       ?type_case_a@?$output_processor@DV?$stream_output_adapter@D@__crt_stdio_output@@V?$positional_parameter_base@DV?$stream_output_adapter@D@__crt_stdio_output@@@2@@__crt_stdio_output@@AAE_NXZ 100326d5 f i libucrt:output.obj
 0001:00031883       ?type_case_a@?$output_processor@DV?$stream_output_adapter@D@__crt_stdio_output@@V?$standard_base@DV?$stream_output_adapter@D@__crt_stdio_output@@@2@@__crt_stdio_output@@AAE_NXZ 10032883 f i libucrt:output.obj
 0001:00031a14       ?type_case_a@?$output_processor@DV?$string_output_adapter@D@__crt_stdio_output@@V?$format_validation_base@DV?$string_output_adapter@D@__crt_stdio_output@@@2@@__crt_stdio_output@@AAE_NXZ 10032a14 f i libucrt:output.obj
 0001:00031ba5       ?type_case_a@?$output_processor@DV?$string_output_adapter@D@__crt_stdio_output@@V?$positional_parameter_base@DV?$string_output_adapter@D@__crt_stdio_output@@@2@@__crt_stdio_output@@AAE_NXZ 10032ba5 f i libucrt:output.obj
 0001:00031d53       ?type_case_a@?$output_processor@DV?$string_output_adapter@D@__crt_stdio_output@@V?$standard_base@DV?$string_output_adapter@D@__crt_stdio_output@@@2@@__crt_stdio_output@@AAE_NXZ 10032d53 f i libucrt:output.obj
 0001:00031ee4       ?type_case_a@?$output_processor@_WV?$stream_output_adapter@_W@__crt_stdio_output@@V?$format_validation_base@_WV?$stream_output_adapter@_W@__crt_stdio_output@@@2@@__crt_stdio_output@@AAE_NXZ 10032ee4 f i libucrt:output.obj
 0001:0003208b       ?type_case_a@?$output_processor@_WV?$stream_output_adapter@_W@__crt_stdio_output@@V?$positional_parameter_base@_WV?$stream_output_adapter@_W@__crt_stdio_output@@@2@@__crt_stdio_output@@AAE_NXZ 1003308b f i libucrt:output.obj
 0001:0003224f       ?type_case_a@?$output_processor@_WV?$stream_output_adapter@_W@__crt_stdio_output@@V?$standard_base@_WV?$stream_output_adapter@_W@__crt_stdio_output@@@2@@__crt_stdio_output@@AAE_NXZ 1003324f f i libucrt:output.obj
 0001:000323f6       ?type_case_a@?$output_processor@_WV?$string_output_adapter@_W@__crt_stdio_output@@V?$format_validation_base@_WV?$string_output_adapter@_W@__crt_stdio_output@@@2@@__crt_stdio_output@@AAE_NXZ 100333f6 f i libucrt:output.obj
 0001:0003259d       ?type_case_a@?$output_processor@_WV?$string_output_adapter@_W@__crt_stdio_output@@V?$positional_parameter_base@_WV?$string_output_adapter@_W@__crt_stdio_output@@@2@@__crt_stdio_output@@AAE_NXZ 1003359d f i libucrt:output.obj
 0001:00032761       ?type_case_a@?$output_processor@_WV?$string_output_adapter@_W@__crt_stdio_output@@V?$standard_base@_WV?$string_output_adapter@_W@__crt_stdio_output@@@2@@__crt_stdio_output@@AAE_NXZ 10033761 f i libucrt:output.obj
 0001:00032908       ?type_case_c@?$output_processor@DV?$stream_output_adapter@D@__crt_stdio_output@@V?$format_validation_base@DV?$stream_output_adapter@D@__crt_stdio_output@@@2@@__crt_stdio_output@@AAE_NXZ 10033908 f i libucrt:output.obj
 0001:00032910       ?type_case_c@?$output_processor@DV?$stream_output_adapter@D@__crt_stdio_output@@V?$positional_parameter_base@DV?$stream_output_adapter@D@__crt_stdio_output@@@2@@__crt_stdio_output@@AAE_NXZ 10033910 f i libucrt:output.obj
 0001:00032918       ?type_case_c@?$output_processor@DV?$stream_output_adapter@D@__crt_stdio_output@@V?$standard_base@DV?$stream_output_adapter@D@__crt_stdio_output@@@2@@__crt_stdio_output@@AAE_NXZ 10033918 f i libucrt:output.obj
 0001:00032920       ?type_case_c@?$output_processor@DV?$string_output_adapter@D@__crt_stdio_output@@V?$format_validation_base@DV?$string_output_adapter@D@__crt_stdio_output@@@2@@__crt_stdio_output@@AAE_NXZ 10033920 f i libucrt:output.obj
 0001:00032928       ?type_case_c@?$output_processor@DV?$string_output_adapter@D@__crt_stdio_output@@V?$positional_parameter_base@DV?$string_output_adapter@D@__crt_stdio_output@@@2@@__crt_stdio_output@@AAE_NXZ 10033928 f i libucrt:output.obj
 0001:00032930       ?type_case_c@?$output_processor@DV?$string_output_adapter@D@__crt_stdio_output@@V?$standard_base@DV?$string_output_adapter@D@__crt_stdio_output@@@2@@__crt_stdio_output@@AAE_NXZ 10033930 f i libucrt:output.obj
 0001:00032938       ?type_case_c@?$output_processor@_WV?$stream_output_adapter@_W@__crt_stdio_output@@V?$format_validation_base@_WV?$stream_output_adapter@_W@__crt_stdio_output@@@2@@__crt_stdio_output@@AAE_NXZ 10033938 f i libucrt:output.obj
 0001:00032940       ?type_case_c@?$output_processor@_WV?$stream_output_adapter@_W@__crt_stdio_output@@V?$positional_parameter_base@_WV?$stream_output_adapter@_W@__crt_stdio_output@@@2@@__crt_stdio_output@@AAE_NXZ 10033940 f i libucrt:output.obj
 0001:00032948       ?type_case_c@?$output_processor@_WV?$stream_output_adapter@_W@__crt_stdio_output@@V?$standard_base@_WV?$stream_output_adapter@_W@__crt_stdio_output@@@2@@__crt_stdio_output@@AAE_NXZ 10033948 f i libucrt:output.obj
 0001:00032950       ?type_case_c@?$output_processor@_WV?$string_output_adapter@_W@__crt_stdio_output@@V?$format_validation_base@_WV?$string_output_adapter@_W@__crt_stdio_output@@@2@@__crt_stdio_output@@AAE_NXZ 10033950 f i libucrt:output.obj
 0001:00032958       ?type_case_c@?$output_processor@_WV?$string_output_adapter@_W@__crt_stdio_output@@V?$positional_parameter_base@_WV?$string_output_adapter@_W@__crt_stdio_output@@@2@@__crt_stdio_output@@AAE_NXZ 10033958 f i libucrt:output.obj
 0001:00032960       ?type_case_c@?$output_processor@_WV?$string_output_adapter@_W@__crt_stdio_output@@V?$standard_base@_WV?$string_output_adapter@_W@__crt_stdio_output@@@2@@__crt_stdio_output@@AAE_NXZ 10033960 f i libucrt:output.obj
 0001:00032968       ?type_case_c_tchar@?$output_processor@DV?$stream_output_adapter@D@__crt_stdio_output@@V?$format_validation_base@DV?$stream_output_adapter@D@__crt_stdio_output@@@2@@__crt_stdio_output@@AAE_ND@Z 10033968 f i libucrt:output.obj
 0001:000329fd       ?type_case_c_tchar@?$output_processor@DV?$stream_output_adapter@D@__crt_stdio_output@@V?$positional_parameter_base@DV?$stream_output_adapter@D@__crt_stdio_output@@@2@@__crt_stdio_output@@AAE_ND@Z 100339fd f i libucrt:output.obj
 0001:00032abc       ?type_case_c_tchar@?$output_processor@DV?$stream_output_adapter@D@__crt_stdio_output@@V?$standard_base@DV?$stream_output_adapter@D@__crt_stdio_output@@@2@@__crt_stdio_output@@AAE_ND@Z 10033abc f i libucrt:output.obj
 0001:00032b51       ?type_case_c_tchar@?$output_processor@DV?$string_output_adapter@D@__crt_stdio_output@@V?$format_validation_base@DV?$string_output_adapter@D@__crt_stdio_output@@@2@@__crt_stdio_output@@AAE_ND@Z 10033b51 f i libucrt:output.obj
 0001:00032be6       ?type_case_c_tchar@?$output_processor@DV?$string_output_adapter@D@__crt_stdio_output@@V?$positional_parameter_base@DV?$string_output_adapter@D@__crt_stdio_output@@@2@@__crt_stdio_output@@AAE_ND@Z 10033be6 f i libucrt:output.obj
 0001:00032ca5       ?type_case_c_tchar@?$output_processor@DV?$string_output_adapter@D@__crt_stdio_output@@V?$standard_base@DV?$string_output_adapter@D@__crt_stdio_output@@@2@@__crt_stdio_output@@AAE_ND@Z 10033ca5 f i libucrt:output.obj
 0001:00032d3a       ?type_case_c_tchar@?$output_processor@_WV?$stream_output_adapter@_W@__crt_stdio_output@@V?$format_validation_base@_WV?$stream_output_adapter@_W@__crt_stdio_output@@@2@@__crt_stdio_output@@AAE_N_W@Z 10033d3a f i libucrt:output.obj
 0001:00032de2       ?type_case_c_tchar@?$output_processor@_WV?$stream_output_adapter@_W@__crt_stdio_output@@V?$positional_parameter_base@_WV?$stream_output_adapter@_W@__crt_stdio_output@@@2@@__crt_stdio_output@@AAE_N_W@Z 10033de2 f i libucrt:output.obj
 0001:00032ead       ?type_case_c_tchar@?$output_processor@_WV?$stream_output_adapter@_W@__crt_stdio_output@@V?$standard_base@_WV?$stream_output_adapter@_W@__crt_stdio_output@@@2@@__crt_stdio_output@@AAE_N_W@Z 10033ead f i libucrt:output.obj
 0001:00032f55       ?type_case_c_tchar@?$output_processor@_WV?$string_output_adapter@_W@__crt_stdio_output@@V?$format_validation_base@_WV?$string_output_adapter@_W@__crt_stdio_output@@@2@@__crt_stdio_output@@AAE_N_W@Z 10033f55 f i libucrt:output.obj
 0001:00032ffd       ?type_case_c_tchar@?$output_processor@_WV?$string_output_adapter@_W@__crt_stdio_output@@V?$positional_parameter_base@_WV?$string_output_adapter@_W@__crt_stdio_output@@@2@@__crt_stdio_output@@AAE_N_W@Z 10033ffd f i libucrt:output.obj
 0001:000330c8       ?type_case_c_tchar@?$output_processor@_WV?$string_output_adapter@_W@__crt_stdio_output@@V?$standard_base@_WV?$string_output_adapter@_W@__crt_stdio_output@@@2@@__crt_stdio_output@@AAE_N_W@Z 100340c8 f i libucrt:output.obj
 0001:00033170       ?type_case_d@?$output_processor@DV?$stream_output_adapter@D@__crt_stdio_output@@V?$format_validation_base@DV?$stream_output_adapter@D@__crt_stdio_output@@@2@@__crt_stdio_output@@AAE_NXZ 10034170 f i libucrt:output.obj
 0001:0003317c       ?type_case_d@?$output_processor@DV?$stream_output_adapter@D@__crt_stdio_output@@V?$positional_parameter_base@DV?$stream_output_adapter@D@__crt_stdio_output@@@2@@__crt_stdio_output@@AAE_NXZ 1003417c f i libucrt:output.obj
 0001:00033188       ?type_case_d@?$output_processor@DV?$stream_output_adapter@D@__crt_stdio_output@@V?$standard_base@DV?$stream_output_adapter@D@__crt_stdio_output@@@2@@__crt_stdio_output@@AAE_NXZ 10034188 f i libucrt:output.obj
 0001:00033194       ?type_case_d@?$output_processor@DV?$string_output_adapter@D@__crt_stdio_output@@V?$format_validation_base@DV?$string_output_adapter@D@__crt_stdio_output@@@2@@__crt_stdio_output@@AAE_NXZ 10034194 f i libucrt:output.obj
 0001:000331a0       ?type_case_d@?$output_processor@DV?$string_output_adapter@D@__crt_stdio_output@@V?$positional_parameter_base@DV?$string_output_adapter@D@__crt_stdio_output@@@2@@__crt_stdio_output@@AAE_NXZ 100341a0 f i libucrt:output.obj
 0001:000331ac       ?type_case_d@?$output_processor@DV?$string_output_adapter@D@__crt_stdio_output@@V?$standard_base@DV?$string_output_adapter@D@__crt_stdio_output@@@2@@__crt_stdio_output@@AAE_NXZ 100341ac f i libucrt:output.obj
 0001:000331b8       ?type_case_d@?$output_processor@_WV?$stream_output_adapter@_W@__crt_stdio_output@@V?$format_validation_base@_WV?$stream_output_adapter@_W@__crt_stdio_output@@@2@@__crt_stdio_output@@AAE_NXZ 100341b8 f i libucrt:output.obj
 0001:000331c4       ?type_case_d@?$output_processor@_WV?$stream_output_adapter@_W@__crt_stdio_output@@V?$positional_parameter_base@_WV?$stream_output_adapter@_W@__crt_stdio_output@@@2@@__crt_stdio_output@@AAE_NXZ 100341c4 f i libucrt:output.obj
 0001:000331d0       ?type_case_d@?$output_processor@_WV?$stream_output_adapter@_W@__crt_stdio_output@@V?$standard_base@_WV?$stream_output_adapter@_W@__crt_stdio_output@@@2@@__crt_stdio_output@@AAE_NXZ 100341d0 f i libucrt:output.obj
 0001:000331dc       ?type_case_d@?$output_processor@_WV?$string_output_adapter@_W@__crt_stdio_output@@V?$format_validation_base@_WV?$string_output_adapter@_W@__crt_stdio_output@@@2@@__crt_stdio_output@@AAE_NXZ 100341dc f i libucrt:output.obj
 0001:000331e8       ?type_case_d@?$output_processor@_WV?$string_output_adapter@_W@__crt_stdio_output@@V?$positional_parameter_base@_WV?$string_output_adapter@_W@__crt_stdio_output@@@2@@__crt_stdio_output@@AAE_NXZ 100341e8 f i libucrt:output.obj
 0001:000331f4       ?type_case_d@?$output_processor@_WV?$string_output_adapter@_W@__crt_stdio_output@@V?$standard_base@_WV?$string_output_adapter@_W@__crt_stdio_output@@@2@@__crt_stdio_output@@AAE_NXZ 100341f4 f i libucrt:output.obj
 0001:00033200       ?type_case_n@?$output_processor@DV?$stream_output_adapter@D@__crt_stdio_output@@V?$format_validation_base@DV?$stream_output_adapter@D@__crt_stdio_output@@@2@@__crt_stdio_output@@AAE_NXZ 10034200 f i libucrt:output.obj
 0001:00033285       ?type_case_n@?$output_processor@DV?$stream_output_adapter@D@__crt_stdio_output@@V?$positional_parameter_base@DV?$stream_output_adapter@D@__crt_stdio_output@@@2@@__crt_stdio_output@@AAE_NXZ 10034285 f i libucrt:output.obj
 0001:00033332       ?type_case_n@?$output_processor@DV?$stream_output_adapter@D@__crt_stdio_output@@V?$standard_base@DV?$stream_output_adapter@D@__crt_stdio_output@@@2@@__crt_stdio_output@@AAE_NXZ 10034332 f i libucrt:output.obj
 0001:000333b7       ?type_case_n@?$output_processor@DV?$string_output_adapter@D@__crt_stdio_output@@V?$format_validation_base@DV?$string_output_adapter@D@__crt_stdio_output@@@2@@__crt_stdio_output@@AAE_NXZ 100343b7 f i libucrt:output.obj
 0001:0003343c       ?type_case_n@?$output_processor@DV?$string_output_adapter@D@__crt_stdio_output@@V?$positional_parameter_base@DV?$string_output_adapter@D@__crt_stdio_output@@@2@@__crt_stdio_output@@AAE_NXZ 1003443c f i libucrt:output.obj
 0001:000334e9       ?type_case_n@?$output_processor@DV?$string_output_adapter@D@__crt_stdio_output@@V?$standard_base@DV?$string_output_adapter@D@__crt_stdio_output@@@2@@__crt_stdio_output@@AAE_NXZ 100344e9 f i libucrt:output.obj
 0001:0003356e       ?type_case_n@?$output_processor@_WV?$stream_output_adapter@_W@__crt_stdio_output@@V?$format_validation_base@_WV?$stream_output_adapter@_W@__crt_stdio_output@@@2@@__crt_stdio_output@@AAE_NXZ 1003456e f i libucrt:output.obj
 0001:000335f3       ?type_case_n@?$output_processor@_WV?$stream_output_adapter@_W@__crt_stdio_output@@V?$positional_parameter_base@_WV?$stream_output_adapter@_W@__crt_stdio_output@@@2@@__crt_stdio_output@@AAE_NXZ 100345f3 f i libucrt:output.obj
 0001:000336a0       ?type_case_n@?$output_processor@_WV?$stream_output_adapter@_W@__crt_stdio_output@@V?$standard_base@_WV?$stream_output_adapter@_W@__crt_stdio_output@@@2@@__crt_stdio_output@@AAE_NXZ 100346a0 f i libucrt:output.obj
 0001:00033725       ?type_case_n@?$output_processor@_WV?$string_output_adapter@_W@__crt_stdio_output@@V?$format_validation_base@_WV?$string_output_adapter@_W@__crt_stdio_output@@@2@@__crt_stdio_output@@AAE_NXZ 10034725 f i libucrt:output.obj
 0001:000337aa       ?type_case_n@?$output_processor@_WV?$string_output_adapter@_W@__crt_stdio_output@@V?$positional_parameter_base@_WV?$string_output_adapter@_W@__crt_stdio_output@@@2@@__crt_stdio_output@@AAE_NXZ 100347aa f i libucrt:output.obj
 0001:00033857       ?type_case_n@?$output_processor@_WV?$string_output_adapter@_W@__crt_stdio_output@@V?$standard_base@_WV?$string_output_adapter@_W@__crt_stdio_output@@@2@@__crt_stdio_output@@AAE_NXZ 10034857 f i libucrt:output.obj
 0001:000338dc       ?type_case_o@?$output_processor@DV?$stream_output_adapter@D@__crt_stdio_output@@V?$format_validation_base@DV?$stream_output_adapter@D@__crt_stdio_output@@@2@@__crt_stdio_output@@AAE_NXZ 100348dc f i libucrt:output.obj
 0001:000338f9       ?type_case_o@?$output_processor@DV?$stream_output_adapter@D@__crt_stdio_output@@V?$positional_parameter_base@DV?$stream_output_adapter@D@__crt_stdio_output@@@2@@__crt_stdio_output@@AAE_NXZ 100348f9 f i libucrt:output.obj
 0001:00033916       ?type_case_o@?$output_processor@DV?$stream_output_adapter@D@__crt_stdio_output@@V?$standard_base@DV?$stream_output_adapter@D@__crt_stdio_output@@@2@@__crt_stdio_output@@AAE_NXZ 10034916 f i libucrt:output.obj
 0001:00033933       ?type_case_o@?$output_processor@DV?$string_output_adapter@D@__crt_stdio_output@@V?$format_validation_base@DV?$string_output_adapter@D@__crt_stdio_output@@@2@@__crt_stdio_output@@AAE_NXZ 10034933 f i libucrt:output.obj
 0001:00033950       ?type_case_o@?$output_processor@DV?$string_output_adapter@D@__crt_stdio_output@@V?$positional_parameter_base@DV?$string_output_adapter@D@__crt_stdio_output@@@2@@__crt_stdio_output@@AAE_NXZ 10034950 f i libucrt:output.obj
 0001:0003396d       ?type_case_o@?$output_processor@DV?$string_output_adapter@D@__crt_stdio_output@@V?$standard_base@DV?$string_output_adapter@D@__crt_stdio_output@@@2@@__crt_stdio_output@@AAE_NXZ 1003496d f i libucrt:output.obj
 0001:0003398a       ?type_case_o@?$output_processor@_WV?$stream_output_adapter@_W@__crt_stdio_output@@V?$format_validation_base@_WV?$stream_output_adapter@_W@__crt_stdio_output@@@2@@__crt_stdio_output@@AAE_NXZ 1003498a f i libucrt:output.obj
 0001:000339a7       ?type_case_o@?$output_processor@_WV?$stream_output_adapter@_W@__crt_stdio_output@@V?$positional_parameter_base@_WV?$stream_output_adapter@_W@__crt_stdio_output@@@2@@__crt_stdio_output@@AAE_NXZ 100349a7 f i libucrt:output.obj
 0001:000339c4       ?type_case_o@?$output_processor@_WV?$stream_output_adapter@_W@__crt_stdio_output@@V?$standard_base@_WV?$stream_output_adapter@_W@__crt_stdio_output@@@2@@__crt_stdio_output@@AAE_NXZ 100349c4 f i libucrt:output.obj
 0001:000339e1       ?type_case_o@?$output_processor@_WV?$string_output_adapter@_W@__crt_stdio_output@@V?$format_validation_base@_WV?$string_output_adapter@_W@__crt_stdio_output@@@2@@__crt_stdio_output@@AAE_NXZ 100349e1 f i libucrt:output.obj
 0001:000339fe       ?type_case_o@?$output_processor@_WV?$string_output_adapter@_W@__crt_stdio_output@@V?$positional_parameter_base@_WV?$string_output_adapter@_W@__crt_stdio_output@@@2@@__crt_stdio_output@@AAE_NXZ 100349fe f i libucrt:output.obj
 0001:00033a1b       ?type_case_o@?$output_processor@_WV?$string_output_adapter@_W@__crt_stdio_output@@V?$standard_base@_WV?$string_output_adapter@_W@__crt_stdio_output@@@2@@__crt_stdio_output@@AAE_NXZ 10034a1b f i libucrt:output.obj
 0001:00033a38       ?type_case_p@?$output_processor@DV?$stream_output_adapter@D@__crt_stdio_output@@V?$format_validation_base@DV?$stream_output_adapter@D@__crt_stdio_output@@@2@@__crt_stdio_output@@AAE_NXZ 10034a38 f i libucrt:output.obj
 0001:00033a4e       ?type_case_p@?$output_processor@DV?$stream_output_adapter@D@__crt_stdio_output@@V?$positional_parameter_base@DV?$stream_output_adapter@D@__crt_stdio_output@@@2@@__crt_stdio_output@@AAE_NXZ 10034a4e f i libucrt:output.obj
 0001:00033a64       ?type_case_p@?$output_processor@DV?$stream_output_adapter@D@__crt_stdio_output@@V?$standard_base@DV?$stream_output_adapter@D@__crt_stdio_output@@@2@@__crt_stdio_output@@AAE_NXZ 10034a64 f i libucrt:output.obj
 0001:00033a7a       ?type_case_p@?$output_processor@DV?$string_output_adapter@D@__crt_stdio_output@@V?$format_validation_base@DV?$string_output_adapter@D@__crt_stdio_output@@@2@@__crt_stdio_output@@AAE_NXZ 10034a7a f i libucrt:output.obj
 0001:00033a90       ?type_case_p@?$output_processor@DV?$string_output_adapter@D@__crt_stdio_output@@V?$positional_parameter_base@DV?$string_output_adapter@D@__crt_stdio_output@@@2@@__crt_stdio_output@@AAE_NXZ 10034a90 f i libucrt:output.obj
 0001:00033aa6       ?type_case_p@?$output_processor@DV?$string_output_adapter@D@__crt_stdio_output@@V?$standard_base@DV?$string_output_adapter@D@__crt_stdio_output@@@2@@__crt_stdio_output@@AAE_NXZ 10034aa6 f i libucrt:output.obj
 0001:00033abc       ?type_case_p@?$output_processor@_WV?$stream_output_adapter@_W@__crt_stdio_output@@V?$format_validation_base@_WV?$stream_output_adapter@_W@__crt_stdio_output@@@2@@__crt_stdio_output@@AAE_NXZ 10034abc f i libucrt:output.obj
 0001:00033ad2       ?type_case_p@?$output_processor@_WV?$stream_output_adapter@_W@__crt_stdio_output@@V?$positional_parameter_base@_WV?$stream_output_adapter@_W@__crt_stdio_output@@@2@@__crt_stdio_output@@AAE_NXZ 10034ad2 f i libucrt:output.obj
 0001:00033ae8       ?type_case_p@?$output_processor@_WV?$stream_output_adapter@_W@__crt_stdio_output@@V?$standard_base@_WV?$stream_output_adapter@_W@__crt_stdio_output@@@2@@__crt_stdio_output@@AAE_NXZ 10034ae8 f i libucrt:output.obj
 0001:00033afe       ?type_case_p@?$output_processor@_WV?$string_output_adapter@_W@__crt_stdio_output@@V?$format_validation_base@_WV?$string_output_adapter@_W@__crt_stdio_output@@@2@@__crt_stdio_output@@AAE_NXZ 10034afe f i libucrt:output.obj
 0001:00033b14       ?type_case_p@?$output_processor@_WV?$string_output_adapter@_W@__crt_stdio_output@@V?$positional_parameter_base@_WV?$string_output_adapter@_W@__crt_stdio_output@@@2@@__crt_stdio_output@@AAE_NXZ 10034b14 f i libucrt:output.obj
 0001:00033b2a       ?type_case_p@?$output_processor@_WV?$string_output_adapter@_W@__crt_stdio_output@@V?$standard_base@_WV?$string_output_adapter@_W@__crt_stdio_output@@@2@@__crt_stdio_output@@AAE_NXZ 10034b2a f i libucrt:output.obj
 0001:00033b40       ?type_case_s@?$output_processor@DV?$stream_output_adapter@D@__crt_stdio_output@@V?$format_validation_base@DV?$stream_output_adapter@D@__crt_stdio_output@@@2@@__crt_stdio_output@@AAE_NXZ 10034b40 f i libucrt:output.obj
 0001:00033bb2       ?type_case_s@?$output_processor@DV?$stream_output_adapter@D@__crt_stdio_output@@V?$positional_parameter_base@DV?$stream_output_adapter@D@__crt_stdio_output@@@2@@__crt_stdio_output@@AAE_NXZ 10034bb2 f i libucrt:output.obj
 0001:00033c30       ?type_case_s@?$output_processor@DV?$stream_output_adapter@D@__crt_stdio_output@@V?$standard_base@DV?$stream_output_adapter@D@__crt_stdio_output@@@2@@__crt_stdio_output@@AAE_NXZ 10034c30 f i libucrt:output.obj
 0001:00033ca2       ?type_case_s@?$output_processor@DV?$string_output_adapter@D@__crt_stdio_output@@V?$format_validation_base@DV?$string_output_adapter@D@__crt_stdio_output@@@2@@__crt_stdio_output@@AAE_NXZ 10034ca2 f i libucrt:output.obj
 0001:00033d14       ?type_case_s@?$output_processor@DV?$string_output_adapter@D@__crt_stdio_output@@V?$positional_parameter_base@DV?$string_output_adapter@D@__crt_stdio_output@@@2@@__crt_stdio_output@@AAE_NXZ 10034d14 f i libucrt:output.obj
 0001:00033d92       ?type_case_s@?$output_processor@DV?$string_output_adapter@D@__crt_stdio_output@@V?$standard_base@DV?$string_output_adapter@D@__crt_stdio_output@@@2@@__crt_stdio_output@@AAE_NXZ 10034d92 f i libucrt:output.obj
 0001:00033e04       ?type_case_s@?$output_processor@_WV?$stream_output_adapter@_W@__crt_stdio_output@@V?$format_validation_base@_WV?$stream_output_adapter@_W@__crt_stdio_output@@@2@@__crt_stdio_output@@AAE_NXZ 10034e04 f i libucrt:output.obj
 0001:00033e78       ?type_case_s@?$output_processor@_WV?$stream_output_adapter@_W@__crt_stdio_output@@V?$positional_parameter_base@_WV?$stream_output_adapter@_W@__crt_stdio_output@@@2@@__crt_stdio_output@@AAE_NXZ 10034e78 f i libucrt:output.obj
 0001:00033ef8       ?type_case_s@?$output_processor@_WV?$stream_output_adapter@_W@__crt_stdio_output@@V?$standard_base@_WV?$stream_output_adapter@_W@__crt_stdio_output@@@2@@__crt_stdio_output@@AAE_NXZ 10034ef8 f i libucrt:output.obj
 0001:00033f6c       ?type_case_s@?$output_processor@_WV?$string_output_adapter@_W@__crt_stdio_output@@V?$format_validation_base@_WV?$string_output_adapter@_W@__crt_stdio_output@@@2@@__crt_stdio_output@@AAE_NXZ 10034f6c f i libucrt:output.obj
 0001:00033fe0       ?type_case_s@?$output_processor@_WV?$string_output_adapter@_W@__crt_stdio_output@@V?$positional_parameter_base@_WV?$string_output_adapter@_W@__crt_stdio_output@@@2@@__crt_stdio_output@@AAE_NXZ 10034fe0 f i libucrt:output.obj
 0001:00034060       ?type_case_s@?$output_processor@_WV?$string_output_adapter@_W@__crt_stdio_output@@V?$standard_base@_WV?$string_output_adapter@_W@__crt_stdio_output@@@2@@__crt_stdio_output@@AAE_NXZ 10035060 f i libucrt:output.obj
 0001:000340d4       ?type_case_s_compute_narrow_string_length@?$output_processor@DV?$stream_output_adapter@D@__crt_stdio_output@@V?$format_validation_base@DV?$stream_output_adapter@D@__crt_stdio_output@@@2@@__crt_stdio_output@@AAEHHD@Z 100350d4 f i libucrt:output.obj
 0001:000340ea       ?type_case_s_compute_narrow_string_length@?$output_processor@DV?$stream_output_adapter@D@__crt_stdio_output@@V?$positional_parameter_base@DV?$stream_output_adapter@D@__crt_stdio_output@@@2@@__crt_stdio_output@@AAEHHD@Z 100350ea f i libucrt:output.obj
 0001:00034100       ?type_case_s_compute_narrow_string_length@?$output_processor@DV?$stream_output_adapter@D@__crt_stdio_output@@V?$standard_base@DV?$stream_output_adapter@D@__crt_stdio_output@@@2@@__crt_stdio_output@@AAEHHD@Z 10035100 f i libucrt:output.obj
 0001:00034116       ?type_case_s_compute_narrow_string_length@?$output_processor@DV?$string_output_adapter@D@__crt_stdio_output@@V?$format_validation_base@DV?$string_output_adapter@D@__crt_stdio_output@@@2@@__crt_stdio_output@@AAEHHD@Z 10035116 f i libucrt:output.obj
 0001:0003412c       ?type_case_s_compute_narrow_string_length@?$output_processor@DV?$string_output_adapter@D@__crt_stdio_output@@V?$positional_parameter_base@DV?$string_output_adapter@D@__crt_stdio_output@@@2@@__crt_stdio_output@@AAEHHD@Z 1003512c f i libucrt:output.obj
 0001:00034142       ?type_case_s_compute_narrow_string_length@?$output_processor@DV?$string_output_adapter@D@__crt_stdio_output@@V?$standard_base@DV?$string_output_adapter@D@__crt_stdio_output@@@2@@__crt_stdio_output@@AAEHHD@Z 10035142 f i libucrt:output.obj
 0001:00034158       ?type_case_s_compute_narrow_string_length@?$output_processor@_WV?$stream_output_adapter@_W@__crt_stdio_output@@V?$format_validation_base@_WV?$stream_output_adapter@_W@__crt_stdio_output@@@2@@__crt_stdio_output@@AAEHH_W@Z 10035158 f i libucrt:output.obj
 0001:000341ad       ?type_case_s_compute_narrow_string_length@?$output_processor@_WV?$stream_output_adapter@_W@__crt_stdio_output@@V?$positional_parameter_base@_WV?$stream_output_adapter@_W@__crt_stdio_output@@@2@@__crt_stdio_output@@AAEHH_W@Z 100351ad f i libucrt:output.obj
 0001:00034202       ?type_case_s_compute_narrow_string_length@?$output_processor@_WV?$stream_output_adapter@_W@__crt_stdio_output@@V?$standard_base@_WV?$stream_output_adapter@_W@__crt_stdio_output@@@2@@__crt_stdio_output@@AAEHH_W@Z 10035202 f i libucrt:output.obj
 0001:00034257       ?type_case_s_compute_narrow_string_length@?$output_processor@_WV?$string_output_adapter@_W@__crt_stdio_output@@V?$format_validation_base@_WV?$string_output_adapter@_W@__crt_stdio_output@@@2@@__crt_stdio_output@@AAEHH_W@Z 10035257 f i libucrt:output.obj
 0001:000342ac       ?type_case_s_compute_narrow_string_length@?$output_processor@_WV?$string_output_adapter@_W@__crt_stdio_output@@V?$positional_parameter_base@_WV?$string_output_adapter@_W@__crt_stdio_output@@@2@@__crt_stdio_output@@AAEHH_W@Z 100352ac f i libucrt:output.obj
 0001:00034301       ?type_case_s_compute_narrow_string_length@?$output_processor@_WV?$string_output_adapter@_W@__crt_stdio_output@@V?$standard_base@_WV?$string_output_adapter@_W@__crt_stdio_output@@@2@@__crt_stdio_output@@AAEHH_W@Z 10035301 f i libucrt:output.obj
 0001:00034356       ?type_case_u@?$output_processor@DV?$stream_output_adapter@D@__crt_stdio_output@@V?$format_validation_base@DV?$stream_output_adapter@D@__crt_stdio_output@@@2@@__crt_stdio_output@@AAE_NXZ 10035356 f i libucrt:output.obj
 0001:0003435e       ?type_case_u@?$output_processor@DV?$stream_output_adapter@D@__crt_stdio_output@@V?$positional_parameter_base@DV?$stream_output_adapter@D@__crt_stdio_output@@@2@@__crt_stdio_output@@AAE_NXZ 1003535e f i libucrt:output.obj
 0001:00034366       ?type_case_u@?$output_processor@DV?$stream_output_adapter@D@__crt_stdio_output@@V?$standard_base@DV?$stream_output_adapter@D@__crt_stdio_output@@@2@@__crt_stdio_output@@AAE_NXZ 10035366 f i libucrt:output.obj
 0001:0003436e       ?type_case_u@?$output_processor@DV?$string_output_adapter@D@__crt_stdio_output@@V?$format_validation_base@DV?$string_output_adapter@D@__crt_stdio_output@@@2@@__crt_stdio_output@@AAE_NXZ 1003536e f i libucrt:output.obj
 0001:00034376       ?type_case_u@?$output_processor@DV?$string_output_adapter@D@__crt_stdio_output@@V?$positional_parameter_base@DV?$string_output_adapter@D@__crt_stdio_output@@@2@@__crt_stdio_output@@AAE_NXZ 10035376 f i libucrt:output.obj
 0001:0003437e       ?type_case_u@?$output_processor@DV?$string_output_adapter@D@__crt_stdio_output@@V?$standard_base@DV?$string_output_adapter@D@__crt_stdio_output@@@2@@__crt_stdio_output@@AAE_NXZ 1003537e f i libucrt:output.obj
 0001:00034386       ?type_case_u@?$output_processor@_WV?$stream_output_adapter@_W@__crt_stdio_output@@V?$format_validation_base@_WV?$stream_output_adapter@_W@__crt_stdio_output@@@2@@__crt_stdio_output@@AAE_NXZ 10035386 f i libucrt:output.obj
 0001:0003438e       ?type_case_u@?$output_processor@_WV?$stream_output_adapter@_W@__crt_stdio_output@@V?$positional_parameter_base@_WV?$stream_output_adapter@_W@__crt_stdio_output@@@2@@__crt_stdio_output@@AAE_NXZ 1003538e f i libucrt:output.obj
 0001:00034396       ?type_case_u@?$output_processor@_WV?$stream_output_adapter@_W@__crt_stdio_output@@V?$standard_base@_WV?$stream_output_adapter@_W@__crt_stdio_output@@@2@@__crt_stdio_output@@AAE_NXZ 10035396 f i libucrt:output.obj
 0001:0003439e       ?type_case_u@?$output_processor@_WV?$string_output_adapter@_W@__crt_stdio_output@@V?$format_validation_base@_WV?$string_output_adapter@_W@__crt_stdio_output@@@2@@__crt_stdio_output@@AAE_NXZ 1003539e f i libucrt:output.obj
 0001:000343a6       ?type_case_u@?$output_processor@_WV?$string_output_adapter@_W@__crt_stdio_output@@V?$positional_parameter_base@_WV?$string_output_adapter@_W@__crt_stdio_output@@@2@@__crt_stdio_output@@AAE_NXZ 100353a6 f i libucrt:output.obj
 0001:000343ae       ?type_case_u@?$output_processor@_WV?$string_output_adapter@_W@__crt_stdio_output@@V?$standard_base@_WV?$string_output_adapter@_W@__crt_stdio_output@@@2@@__crt_stdio_output@@AAE_NXZ 100353ae f i libucrt:output.obj
 0001:000343b6       ?type_case_x@?$output_processor@DV?$stream_output_adapter@D@__crt_stdio_output@@V?$format_validation_base@DV?$stream_output_adapter@D@__crt_stdio_output@@@2@@__crt_stdio_output@@AAE_NXZ 100353b6 f i libucrt:output.obj
 0001:000343be       ?type_case_x@?$output_processor@DV?$stream_output_adapter@D@__crt_stdio_output@@V?$positional_parameter_base@DV?$stream_output_adapter@D@__crt_stdio_output@@@2@@__crt_stdio_output@@AAE_NXZ 100353be f i libucrt:output.obj
 0001:000343c6       ?type_case_x@?$output_processor@DV?$stream_output_adapter@D@__crt_stdio_output@@V?$standard_base@DV?$stream_output_adapter@D@__crt_stdio_output@@@2@@__crt_stdio_output@@AAE_NXZ 100353c6 f i libucrt:output.obj
 0001:000343ce       ?type_case_x@?$output_processor@DV?$string_output_adapter@D@__crt_stdio_output@@V?$format_validation_base@DV?$string_output_adapter@D@__crt_stdio_output@@@2@@__crt_stdio_output@@AAE_NXZ 100353ce f i libucrt:output.obj
 0001:000343d6       ?type_case_x@?$output_processor@DV?$string_output_adapter@D@__crt_stdio_output@@V?$positional_parameter_base@DV?$string_output_adapter@D@__crt_stdio_output@@@2@@__crt_stdio_output@@AAE_NXZ 100353d6 f i libucrt:output.obj
 0001:000343de       ?type_case_x@?$output_processor@DV?$string_output_adapter@D@__crt_stdio_output@@V?$standard_base@DV?$string_output_adapter@D@__crt_stdio_output@@@2@@__crt_stdio_output@@AAE_NXZ 100353de f i libucrt:output.obj
 0001:000343e6       ?type_case_x@?$output_processor@_WV?$stream_output_adapter@_W@__crt_stdio_output@@V?$format_validation_base@_WV?$stream_output_adapter@_W@__crt_stdio_output@@@2@@__crt_stdio_output@@AAE_NXZ 100353e6 f i libucrt:output.obj
 0001:000343ee       ?type_case_x@?$output_processor@_WV?$stream_output_adapter@_W@__crt_stdio_output@@V?$positional_parameter_base@_WV?$stream_output_adapter@_W@__crt_stdio_output@@@2@@__crt_stdio_output@@AAE_NXZ 100353ee f i libucrt:output.obj
 0001:000343f6       ?type_case_x@?$output_processor@_WV?$stream_output_adapter@_W@__crt_stdio_output@@V?$standard_base@_WV?$stream_output_adapter@_W@__crt_stdio_output@@@2@@__crt_stdio_output@@AAE_NXZ 100353f6 f i libucrt:output.obj
 0001:000343fe       ?type_case_x@?$output_processor@_WV?$string_output_adapter@_W@__crt_stdio_output@@V?$format_validation_base@_WV?$string_output_adapter@_W@__crt_stdio_output@@@2@@__crt_stdio_output@@AAE_NXZ 100353fe f i libucrt:output.obj
 0001:00034406       ?type_case_x@?$output_processor@_WV?$string_output_adapter@_W@__crt_stdio_output@@V?$positional_parameter_base@_WV?$string_output_adapter@_W@__crt_stdio_output@@@2@@__crt_stdio_output@@AAE_NXZ 10035406 f i libucrt:output.obj
 0001:0003440e       ?type_case_x@?$output_processor@_WV?$string_output_adapter@_W@__crt_stdio_output@@V?$standard_base@_WV?$string_output_adapter@_W@__crt_stdio_output@@@2@@__crt_stdio_output@@AAE_NXZ 1003540e f i libucrt:output.obj
 0001:00034416       ?unget@?$c_string_character_source@D@__crt_strtox@@QAEXD@Z 10035416 f i libucrt:output.obj
 0001:0003443f       ?unget@?$c_string_character_source@_W@__crt_strtox@@QAEX_W@Z 1003543f f i libucrt:output.obj
 0001:0003446d       ?unset_flag@?$output_processor@DV?$stream_output_adapter@D@__crt_stdio_output@@V?$format_validation_base@DV?$stream_output_adapter@D@__crt_stdio_output@@@2@@__crt_stdio_output@@AAEXI@Z 1003546d f i libucrt:output.obj
 0001:0003447e       ?unset_flag@?$output_processor@DV?$stream_output_adapter@D@__crt_stdio_output@@V?$positional_parameter_base@DV?$stream_output_adapter@D@__crt_stdio_output@@@2@@__crt_stdio_output@@AAEXI@Z 1003547e f i libucrt:output.obj
 0001:0003448f       ?unset_flag@?$output_processor@DV?$stream_output_adapter@D@__crt_stdio_output@@V?$standard_base@DV?$stream_output_adapter@D@__crt_stdio_output@@@2@@__crt_stdio_output@@AAEXI@Z 1003548f f i libucrt:output.obj
 0001:000344a0       ?unset_flag@?$output_processor@DV?$string_output_adapter@D@__crt_stdio_output@@V?$format_validation_base@DV?$string_output_adapter@D@__crt_stdio_output@@@2@@__crt_stdio_output@@AAEXI@Z 100354a0 f i libucrt:output.obj
 0001:000344b1       ?unset_flag@?$output_processor@DV?$string_output_adapter@D@__crt_stdio_output@@V?$positional_parameter_base@DV?$string_output_adapter@D@__crt_stdio_output@@@2@@__crt_stdio_output@@AAEXI@Z 100354b1 f i libucrt:output.obj
 0001:000344c2       ?unset_flag@?$output_processor@DV?$string_output_adapter@D@__crt_stdio_output@@V?$standard_base@DV?$string_output_adapter@D@__crt_stdio_output@@@2@@__crt_stdio_output@@AAEXI@Z 100354c2 f i libucrt:output.obj
 0001:000344d3       ?unset_flag@?$output_processor@_WV?$stream_output_adapter@_W@__crt_stdio_output@@V?$format_validation_base@_WV?$stream_output_adapter@_W@__crt_stdio_output@@@2@@__crt_stdio_output@@AAEXI@Z 100354d3 f i libucrt:output.obj
 0001:000344e4       ?unset_flag@?$output_processor@_WV?$stream_output_adapter@_W@__crt_stdio_output@@V?$positional_parameter_base@_WV?$stream_output_adapter@_W@__crt_stdio_output@@@2@@__crt_stdio_output@@AAEXI@Z 100354e4 f i libucrt:output.obj
 0001:000344f5       ?unset_flag@?$output_processor@_WV?$stream_output_adapter@_W@__crt_stdio_output@@V?$standard_base@_WV?$stream_output_adapter@_W@__crt_stdio_output@@@2@@__crt_stdio_output@@AAEXI@Z 100354f5 f i libucrt:output.obj
 0001:00034506       ?unset_flag@?$output_processor@_WV?$string_output_adapter@_W@__crt_stdio_output@@V?$format_validation_base@_WV?$string_output_adapter@_W@__crt_stdio_output@@@2@@__crt_stdio_output@@AAEXI@Z 10035506 f i libucrt:output.obj
 0001:00034517       ?unset_flag@?$output_processor@_WV?$string_output_adapter@_W@__crt_stdio_output@@V?$positional_parameter_base@_WV?$string_output_adapter@_W@__crt_stdio_output@@@2@@__crt_stdio_output@@AAEXI@Z 10035517 f i libucrt:output.obj
 0001:00034528       ?unset_flag@?$output_processor@_WV?$string_output_adapter@_W@__crt_stdio_output@@V?$standard_base@_WV?$string_output_adapter@_W@__crt_stdio_output@@@2@@__crt_stdio_output@@AAEXI@Z 10035528 f i libucrt:output.obj
 0001:00034539       ?update_field_width@?$positional_parameter_base@DV?$stream_output_adapter@D@__crt_stdio_output@@@__crt_stdio_output@@IAE_NXZ 10035539 f i libucrt:output.obj
 0001:0003460e       ?update_field_width@?$positional_parameter_base@DV?$string_output_adapter@D@__crt_stdio_output@@@__crt_stdio_output@@IAE_NXZ 1003560e f i libucrt:output.obj
 0001:000346e3       ?update_field_width@?$positional_parameter_base@_WV?$stream_output_adapter@_W@__crt_stdio_output@@@__crt_stdio_output@@IAE_NXZ 100356e3 f i libucrt:output.obj
 0001:000347b9       ?update_field_width@?$positional_parameter_base@_WV?$string_output_adapter@_W@__crt_stdio_output@@@__crt_stdio_output@@IAE_NXZ 100357b9 f i libucrt:output.obj
 0001:0003488f       ?update_field_width@?$standard_base@DV?$stream_output_adapter@D@__crt_stdio_output@@@__crt_stdio_output@@IAE_NXZ 1003588f f i libucrt:output.obj
 0001:000348a0       ?update_field_width@?$standard_base@DV?$string_output_adapter@D@__crt_stdio_output@@@__crt_stdio_output@@IAE_NXZ 100358a0 f i libucrt:output.obj
 0001:000348b1       ?update_field_width@?$standard_base@_WV?$stream_output_adapter@_W@__crt_stdio_output@@@__crt_stdio_output@@IAE_NXZ 100358b1 f i libucrt:output.obj
 0001:000348c2       ?update_field_width@?$standard_base@_WV?$string_output_adapter@_W@__crt_stdio_output@@@__crt_stdio_output@@IAE_NXZ 100358c2 f i libucrt:output.obj
 0001:000348d3       ?update_precision@?$positional_parameter_base@DV?$stream_output_adapter@D@__crt_stdio_output@@@__crt_stdio_output@@IAE_NXZ 100358d3 f i libucrt:output.obj
 0001:000349a8       ?update_precision@?$positional_parameter_base@DV?$string_output_adapter@D@__crt_stdio_output@@@__crt_stdio_output@@IAE_NXZ 100359a8 f i libucrt:output.obj
 0001:00034a7d       ?update_precision@?$positional_parameter_base@_WV?$stream_output_adapter@_W@__crt_stdio_output@@@__crt_stdio_output@@IAE_NXZ 10035a7d f i libucrt:output.obj
 0001:00034b53       ?update_precision@?$positional_parameter_base@_WV?$string_output_adapter@_W@__crt_stdio_output@@@__crt_stdio_output@@IAE_NXZ 10035b53 f i libucrt:output.obj
 0001:00034c29       ?update_precision@?$standard_base@DV?$stream_output_adapter@D@__crt_stdio_output@@@__crt_stdio_output@@IAE_NXZ 10035c29 f i libucrt:output.obj
 0001:00034c3a       ?update_precision@?$standard_base@DV?$string_output_adapter@D@__crt_stdio_output@@@__crt_stdio_output@@IAE_NXZ 10035c3a f i libucrt:output.obj
 0001:00034c4b       ?update_precision@?$standard_base@_WV?$stream_output_adapter@_W@__crt_stdio_output@@@__crt_stdio_output@@IAE_NXZ 10035c4b f i libucrt:output.obj
 0001:00034c5c       ?update_precision@?$standard_base@_WV?$string_output_adapter@_W@__crt_stdio_output@@@__crt_stdio_output@@IAE_NXZ 10035c5c f i libucrt:output.obj
 0001:00034c6d       ?valid@__crt_stdio_stream@@QBE_NXZ 10035c6d f i libucrt:output.obj
 0001:00034c74       ?validate@?$c_string_character_source@D@__crt_strtox@@QBE_NXZ 10035c74 f i libucrt:output.obj
 0001:00034c8f       ?validate@?$c_string_character_source@_W@__crt_strtox@@QBE_NXZ 10035c8f f i libucrt:output.obj
 0001:00034caa       ?validate@?$stream_output_adapter@D@__crt_stdio_output@@QBE_NAAV__crt_cached_ptd_host@@@Z 10035caa f i libucrt:output.obj
 0001:00034ce2       ?validate@?$stream_output_adapter@_W@__crt_stdio_output@@QBE_NAAV__crt_cached_ptd_host@@@Z 10035ce2 f i libucrt:output.obj
 0001:00034d13       ?validate@?$string_output_adapter@D@__crt_stdio_output@@QBE_NAAV__crt_cached_ptd_host@@@Z 10035d13 f i libucrt:output.obj
 0001:00034d44       ?validate@?$string_output_adapter@_W@__crt_stdio_output@@QBE_NAAV__crt_cached_ptd_host@@@Z 10035d44 f i libucrt:output.obj
 0001:00034d75       ?validate_and_store_parameter_data@?$positional_parameter_base@DV?$stream_output_adapter@D@__crt_stdio_output@@@__crt_stdio_output@@AAE_NAAUparameter_data@12@W4parameter_type@12@DW4length_modifier@2@@Z 10035d75 f i libucrt:output.obj
 0001:00034dd7       ?validate_and_store_parameter_data@?$positional_parameter_base@DV?$string_output_adapter@D@__crt_stdio_output@@@__crt_stdio_output@@AAE_NAAUparameter_data@12@W4parameter_type@12@DW4length_modifier@2@@Z 10035dd7 f i libucrt:output.obj
 0001:00034e39       ?validate_and_store_parameter_data@?$positional_parameter_base@_WV?$stream_output_adapter@_W@__crt_stdio_output@@@__crt_stdio_output@@AAE_NAAUparameter_data@12@W4parameter_type@12@_WW4length_modifier@2@@Z 10035e39 f i libucrt:output.obj
 0001:00034e9d       ?validate_and_store_parameter_data@?$positional_parameter_base@_WV?$string_output_adapter@_W@__crt_stdio_output@@@__crt_stdio_output@@AAE_NAAUparameter_data@12@W4parameter_type@12@_WW4length_modifier@2@@Z 10035e9d f i libucrt:output.obj
 0001:00034f01       ?validate_and_update_state_at_beginning_of_format_character@?$positional_parameter_base@DV?$stream_output_adapter@D@__crt_stdio_output@@@__crt_stdio_output@@IAE_NXZ 10035f01 f i libucrt:output.obj
 0001:00035018       ?validate_and_update_state_at_beginning_of_format_character@?$positional_parameter_base@DV?$string_output_adapter@D@__crt_stdio_output@@@__crt_stdio_output@@IAE_NXZ 10036018 f i libucrt:output.obj
 0001:0003512f       ?validate_and_update_state_at_beginning_of_format_character@?$positional_parameter_base@_WV?$stream_output_adapter@_W@__crt_stdio_output@@@__crt_stdio_output@@IAE_NXZ 1003612f f i libucrt:output.obj
 0001:00035253       ?validate_and_update_state_at_beginning_of_format_character@?$positional_parameter_base@_WV?$string_output_adapter@_W@__crt_stdio_output@@@__crt_stdio_output@@IAE_NXZ 10036253 f i libucrt:output.obj
 0001:00035377       ?validate_and_update_state_at_beginning_of_format_character@?$standard_base@DV?$stream_output_adapter@D@__crt_stdio_output@@@__crt_stdio_output@@IAE_NXZ 10036377 f i libucrt:output.obj
 0001:0003537a       ?validate_and_update_state_at_beginning_of_format_character@?$standard_base@DV?$string_output_adapter@D@__crt_stdio_output@@@__crt_stdio_output@@IAE_NXZ 1003637a f i libucrt:output.obj
 0001:0003537d       ?validate_and_update_state_at_beginning_of_format_character@?$standard_base@_WV?$stream_output_adapter@_W@__crt_stdio_output@@@__crt_stdio_output@@IAE_NXZ 1003637d f i libucrt:output.obj
 0001:00035380       ?validate_and_update_state_at_beginning_of_format_character@?$standard_base@_WV?$string_output_adapter@_W@__crt_stdio_output@@@__crt_stdio_output@@IAE_NXZ 10036380 f i libucrt:output.obj
 0001:00035383       ?validate_and_update_state_at_end_of_format_string@?$format_validation_base@DV?$stream_output_adapter@D@__crt_stdio_output@@@__crt_stdio_output@@IAE_NXZ 10036383 f i libucrt:output.obj
 0001:000353b4       ?validate_and_update_state_at_end_of_format_string@?$format_validation_base@DV?$string_output_adapter@D@__crt_stdio_output@@@__crt_stdio_output@@IAE_NXZ 100363b4 f i libucrt:output.obj
 0001:000353e5       ?validate_and_update_state_at_end_of_format_string@?$format_validation_base@_WV?$stream_output_adapter@_W@__crt_stdio_output@@@__crt_stdio_output@@IAE_NXZ 100363e5 f i libucrt:output.obj
 0001:00035416       ?validate_and_update_state_at_end_of_format_string@?$format_validation_base@_WV?$string_output_adapter@_W@__crt_stdio_output@@@__crt_stdio_output@@IAE_NXZ 10036416 f i libucrt:output.obj
 0001:00035447       ?validate_and_update_state_at_end_of_format_string@?$positional_parameter_base@DV?$stream_output_adapter@D@__crt_stdio_output@@@__crt_stdio_output@@IAE_NXZ 10036447 f i libucrt:output.obj
 0001:00035501       ?validate_and_update_state_at_end_of_format_string@?$positional_parameter_base@DV?$string_output_adapter@D@__crt_stdio_output@@@__crt_stdio_output@@IAE_NXZ 10036501 f i libucrt:output.obj
 0001:000355bb       ?validate_and_update_state_at_end_of_format_string@?$positional_parameter_base@_WV?$stream_output_adapter@_W@__crt_stdio_output@@@__crt_stdio_output@@IAE_NXZ 100365bb f i libucrt:output.obj
 0001:00035675       ?validate_and_update_state_at_end_of_format_string@?$positional_parameter_base@_WV?$string_output_adapter@_W@__crt_stdio_output@@@__crt_stdio_output@@IAE_NXZ 10036675 f i libucrt:output.obj
 0001:0003572f       ?validate_and_update_state_at_end_of_format_string@?$standard_base@DV?$stream_output_adapter@D@__crt_stdio_output@@@__crt_stdio_output@@IBE_NXZ 1003672f f i libucrt:output.obj
 0001:00035732       ?validate_and_update_state_at_end_of_format_string@?$standard_base@DV?$string_output_adapter@D@__crt_stdio_output@@@__crt_stdio_output@@IBE_NXZ 10036732 f i libucrt:output.obj
 0001:00035735       ?validate_and_update_state_at_end_of_format_string@?$standard_base@_WV?$stream_output_adapter@_W@__crt_stdio_output@@@__crt_stdio_output@@IBE_NXZ 10036735 f i libucrt:output.obj
 0001:00035738       ?validate_and_update_state_at_end_of_format_string@?$standard_base@_WV?$string_output_adapter@_W@__crt_stdio_output@@@__crt_stdio_output@@IBE_NXZ 10036738 f i libucrt:output.obj
 0001:0003573b       ?validate_state_for_type_case_a@?$positional_parameter_base@DV?$stream_output_adapter@D@__crt_stdio_output@@@__crt_stdio_output@@IAE_NXZ 1003673b f i libucrt:output.obj
 0001:0003579a       ?validate_state_for_type_case_a@?$positional_parameter_base@DV?$string_output_adapter@D@__crt_stdio_output@@@__crt_stdio_output@@IAE_NXZ 1003679a f i libucrt:output.obj
 0001:000357f9       ?validate_state_for_type_case_a@?$positional_parameter_base@_WV?$stream_output_adapter@_W@__crt_stdio_output@@@__crt_stdio_output@@IAE_NXZ 100367f9 f i libucrt:output.obj
 0001:00035858       ?validate_state_for_type_case_a@?$positional_parameter_base@_WV?$string_output_adapter@_W@__crt_stdio_output@@@__crt_stdio_output@@IAE_NXZ 10036858 f i libucrt:output.obj
 0001:000358b7       ?validate_state_for_type_case_a@?$standard_base@DV?$stream_output_adapter@D@__crt_stdio_output@@@__crt_stdio_output@@IBE_NXZ 100368b7 f i libucrt:output.obj
 0001:000358ba       ?validate_state_for_type_case_a@?$standard_base@DV?$string_output_adapter@D@__crt_stdio_output@@@__crt_stdio_output@@IBE_NXZ 100368ba f i libucrt:output.obj
 0001:000358bd       ?validate_state_for_type_case_a@?$standard_base@_WV?$stream_output_adapter@_W@__crt_stdio_output@@@__crt_stdio_output@@IBE_NXZ 100368bd f i libucrt:output.obj
 0001:000358c0       ?validate_state_for_type_case_a@?$standard_base@_WV?$string_output_adapter@_W@__crt_stdio_output@@@__crt_stdio_output@@IBE_NXZ 100368c0 f i libucrt:output.obj
 0001:000358c3       ?validate_stream_is_ansi_if_required@?$__acrt_stdio_char_traits@D@@SA_NQAU_iobuf@@@Z 100368c3 f i libucrt:output.obj
 0001:0003594a       ?validate_stream_is_ansi_if_required@?$__acrt_stdio_char_traits@_W@@SA_NQAU_iobuf@@@Z 1003694a f i libucrt:output.obj
 0001:0003594d       ?wide_character_to_digit@__crt_strtox@@YAH_W@Z 1003694d f i libucrt:output.obj
 0001:00035aee       ?wide_null_string@?$output_processor@DV?$stream_output_adapter@D@__crt_stdio_output@@V?$format_validation_base@DV?$stream_output_adapter@D@__crt_stdio_output@@@2@@__crt_stdio_output@@CAPA_WXZ 10036aee f i libucrt:output.obj
 0001:00035af4       ?wide_null_string@?$output_processor@DV?$stream_output_adapter@D@__crt_stdio_output@@V?$positional_parameter_base@DV?$stream_output_adapter@D@__crt_stdio_output@@@2@@__crt_stdio_output@@CAPA_WXZ 10036af4 f i libucrt:output.obj
 0001:00035afa       ?wide_null_string@?$output_processor@DV?$stream_output_adapter@D@__crt_stdio_output@@V?$standard_base@DV?$stream_output_adapter@D@__crt_stdio_output@@@2@@__crt_stdio_output@@CAPA_WXZ 10036afa f i libucrt:output.obj
 0001:00035b00       ?wide_null_string@?$output_processor@DV?$string_output_adapter@D@__crt_stdio_output@@V?$format_validation_base@DV?$string_output_adapter@D@__crt_stdio_output@@@2@@__crt_stdio_output@@CAPA_WXZ 10036b00 f i libucrt:output.obj
 0001:00035b06       ?wide_null_string@?$output_processor@DV?$string_output_adapter@D@__crt_stdio_output@@V?$positional_parameter_base@DV?$string_output_adapter@D@__crt_stdio_output@@@2@@__crt_stdio_output@@CAPA_WXZ 10036b06 f i libucrt:output.obj
 0001:00035b0c       ?wide_null_string@?$output_processor@DV?$string_output_adapter@D@__crt_stdio_output@@V?$standard_base@DV?$string_output_adapter@D@__crt_stdio_output@@@2@@__crt_stdio_output@@CAPA_WXZ 10036b0c f i libucrt:output.obj
 0001:00035b12       ?wide_null_string@?$output_processor@_WV?$stream_output_adapter@_W@__crt_stdio_output@@V?$format_validation_base@_WV?$stream_output_adapter@_W@__crt_stdio_output@@@2@@__crt_stdio_output@@CAPA_WXZ 10036b12 f i libucrt:output.obj
 0001:00035b18       ?wide_null_string@?$output_processor@_WV?$stream_output_adapter@_W@__crt_stdio_output@@V?$positional_parameter_base@_WV?$stream_output_adapter@_W@__crt_stdio_output@@@2@@__crt_stdio_output@@CAPA_WXZ 10036b18 f i libucrt:output.obj
 0001:00035b1e       ?wide_null_string@?$output_processor@_WV?$stream_output_adapter@_W@__crt_stdio_output@@V?$standard_base@_WV?$stream_output_adapter@_W@__crt_stdio_output@@@2@@__crt_stdio_output@@CAPA_WXZ 10036b1e f i libucrt:output.obj
 0001:00035b24       ?wide_null_string@?$output_processor@_WV?$string_output_adapter@_W@__crt_stdio_output@@V?$format_validation_base@_WV?$string_output_adapter@_W@__crt_stdio_output@@@2@@__crt_stdio_output@@CAPA_WXZ 10036b24 f i libucrt:output.obj
 0001:00035b2a       ?wide_null_string@?$output_processor@_WV?$string_output_adapter@_W@__crt_stdio_output@@V?$positional_parameter_base@_WV?$string_output_adapter@_W@__crt_stdio_output@@@2@@__crt_stdio_output@@CAPA_WXZ 10036b2a f i libucrt:output.obj
 0001:00035b30       ?wide_null_string@?$output_processor@_WV?$string_output_adapter@_W@__crt_stdio_output@@V?$standard_base@_WV?$string_output_adapter@_W@__crt_stdio_output@@@2@@__crt_stdio_output@@CAPA_WXZ 10036b30 f i libucrt:output.obj
 0001:00035b36       ?write_character@?$output_adapter_common@DV?$stream_output_adapter@D@__crt_stdio_output@@@__crt_stdio_output@@QBEXDQAHAAV__crt_cached_ptd_host@@@Z 10036b36 f i libucrt:output.obj
 0001:00035b58       ?write_character@?$output_adapter_common@_WV?$stream_output_adapter@_W@__crt_stdio_output@@@__crt_stdio_output@@QBEX_WQAHAAV__crt_cached_ptd_host@@@Z 10036b58 f i libucrt:output.obj
 0001:00035b7a       ?write_character@?$string_output_adapter@D@__crt_stdio_output@@QBE_NDQAHAAV__crt_cached_ptd_host@@@Z 10036b7a f i libucrt:output.obj
 0001:00035bbc       ?write_character@?$string_output_adapter@_W@__crt_stdio_output@@QBE_N_WQAHAAV__crt_cached_ptd_host@@@Z 10036bbc f i libucrt:output.obj
 0001:00035c01       ?write_character_without_count_update@?$stream_output_adapter@D@__crt_stdio_output@@QBE_NDAAV__crt_cached_ptd_host@@@Z 10036c01 f i libucrt:output.obj
 0001:00035c3b       ?write_character_without_count_update@?$stream_output_adapter@_W@__crt_stdio_output@@QBE_N_WAAV__crt_cached_ptd_host@@@Z 10036c3b f i libucrt:output.obj
 0001:00035c78       ?write_stored_string_tchar@?$output_processor@DV?$stream_output_adapter@D@__crt_stdio_output@@V?$format_validation_base@DV?$stream_output_adapter@D@__crt_stdio_output@@@2@@__crt_stdio_output@@AAE_ND@Z 10036c78 f i libucrt:output.obj
 0001:00035d23       ?write_stored_string_tchar@?$output_processor@DV?$stream_output_adapter@D@__crt_stdio_output@@V?$positional_parameter_base@DV?$stream_output_adapter@D@__crt_stdio_output@@@2@@__crt_stdio_output@@AAE_ND@Z 10036d23 f i libucrt:output.obj
 0001:00035dce       ?write_stored_string_tchar@?$output_processor@DV?$stream_output_adapter@D@__crt_stdio_output@@V?$standard_base@DV?$stream_output_adapter@D@__crt_stdio_output@@@2@@__crt_stdio_output@@AAE_ND@Z 10036dce f i libucrt:output.obj
 0001:00035e79       ?write_stored_string_tchar@?$output_processor@DV?$string_output_adapter@D@__crt_stdio_output@@V?$format_validation_base@DV?$string_output_adapter@D@__crt_stdio_output@@@2@@__crt_stdio_output@@AAE_ND@Z 10036e79 f i libucrt:output.obj
 0001:00035f24       ?write_stored_string_tchar@?$output_processor@DV?$string_output_adapter@D@__crt_stdio_output@@V?$positional_parameter_base@DV?$string_output_adapter@D@__crt_stdio_output@@@2@@__crt_stdio_output@@AAE_ND@Z 10036f24 f i libucrt:output.obj
 0001:00035fcf       ?write_stored_string_tchar@?$output_processor@DV?$string_output_adapter@D@__crt_stdio_output@@V?$standard_base@DV?$string_output_adapter@D@__crt_stdio_output@@@2@@__crt_stdio_output@@AAE_ND@Z 10036fcf f i libucrt:output.obj
 0001:0003607a       ?write_stored_string_tchar@?$output_processor@_WV?$stream_output_adapter@_W@__crt_stdio_output@@V?$format_validation_base@_WV?$stream_output_adapter@_W@__crt_stdio_output@@@2@@__crt_stdio_output@@AAE_N_W@Z 1003707a f i libucrt:output.obj
 0001:00036127       ?write_stored_string_tchar@?$output_processor@_WV?$stream_output_adapter@_W@__crt_stdio_output@@V?$positional_parameter_base@_WV?$stream_output_adapter@_W@__crt_stdio_output@@@2@@__crt_stdio_output@@AAE_N_W@Z 10037127 f i libucrt:output.obj
 0001:000361d4       ?write_stored_string_tchar@?$output_processor@_WV?$stream_output_adapter@_W@__crt_stdio_output@@V?$standard_base@_WV?$stream_output_adapter@_W@__crt_stdio_output@@@2@@__crt_stdio_output@@AAE_N_W@Z 100371d4 f i libucrt:output.obj
 0001:00036281       ?write_stored_string_tchar@?$output_processor@_WV?$string_output_adapter@_W@__crt_stdio_output@@V?$format_validation_base@_WV?$string_output_adapter@_W@__crt_stdio_output@@@2@@__crt_stdio_output@@AAE_N_W@Z 10037281 f i libucrt:output.obj
 0001:0003635e       ?write_stored_string_tchar@?$output_processor@_WV?$string_output_adapter@_W@__crt_stdio_output@@V?$positional_parameter_base@_WV?$string_output_adapter@_W@__crt_stdio_output@@@2@@__crt_stdio_output@@AAE_N_W@Z 1003735e f i libucrt:output.obj
 0001:0003643b       ?write_stored_string_tchar@?$output_processor@_WV?$string_output_adapter@_W@__crt_stdio_output@@V?$standard_base@_WV?$string_output_adapter@_W@__crt_stdio_output@@@2@@__crt_stdio_output@@AAE_N_W@Z 1003743b f i libucrt:output.obj
 0001:00036518       ?write_string@?$stream_output_adapter@D@__crt_stdio_output@@QBEXQBDHQAHAAV__crt_cached_ptd_host@@@Z 10037518 f i libucrt:output.obj
 0001:00036544       ?write_string@?$stream_output_adapter@_W@__crt_stdio_output@@QBEXQB_WHQAHAAV__crt_cached_ptd_host@@@Z 10037544 f i libucrt:output.obj
 0001:00036570       ?write_string@?$string_output_adapter@D@__crt_stdio_output@@QBEXQBDHQAHAAV__crt_cached_ptd_host@@@Z 10037570 f i libucrt:output.obj
 0001:000365d7       ?write_string@?$string_output_adapter@_W@__crt_stdio_output@@QBEXQB_WHQAHAAV__crt_cached_ptd_host@@@Z 100375d7 f i libucrt:output.obj
 0001:00036648       ?write_string_impl@?$output_adapter_common@DV?$stream_output_adapter@D@__crt_stdio_output@@@__crt_stdio_output@@IBEXQBDHQAHAAV__crt_cached_ptd_host@@@Z 10037648 f i libucrt:output.obj
 0001:000366c7       ?write_string_impl@?$output_adapter_common@_WV?$stream_output_adapter@_W@__crt_stdio_output@@@__crt_stdio_output@@IBEXQB_WHQAHAAV__crt_cached_ptd_host@@@Z 100376c7 f i libucrt:output.obj
 0001:00036749       ___acrt_isleadbyte_l_noupdate 10037749 f i libucrt:output.obj
 0001:00036767       ___acrt_locale_get_ctype_array_value 10037767 f i libucrt:output.obj
 0001:00036789       ___ascii_iswalpha          10037789 f i libucrt:output.obj
 0001:000367ac       ___ascii_toupper           100377ac f i libucrt:output.obj
 0001:000367c3       ___ascii_towupper          100377c3 f i libucrt:output.obj
 0001:000367da       ___stdio_common_vfprintf   100377da f   libucrt:output.obj
 0001:0003687e       ___stdio_common_vfprintf_p 1003787e f   libucrt:output.obj
 0001:00036922       ___stdio_common_vfprintf_s 10037922 f   libucrt:output.obj
 0001:000369c6       ___stdio_common_vfwprintf  100379c6 f   libucrt:output.obj
 0001:00036a6a       ___stdio_common_vfwprintf_p 10037a6a f   libucrt:output.obj
 0001:00036b0e       ___stdio_common_vfwprintf_s 10037b0e f   libucrt:output.obj
 0001:00036bb2       ___stdio_common_vsnprintf_s 10037bb2 f   libucrt:output.obj
 0001:00036bf6       ___stdio_common_vsnwprintf_s 10037bf6 f   libucrt:output.obj
 0001:00036c3a       ___stdio_common_vsprintf   10037c3a f   libucrt:output.obj
 0001:00036c7b       ___stdio_common_vsprintf_p 10037c7b f   libucrt:output.obj
 0001:00036cbc       ___stdio_common_vsprintf_s 10037cbc f   libucrt:output.obj
 0001:00036cfd       ___stdio_common_vswprintf  10037cfd f   libucrt:output.obj
 0001:00036d3e       ___stdio_common_vswprintf_p 10037d3e f   libucrt:output.obj
 0001:00036d7f       ___stdio_common_vswprintf_s 10037d7f f   libucrt:output.obj
 0001:00036dc0       __ctype_fast_check_internal 10037dc0 f i libucrt:output.obj
 0001:00036dda       __isdigit_fast_internal    10037dda f i libucrt:output.obj
 0001:00036df4       __tolower_fast_internal    10037df4 f i libucrt:output.obj
 0001:00036e0d       _free                      10037e0d f   libucrt:free.obj
 0001:00036e28       _malloc                    10037e28 f   libucrt:malloc.obj
 0001:00037371       __read                     10038371 f   libucrt:read.obj
 0001:0003748a       __read_nolock              1003848a f   libucrt:read.obj
 0001:00037815       __utf8_no_of_trailbytes    10038815 f i libucrt:read.obj
 0001:000379d3       __close                    100389d3 f   libucrt:close.obj
 0001:00037a03       __close_internal           10038a03 f   libucrt:close.obj
 0001:00037aa6       __close_nolock             10038aa6 f   libucrt:close.obj
 0001:00037ad6       __close_nolock_internal    10038ad6 f   libucrt:close.obj
 0001:00037b76       ___acrt_errno_from_os_error 10038b76 f   libucrt:errno.obj
 0001:00037bb9       ___acrt_errno_map_os_error 10038bb9 f   libucrt:errno.obj
 0001:00037bdc       ___acrt_errno_map_os_error_ptd 10038bdc f   libucrt:errno.obj
 0001:00037c00       ___doserrno                10038c00 f   libucrt:errno.obj
 0001:00037c13       __errno                    10038c13 f   libucrt:errno.obj
 0001:00037c26       __get_doserrno             10038c26 f   libucrt:errno.obj
 0001:00037c4b       __get_errno                10038c4b f   libucrt:errno.obj
 0001:00037c70       __set_doserrno             10038c70 f   libucrt:errno.obj
 0001:00037c91       __set_errno                10038c91 f   libucrt:errno.obj
 0001:00037cb2       ??$?R_W@__crt_internal_free_policy@@QBEXQB_W@Z 10038cb2 f i libucrt:strerror.obj
 0001:00037e7a       ??0?$__crt_unique_heap_ptr@_WU__crt_internal_free_policy@@@@QAE@QA_W@Z 10038e7a f i libucrt:strerror.obj
 0001:00037e8a       ??1?$__crt_unique_heap_ptr@_WU__crt_internal_free_policy@@@@QAE@XZ 10038e8a f i libucrt:strerror.obj
 0001:00037ed4       ?detach@?$__crt_unique_heap_ptr@DU__crt_internal_free_policy@@@@QAEPADXZ 10038ed4 f i libucrt:strerror.obj
 0001:00037eda       ?detach@?$__crt_unique_heap_ptr@_WU__crt_internal_free_policy@@@@QAEPA_WXZ 10038eda f i libucrt:strerror.obj
 0001:00037f06       ?release@?$__crt_unique_heap_ptr@_WU__crt_internal_free_policy@@@@QAEXXZ 10038f06 f i libucrt:strerror.obj
 0001:00037f18       __get_sys_err_msg          10038f18 f i libucrt:strerror.obj
 0001:00037f70       __invoke_watson_if_oneof   10038f70 f i libucrt:strerror.obj
 0001:00037f9d       __wcserror                 10038f9d f   libucrt:strerror.obj
 0001:00037fa8       __wcserror_s               10038fa8 f   libucrt:strerror.obj
 0001:00038014       _strerror                  10039014 f   libucrt:strerror.obj
 0001:0003801f       _strerror_s                1003901f f   libucrt:strerror.obj
 0001:00038879       __isleadbyte_fast_internal 10039879 f i libucrt:write.obj
 0001:00038897       __write                    10039897 f   libucrt:write.obj
 0001:000388ce       __write_internal           100398ce f   libucrt:write.obj
 0001:000389df       __write_nolock             100399df f   libucrt:write.obj
 0001:0003931b       ?ctrl_z@__crt_stdio_stream@@QBE_NXZ 1003a31b f i libucrt:ftell.obj
 0001:00039327       ?has_all_of@__crt_stdio_stream@@QBE_NJ@Z 1003a327 f i libucrt:ftell.obj
 0001:0003933f       ?has_any_of@__crt_stdio_stream@@QBE_NJ@Z 1003a33f f i libucrt:ftell.obj
 0001:00039354       ?has_big_buffer@__crt_stdio_stream@@QBE_NXZ 1003a354 f i libucrt:ftell.obj
 0001:00039360       ?has_crt_buffer@__crt_stdio_stream@@QBE_NXZ 1003a360 f i libucrt:ftell.obj
 0001:0003936c       ?has_setvbuf_buffer@__crt_stdio_stream@@QBE_NXZ 1003a36c f i libucrt:ftell.obj
 0001:00039378       __ftell_nolock             1003a378 f   libucrt:ftell.obj
 0001:000393a8       __ftelli64                 1003a3a8 f   libucrt:ftell.obj
 0001:000393de       __ftelli64_nolock          1003a3de f   libucrt:ftell.obj
 0001:00039414       __ftelli64_nolock_internal 1003a414 f   libucrt:ftell.obj
 0001:0003941f       _ftell                     1003a41f f   libucrt:ftell.obj
 0001:0003944f       ?eof@__crt_stdio_stream@@QBE_NXZ 1003a44f f i libucrt:feoferr.obj
 0001:0003945b       ?error@__crt_stdio_stream@@QBE_NXZ 1003a45b f i libucrt:feoferr.obj
 0001:00039467       _feof                      1003a467 f   libucrt:feoferr.obj
 0001:00039493       _ferror                    1003a493 f   libucrt:feoferr.obj
 0001:000396ba       ??$open_file@ABQBDABQBDABHPAU_iobuf@@@?$__crt_char_traits@D@@SAPAU_iobuf@@ABQBD0ABH$$QAPAU1@@Z 1003a6ba f i libucrt:fopen.obj
 0001:000396dd       ??$open_file@ABQB_WABQB_WABHPAU_iobuf@@@?$__crt_char_traits@_W@@SAPAU_iobuf@@ABQB_W0ABH$$QAPAU1@@Z 1003a6dd f i libucrt:fopen.obj
 0001:00039700       ?unlock@__crt_stdio_stream@@QBEXXZ 1003a700 f i libucrt:fopen.obj
 0001:00039709       __fsopen                   1003a709 f   libucrt:fopen.obj
 0001:00039714       __wfopen                   1003a714 f   libucrt:fopen.obj
 0001:0003972b       __wfopen_s                 1003a72b f   libucrt:fopen.obj
 0001:00039772       __wfsopen                  1003a772 f   libucrt:fopen.obj
 0001:0003977d       _fopen                     1003a77d f   libucrt:fopen.obj
 0001:00039794       _fopen_s                   1003a794 f   libucrt:fopen.obj
 0001:00039900       ?is_in_use@__crt_stdio_stream@@QBE_NXZ 1003a900 f i libucrt:fclose.obj
 0001:0003990c       __fclose_nolock            1003a90c f   libucrt:fclose.obj
 0001:0003993c       _fclose                    1003a93c f   libucrt:fclose.obj
 0001:0003996c       ?LongLongSub@@YAJ_J0PA_J@Z 1003a96c f i libucrt:fseek.obj
 0001:000399e6       ?__acrt_stdio_reset_buffer@@YAXV__crt_stdio_stream@@@Z 1003a9e6 f i libucrt:fseek.obj
 0001:00039c6b       ?has_any_buffer@__crt_stdio_stream@@QBE_NXZ 1003ac6b f i libucrt:fseek.obj
 0001:00039c7a       ?lowio_handle@__crt_stdio_stream@@QBEHXZ 1003ac7a f i libucrt:fseek.obj
 0001:00039c81       ?unset_flags@__crt_stdio_stream@@QBE_NJ@Z 1003ac81 f i libucrt:fseek.obj
 0001:00039caa       __fseek_nolock             1003acaa f   libucrt:fseek.obj
 0001:00039ce4       __fseeki64                 1003ace4 f   libucrt:fseek.obj
 0001:00039d1e       __fseeki64_nolock          1003ad1e f   libucrt:fseek.obj
 0001:00039d58       _fseek                     1003ad58 f   libucrt:fseek.obj
 0001:00039ebd       ?set_flags@__crt_stdio_stream@@QBE_NJ@Z 1003aebd f i libucrt:fwrite.obj
 0001:00039ee1       __fwrite_internal          1003aee1 f   libucrt:fwrite.obj
 0001:00039f58       __fwrite_nolock            1003af58 f   libucrt:fwrite.obj
 0001:00039f92       __fwrite_nolock_internal   1003af92 f   libucrt:fwrite.obj
 0001:0003a139       _fwrite                    1003b139 f   libucrt:fwrite.obj
 0001:0003a173       __fread_nolock             1003b173 f   libucrt:fread.obj
 0001:0003a190       __fread_nolock_s           1003b190 f   libucrt:fread.obj
 0001:0003a369       _fread                     1003b369 f   libucrt:fread.obj
 0001:0003a386       _fread_s                   1003b386 f   libucrt:fread.obj
 0001:0003a4a4       _rand                      1003b4a4 f   libucrt:rand.obj
 0001:0003a4c5       _srand                     1003b4c5 f   libucrt:rand.obj
 0001:0003a7e6       __time32                   1003b7e6 f   libucrt:time.obj
 0001:0003a845       __time64                   1003b845 f   libucrt:time.obj
 0001:0003a8ad       __timespec32_get           1003b8ad f   libucrt:time.obj
 0001:0003a8b8       __timespec64_get           1003b8b8 f   libucrt:time.obj
 0001:0003a8c3       __initterm                 1003b8c3 f   libucrt:initterm.obj
 0001:0003a8ee       __initterm_e               1003b8ee f   libucrt:initterm.obj
 0001:0003a940       __seh_filter_dll           1003b940 f   libucrt:exception_filter.obj
 0001:0003a960       __seh_filter_exe           1003b960 f   libucrt:exception_filter.obj
 0001:0003aaa6       ??$?B$$A6GXPAXK0@Z@__crt_fast_encoded_nullptr_t@@QBEP6GXPAXK0@ZXZ 1003baa6 f i libucrt:exit.obj
 0001:0003ab4e       ??$__crt_fast_decode_pointer@P6GXPAXK0@Z@@YAP6GXPAXK0@ZQ6GX0K0@Z@Z 1003bb4e f i libucrt:exit.obj
 0001:0003ab69       ??$__crt_fast_encode_pointer@P6GXPAXK0@Z@@YAP6GXPAXK0@ZQ6GX0K0@Z@Z 1003bb69 f i libucrt:exit.obj
 0001:0003ab88       ??$__crt_get_proc_address@P6GXI@Z@@YAP6GXI@ZQAUHINSTANCE__@@QBD@Z 1003bb88 f i libucrt:exit.obj
 0001:0003abdb       ??0?$__crt_unique_handle_t@U__crt_hmodule_traits@@@@QAE@QAUHINSTANCE__@@@Z 1003bbdb f i libucrt:exit.obj
 0001:0003abeb       ??1?$__crt_unique_handle_t@U__crt_hmodule_traits@@@@QAE@XZ 1003bbeb f i libucrt:exit.obj
 0001:0003acfc       ?__acrt_select_exit_lock@@YA?AW4__acrt_lock_id@@XZ 1003bcfc f i libucrt:exit.obj
 0001:0003ad00       ?__crt_fast_encode_pointer@@YA?AU__crt_fast_encoded_nullptr_t@@$$T@Z 1003bd00 f i libucrt:exit.obj
 0001:0003ad0b       ?__crt_rotate_pointer_value@@YAIIH@Z 1003bd0b f i libucrt:exit.obj
 0001:0003ad2d       ?close@?$__crt_unique_handle_t@U__crt_hmodule_traits@@@@QAEXXZ 1003bd2d f i libucrt:exit.obj
 0001:0003ad44       ?close@__crt_hmodule_traits@@SA_NPAUHINSTANCE__@@@Z 1003bd44 f i libucrt:exit.obj
 0001:0003ae21       ?get@?$__crt_unique_handle_t@U__crt_hmodule_traits@@@@QBEPAUHINSTANCE__@@XZ 1003be21 f i libucrt:exit.obj
 0001:0003ae24       ?get_address_of@?$__crt_unique_handle_t@U__crt_hmodule_traits@@@@QAEPAPAUHINSTANCE__@@XZ 1003be24 f i libucrt:exit.obj
 0001:0003ae27       ?get_invalid_value@__crt_hmodule_traits@@SAPAUHINSTANCE__@@XZ 1003be27 f i libucrt:exit.obj
 0001:0003af07       __Exit                     1003bf07 f   libucrt:exit.obj
 0001:0003af1d       ___acrt_initialize_thread_local_exit_callback 1003bf1d f   libucrt:exit.obj
 0001:0003af2c       __c_exit                   1003bf2c f   libucrt:exit.obj
 0001:0003af3b       __cexit                    1003bf3b f   libucrt:exit.obj
 0001:0003af4a       __exit                     1003bf4a f   libucrt:exit.obj
 0001:0003af60       __is_c_termination_complete 1003bf60 f   libucrt:exit.obj
 0001:0003af67       __register_thread_local_exe_atexit_callback 1003bf67 f   libucrt:exit.obj
 0001:0003af8d       _exit                      1003bf8d f   libucrt:exit.obj
 0001:0003afa3       _quick_exit                1003bfa3 f   libucrt:exit.obj
 0001:0003afb9       ??$?RE@__crt_internal_free_policy@@QBEXQBE@Z 1003bfb9 f i libucrt:argv_parsing.obj
 0001:0003afcb       ??$?RPAD@__crt_internal_free_policy@@QBEXQBQAD@Z 1003bfcb f i libucrt:argv_parsing.obj
 0001:0003afdd       ??$?RPA_W@__crt_internal_free_policy@@QBEXQBQA_W@Z 1003bfdd f i libucrt:argv_parsing.obj
 0001:0003b262       ??$get_module_file_name@$$TAAY0BAF@DH@?$__crt_char_traits@D@@SAK$$QA$$TAAY0BAF@D$$QAH@Z 1003c262 f i libucrt:argv_parsing.obj
 0001:0003b27e       ??$get_module_file_name@$$TAAY0BAF@_WH@?$__crt_char_traits@_W@@SAK$$QA$$TAAY0BAF@_W$$QAH@Z 1003c27e f i libucrt:argv_parsing.obj
 0001:0003b5ad       ??$set_program_name@PAD@?$__crt_char_traits@D@@SAX$$QAPAD@Z 1003c5ad f i libucrt:argv_parsing.obj
 0001:0003b5be       ??$set_program_name@PA_W@?$__crt_char_traits@_W@@SAX$$QAPA_W@Z 1003c5be f i libucrt:argv_parsing.obj
 0001:0003b5ef       ??0?$__crt_unique_heap_ptr@EU__crt_internal_free_policy@@@@QAE@QAE@Z 1003c5ef f i libucrt:argv_parsing.obj
 0001:0003b5ff       ??0?$__crt_unique_heap_ptr@PADU__crt_internal_free_policy@@@@QAE@QAPAD@Z 1003c5ff f i libucrt:argv_parsing.obj
 0001:0003b60f       ??0?$__crt_unique_heap_ptr@PA_WU__crt_internal_free_policy@@@@QAE@QAPA_W@Z 1003c60f f i libucrt:argv_parsing.obj
 0001:0003b61f       ??1?$__crt_unique_heap_ptr@EU__crt_internal_free_policy@@@@QAE@XZ 1003c61f f i libucrt:argv_parsing.obj
 0001:0003b631       ??1?$__crt_unique_heap_ptr@PADU__crt_internal_free_policy@@@@QAE@XZ 1003c631 f i libucrt:argv_parsing.obj
 0001:0003b643       ??1?$__crt_unique_heap_ptr@PA_WU__crt_internal_free_policy@@@@QAE@XZ 1003c643 f i libucrt:argv_parsing.obj
 0001:0003b655       ??B?$__crt_unique_heap_ptr@EU__crt_internal_free_policy@@@@QBE_NXZ 1003c655 f i libucrt:argv_parsing.obj
 0001:0003b688       ?detach@?$__crt_unique_heap_ptr@EU__crt_internal_free_policy@@@@QAEPAEXZ 1003c688 f i libucrt:argv_parsing.obj
 0001:0003b68e       ?detach@?$__crt_unique_heap_ptr@PADU__crt_internal_free_policy@@@@QAEPAPADXZ 1003c68e f i libucrt:argv_parsing.obj
 0001:0003b694       ?detach@?$__crt_unique_heap_ptr@PA_WU__crt_internal_free_policy@@@@QAEPAPA_WXZ 1003c694 f i libucrt:argv_parsing.obj
 0001:0003b6b8       ?get@?$__crt_unique_heap_ptr@EU__crt_internal_free_policy@@@@QBEPAEXZ 1003c6b8 f i libucrt:argv_parsing.obj
 0001:0003b6bb       ?get@?$__crt_unique_heap_ptr@PADU__crt_internal_free_policy@@@@QBEPAPADXZ 1003c6bb f i libucrt:argv_parsing.obj
 0001:0003b6be       ?get@?$__crt_unique_heap_ptr@PA_WU__crt_internal_free_policy@@@@QBEPAPA_WXZ 1003c6be f i libucrt:argv_parsing.obj
 0001:0003b6c1       ?get_address_of@?$__crt_unique_heap_ptr@PADU__crt_internal_free_policy@@@@QAEPAPAPADXZ 1003c6c1 f i libucrt:argv_parsing.obj
 0001:0003b6c4       ?get_address_of@?$__crt_unique_heap_ptr@PA_WU__crt_internal_free_policy@@@@QAEPAPAPA_WXZ 1003c6c4 f i libucrt:argv_parsing.obj
 0001:0003b6df       ?is_valid@?$__crt_unique_heap_ptr@EU__crt_internal_free_policy@@@@QBE_NXZ 1003c6df f i libucrt:argv_parsing.obj
 0001:0003b6e6       ?release@?$__crt_unique_heap_ptr@EU__crt_internal_free_policy@@@@QAEXXZ 1003c6e6 f i libucrt:argv_parsing.obj
 0001:0003b6f8       ?release@?$__crt_unique_heap_ptr@PADU__crt_internal_free_policy@@@@QAEXXZ 1003c6f8 f i libucrt:argv_parsing.obj
 0001:0003b70a       ?release@?$__crt_unique_heap_ptr@PA_WU__crt_internal_free_policy@@@@QAEXXZ 1003c70a f i libucrt:argv_parsing.obj
 0001:0003b736       ___acrt_allocate_buffer_for_argv 1003c736 f   libucrt:argv_parsing.obj
 0001:0003b785       __configure_narrow_argv    1003c785 f   libucrt:argv_parsing.obj
 0001:0003b790       __configure_wide_argv      1003c790 f   libucrt:argv_parsing.obj
 0001:0003b79b       __set_pgmptr               1003c79b f i libucrt:argv_parsing.obj
 0001:0003b7aa       __set_wpgmptr              1003c7aa f i libucrt:argv_parsing.obj
 0001:0003bbc3       ??$get_environment_from_os@$$V@?$__crt_char_traits@D@@SAPADXZ 1003cbc3 f i libucrt:environment_initialization.obj
 0001:0003bbc8       ??$get_environment_from_os@$$V@?$__crt_char_traits@_W@@SAPA_WXZ 1003cbc8 f i libucrt:environment_initialization.obj
 0001:0003bcd1       ??$set_variable_in_environment_nolock@PADH@?$__crt_char_traits@D@@SAH$$QAPAD$$QAH@Z 1003ccd1 f i libucrt:environment_initialization.obj
 0001:0003bce9       ??$set_variable_in_environment_nolock@PA_WH@?$__crt_char_traits@_W@@SAH$$QAPA_W$$QAH@Z 1003cce9 f i libucrt:environment_initialization.obj
 0001:0003bd01       ??$tcscpy_s@PADABIAAPAD@?$__crt_char_traits@D@@SAH$$QAPADABIAAPAD@Z 1003cd01 f i libucrt:environment_initialization.obj
 0001:0003bd1f       ??$tcscpy_s@PA_WABIAAPA_W@?$__crt_char_traits@_W@@SAH$$QAPA_WABIAAPA_W@Z 1003cd1f f i libucrt:environment_initialization.obj
 0001:0003bd3d       ??$tcslen@AAPAD@?$__crt_char_traits@D@@SAIAAPAD@Z 1003cd3d f i libucrt:environment_initialization.obj
 0001:0003bd55       ??$tcslen@AAPA_W@?$__crt_char_traits@_W@@SAIAAPA_W@Z 1003cd55 f i libucrt:environment_initialization.obj
 0001:0003bd73       ??$uninitialize@A6AXAAPAPAD@_E@?$dual_state_global@PAPAD@__crt_state_management@@QAEXA6AXAAPAPAD@_E@Z 1003cd73 f i libucrt:environment_initialization.obj
 0001:0003bdcb       ??$uninitialize@A6AXAAPAPA_W@_E@?$dual_state_global@PAPA_W@__crt_state_management@@QAEXA6AXAAPAPA_W@_E@Z 1003cdcb f i libucrt:environment_initialization.obj
 0001:0003be59       ??B?$__crt_unique_heap_ptr@PADU__crt_internal_free_policy@@@@QBE_NXZ 1003ce59 f i libucrt:environment_initialization.obj
 0001:0003be60       ??B?$__crt_unique_heap_ptr@PA_WU__crt_internal_free_policy@@@@QBE_NXZ 1003ce60 f i libucrt:environment_initialization.obj
 0001:0003be67       ??B?$__crt_unique_heap_ptr@_WU__crt_internal_free_policy@@@@QBE_NXZ 1003ce67 f i libucrt:environment_initialization.obj
 0001:0003be6e       ?__crt_compute_required_transform_buffer_count@@YAIIQBD@Z 1003ce6e f i libucrt:environment_initialization.obj
 0001:0003be8a       ?__crt_compute_required_transform_buffer_count@@YAIIQB_W@Z 1003ce8a f i libucrt:environment_initialization.obj
 0001:0003bea8       ?__crt_transform_string@@YAIIQBDQA_WI@Z 1003cea8 f i libucrt:environment_initialization.obj
 0001:0003bec7       ?__crt_transform_string@@YAIIQB_WQADI@Z 1003cec7 f i libucrt:environment_initialization.obj
 0001:0003bee9       ?get@?$__crt_unique_heap_ptr@_WU__crt_internal_free_policy@@@@QBEPA_WXZ 1003cee9 f i libucrt:environment_initialization.obj
 0001:0003beec       ?get_current_state_index@__crt_state_management@@YAIXZ 1003ceec f i libucrt:environment_initialization.obj
 0001:0003bf13       ?initialize@?$dual_state_global@PAPAD@__crt_state_management@@QAEXQAPAD@Z 1003cf13 f i libucrt:environment_initialization.obj
 0001:0003bf2f       ?initialize@?$dual_state_global@PAPA_W@__crt_state_management@@QAEXQAPA_W@Z 1003cf2f f i libucrt:environment_initialization.obj
 0001:0003bf4b       ?is_valid@?$__crt_unique_heap_ptr@PADU__crt_internal_free_policy@@@@QBE_NXZ 1003cf4b f i libucrt:environment_initialization.obj
 0001:0003bf52       ?is_valid@?$__crt_unique_heap_ptr@PA_WU__crt_internal_free_policy@@@@QBE_NXZ 1003cf52 f i libucrt:environment_initialization.obj
 0001:0003bf59       ?is_valid@?$__crt_unique_heap_ptr@_WU__crt_internal_free_policy@@@@QBE_NXZ 1003cf59 f i libucrt:environment_initialization.obj
 0001:0003bf68       ?value@?$dual_state_global@PAPAD@__crt_state_management@@QAEAAPAPADXZ 1003cf68 f i libucrt:environment_initialization.obj
 0001:0003bf6b       ?value@?$dual_state_global@PAPA_W@__crt_state_management@@QAEAAPAPA_WXZ 1003cf6b f i libucrt:environment_initialization.obj
 0001:0003bf6e       ___dcrt_get_or_create_narrow_environment_nolock 1003cf6e f   libucrt:environment_initialization.obj
 0001:0003bf73       ___dcrt_get_or_create_wide_environment_nolock 1003cf73 f   libucrt:environment_initialization.obj
 0001:0003bf78       ___dcrt_uninitialize_environments_nolock 1003cf78 f   libucrt:environment_initialization.obj
 0001:0003bfc9       ___p__environ              1003cfc9 f   libucrt:environment_initialization.obj
 0001:0003bfcf       ___p__wenviron             1003cfcf f   libucrt:environment_initialization.obj
 0001:0003bfd5       __get_initial_narrow_environment 1003cfd5 f   libucrt:environment_initialization.obj
 0001:0003bfe9       __get_initial_wide_environment 1003cfe9 f   libucrt:environment_initialization.obj
 0001:0003bffd       __initialize_narrow_environment 1003cffd f   libucrt:environment_initialization.obj
 0001:0003c002       __initialize_wide_environment 1003d002 f   libucrt:environment_initialization.obj
 0001:0003c007       ??$?B$$A6AXXZ@__crt_fast_encoded_nullptr_t@@QBEP6AXXZXZ 1003d007 f i libucrt:onexit.obj
 0001:0003c00d       ??$?BP6AXXZ@__crt_fast_encoded_nullptr_t@@QBEPAP6AXXZXZ 1003d00d f i libucrt:onexit.obj
 0001:0003c013       ??$?RP6AXXZ@__crt_internal_free_policy@@QBEXQBQ6AXXZ@Z 1003d013 f i libucrt:onexit.obj
 0001:0003c156       ??$__crt_fast_decode_pointer@P6AXXZ@@YAP6AXXZQ6AXXZ@Z 1003d156 f i libucrt:onexit.obj
 0001:0003c171       ??$__crt_fast_decode_pointer@PAP6AXXZ@@YAPAP6AXXZQAP6AXXZ@Z 1003d171 f i libucrt:onexit.obj
 0001:0003c18c       ??$__crt_fast_encode_pointer@P6AHXZ@@YAP6AHXZQ6AHXZ@Z 1003d18c f i libucrt:onexit.obj
 0001:0003c1ab       ??$__crt_fast_encode_pointer@P6AXXZ@@YAP6AXXZQ6AXXZ@Z 1003d1ab f i libucrt:onexit.obj
 0001:0003c1ca       ??$__crt_fast_encode_pointer@PAP6AXXZ@@YAPAP6AXXZQAP6AXXZ@Z 1003d1ca f i libucrt:onexit.obj
 0001:0003c257       ??0?$__crt_unique_heap_ptr@P6AXXZU__crt_internal_free_policy@@@@QAE@QAP6AXXZ@Z 1003d257 f i libucrt:onexit.obj
 0001:0003c267       ??1?$__crt_unique_heap_ptr@P6AXXZU__crt_internal_free_policy@@@@QAE@XZ 1003d267 f i libucrt:onexit.obj
 0001:0003c279       ??1scoped_global_state_reset@__crt_state_management@@QAE@XZ 1003d279 f i libucrt:onexit.obj
 0001:0003c47c       ?detach@?$__crt_unique_heap_ptr@P6AXXZU__crt_internal_free_policy@@@@QAEPAP6AXXZXZ 1003d47c f i libucrt:onexit.obj
 0001:0003c482       ?release@?$__crt_unique_heap_ptr@P6AXXZU__crt_internal_free_policy@@@@QAEXXZ 1003d482 f i libucrt:onexit.obj
 0001:0003c494       __crt_at_quick_exit        1003d494 f   libucrt:onexit.obj
 0001:0003c4aa       __crt_atexit               1003d4aa f   libucrt:onexit.obj
 0001:0003c4c0       __execute_onexit_table     1003d4c0 f   libucrt:onexit.obj
 0001:0003c4fe       __initialize_onexit_table  1003d4fe f   libucrt:onexit.obj
 0001:0003c527       __register_onexit_function 1003d527 f   libucrt:onexit.obj
 0001:0003c636       ??$?BX@__crt_fast_encoded_nullptr_t@@QBEPAXXZ 1003d636 f i libucrt:initialization.obj
 0001:0003c63c       ??$__crt_fast_encode_pointer@PAX@@YAPAXQAX@Z 1003d63c f i libucrt:initialization.obj
 0001:0003c6ad       ?__acrt_stdio_is_initialized@@YA_NXZ 1003d6ad f i libucrt:initialization.obj
 0001:0003c6b8       ?initialize@?$dual_state_global@PAU__crt_locale_data@@@__crt_state_management@@QAEXQAU__crt_locale_data@@@Z 1003d6b8 f i libucrt:initialization.obj
 0001:0003c6d4       ___acrt_initialize         1003d6d4 f   libucrt:initialization.obj
 0001:0003c6e6       ___acrt_thread_attach      1003d6e6 f   libucrt:initialization.obj
 0001:0003c6f1       ___acrt_thread_detach      1003d6f1 f   libucrt:initialization.obj
 0001:0003c6f9       ___acrt_uninitialize       1003d6f9 f   libucrt:initialization.obj
 0001:0003c729       ___acrt_uninitialize_critical 1003d729 f   libucrt:initialization.obj
 0001:0003c751       __get_terminate            1003d751 f   libucrt:terminate.obj
 0001:0003c763       _set_terminate             1003d763 f   libucrt:terminate.obj
 0001:0003c783       _terminate                 1003d783 f   libucrt:terminate.obj
 0001:0003c819       _strcpy_s                  1003d819 f   libucrt:strcpy_s.obj
 0001:0003c873       __set_abort_behavior       1003d873 f   libucrt:abort.obj
 0001:0003c894       _abort                     1003d894 f   libucrt:abort.obj
 0001:0003c8d8       ??$is_overflow_condition@_K@__crt_strtox@@YA_NI_K@Z 1003d8d8 f i libucrt:atox.obj
 0001:0003c919       ??$make_c_string_character_source@D$$T@__crt_strtox@@YA?AV?$c_string_character_source@D@0@QBD$$T@Z 1003d919 f i libucrt:atox.obj
 0001:0003c934       ??$make_c_string_character_source@_W$$T@__crt_strtox@@YA?AV?$c_string_character_source@_W@0@QB_W$$T@Z 1003d934 f i libucrt:atox.obj
 0001:0003c94f       ??$parse_integer@KV?$c_string_character_source@D@__crt_strtox@@$00@__crt_strtox@@YAKAAV__crt_cached_ptd_host@@V?$c_string_character_source@D@0@H_N@Z 1003d94f f i libucrt:atox.obj
 0001:0003cb96       ??$parse_integer@KV?$c_string_character_source@_W@__crt_strtox@@$00@__crt_strtox@@YAKAAV__crt_cached_ptd_host@@V?$c_string_character_source@_W@0@H_N@Z 1003db96 f i libucrt:atox.obj
 0001:0003d1a4       ??$parse_integer@_KV?$c_string_character_source@D@__crt_strtox@@$00@__crt_strtox@@YA_KAAV__crt_cached_ptd_host@@V?$c_string_character_source@D@0@H_N@Z 1003e1a4 f i libucrt:atox.obj
 0001:0003d46c       ??$parse_integer@_KV?$c_string_character_source@_W@__crt_strtox@@$00@__crt_strtox@@YA_KAAV__crt_cached_ptd_host@@V?$c_string_character_source@_W@0@H_N@Z 1003e46c f i libucrt:atox.obj
 0001:0003daf2       ??$parse_integer_from_string@JD$$T@__crt_strtox@@YAJQBD$$THQAU__crt_locale_pointers@@@Z 1003eaf2 f i libucrt:atox.obj
 0001:0003db39       ??$parse_integer_from_string@J_W$$T@__crt_strtox@@YAJQB_W$$THQAU__crt_locale_pointers@@@Z 1003eb39 f i libucrt:atox.obj
 0001:0003db80       ??$parse_integer_from_string@_JD$$T@__crt_strtox@@YA_JQBD$$THQAU__crt_locale_pointers@@@Z 1003eb80 f i libucrt:atox.obj
 0001:0003dbcd       ??$parse_integer_from_string@_J_W$$T@__crt_strtox@@YA_JQB_W$$THQAU__crt_locale_pointers@@@Z 1003ebcd f i libucrt:atox.obj
 0001:0003dc1a       ?is_space@__crt_strtox@@YA_NDQAU__crt_locale_pointers@@@Z 1003ec1a f i libucrt:atox.obj
 0001:0003dc38       ?is_space@__crt_strtox@@YA_N_WPAU__crt_locale_pointers@@@Z 1003ec38 f i libucrt:atox.obj
 0001:0003dc50       ?maximum_signed_value@__crt_strtox@@YA_J_K@Z 1003ec50 f i libucrt:atox.obj
 0001:0003dc59       ?minimum_signed_value@__crt_strtox@@YA_J_K@Z 1003ec59 f i libucrt:atox.obj
 0001:0003dc61       ___acrt_get_locale_data_prefix 1003ec61 f i libucrt:atox.obj
 0001:0003dc6d       __atoi64                   1003ec6d f   libucrt:atox.obj
 0001:0003dcb2       __atoi64_l                 1003ecb2 f   libucrt:atox.obj
 0001:0003dcf8       __atoi_l                   1003ecf8 f   libucrt:atox.obj
 0001:0003dd38       __atol_l                   1003ed38 f   libucrt:atox.obj
 0001:0003dd78       __atoll_l                  1003ed78 f   libucrt:atox.obj
 0001:0003ddbe       __chvalidchk_l             1003edbe f i libucrt:atox.obj
 0001:0003dde6       __ischartype_l             1003ede6 f i libucrt:atox.obj
 0001:0003de3d       __wtoi                     1003ee3d f   libucrt:atox.obj
 0001:0003de7c       __wtoi64                   1003ee7c f   libucrt:atox.obj
 0001:0003dec1       __wtoi64_l                 1003eec1 f   libucrt:atox.obj
 0001:0003df07       __wtoi_l                   1003ef07 f   libucrt:atox.obj
 0001:0003df47       __wtol                     1003ef47 f   libucrt:atox.obj
 0001:0003df86       __wtol_l                   1003ef86 f   libucrt:atox.obj
 0001:0003dfc6       __wtoll                    1003efc6 f   libucrt:atox.obj
 0001:0003e00b       __wtoll_l                  1003f00b f   libucrt:atox.obj
 0001:0003e051       _atoi                      1003f051 f   libucrt:atox.obj
 0001:0003e090       _atol                      1003f090 f   libucrt:atox.obj
 0001:0003e0cf       _atoll                     1003f0cf f   libucrt:atox.obj
 0001:0003e120       _strncmp                   1003f120 f   libucrt:strncmp.obj
 0001:0003e198       _calloc                    1003f198 f   libucrt:calloc.obj
 0001:0003e1a3       _wcsncmp                   1003f1a3 f   libucrt:wcsncmp.obj
 0001:0003e1dd       ??$?RU__crt_lowio_handle_data@@@__crt_internal_free_policy@@QBEXQBU__crt_lowio_handle_data@@@Z 1003f1dd f i libucrt:osfinfo.obj
 0001:0003e1ef       ??0?$__crt_unique_heap_ptr@U__crt_lowio_handle_data@@U__crt_internal_free_policy@@@@QAE@QAU__crt_lowio_handle_data@@@Z 1003f1ef f i libucrt:osfinfo.obj
 0001:0003e1ff       ??1?$__crt_unique_heap_ptr@U__crt_lowio_handle_data@@U__crt_internal_free_policy@@@@QAE@XZ 1003f1ff f i libucrt:osfinfo.obj
 0001:0003e211       ??B?$__crt_unique_heap_ptr@U__crt_lowio_handle_data@@U__crt_internal_free_policy@@@@QBE_NXZ 1003f211 f i libucrt:osfinfo.obj
 0001:0003e218       ?detach@?$__crt_unique_heap_ptr@U__crt_lowio_handle_data@@U__crt_internal_free_policy@@@@QAEPAU__crt_lowio_handle_data@@XZ 1003f218 f i libucrt:osfinfo.obj
 0001:0003e21e       ?get@?$__crt_unique_heap_ptr@U__crt_lowio_handle_data@@U__crt_internal_free_policy@@@@QBEPAU__crt_lowio_handle_data@@XZ 1003f21e f i libucrt:osfinfo.obj
 0001:0003e221       ?is_valid@?$__crt_unique_heap_ptr@U__crt_lowio_handle_data@@U__crt_internal_free_policy@@@@QBE_NXZ 1003f221 f i libucrt:osfinfo.obj
 0001:0003e228       ?release@?$__crt_unique_heap_ptr@U__crt_lowio_handle_data@@U__crt_internal_free_policy@@@@QAEXXZ 1003f228 f i libucrt:osfinfo.obj
 0001:0003e23a       ___acrt_lowio_create_handle_array 1003f23a f   libucrt:osfinfo.obj
 0001:0003e2b5       ___acrt_lowio_destroy_handle_array 1003f2b5 f   libucrt:osfinfo.obj
 0001:0003e2ea       ___acrt_lowio_ensure_fh_exists 1003f2ea f   libucrt:osfinfo.obj
 0001:0003e388       ___acrt_lowio_lock_fh      1003f388 f   libucrt:osfinfo.obj
 0001:0003e3ab       ___acrt_lowio_set_os_handle 1003f3ab f   libucrt:osfinfo.obj
 0001:0003e43d       ___acrt_lowio_unlock_fh    1003f43d f   libucrt:osfinfo.obj
 0001:0003e460       __alloc_osfhnd             1003f460 f   libucrt:osfinfo.obj
 0001:0003e573       __free_osfhnd              1003f573 f   libucrt:osfinfo.obj
 0001:0003e604       __get_osfhandle            1003f604 f   libucrt:osfinfo.obj
 0001:0003e66e       __open_osfhandle           1003f66e f   libucrt:osfinfo.obj
 0001:0003e79e       ??$__crt_fast_decode_pointer@P6AXPB_W00II@Z@@YAP6AXPB_W00II@ZQ6AX000II@Z@Z 1003f79e f i libucrt:invalid_parameter.obj
 0001:0003e7b9       ??$__crt_fast_encode_pointer@P6AXPB_W00II@Z@@YAP6AXPB_W00II@ZQ6AX000II@Z@Z 1003f7b9 f i libucrt:invalid_parameter.obj
 0001:0003e7d8       ??$initialize_from_array@$$BY00Q6AXPB_W00II@Z@?$dual_state_global@P6AXPB_W00II@Z@__crt_state_management@@QAAXAAY00Q6AXPB_W00II@Z@Z 1003f7d8 f i libucrt:invalid_parameter.obj
 0001:0003e7e9       ?check_synchronize_global_state_index@__crt_cached_ptd_host@@AAEIXZ 1003f7e9 f i libucrt:invalid_parameter.obj
 0001:0003e812       ?dangerous_get_state_array@?$dual_state_global@P6AXPB_W00II@Z@__crt_state_management@@QAEPAP6AXPB_W00II@ZXZ 1003f812 f i libucrt:invalid_parameter.obj
 0001:0003e815       ?get_current_global_state_index@__crt_cached_ptd_host@@QAEIXZ 1003f815 f i libucrt:invalid_parameter.obj
 0001:0003e81a       ?get_raw_ptd_noexit@__crt_cached_ptd_host@@QAEPAU__acrt_ptd@@XZ 1003f81a f i libucrt:invalid_parameter.obj
 0001:0003e825       ?try_synchronize_per_thread_data@__crt_cached_ptd_host@@AAEPAU__acrt_ptd@@XZ 1003f825 f i libucrt:invalid_parameter.obj
 0001:0003e830       ?value@?$dual_state_global@P6AXPB_W00II@Z@__crt_state_management@@QAEAAP6AXPB_W00II@ZAAV__crt_cached_ptd_host@@@Z 1003f830 f i libucrt:invalid_parameter.obj
 0001:0003e848       ?value@?$dual_state_global@P6AXPB_W00II@Z@__crt_state_management@@QAEAAP6AXPB_W00II@ZXZ 1003f848 f i libucrt:invalid_parameter.obj
 0001:0003e84b       ___acrt_call_reportfault   1003f84b f   libucrt:invalid_parameter.obj
 0001:0003e984       ___acrt_initialize_invalid_parameter_handler 1003f984 f   libucrt:invalid_parameter.obj
 0001:0003e993       __get_invalid_parameter_handler 1003f993 f   libucrt:invalid_parameter.obj
 0001:0003e9aa       __get_thread_local_invalid_parameter_handler 1003f9aa f   libucrt:invalid_parameter.obj
 0001:0003e9bb       __invalid_parameter        1003f9bb f   libucrt:invalid_parameter.obj
 0001:0003e9f2       __invalid_parameter_internal 1003f9f2 f   libucrt:invalid_parameter.obj
 0001:0003ea6f       __invalid_parameter_noinfo 1003fa6f f   libucrt:invalid_parameter.obj
 0001:0003ea7f       __invalid_parameter_noinfo_noreturn 1003fa7f f   libucrt:invalid_parameter.obj
 0001:0003ea9c       __invoke_watson            1003fa9c f   libucrt:invalid_parameter.obj
 0001:0003ead0       __set_invalid_parameter_handler 1003fad0 f   libucrt:invalid_parameter.obj
 0001:0003eb00       __set_thread_local_invalid_parameter_handler 1003fb00 f   libucrt:invalid_parameter.obj
 0001:0003eb1d       ??$?RU__acrt_ptd@@@__crt_internal_free_policy@@QBEXQBU__acrt_ptd@@@Z 1003fb1d f i libucrt:per_thread_data.obj
 0001:0003ee09       ??0?$__crt_unique_heap_ptr@U__acrt_ptd@@U__crt_internal_free_policy@@@@QAE@QAU__acrt_ptd@@@Z 1003fe09 f i libucrt:per_thread_data.obj
 0001:0003ee19       ??1?$__crt_unique_heap_ptr@U__acrt_ptd@@U__crt_internal_free_policy@@@@QAE@XZ 1003fe19 f i libucrt:per_thread_data.obj
 0001:0003ee2b       ??B?$__crt_unique_heap_ptr@U__acrt_ptd@@U__crt_internal_free_policy@@@@QBE_NXZ 1003fe2b f i libucrt:per_thread_data.obj
 0001:0003ef79       ?dangerous_get_state_array@?$dual_state_global@PAU__crt_locale_data@@@__crt_state_management@@QAEPAPAU__crt_locale_data@@XZ 1003ff79 f i libucrt:per_thread_data.obj
 0001:0003f06f       ?detach@?$__crt_unique_heap_ptr@U__acrt_ptd@@U__crt_internal_free_policy@@@@QAEPAU__acrt_ptd@@XZ 1004006f f i libucrt:per_thread_data.obj
 0001:0003f075       ?get@?$__crt_unique_heap_ptr@U__acrt_ptd@@U__crt_internal_free_policy@@@@QBEPAU__acrt_ptd@@XZ 10040075 f i libucrt:per_thread_data.obj
 0001:0003f25a       ?is_valid@?$__crt_unique_heap_ptr@U__acrt_ptd@@U__crt_internal_free_policy@@@@QBE_NXZ 1004025a f i libucrt:per_thread_data.obj
 0001:0003f261       ?release@?$__crt_unique_heap_ptr@U__acrt_ptd@@U__crt_internal_free_policy@@@@QAEXXZ 10040261 f i libucrt:per_thread_data.obj
 0001:0003f2d2       ?value@?$dual_state_global@PAU__crt_locale_data@@@__crt_state_management@@QAEAAPAU__crt_locale_data@@XZ 100402d2 f i libucrt:per_thread_data.obj
 0001:0003f2d5       ___acrt_freeptd            100402d5 f   libucrt:per_thread_data.obj
 0001:0003f301       ___acrt_getptd             10040301 f   libucrt:per_thread_data.obj
 0001:0003f3bc       ___acrt_getptd_head        100403bc f   libucrt:per_thread_data.obj
 0001:0003f452       ___acrt_getptd_noexit      10040452 f   libucrt:per_thread_data.obj
 0001:0003f503       ___acrt_getptd_noexit_explicit 10040503 f   libucrt:per_thread_data.obj
 0001:0003f5a6       ___acrt_initialize_ptd     100405a6 f   libucrt:per_thread_data.obj
 0001:0003f5d2       ___acrt_uninitialize_ptd   100405d2 f   libucrt:per_thread_data.obj
 0001:0003f5ec       ___threadhandle            100405ec f   libucrt:per_thread_data.obj
 0001:0003f5f2       ___threadid                100405f2 f   libucrt:per_thread_data.obj
 0001:0003f5fb       ??$?RU__crt_locale_data@@@__crt_internal_free_policy@@QBEXQBU__crt_locale_data@@@Z 100405fb f i libucrt:wsetlocale.obj
 0001:0003f60d       ??$?RU__crt_locale_pointers@@@__crt_internal_free_policy@@QBEXQBU__crt_locale_pointers@@@Z 1004060d f i libucrt:wsetlocale.obj
 0001:0003f61f       ??$?RU__crt_multibyte_data@@@__crt_internal_free_policy@@QBEXQBU__crt_multibyte_data@@@Z 1004061f f i libucrt:wsetlocale.obj
 0001:0003f9c8       ??0?$__crt_unique_heap_ptr@U__crt_locale_data@@U__crt_internal_free_policy@@@@QAE@QAU__crt_locale_data@@@Z 100409c8 f i libucrt:wsetlocale.obj
 0001:0003f9d8       ??0?$__crt_unique_heap_ptr@U__crt_locale_pointers@@U__crt_internal_free_policy@@@@QAE@QAU__crt_locale_pointers@@@Z 100409d8 f i libucrt:wsetlocale.obj
 0001:0003f9e8       ??0?$__crt_unique_heap_ptr@U__crt_multibyte_data@@U__crt_internal_free_policy@@@@QAE@QAU__crt_multibyte_data@@@Z 100409e8 f i libucrt:wsetlocale.obj
 0001:0003f9f8       ??0_expandlocale_locale_name_cache@@QAE@QA_WIQAU__crt_qualified_locale_data@@@Z 100409f8 f i libucrt:wsetlocale.obj
 0001:0003fa42       ??1?$__crt_unique_heap_ptr@U__crt_locale_data@@U__crt_internal_free_policy@@@@QAE@XZ 10040a42 f i libucrt:wsetlocale.obj
 0001:0003fa54       ??1?$__crt_unique_heap_ptr@U__crt_locale_pointers@@U__crt_internal_free_policy@@@@QAE@XZ 10040a54 f i libucrt:wsetlocale.obj
 0001:0003fa66       ??1?$__crt_unique_heap_ptr@U__crt_multibyte_data@@U__crt_internal_free_policy@@@@QAE@XZ 10040a66 f i libucrt:wsetlocale.obj
 0001:0003fa78       ??1_expandlocale_locale_name_cache@@QAE@XZ 10040a78 f i libucrt:wsetlocale.obj
 0001:0003faa8       ??B?$__crt_unique_heap_ptr@U__crt_locale_data@@U__crt_internal_free_policy@@@@QBE_NXZ 10040aa8 f i libucrt:wsetlocale.obj
 0001:0003faaf       ??B?$__crt_unique_heap_ptr@U__crt_locale_pointers@@U__crt_internal_free_policy@@@@QBE_NXZ 10040aaf f i libucrt:wsetlocale.obj
 0001:0003fab6       ??B?$__crt_unique_heap_ptr@U__crt_multibyte_data@@U__crt_internal_free_policy@@@@QBE_NXZ 10040ab6 f i libucrt:wsetlocale.obj
 0001:0003fcd6       ?commit_locale_name@_expandlocale_locale_name_cache@@QAEXQB_WI@Z 10040cd6 f i libucrt:wsetlocale.obj
 0001:0003fd1a       ?commit_locale_name_cache_already_updated@_expandlocale_locale_name_cache@@QAEXQB_WI@Z 10040d1a f i libucrt:wsetlocale.obj
 0001:0003fd4f       ?detach@?$__crt_unique_heap_ptr@U__crt_locale_data@@U__crt_internal_free_policy@@@@QAEPAU__crt_locale_data@@XZ 10040d4f f i libucrt:wsetlocale.obj
 0001:0003fd55       ?detach@?$__crt_unique_heap_ptr@U__crt_locale_pointers@@U__crt_internal_free_policy@@@@QAEPAU__crt_locale_pointers@@XZ 10040d55 f i libucrt:wsetlocale.obj
 0001:0003fd5b       ?detach@?$__crt_unique_heap_ptr@U__crt_multibyte_data@@U__crt_internal_free_policy@@@@QAEPAU__crt_multibyte_data@@XZ 10040d5b f i libucrt:wsetlocale.obj
 0001:0003fd61       ?get@?$__crt_unique_heap_ptr@U__crt_locale_data@@U__crt_internal_free_policy@@@@QBEPAU__crt_locale_data@@XZ 10040d61 f i libucrt:wsetlocale.obj
 0001:0003fd64       ?get@?$__crt_unique_heap_ptr@U__crt_locale_pointers@@U__crt_internal_free_policy@@@@QBEPAU__crt_locale_pointers@@XZ 10040d64 f i libucrt:wsetlocale.obj
 0001:0003fd67       ?get@?$__crt_unique_heap_ptr@U__crt_multibyte_data@@U__crt_internal_free_policy@@@@QBEPAU__crt_multibyte_data@@XZ 10040d67 f i libucrt:wsetlocale.obj
 0001:0003fd6a       ?is_valid@?$__crt_unique_heap_ptr@U__crt_locale_data@@U__crt_internal_free_policy@@@@QBE_NXZ 10040d6a f i libucrt:wsetlocale.obj
 0001:0003fd71       ?is_valid@?$__crt_unique_heap_ptr@U__crt_locale_pointers@@U__crt_internal_free_policy@@@@QBE_NXZ 10040d71 f i libucrt:wsetlocale.obj
 0001:0003fd78       ?is_valid@?$__crt_unique_heap_ptr@U__crt_multibyte_data@@U__crt_internal_free_policy@@@@QBE_NXZ 10040d78 f i libucrt:wsetlocale.obj
 0001:0003fd7f       ?release@?$__crt_unique_heap_ptr@U__crt_locale_data@@U__crt_internal_free_policy@@@@QAEXXZ 10040d7f f i libucrt:wsetlocale.obj
 0001:0003fd91       ?release@?$__crt_unique_heap_ptr@U__crt_locale_pointers@@U__crt_internal_free_policy@@@@QAEXXZ 10040d91 f i libucrt:wsetlocale.obj
 0001:0003fda3       ?release@?$__crt_unique_heap_ptr@U__crt_multibyte_data@@U__crt_internal_free_policy@@@@QAEXXZ 10040da3 f i libucrt:wsetlocale.obj
 0001:0003fdb5       ___acrt_copy_locale_name   10040db5 f   libucrt:wsetlocale.obj
 0001:0003fe15       ___acrt_set_locale_changed 10040e15 f   libucrt:wsetlocale.obj
 0001:0003fe20       ___acrt_uninitialize_locale 10040e20 f   libucrt:wsetlocale.obj
 0001:0003fe47       ___ascii_tolower           10040e47 f i libucrt:wsetlocale.obj
 0001:0003fe5e       ___ascii_towlower          10040e5e f i libucrt:wsetlocale.obj
 0001:0003fe75       ___lc_lctowcs              10040e75 f   libucrt:wsetlocale.obj
 0001:0003fee5       ___lc_wcstolc              10040ee5 f   libucrt:wsetlocale.obj
 0001:00040022       __configthreadlocale       10041022 f   libucrt:wsetlocale.obj
 0001:000400b3       __create_locale            100410b3 f   libucrt:wsetlocale.obj
 0001:000404dd       __free_locale              100414dd f   libucrt:wsetlocale.obj
 0001:0004059f       __get_current_locale       1004159f f   libucrt:wsetlocale.obj
 0001:0004063a       __wcreate_locale           1004163a f   libucrt:wsetlocale.obj
 0001:00040741       __wcscats                  10041741 f   libucrt:wsetlocale.obj
 0001:00040782       __wsetlocale               10041782 f   libucrt:wsetlocale.obj
 0001:00041500       ___p___mb_cur_max          10042500 f   libucrt:nlsdata.obj
 0001:000416ad       ___acrt_initialize_lowio   100426ad f   libucrt:ioinit.obj
 0001:0004170d       ___acrt_uninitialize_lowio 1004270d f   libucrt:ioinit.obj
 0001:0004173f       __free_base                1004273f f   libucrt:free_base.obj
 0001:00041779       __malloc_base              10042779 f   libucrt:malloc_base.obj
 0001:000417c7       ??$__crt_interlocked_read@H@@YAHPDH@Z 100427c7 f i libucrt:setmode.obj
 0001:000417d4       ?value@?$dual_state_global@H@__crt_state_management@@QAEAAHXZ 100427d4 f i libucrt:setmode.obj
 0001:000417d7       __get_fmode                100427d7 f   libucrt:setmode.obj
 0001:00041804       __set_fmode                10042804 f   libucrt:setmode.obj
 0001:00041841       __setmode                  10042841 f   libucrt:setmode.obj
 0001:00041961       __setmode_nolock           10042961 f   libucrt:setmode.obj
 0001:00041ac8       ___acrt_MultiByteToWideChar 10042ac8 f   libucrt:multibytetowidechar.obj
 0001:00041aff       ??$?B$$A6GHPA_WKJ@Z@__crt_fast_encoded_nullptr_t@@QBEP6GHPA_WKJ@ZXZ 10042aff f i libucrt:winapi_thunks.obj
 0001:00041ba7       ??$__crt_fast_decode_pointer@P6GHPA_WKJ@Z@@YAP6GHPA_WKJ@ZQ6GH0KJ@Z@Z 10042ba7 f i libucrt:winapi_thunks.obj
 0001:00041bc2       ??$__crt_fast_decode_pointer@PAX@@YAPAXQAX@Z 10042bc2 f i libucrt:winapi_thunks.obj
 0001:00041bdd       ??$__crt_fast_encode_pointer@P6GHPA_WKJ@Z@@YAP6GHPA_WKJ@ZQ6GH0KJ@Z@Z 10042bdd f i libucrt:winapi_thunks.obj
 0001:0004228d       _GetCurrentThreadEffectiveToken 1004328d f i libucrt:winapi_thunks.obj
 0001:00042291       ___acrt_AppPolicyGetProcessTerminationMethodInternal@4 10043291 f   libucrt:winapi_thunks.obj
 0001:000422d1       ___acrt_AppPolicyGetShowDeveloperDiagnosticInternal@4 100432d1 f   libucrt:winapi_thunks.obj
 0001:00042311       ___acrt_AppPolicyGetThreadInitializationTypeInternal@4 10043311 f   libucrt:winapi_thunks.obj
 0001:00042351       ___acrt_AppPolicyGetWindowingModelInternal@4 10043351 f   libucrt:winapi_thunks.obj
 0001:00042391       ___acrt_AreFileApisANSI@0  10043391 f   libucrt:winapi_thunks.obj
 0001:000423b0       ___acrt_CompareStringEx@36 100433b0 f   libucrt:winapi_thunks.obj
 0001:0004240d       ___acrt_EnumSystemLocalesEx@16 1004340d f   libucrt:winapi_thunks.obj
 0001:00042461       ___acrt_FlsAlloc@4         10043461 f   libucrt:winapi_thunks.obj
 0001:000424a0       ___acrt_FlsFree@4          100434a0 f   libucrt:winapi_thunks.obj
 0001:000424df       ___acrt_FlsGetValue@4      100434df f   libucrt:winapi_thunks.obj
 0001:0004251e       ___acrt_FlsSetValue@8      1004351e f   libucrt:winapi_thunks.obj
 0001:00042560       ___acrt_GetDateFormatEx@28 10043560 f   libucrt:winapi_thunks.obj
 0001:000425b7       ___acrt_GetEnabledXStateFeatures@0 100435b7 f   libucrt:winapi_thunks.obj
 0001:000425eb       ___acrt_GetLocaleInfoEx@16 100435eb f   libucrt:winapi_thunks.obj
 0001:0004262a       ___acrt_GetSystemTimePreciseAsFileTime@4 1004362a f   libucrt:winapi_thunks.obj
 0001:00042669       ___acrt_GetTempPath2W@8    10043669 f   libucrt:winapi_thunks.obj
 0001:000426ab       ___acrt_GetTimeFormatEx@24 100436ab f   libucrt:winapi_thunks.obj
 0001:000426f0       ___acrt_GetUserDefaultLocaleName@8 100436f0 f   libucrt:winapi_thunks.obj
 0001:0004272c       ___acrt_GetXStateFeaturesMask@8 1004372c f   libucrt:winapi_thunks.obj
 0001:0004276c       ___acrt_InitializeCriticalSectionEx@12 1004376c f   libucrt:winapi_thunks.obj
 0001:000427b7       ___acrt_IsValidLocaleName@4 100437b7 f   libucrt:winapi_thunks.obj
 0001:000427ef       ___acrt_LCIDToLocaleName@16 100437ef f   libucrt:winapi_thunks.obj
 0001:0004282e       ___acrt_LCMapStringEx@36   1004382e f   libucrt:winapi_thunks.obj
 0001:0004288b       ___acrt_LocaleNameToLCID@8 1004388b f   libucrt:winapi_thunks.obj
 0001:000428bc       ___acrt_LocateXStateFeature@12 100438bc f   libucrt:winapi_thunks.obj
 0001:000428eb       ___acrt_MessageBoxA@16     100438eb f   libucrt:winapi_thunks.obj
 0001:0004291d       ___acrt_MessageBoxW@16     1004391d f   libucrt:winapi_thunks.obj
 0001:0004294f       ___acrt_RoInitialize@4     1004394f f   libucrt:winapi_thunks.obj
 0001:0004298a       ___acrt_RoUninitialize@0   1004398a f   libucrt:winapi_thunks.obj
 0001:000429b8       ___acrt_RtlGenRandom@8     100439b8 f   libucrt:winapi_thunks.obj
 0001:000429f8       ___acrt_SetThreadStackGuarantee@4 100439f8 f   libucrt:winapi_thunks.obj
 0001:00042a33       ___acrt_can_show_message_box 10043a33 f   libucrt:winapi_thunks.obj
 0001:00042a5a       ___acrt_can_use_vista_locale_apis 10043a5a f   libucrt:winapi_thunks.obj
 0001:00042a65       ___acrt_can_use_xstate_apis 10043a65 f   libucrt:winapi_thunks.obj
 0001:00042a70       ___acrt_eagerly_load_locale_apis 10043a70 f   libucrt:winapi_thunks.obj
 0001:00042aa7       ___acrt_get_parent_window  10043aa7 f   libucrt:winapi_thunks.obj
 0001:00042b0f       ___acrt_initialize_winapi_thunks 10043b0f f   libucrt:winapi_thunks.obj
 0001:00042b23       ___acrt_is_interactive     10043b23 f   libucrt:winapi_thunks.obj
 0001:00042bc3       ___acrt_uninitialize_winapi_thunks 10043bc3 f   libucrt:winapi_thunks.obj
 0001:00042bf9       ?value@?$dual_state_global@PAU__crt_multibyte_data@@@__crt_state_management@@QAEAAPAU__crt_multibyte_data@@XZ 10043bf9 f i libucrt:locale_update.obj
 0001:00042bfc       ?value_explicit@?$dual_state_global@PAU__crt_locale_data@@@__crt_state_management@@QAEAAPAU__crt_locale_data@@I@Z 10043bfc f i libucrt:locale_update.obj
 0001:00042c0b       ?value_explicit@?$dual_state_global@PAU__crt_multibyte_data@@@__crt_state_management@@QAEAAPAU__crt_multibyte_data@@I@Z 10043c0b f i libucrt:locale_update.obj
 0001:00042c1a       ___acrt_should_sync_with_global_locale 10043c1a f i libucrt:locale_update.obj
 0001:00042c36       ___acrt_update_locale_info 10043c36 f   libucrt:locale_update.obj
 0001:00042c63       ___acrt_update_locale_info_explicit 10043c63 f   libucrt:locale_update.obj
 0001:00042c94       ___acrt_update_multibyte_info 10043c94 f   libucrt:locale_update.obj
 0001:00042cc1       ___acrt_update_multibyte_info_explicit 10043cc1 f   libucrt:locale_update.obj
 0001:00042dee       ??0__crt_seek_guard@@QAE@H_J@Z 10043dee f i libucrt:chsize.obj
 0001:00042e3b       ??1__crt_seek_guard@@QAE@XZ 10043e3b f i libucrt:chsize.obj
 0001:00042f5b       ?check@?$cached@K@__crt_cached_ptd_host@@QBE_NK@Z 10043f5b f i libucrt:chsize.obj
 0001:00042f77       __chsize                   10043f77 f   libucrt:chsize.obj
 0001:00042f93       __chsize_nolock            10043f93 f   libucrt:chsize.obj
 0001:00042fca       __chsize_nolock_internal   10043fca f   libucrt:chsize.obj
 0001:00043161       __chsize_s                 10044161 f   libucrt:chsize.obj
 0001:00043198       __umask                    10044198 f   libucrt:umask.obj
 0001:000431bb       __umask_s                  100441bb f   libucrt:umask.obj
 0001:00043286       ___acrt_WideCharToMultiByte 10044286 f   libucrt:widechartomultibyte.obj
 0001:000432f2       ?__wcsrtombs_utf8@__crt_mbstring@@YAIPADPAPB_WIPAU_Mbstatet@@AAV__crt_cached_ptd_host@@@Z 100442f2 f   libucrt:wcrtomb.obj
 0001:00043786       _wcrtomb                   10044786 f   libucrt:wcrtomb.obj
 0001:000437b5       _wcrtomb_s                 100447b5 f   libucrt:wcrtomb.obj
 0001:00043851       _wcsrtombs                 10044851 f   libucrt:wcrtomb.obj
 0001:0004388b       _wcsrtombs_s               1004488b f   libucrt:wcrtomb.obj
 0001:00043943       _wctob                     10044943 f   libucrt:wcrtomb.obj
 0001:000441b6       ??1?$__crt_simd_cleanup_guard@$00@@QAE@XZ 100451b6 f i libucrt:strnlen.obj
 0001:000441ba       ??1?$__crt_simd_cleanup_guard@$0A@@@QAE@XZ 100451ba f i libucrt:strnlen.obj
 0001:000441bd       ?compare_equals@?$__crt_simd_traits@$00E@@SA?AT__m256i@@T2@0@Z 100451bd f i libucrt:strnlen.obj
 0001:000441c2       ?compare_equals@?$__crt_simd_traits@$00G@@SA?AT__m256i@@T2@0@Z 100451c2 f i libucrt:strnlen.obj
 0001:000441c7       ?compare_equals@?$__crt_simd_traits@$0A@E@@SA?AT__m128i@@T2@0@Z 100451c7 f i libucrt:strnlen.obj
 0001:000441cc       ?compare_equals@?$__crt_simd_traits@$0A@G@@SA?AT__m128i@@T2@0@Z 100451cc f i libucrt:strnlen.obj
 0001:000441d1       ?compute_byte_mask@?$__crt_simd_pack_traits@$00@@SAHT__m256i@@@Z 100451d1 f i libucrt:strnlen.obj
 0001:000441d6       ?compute_byte_mask@?$__crt_simd_pack_traits@$0A@@@SAHT__m128i@@@Z 100451d6 f i libucrt:strnlen.obj
 0001:000441db       ?get_zero_pack@?$__crt_simd_pack_traits@$00@@SA?AT__m256i@@XZ 100451db f i libucrt:strnlen.obj
 0001:000441e0       ?get_zero_pack@?$__crt_simd_pack_traits@$0A@@@SA?AT__m128i@@XZ 100451e0 f i libucrt:strnlen.obj
 0001:000441e4       _strnlen                   100451e4 f   libucrt:strnlen.obj
 0001:00044306       _wcslen                    10045306 f   libucrt:strnlen.obj
 0001:0004442e       _wcsnlen                   1004542e f   libucrt:strnlen.obj
 0001:000445de       ?__acrt_fp_classify@@YA?AW4__acrt_fp_class@@ABN@Z 100455de f i libucrt:cvt.obj
 0001:00044640       ?__acrt_fp_is_negative@@YA_NABN@Z 10045640 f i libucrt:cvt.obj
 0001:00044fcf       ?strrchr@@YAPADQADH@Z      10045fcf f i libucrt:cvt.obj
 0001:00044fda       ___acrt_fp_format          10045fda f   libucrt:cvt.obj
 0001:0004515b       __wctomb_internal          1004615b f   libucrt:wctomb.obj
 0001:000452c5       __wctomb_l                 100462c5 f   libucrt:wctomb.obj
 0001:00045320       __wctomb_s_l               10046320 f   libucrt:wctomb.obj
 0001:0004535b       _wctomb                    1004635b f   libucrt:wctomb.obj
 0001:000453a7       _wctomb_s                  100463a7 f   libucrt:wctomb.obj
 0001:000453e1       __mbtowc_internal          100463e1 f   libucrt:mbtowc.obj
 0001:00045514       __mbtowc_l                 10046514 f   libucrt:mbtowc.obj
 0001:0004554c       _mbtowc                    1004654c f   libucrt:mbtowc.obj
 0001:00045583       __fileno                   10046583 f   libucrt:fileno.obj
 0001:000455aa       ??$?RPAU__crt_stdio_stream_data@@@__crt_internal_free_policy@@QBEXQBQAU__crt_stdio_stream_data@@@Z 100465aa f i libucrt:_file.obj
 0001:000455bc       ??0?$__crt_unique_heap_ptr@PAU__crt_stdio_stream_data@@U__crt_internal_free_policy@@@@QAE@QAPAU__crt_stdio_stream_data@@@Z 100465bc f i libucrt:_file.obj
 0001:000455cc       ??1?$__crt_unique_heap_ptr@PAU__crt_stdio_stream_data@@U__crt_internal_free_policy@@@@QAE@XZ 100465cc f i libucrt:_file.obj
 0001:000455de       ?detach@?$__crt_unique_heap_ptr@PAU__crt_stdio_stream_data@@U__crt_internal_free_policy@@@@QAEPAPAU__crt_stdio_stream_data@@XZ 100465de f i libucrt:_file.obj
 0001:000455e4       ?release@?$__crt_unique_heap_ptr@PAU__crt_stdio_stream_data@@U__crt_internal_free_policy@@@@QAEXXZ 100465e4 f i libucrt:_file.obj
 0001:000455f6       ___acrt_initialize_stdio   100465f6 f   libucrt:_file.obj
 0001:000456be       ___acrt_iob_func           100466be f   libucrt:_file.obj
 0001:000456ce       ___acrt_uninitialize_stdio 100466ce f   libucrt:_file.obj
 0001:0004571a       __get_stream_buffer_pointers 1004671a f   libucrt:_file.obj
 0001:00045760       __lock_file                10046760 f   libucrt:_file.obj
 0001:00045774       __unlock_file              10046774 f   libucrt:_file.obj
 0001:00045788       __get_printf_count_output  10046788 f   libucrt:printf_count_output.obj
 0001:0004579d       __set_printf_count_output  1004679d f   libucrt:printf_count_output.obj
 0001:0004588b       __fputwc_nolock            1004688b f   libucrt:fputwc.obj
 0001:000458c1       __fputwc_nolock_internal   100468c1 f   libucrt:fputwc.obj
 0001:000459f9       __fputwchar                100469f9 f   libucrt:fputwc.obj
 0001:00045a13       __putwc_nolock             10046a13 f   libucrt:fputwc.obj
 0001:00045a1e       _fputwc                    10046a1e f   libucrt:fputwc.obj
 0001:00045a54       _putwc                     10046a54 f   libucrt:fputwc.obj
 0001:00045a5f       _putwchar                  10046a5f f   libucrt:fputwc.obj
 0001:00045b9e       __fputc_nolock             10046b9e f   libucrt:fputc.obj
 0001:00045bd2       __fputc_nolock_internal    10046bd2 f   libucrt:fputc.obj
 0001:00045bff       __fputchar                 10046bff f   libucrt:fputc.obj
 0001:00045c19       __putc_nolock              10046c19 f   libucrt:fputc.obj
 0001:00045c24       _fputc                     10046c24 f   libucrt:fputc.obj
 0001:00045c58       _putc                      10046c58 f   libucrt:fputc.obj
 0001:00045c63       _putchar                   10046c63 f   libucrt:fputc.obj
 0001:00045c6e       ?has_temporary_buffer@__crt_stdio_stream@@QBE_NXZ 10046c6e f i libucrt:_sftbuf.obj
 0001:00045c7a       ___acrt_should_use_temporary_buffer 10046c7a f   libucrt:_sftbuf.obj
 0001:00045cb8       ___acrt_stdio_begin_temporary_buffering_nolock 10046cb8 f   libucrt:_sftbuf.obj
 0001:00045d63       ___acrt_stdio_end_temporary_buffering_nolock 10046d63 f   libucrt:_sftbuf.obj
 0001:00045da1       __isatty                   10046da1 f   libucrt:isatty.obj
 0001:00045df7       __calloc_base              10046df7 f   libucrt:calloc_base.obj
 0001:00045e54       ___sys_errlist             10046e54 f   libucrt:syserr.obj
 0001:00045e5a       ___sys_nerr                10046e5a f   libucrt:syserr.obj
 0001:00046103       __mbstowcs_l               10047103 f   libucrt:mbstowcs.obj
 0001:0004613b       __mbstowcs_s_l             1004713b f   libucrt:mbstowcs.obj
 0001:00046179       _mbstowcs                  10047179 f   libucrt:mbstowcs.obj
 0001:000461b0       _mbstowcs_s                100471b0 f   libucrt:mbstowcs.obj
 0001:000462a4       _strncpy_s                 100472a4 f   libucrt:strncpy_s.obj
 0001:000462db       ?__mbrtowc_utf8@__crt_mbstring@@YAIPA_WPBDIPAU_Mbstatet@@AAV__crt_cached_ptd_host@@@Z 100472db f   libucrt:mbrtowc.obj
 0001:0004631e       ?__mbsrtowcs_utf8@__crt_mbstring@@YAIPA_WPAPBDIPAU_Mbstatet@@AAV__crt_cached_ptd_host@@@Z 1004731e f   libucrt:mbrtowc.obj
 0001:00046858       _btowc                     10047858 f   libucrt:mbrtowc.obj
 0001:000468c9       _mbrlen                    100478c9 f   libucrt:mbrtowc.obj
 0001:00046911       _mbrtowc                   10047911 f   libucrt:mbrtowc.obj
 0001:00046978       _mbsrtowcs                 10047978 f   libucrt:mbrtowc.obj
 0001:000469b2       _mbsrtowcs_s               100479b2 f   libucrt:mbrtowc.obj
 0001:00046ad3       __putwch                   10047ad3 f   libucrt:putwch.obj
 0001:00046b00       __putwch_nolock            10047b00 f   libucrt:putwch.obj
 0001:00046b32       __putwch_nolock_internal   10047b32 f   libucrt:putwch.obj
 0001:00046b42       ??$?RU__crt_stdio_stream_data@@@__crt_internal_free_policy@@QBEXQBU__crt_stdio_stream_data@@@Z 10047b42 f i libucrt:stream.obj
 0001:00046b54       ??0?$__crt_unique_heap_ptr@U__crt_stdio_stream_data@@U__crt_internal_free_policy@@@@QAE@QAU__crt_stdio_stream_data@@@Z 10047b54 f i libucrt:stream.obj
 0001:00046b64       ??0__crt_stdio_stream@@QAE@QAU__crt_stdio_stream_data@@@Z 10047b64 f i libucrt:stream.obj
 0001:00046b74       ??0__crt_stdio_stream@@QAE@XZ 10047b74 f i libucrt:stream.obj
 0001:00046b7a       ??1?$__crt_unique_heap_ptr@U__crt_stdio_stream_data@@U__crt_internal_free_policy@@@@QAE@XZ 10047b7a f i libucrt:stream.obj
 0001:00046b8c       ?__acrt_stdio_allocate_stream@@YA?AV__crt_stdio_stream@@XZ 10047b8c f   libucrt:stream.obj
 0001:00046bf5       ?__acrt_stdio_free_stream@@YAXV__crt_stdio_stream@@@Z 10047bf5 f   libucrt:stream.obj
 0001:00046c30       ?deallocate@__crt_stdio_stream@@QAEXXZ 10047c30 f i libucrt:stream.obj
 0001:00046c3a       ?detach@?$__crt_unique_heap_ptr@U__crt_stdio_stream_data@@U__crt_internal_free_policy@@@@QAEPAU__crt_stdio_stream_data@@XZ 10047c3a f i libucrt:stream.obj
 0001:00046d02       ?lock@__crt_stdio_stream@@QBEXXZ 10047d02 f i libucrt:stream.obj
 0001:00046d0b       ?release@?$__crt_unique_heap_ptr@U__crt_stdio_stream_data@@U__crt_internal_free_policy@@@@QAEXXZ 10047d0b f i libucrt:stream.obj
 0001:00046d1d       ?try_allocate@__crt_stdio_stream@@QAE_NXZ 10047d1d f i libucrt:stream.obj
 0001:00046d3d       ??$__acrt_stdio_parse_mode@D@@YA?AU__acrt_stdio_stream_mode@@QBD@Z 10047d3d f i libucrt:openfile.obj
 0001:00046f67       ??$__acrt_stdio_parse_mode@_W@@YA?AU__acrt_stdio_stream_mode@@QB_W@Z 10047f67 f i libucrt:openfile.obj
 0001:000472d8       ??$tcsncmp@AAPBDAAY02$$CBDI@?$__crt_char_traits@D@@SAHAAPBDAAY02$$CBD$$QAI@Z 100482d8 f i libucrt:openfile.obj
 0001:000472f4       ??$tcsncmp@AAPB_WAAY02$$CB_WI@?$__crt_char_traits@_W@@SAHAAPB_WAAY02$$CB_W$$QAI@Z 100482f4 f i libucrt:openfile.obj
 0001:00047310       ??$tcsnicmp@AAPBDAAY04$$CBDI@?$__crt_char_traits@D@@SAHAAPBDAAY04$$CBD$$QAI@Z 10048310 f i libucrt:openfile.obj
 0001:0004732c       ??$tcsnicmp@AAPBDAAY06$$CBDI@?$__crt_char_traits@D@@SAHAAPBDAAY06$$CBD$$QAI@Z 1004832c f i libucrt:openfile.obj
 0001:00047348       ??$tcsnicmp@AAPBDAAY07$$CBDI@?$__crt_char_traits@D@@SAHAAPBDAAY07$$CBD$$QAI@Z 10048348 f i libucrt:openfile.obj
 0001:00047364       ??$tcsnicmp@AAPB_WAAY04$$CB_WI@?$__crt_char_traits@_W@@SAHAAPB_WAAY04$$CB_W$$QAI@Z 10048364 f i libucrt:openfile.obj
 0001:00047380       ??$tcsnicmp@AAPB_WAAY06$$CB_WI@?$__crt_char_traits@_W@@SAHAAPB_WAAY06$$CB_W$$QAI@Z 10048380 f i libucrt:openfile.obj
 0001:0004739c       ??$tcsnicmp@AAPB_WAAY07$$CB_WI@?$__crt_char_traits@_W@@SAHAAPB_WAAY07$$CB_W$$QAI@Z 1004839c f i libucrt:openfile.obj
 0001:000473b8       ??$tsopen_s@PAHABQBDABHABHH@?$__crt_char_traits@D@@SAH$$QAPAHABQBDABH2$$QAH@Z 100483b8 f i libucrt:openfile.obj
 0001:000473e0       ??$tsopen_s@PAHABQB_WABHABHH@?$__crt_char_traits@_W@@SAH$$QAPAHABQB_WABH2$$QAH@Z 100483e0 f i libucrt:openfile.obj
 0001:00047408       ?__acrt_stdio_parse_mode_D@@YA_NAAU__acrt_stdio_stream_mode@@@Z 10048408 f i libucrt:openfile.obj
 0001:00047423       ?__acrt_stdio_parse_mode_N@@YA_NAAU__acrt_stdio_stream_mode@@@Z 10048423 f i libucrt:openfile.obj
 0001:00047435       ?__acrt_stdio_parse_mode_R@@YA_NAAU__acrt_stdio_stream_mode@@AA_N@Z 10048435 f i libucrt:openfile.obj
 0001:00047453       ?__acrt_stdio_parse_mode_S@@YA_NAAU__acrt_stdio_stream_mode@@AA_N@Z 10048453 f i libucrt:openfile.obj
 0001:00047471       ?__acrt_stdio_parse_mode_T@@YA_NAAU__acrt_stdio_stream_mode@@@Z 10048471 f i libucrt:openfile.obj
 0001:00047490       ?__acrt_stdio_parse_mode_b@@YA_NAAU__acrt_stdio_stream_mode@@@Z 10048490 f i libucrt:openfile.obj
 0001:000474b0       ?__acrt_stdio_parse_mode_c@@YA_NAAU__acrt_stdio_stream_mode@@AA_N@Z 100484b0 f i libucrt:openfile.obj
 0001:000474d2       ?__acrt_stdio_parse_mode_n@@YA_NAAU__acrt_stdio_stream_mode@@AA_N@Z 100484d2 f i libucrt:openfile.obj
 0001:000474f4       ?__acrt_stdio_parse_mode_plus@@YA_NAAU__acrt_stdio_stream_mode@@AA_N@Z 100484f4 f i libucrt:openfile.obj
 0001:0004752a       ?__acrt_stdio_parse_mode_t@@YA_NAAU__acrt_stdio_stream_mode@@@Z 1004852a f i libucrt:openfile.obj
 0001:0004754a       ?__acrt_stdio_parse_mode_x@@YA_NAAU__acrt_stdio_stream_mode@@@Z 1004854a f i libucrt:openfile.obj
 0001:0004756a       __openfile                 1004856a f   libucrt:openfile.obj
 0001:00047575       __wopenfile                10048575 f   libucrt:openfile.obj
 0001:00047580       ___acrt_stdio_free_buffer_nolock 10048580 f   libucrt:_freebuf.obj
 0001:00047a99       ___acrt_stdio_flush_nolock 10048a99 f   libucrt:fflush.obj
 0001:00047b02       __fflush_nolock            10048b02 f   libucrt:fflush.obj
 0001:00047b67       __flushall                 10048b67 f   libucrt:fflush.obj
 0001:00047b70       _fflush                    10048b70 f   libucrt:fflush.obj
 0001:00047fde       ___acrt_stdio_flush_and_write_narrow_nolock 10048fde f   libucrt:_flsbuf.obj
 0001:00047fe9       ___acrt_stdio_flush_and_write_wide_nolock 10048fe9 f   libucrt:_flsbuf.obj
 0001:0004840d       ___acrt_stdio_refill_and_read_narrow_nolock 1004940d f   libucrt:_filbuf.obj
 0001:00048418       ___acrt_stdio_refill_and_read_wide_nolock 10049418 f   libucrt:_filbuf.obj
 0001:00048423       ___acrt_initialize_locks   10049423 f   libucrt:locks.obj
 0001:00048464       ___acrt_lock               10049464 f   libucrt:locks.obj
 0001:0004847b       ___acrt_uninitialize_locks 1004947b f   libucrt:locks.obj
 0001:000484ac       ___acrt_unlock             100494ac f   libucrt:locks.obj
 0001:000484c3       __lock_locales             100494c3 f   libucrt:locks.obj
 0001:000484d1       __unlock_locales           100494d1 f   libucrt:locks.obj
 0001:000484da       ___acrt_app_verifier_enabled 100494da f   libucrt:peb_access.obj
 0001:000484ec       ___acrt_is_secure_process  100494ec f   libucrt:peb_access.obj
 0001:00048698       ___acrt_get_begin_thread_init_policy 10049698 f   libucrt:win_policies.obj
 0001:000486d2       ___acrt_get_developer_information_policy 100496d2 f   libucrt:win_policies.obj
 0001:00048710       ___acrt_get_process_end_policy 10049710 f   libucrt:win_policies.obj
 0001:00048737       ___acrt_get_windowing_model_policy 10049737 f   libucrt:win_policies.obj
 0001:000487c2       ??$__acrt_convert_wcs_mbs_cp@_WDV<lambda_28bda7af82a03b66c1cb3803a755f95d>@@U__crt_win32_buffer_internal_dynamic_resizing@@@@YAHQB_WAAV?$__crt_win32_buffer@DU__crt_win32_buffer_internal_dynamic_resizing@@@@ABV<lambda_28bda7af82a03b66c1cb3803a755f95d>@@I@Z 100497c2 f i libucrt:argv_wildcards.obj
 0001:00048888       ??$__acrt_wcs_to_mbs_cp@U__crt_win32_buffer_internal_dynamic_resizing@@@@YAHQB_WAAV?$__crt_win32_buffer@DU__crt_win32_buffer_internal_dynamic_resizing@@@@I@Z 10049888 f i libucrt:argv_wildcards.obj
 0001:0004913a       ??$tcslen@ABQBD@?$__crt_char_traits@D@@SAIABQBD@Z 1004a13a f i libucrt:argv_wildcards.obj
 0001:00049152       ??$tcslen@ABQB_W@?$__crt_char_traits@_W@@SAIABQB_W@Z 1004a152 f i libucrt:argv_wildcards.obj
 0001:00049170       ??$tcsncpy_s@AAPADIAAPADABI@?$__crt_char_traits@D@@SAHAAPAD$$QAI0ABI@Z 1004a170 f i libucrt:argv_wildcards.obj
 0001:00049193       ??$tcsncpy_s@AAPA_WIAAPA_WABI@?$__crt_char_traits@_W@@SAHAAPA_W$$QAI0ABI@Z 1004a193 f i libucrt:argv_wildcards.obj
 0001:000491b6       ??$tcsncpy_s@PADABIABQBDABI@?$__crt_char_traits@D@@SAH$$QAPADABIABQBD1@Z 1004a1b6 f i libucrt:argv_wildcards.obj
 0001:000491d9       ??$tcsncpy_s@PADIABQBDABI@?$__crt_char_traits@D@@SAH$$QAPAD$$QAIABQBDABI@Z 1004a1d9 f i libucrt:argv_wildcards.obj
 0001:000491fc       ??$tcsncpy_s@PA_WABIABQB_WABI@?$__crt_char_traits@_W@@SAH$$QAPA_WABIABQB_W1@Z 1004a1fc f i libucrt:argv_wildcards.obj
 0001:0004921f       ??$tcsncpy_s@PA_WIABQB_WABI@?$__crt_char_traits@_W@@SAH$$QAPA_W$$QAIABQB_WABI@Z 1004a21f f i libucrt:argv_wildcards.obj
 0001:00049242       ??$tcspbrk@AAPADAAY02$$CBD@?$__crt_char_traits@D@@SAPADAAPADAAY02$$CBD@Z 1004a242 f i libucrt:argv_wildcards.obj
 0001:00049258       ??$tcspbrk@AAPA_WAAY02$$CB_W@?$__crt_char_traits@_W@@SAPA_WAAPA_WAAY02$$CB_W@Z 1004a258 f i libucrt:argv_wildcards.obj
 0001:0004926e       ??0?$__crt_unique_handle_t@U__crt_findfile_traits@@@@QAE@QAX@Z 1004a26e f i libucrt:argv_wildcards.obj
 0001:0004927e       ??0?$__crt_win32_buffer@DU__crt_win32_buffer_internal_dynamic_resizing@@@@QAE@XZ 1004a27e f i libucrt:argv_wildcards.obj
 0001:000492ae       ??1?$__crt_unique_handle_t@U__crt_findfile_traits@@@@QAE@XZ 1004a2ae f i libucrt:argv_wildcards.obj
 0001:000492c5       ??1?$__crt_win32_buffer@DU__crt_win32_buffer_internal_dynamic_resizing@@@@QAE@XZ 1004a2c5 f i libucrt:argv_wildcards.obj
 0001:00049320       ??R<lambda_28bda7af82a03b66c1cb3803a755f95d>@@QBE@IQB_WQADI@Z 1004a320 f i libucrt:argv_wildcards.obj
 0001:000493ba       ?_deallocate@?$__crt_win32_buffer@DU__crt_win32_buffer_internal_dynamic_resizing@@@@AAEXXZ 1004a3ba f i libucrt:argv_wildcards.obj
 0001:000493d4       ?allocate@?$__crt_win32_buffer@DU__crt_win32_buffer_internal_dynamic_resizing@@@@QAEHI@Z 1004a3d4 f i libucrt:argv_wildcards.obj
 0001:00049480       ?capacity@?$__crt_win32_buffer@DU__crt_win32_buffer_internal_dynamic_resizing@@@@QBEIXZ 1004a480 f i libucrt:argv_wildcards.obj
 0001:00049484       ?close@?$__crt_unique_handle_t@U__crt_findfile_traits@@@@QAEXXZ 1004a484 f i libucrt:argv_wildcards.obj
 0001:0004949b       ?close@__crt_findfile_traits@@SA_NPAX@Z 1004a49b f i libucrt:argv_wildcards.obj
 0001:000494b0       ?data@?$__crt_win32_buffer@DU__crt_win32_buffer_internal_dynamic_resizing@@@@QAEPADXZ 1004a4b0 f i libucrt:argv_wildcards.obj
 0001:000494b4       ?debug_info@?$__crt_win32_buffer@DU__crt_win32_buffer_internal_dynamic_resizing@@@@QBEABV__crt_win32_buffer_empty_debug_info@@XZ 1004a4b4 f i libucrt:argv_wildcards.obj
 0001:000495cd       ?get@?$__crt_unique_handle_t@U__crt_findfile_traits@@@@QBEPAXXZ 1004a5cd f i libucrt:argv_wildcards.obj
 0001:00049603       ?get_invalid_value@__crt_findfile_traits@@SAPAXXZ 1004a603 f i libucrt:argv_wildcards.obj
 0001:00049652       ?set_to_nullptr@?$__crt_win32_buffer@DU__crt_win32_buffer_internal_dynamic_resizing@@@@QAEXXZ 1004a652 f i libucrt:argv_wildcards.obj
 0001:00049669       ?size@?$__crt_win32_buffer@DU__crt_win32_buffer_internal_dynamic_resizing@@@@QAEXI@Z 1004a669 f i libucrt:argv_wildcards.obj
 0001:0004968a       ?strpbrk@@YAPADQADQBD@Z    1004a68a f i libucrt:argv_wildcards.obj
 0001:00049695       ?wcspbrk@@YAPA_WPA_WPB_W@Z 1004a695 f i libucrt:argv_wildcards.obj
 0001:000496a0       ___acrt_expand_narrow_argv_wildcards 1004a6a0 f   libucrt:argv_wildcards.obj
 0001:000496ab       ___acrt_expand_wide_argv_wildcards 1004a6ab f   libucrt:argv_wildcards.obj
 0001:000496b6       ??$__acrt_convert_wcs_mbs_cp@_WDV<lambda_0fec1a7b3f42a53036604e18c2d5e07e>@@U__crt_win32_buffer_no_resizing@@@@YAHQB_WAAV?$__crt_win32_buffer@DU__crt_win32_buffer_no_resizing@@@@ABV<lambda_0fec1a7b3f42a53036604e18c2d5e07e>@@I@Z 1004a6b6 f i libucrt:getmodulefilenamea.obj
 0001:00049778       ??$__acrt_wcs_to_mbs_cp@U__crt_win32_buffer_no_resizing@@@@YAHQB_WAAV?$__crt_win32_buffer@DU__crt_win32_buffer_no_resizing@@@@I@Z 1004a778 f i libucrt:getmodulefilenamea.obj
 0001:00049795       ??0?$__crt_win32_buffer@DU__crt_win32_buffer_no_resizing@@@@QAE@QADI@Z 1004a795 f i libucrt:getmodulefilenamea.obj
 0001:000497b9       ??1?$__crt_win32_buffer@DU__crt_win32_buffer_no_resizing@@@@QAE@XZ 1004a7b9 f i libucrt:getmodulefilenamea.obj
 0001:000497c4       ??R<lambda_0fec1a7b3f42a53036604e18c2d5e07e>@@QBE@IQB_WQADI@Z 1004a7c4 f i libucrt:getmodulefilenamea.obj
 0001:000497e8       ?_deallocate@?$__crt_win32_buffer@DU__crt_win32_buffer_no_resizing@@@@AAEXXZ 1004a7e8 f i libucrt:getmodulefilenamea.obj
 0001:000497f3       ?allocate@?$__crt_win32_buffer@DU__crt_win32_buffer_no_resizing@@@@QAEHI@Z 1004a7f3 f i libucrt:getmodulefilenamea.obj
 0001:0004981a       ?allocate@__crt_win32_buffer_no_resizing@@SAHQAPAXIABV__crt_win32_buffer_empty_debug_info@@@Z 1004a81a f i libucrt:getmodulefilenamea.obj
 0001:00049827       ?capacity@?$__crt_win32_buffer@DU__crt_win32_buffer_no_resizing@@@@QBEIXZ 1004a827 f i libucrt:getmodulefilenamea.obj
 0001:0004982b       ?data@?$__crt_win32_buffer@DU__crt_win32_buffer_no_resizing@@@@QAEPADXZ 1004a82b f i libucrt:getmodulefilenamea.obj
 0001:0004982f       ?deallocate@__crt_win32_buffer_no_resizing@@SAXQAXABV__crt_win32_buffer_empty_debug_info@@@Z 1004a82f f i libucrt:getmodulefilenamea.obj
 0001:00049832       ?debug_info@?$__crt_win32_buffer@DU__crt_win32_buffer_no_resizing@@@@QBEABV__crt_win32_buffer_empty_debug_info@@XZ 1004a832 f i libucrt:getmodulefilenamea.obj
 0001:00049835       ?set_to_nullptr@?$__crt_win32_buffer@DU__crt_win32_buffer_no_resizing@@@@QAEXXZ 1004a835 f i libucrt:getmodulefilenamea.obj
 0001:00049849       ?size@?$__crt_win32_buffer@DU__crt_win32_buffer_no_resizing@@@@QAEXI@Z 1004a849 f i libucrt:getmodulefilenamea.obj
 0001:00049858       ?size@?$__crt_win32_buffer@DU__crt_win32_buffer_no_resizing@@@@QBEIXZ 1004a858 f i libucrt:getmodulefilenamea.obj
 0001:0004985c       ___acrt_GetModuleFileNameA 1004a85c f   libucrt:getmodulefilenamea.obj
 0001:00049970       ??$initialize_from_array@$$BY10BAA@E@?$dual_state_global@PAE@__crt_state_management@@QAAXAAY10BAA@E@Z 1004a970 f i libucrt:mbctype.obj
 0001:0004997f       ??$initialize_from_array@$$BY10BAB@E@?$dual_state_global@PAE@__crt_state_management@@QAAXAAY10BAB@E@Z 1004a97f f i libucrt:mbctype.obj
 0001:00049a9b       ?dangerous_get_state_array@?$dual_state_global@PAE@__crt_state_management@@QAEPAPAEXZ 1004aa9b f i libucrt:mbctype.obj
 0001:00049a9e       ?dangerous_get_state_array@?$dual_state_global@PAU__crt_multibyte_data@@@__crt_state_management@@QAEPAPAU__crt_multibyte_data@@XZ 1004aa9e f i libucrt:mbctype.obj
 0001:00049b12       ?initialize@?$dual_state_global@PAU__crt_multibyte_data@@@__crt_state_management@@QAEXQAU__crt_multibyte_data@@@Z 1004ab12 f i libucrt:mbctype.obj
 0001:00049f2b       ?value@?$dual_state_global@PAE@__crt_state_management@@QAEAAPAEXZ 1004af2b f i libucrt:mbctype.obj
 0001:00049f2e       ___acrt_initialize_multibyte 1004af2e f   libucrt:mbctype.obj
 0001:00049f76       ___acrt_update_thread_multibyte_data 1004af76 f   libucrt:mbctype.obj
 0001:00049f89       ___p__mbcasemap            1004af89 f   libucrt:mbctype.obj
 0001:00049f8f       ___p__mbctype              1004af8f f   libucrt:mbctype.obj
 0001:00049f95       __getmbcp                  1004af95 f   libucrt:mbctype.obj
 0001:00049fc9       __setmbcp                  1004afc9 f   libucrt:mbctype.obj
 0001:00049fe8       __setmbcp_nolock           1004afe8 f   libucrt:mbctype.obj
 0001:0004a2be       __ismbbalnum               1004b2be f   libucrt:ismbbyte.obj
 0001:0004a2d9       __ismbbalnum_l             1004b2d9 f   libucrt:ismbbyte.obj
 0001:0004a2f5       __ismbbalpha               1004b2f5 f   libucrt:ismbbyte.obj
 0001:0004a310       __ismbbalpha_l             1004b310 f   libucrt:ismbbyte.obj
 0001:0004a32c       __ismbbblank               1004b32c f   libucrt:ismbbyte.obj
 0001:0004a34f       __ismbbblank_l             1004b34f f   libucrt:ismbbyte.obj
 0001:0004a373       __ismbbgraph               1004b373 f   libucrt:ismbbyte.obj
 0001:0004a38e       __ismbbgraph_l             1004b38e f   libucrt:ismbbyte.obj
 0001:0004a3aa       __ismbbkalnum              1004b3aa f   libucrt:ismbbyte.obj
 0001:0004a3c2       __ismbbkalnum_l            1004b3c2 f   libucrt:ismbbyte.obj
 0001:0004a3db       __ismbbkana                1004b3db f   libucrt:ismbbyte.obj
 0001:0004a3ee       __ismbbkana_l              1004b3ee f   libucrt:ismbbyte.obj
 0001:0004a43d       __ismbbkprint              1004b43d f   libucrt:ismbbyte.obj
 0001:0004a455       __ismbbkprint_l            1004b455 f   libucrt:ismbbyte.obj
 0001:0004a46e       __ismbbkpunct              1004b46e f   libucrt:ismbbyte.obj
 0001:0004a486       __ismbbkpunct_l            1004b486 f   libucrt:ismbbyte.obj
 0001:0004a49f       __ismbblead                1004b49f f   libucrt:ismbbyte.obj
 0001:0004a4b7       __ismbblead_l              1004b4b7 f   libucrt:ismbbyte.obj
 0001:0004a4d0       __ismbbprint               1004b4d0 f   libucrt:ismbbyte.obj
 0001:0004a4eb       __ismbbprint_l             1004b4eb f   libucrt:ismbbyte.obj
 0001:0004a507       __ismbbpunct               1004b507 f   libucrt:ismbbyte.obj
 0001:0004a51f       __ismbbpunct_l             1004b51f f   libucrt:ismbbyte.obj
 0001:0004a538       __ismbbtrail               1004b538 f   libucrt:ismbbyte.obj
 0001:0004a550       __ismbbtrail_l             1004b550 f   libucrt:ismbbyte.obj
 0001:0004a569       ___acrt_initialize_command_line 1004b569 f   libucrt:argv_data.obj
 0001:0004a582       ___acrt_uninitialize_command_line 1004b582 f   libucrt:argv_data.obj
 0001:0004a585       ___p___argc                1004b585 f   libucrt:argv_data.obj
 0001:0004a58b       ___p___argv                1004b58b f   libucrt:argv_data.obj
 0001:0004a591       ___p___wargv               1004b591 f   libucrt:argv_data.obj
 0001:0004a597       ___p__acmdln               1004b597 f   libucrt:argv_data.obj
 0001:0004a59d       ___p__pgmptr               1004b59d f   libucrt:argv_data.obj
 0001:0004a5a3       ___p__wcmdln               1004b5a3 f   libucrt:argv_data.obj
 0001:0004a5a9       ___p__wpgmptr              1004b5a9 f   libucrt:argv_data.obj
 0001:0004a5af       __get_pgmptr               1004b5af f   libucrt:argv_data.obj
 0001:0004a5e0       __get_wpgmptr              1004b5e0 f   libucrt:argv_data.obj
 0001:0004a675       _wcscpy_s                  1004b675 f   libucrt:wcscpy_s.obj
 0001:0004a774       ___dcrt_get_narrow_environment_from_os 1004b774 f   libucrt:get_environment_from_os.obj
 0001:0004a814       ___dcrt_get_wide_environment_from_os 1004b814 f   libucrt:get_environment_from_os.obj
 0001:0004af9c       ??$get_or_create_environment_nolock@$$V@?$__crt_char_traits@D@@SAPAPADXZ 1004bf9c f i libucrt:setenv.obj
 0001:0004afa1       ??$get_or_create_environment_nolock@$$V@?$__crt_char_traits@_W@@SAPAPA_WXZ 1004bfa1 f i libucrt:setenv.obj
 0001:0004afa6       ??$set_environment_variable@ABQADQAD@?$__crt_char_traits@D@@SAHABQAD$$QBQAD@Z 1004bfa6 f i libucrt:setenv.obj
 0001:0004afbe       ??$set_environment_variable@ABQA_WQA_W@?$__crt_char_traits@_W@@SAHABQA_W$$QBQA_W@Z 1004bfbe f i libucrt:setenv.obj
 0001:0004afd5       ??$tcschr@ABQADD@?$__crt_char_traits@D@@SAPADABQAD$$QAD@Z 1004bfd5 f i libucrt:setenv.obj
 0001:0004afef       ??$tcschr@ABQA_WD@?$__crt_char_traits@_W@@SAPA_WABQA_W$$QAD@Z 1004bfef f i libucrt:setenv.obj
 0001:0004b00d       ??$tcscpy_s@AAPADABIAAPAD@?$__crt_char_traits@D@@SAHAAPADABI0@Z 1004c00d f i libucrt:setenv.obj
 0001:0004b02b       ??$tcscpy_s@AAPA_WABIAAPA_W@?$__crt_char_traits@_W@@SAHAAPA_WABI0@Z 1004c02b f i libucrt:setenv.obj
 0001:0004b049       ??$tcscpy_s@ABQADABIABQAD@?$__crt_char_traits@D@@SAHABQADABI0@Z 1004c049 f i libucrt:setenv.obj
 0001:0004b067       ??$tcscpy_s@ABQA_WABIABQA_W@?$__crt_char_traits@_W@@SAHABQA_WABI0@Z 1004c067 f i libucrt:setenv.obj
 0001:0004b085       ??$tcslen@ABQAD@?$__crt_char_traits@D@@SAIABQAD@Z 1004c085 f i libucrt:setenv.obj
 0001:0004b09d       ??$tcslen@ABQA_W@?$__crt_char_traits@_W@@SAIABQA_W@Z 1004c09d f i libucrt:setenv.obj
 0001:0004b0bb       ??$tcsnicoll@ABQBDAAPADABI@?$__crt_char_traits@D@@SAHABQBDAAPADABI@Z 1004c0bb f i libucrt:setenv.obj
 0001:0004b0d9       ??$tcsnicoll@ABQB_WAAPA_WABI@?$__crt_char_traits@_W@@SAHABQB_WAAPA_WABI@Z 1004c0d9 f i libucrt:setenv.obj
 0001:0004b11b       ?strchr@@YAPADQADH@Z       1004c11b f i libucrt:setenv.obj
 0001:0004b126       ?wcschr@@YAPA_WPA_W_W@Z    1004c126 f i libucrt:setenv.obj
 0001:0004b131       ___dcrt_set_variable_in_narrow_environment_nolock 1004c131 f   libucrt:setenv.obj
 0001:0004b13c       ___dcrt_set_variable_in_wide_environment_nolock 1004c13c f   libucrt:setenv.obj
 0001:0004b147       __recalloc                 1004c147 f   libucrt:recalloc.obj
 0001:0004b152       __recalloc_base            1004c152 f   libucrt:recalloc.obj
 0001:0004b1bf       ___acrt_getheap            1004c1bf f   libucrt:heap_handle.obj
 0001:0004b1c5       ___acrt_initialize_heap    1004c1c5 f   libucrt:heap_handle.obj
 0001:0004b1d6       ___acrt_uninitialize_heap  1004c1d6 f   libucrt:heap_handle.obj
 0001:0004b1e0       __get_heap_handle          1004c1e0 f   libucrt:heap_handle.obj
 0001:0004b1e6       ___acrt_execute_initializers 1004c1e6 f   libucrt:shared_initialization.obj
 0001:0004b24e       ___acrt_execute_uninitializers 1004c24e f   libucrt:shared_initialization.obj
 0001:0004b27f       ??$?B$$A6AHI@Z@__crt_fast_encoded_nullptr_t@@QBEP6AHI@ZXZ 1004c27f f i libucrt:new_handler.obj
 0001:0004b285       ??$__crt_fast_decode_pointer@P6AHI@Z@@YAP6AHI@ZQ6AHI@Z@Z 1004c285 f i libucrt:new_handler.obj
 0001:0004b2a0       ??$__crt_fast_encode_pointer@P6AHI@Z@@YAP6AHI@ZQ6AHI@Z@Z 1004c2a0 f i libucrt:new_handler.obj
 0001:0004b2bf       ?_set_new_handler@@YAP6AHI@ZH@Z 1004c2bf f   libucrt:new_handler.obj
 0001:0004b2cc       ?initialize@?$dual_state_global@P6AHI@Z@__crt_state_management@@QAEXQ6AHI@Z@Z 1004c2cc f i libucrt:new_handler.obj
 0001:0004b2e8       ?value@?$dual_state_global@P6AHI@Z@__crt_state_management@@QAEAAP6AHI@ZXZ 1004c2e8 f i libucrt:new_handler.obj
 0001:0004b2eb       ___acrt_initialize_new_handler 1004c2eb f   libucrt:new_handler.obj
 0001:0004b2fa       __callnewh                 1004c2fa f   libucrt:new_handler.obj
 0001:0004b326       __query_new_handler        1004c326 f   libucrt:new_handler.obj
 0001:0004b37d       __set_new_handler          1004c37d f   libucrt:new_handler.obj
 0001:0004b3e2       ??$?B$$A6AXH@Z@__crt_fast_encoded_nullptr_t@@QBEP6AXH@ZXZ 1004c3e2 f i libucrt:signal.obj
 0001:0004b476       ??$__crt_fast_decode_pointer@P6AXH@Z@@YAP6AXH@ZQ6AXH@Z@Z 1004c476 f i libucrt:signal.obj
 0001:0004b491       ??$__crt_fast_encode_pointer@P6AXH@Z@@YAP6AXH@ZQ6AXH@Z@Z 1004c491 f i libucrt:signal.obj
 0001:0004b5ed       ?initialize@?$dual_state_global@P6AXH@Z@__crt_state_management@@QAEXQ6AXH@Z@Z 1004c5ed f i libucrt:signal.obj
 0001:0004b697       ?value@?$dual_state_global@P6AXH@Z@__crt_state_management@@QAEAAP6AXH@ZXZ 1004c697 f i libucrt:signal.obj
 0001:0004b69a       ___acrt_get_sigabrt_handler 1004c69a f   libucrt:signal.obj
 0001:0004b6c1       ___acrt_initialize_signal_handlers 1004c6c1 f   libucrt:signal.obj
 0001:0004b6df       ___fpecode                 1004c6df f   libucrt:signal.obj
 0001:0004b6e8       ___pxcptinfoptrs           1004c6e8 f   libucrt:signal.obj
 0001:0004b6f1       _raise                     1004c6f1 f   libucrt:signal.obj
 0001:0004b8e3       _signal                    1004c8e3 f   libucrt:signal.obj
 0001:0004baa7       ??$__crt_fast_decode_pointer@P6AHPAU_exception@@@Z@@YAP6AHPAU_exception@@@ZQ6AH0@Z@Z 1004caa7 f i libucrt:matherr.obj
 0001:0004bac2       ??$__crt_fast_encode_pointer@P6AHPAU_exception@@@Z@@YAP6AHPAU_exception@@@ZQ6AH0@Z@Z 1004cac2 f i libucrt:matherr.obj
 0001:0004bae1       ?initialize@?$dual_state_global@P6AHPAU_exception@@@Z@__crt_state_management@@QAEXQ6AHPAU_exception@@@Z@Z 1004cae1 f i libucrt:matherr.obj
 0001:0004bafd       ?value@?$dual_state_global@P6AHPAU_exception@@@Z@__crt_state_management@@QAEAAP6AHPAU_exception@@@ZXZ 1004cafd f i libucrt:matherr.obj
 0001:0004bb00       ___acrt_has_user_matherr   1004cb00 f   libucrt:matherr.obj
 0001:0004bb1d       ___acrt_initialize_user_matherr 1004cb1d f   libucrt:matherr.obj
 0001:0004bb2c       ___acrt_invoke_user_matherr 1004cb2c f   libucrt:matherr.obj
 0001:0004bb62       ___setusermatherr          1004cb62 f   libucrt:matherr.obj
 0001:0004bb77       ___pctype_func             1004cb77 f   libucrt:ctype.obj
 0001:0004bb9b       ___pwctype_func            1004cb9b f   libucrt:ctype.obj
 0001:0004bba1       __iswctype_l               1004cba1 f   libucrt:iswctype.obj
 0001:0004bbb5       _iswctype                  1004cbb5 f   libucrt:iswctype.obj
 0001:0004bc1e       __isctype                  1004cc1e f   libucrt:isctype.obj
 0001:0004bc51       __isctype_l                1004cc51 f   libucrt:isctype.obj
 0001:0004bdbc       ___acrt_report_runtime_error 1004cdbc f   libucrt:report_runtime_error.obj
 0001:0004bed1       __query_app_type           1004ced1 f   libucrt:report_runtime_error.obj
 0001:0004bed7       __set_app_type             1004ced7 f   libucrt:report_runtime_error.obj
 0001:0004bee6       ___acrt_add_locale_ref     1004cee6 f   libucrt:locale_refcounting.obj
 0001:0004bf63       ___acrt_free_locale        1004cf63 f   libucrt:locale_refcounting.obj
 0001:0004c0ab       ___acrt_locale_add_lc_time_reference 1004d0ab f   libucrt:locale_refcounting.obj
 0001:0004c0d4       ___acrt_locale_free_lc_time_if_unreferenced 1004d0d4 f   libucrt:locale_refcounting.obj
 0001:0004c105       ___acrt_locale_release_lc_time_reference 1004d105 f   libucrt:locale_refcounting.obj
 0001:0004c12e       ___acrt_release_locale_ref 1004d12e f   libucrt:locale_refcounting.obj
 0001:0004c1af       ___acrt_update_thread_locale_data 1004d1af f   libucrt:locale_refcounting.obj
 0001:0004c230       __updatetlocinfoEx_nolock  1004d230 f   libucrt:locale_refcounting.obj
 0001:0004c280       ??$?RG@__crt_internal_free_policy@@QBEXQBG@Z 1004d280 f i libucrt:initctype.obj
 0001:0004c292       ??$?RJ@__crt_internal_free_policy@@QBEXQBJ@Z 1004d292 f i libucrt:initctype.obj
 0001:0004c2a4       ??0?$__crt_unique_heap_ptr@GU__crt_internal_free_policy@@@@QAE@QAG@Z 1004d2a4 f i libucrt:initctype.obj
 0001:0004c2b4       ??0?$__crt_unique_heap_ptr@JU__crt_internal_free_policy@@@@QAE@QAJ@Z 1004d2b4 f i libucrt:initctype.obj
 0001:0004c2c4       ??1?$__crt_unique_heap_ptr@GU__crt_internal_free_policy@@@@QAE@XZ 1004d2c4 f i libucrt:initctype.obj
 0001:0004c2d6       ??1?$__crt_unique_heap_ptr@JU__crt_internal_free_policy@@@@QAE@XZ 1004d2d6 f i libucrt:initctype.obj
 0001:0004c2e8       ?detach@?$__crt_unique_heap_ptr@GU__crt_internal_free_policy@@@@QAEPAGXZ 1004d2e8 f i libucrt:initctype.obj
 0001:0004c2ee       ?detach@?$__crt_unique_heap_ptr@JU__crt_internal_free_policy@@@@QAEPAJXZ 1004d2ee f i libucrt:initctype.obj
 0001:0004c2f4       ?release@?$__crt_unique_heap_ptr@GU__crt_internal_free_policy@@@@QAEXXZ 1004d2f4 f i libucrt:initctype.obj
 0001:0004c306       ?release@?$__crt_unique_heap_ptr@JU__crt_internal_free_policy@@@@QAEXXZ 1004d306 f i libucrt:initctype.obj
 0001:0004c318       ____lc_codepage_func       1004d318 f   libucrt:initctype.obj
 0001:0004c33d       ____lc_collate_cp_func     1004d33d f   libucrt:initctype.obj
 0001:0004c362       ____lc_locale_name_func    1004d362 f   libucrt:initctype.obj
 0001:0004c389       ____mb_cur_max_func        1004d389 f   libucrt:initctype.obj
 0001:0004c3ae       ____mb_cur_max_l_func      1004d3ae f   libucrt:initctype.obj
 0001:0004c3c7       ___acrt_locale_initialize_ctype 1004d3c7 f   libucrt:initctype.obj
 0001:0004c824       ??$?RUlconv@@@__crt_internal_free_policy@@QBEXQBUlconv@@@Z 1004d824 f i libucrt:initmon.obj
 0001:0004c836       ??0?$__crt_unique_heap_ptr@Ulconv@@U__crt_internal_free_policy@@@@QAE@QAUlconv@@@Z 1004d836 f i libucrt:initmon.obj
 0001:0004c846       ??1?$__crt_unique_heap_ptr@Ulconv@@U__crt_internal_free_policy@@@@QAE@XZ 1004d846 f i libucrt:initmon.obj
 0001:0004c858       ?detach@?$__crt_unique_heap_ptr@Ulconv@@U__crt_internal_free_policy@@@@QAEPAUlconv@@XZ 1004d858 f i libucrt:initmon.obj
 0001:0004c85e       ?release@?$__crt_unique_heap_ptr@Ulconv@@U__crt_internal_free_policy@@@@QAEXXZ 1004d85e f i libucrt:initmon.obj
 0001:0004c870       ___acrt_locale_free_monetary 1004d870 f   libucrt:initmon.obj
 0001:0004c96e       ___acrt_locale_initialize_monetary 1004d96e f   libucrt:initmon.obj
 0001:0004cd06       ___acrt_locale_free_numeric 1004dd06 f   libucrt:initnum.obj
 0001:0004cd6f       ___acrt_locale_initialize_numeric 1004dd6f f   libucrt:initnum.obj
 0001:0004cfc3       ??$?RU__crt_lc_time_data@@@__crt_internal_free_policy@@QBEXQBU__crt_lc_time_data@@@Z 1004dfc3 f i libucrt:inittime.obj
 0001:0004d047       ??0?$__crt_unique_heap_ptr@U__crt_lc_time_data@@U__crt_internal_free_policy@@@@QAE@QAU__crt_lc_time_data@@@Z 1004e047 f i libucrt:inittime.obj
 0001:0004d057       ??1?$__crt_unique_heap_ptr@U__crt_lc_time_data@@U__crt_internal_free_policy@@@@QAE@XZ 1004e057 f i libucrt:inittime.obj
 0001:0004d069       ??B?$__crt_unique_heap_ptr@U__crt_lc_time_data@@U__crt_internal_free_policy@@@@QBE_NXZ 1004e069 f i libucrt:inittime.obj
 0001:0004d070       ?detach@?$__crt_unique_heap_ptr@U__crt_lc_time_data@@U__crt_internal_free_policy@@@@QAEPAU__crt_lc_time_data@@XZ 1004e070 f i libucrt:inittime.obj
 0001:0004d09b       ?get@?$__crt_unique_heap_ptr@U__crt_lc_time_data@@U__crt_internal_free_policy@@@@QBEPAU__crt_lc_time_data@@XZ 1004e09b f i libucrt:inittime.obj
 0001:0004d386       ?is_valid@?$__crt_unique_heap_ptr@U__crt_lc_time_data@@U__crt_internal_free_policy@@@@QBE_NXZ 1004e386 f i libucrt:inittime.obj
 0001:0004d38d       ?release@?$__crt_unique_heap_ptr@U__crt_lc_time_data@@U__crt_internal_free_policy@@@@QAEXXZ 1004e38d f i libucrt:inittime.obj
 0001:0004d39f       ___acrt_locale_free_time   1004e39f f   libucrt:inittime.obj
 0001:0004d483       ___acrt_locale_initialize_time 1004e483 f   libucrt:inittime.obj
 0001:0004d56e       _wcscat_s                  1004e56e f   libucrt:wcscat_s.obj
 0001:0004d6c5       _wcsncat_s                 1004e6c5 f   libucrt:wcsncat_s.obj
 0001:0004d79e       _wcsncpy_s                 1004e79e f   libucrt:wcsncpy_s.obj
 0001:0004d7a9       _wcscspn                   1004e7a9 f   libucrt:wcscspn.obj
 0001:0004d802       _wcspbrk                   1004e802 f   libucrt:wcspbrk.obj
 0001:0004d850       ??0?$__crt_scoped_stack_ptr@_W@@QAE@U?$__crt_scoped_stack_ptr_tag@_W@@@Z 1004e850 f i libucrt:getstringtypea.obj
 0001:0004d860       ??0?$__crt_scoped_stack_ptr_tag@_W@@QAE@QA_W@Z 1004e860 f i libucrt:getstringtypea.obj
 0001:0004d870       ??1?$__crt_scoped_stack_ptr@_W@@QAE@XZ 1004e870 f i libucrt:getstringtypea.obj
 0001:0004d879       ?get@?$__crt_scoped_stack_ptr@_W@@QBEPA_WXZ 1004e879 f i libucrt:getstringtypea.obj
 0001:0004d87c       __MallocaComputeSize       1004e87c f i libucrt:getstringtypea.obj
 0001:0004d88f       __MarkAllocaS              1004e88f f i libucrt:getstringtypea.obj
 0001:0004d8a5       ___acrt_GetStringTypeA     1004e8a5 f   libucrt:getstringtypea.obj
 0001:0004d9a6       __freea_crt                1004e9a6 f i libucrt:getstringtypea.obj
 0001:0004e106       ___acrt_get_qualified_locale 1004f106 f   libucrt:get_qualified_locale.obj
 0001:0004ea99       ___acrt_get_qualified_locale_downlevel 1004fa99 f   libucrt:getqloc_downlevel.obj
 0001:0004ec89       _localeconv                1004fc89 f   libucrt:localeconv.obj
 0001:0004ecb1       ?value@?$dual_state_global@J@__crt_state_management@@QAEAAJXZ 1004fcb1 f i libucrt:new_mode.obj
 0001:0004ecb4       __query_new_mode           1004fcb4 f   libucrt:new_mode.obj
 0001:0004ecbb       __set_new_mode             1004fcbb f   libucrt:new_mode.obj
 0001:0004ecea       ?dangerous_get_state_array@?$dual_state_global@H@__crt_state_management@@QAEPAHXZ 1004fcea f i libucrt:txtmode.obj
 0001:0004eced       ___acrt_initialize_fmode   1004fced f   libucrt:txtmode.obj
 0001:0004ed03       ___p__fmode                1004fd03 f   libucrt:txtmode.obj
 0001:0004ed90       ___acrt_DownlevelLCIDToLocaleName 1004fd90 f   libucrt:lcidtoname_downlevel.obj
 0001:0004ee33       ___acrt_DownlevelLocaleNameToLCID 1004fe33 f   libucrt:lcidtoname_downlevel.obj
 0001:0004ee5f       ?__c16rtomb_utf8@__crt_mbstring@@YAIPAD_SPAU_Mbstatet@@AAV__crt_cached_ptd_host@@@Z 1004fe5f f   libucrt:c16rtomb.obj
 0001:0004ef80       _c16rtomb                  1004ff80 f   libucrt:c16rtomb.obj
 0001:0004efb7       ?__c32rtomb_utf8@__crt_mbstring@@YAIPAD_UPAU_Mbstatet@@AAV__crt_cached_ptd_host@@@Z 1004ffb7 f   libucrt:c32rtomb.obj
 0001:0004f067       _c32rtomb                  10050067 f   libucrt:c32rtomb.obj
 0001:0004f14f       ___acrt_fp_strflt_to_string 1005014f f   libucrt:_fptostr.obj
 0001:00050510       ??0big_integer@__crt_strtox@@QAE@ABU01@@Z 10051510 f i libucrt:cfout.obj
 0001:00050550       ??0big_integer@__crt_strtox@@QAE@XZ 10051550 f i libucrt:cfout.obj
 0001:000505e0       ??4big_integer@__crt_strtox@@QAEAAU01@ABU01@@Z 100515e0 f i libucrt:cfout.obj
 0001:00050620       ??8__crt_strtox@@YA_NABUbig_integer@0@0@Z 10051620 f i libucrt:cfout.obj
 0001:00050660       ??9__crt_strtox@@YA_NABUbig_integer@0@0@Z 10051660 f i libucrt:cfout.obj
 0001:000506a0       ?add_carry@__crt_strtox@@YAIAAIII@Z 100516a0 f i libucrt:cfout.obj
 0001:000506c0       ?add_multiply_carry@__crt_strtox@@YAIAAIIII@Z 100516c0 f i libucrt:cfout.obj
 0001:000506f0       ?bit_scan_reverse@__crt_strtox@@YAII@Z 100516f0 f i libucrt:cfout.obj
 0001:00050710       ?count_sequential_high_zeroes@__crt_strtox@@YAII@Z 10051710 f i libucrt:cfout.obj
 0001:00050730       ?divide@__crt_strtox@@YA_KAAUbig_integer@1@ABU21@@Z 10051730 f i libucrt:cfout.obj
 0001:00050be0       ?is_zero@__crt_strtox@@YA_NABUbig_integer@1@@Z 10051be0 f i libucrt:cfout.obj
 0001:00050bf0       ?make_big_integer@__crt_strtox@@YA?AUbig_integer@1@_K@Z 10051bf0 f i libucrt:cfout.obj
 0001:00050c10       ?make_big_integer_power_of_two@__crt_strtox@@YA?AUbig_integer@1@I@Z 10051c10 f i libucrt:cfout.obj
 0001:00050c60       ?multiply@__crt_strtox@@YA_NAAUbig_integer@1@ABU21@@Z 10051c60 f i libucrt:cfout.obj
 0001:00050fc0       ?multiply@__crt_strtox@@YA_NAAUbig_integer@1@I@Z 10051fc0 f i libucrt:cfout.obj
 0001:00051090       ?multiply_64_32@__crt_strtox@@YA_K_KI@Z 10052090 f i libucrt:cfout.obj
 0001:000510b0       ?multiply_by_power_of_ten@__crt_strtox@@YA_NAAUbig_integer@1@I@Z 100520b0 f i libucrt:cfout.obj
 0001:00051640       ?multiply_core@__crt_strtox@@YAIQAIII@Z 10052640 f i libucrt:cfout.obj
 0001:00051680       ?shift_left@__crt_strtox@@YA_NAAUbig_integer@1@I@Z 10052680 f i libucrt:cfout.obj
 0001:000517af       ___acrt_fltout             100527af f   libucrt:cfout.obj
 0001:00052e18       ___fpe_flt_rounds          10053e18 f   libucrt:fegetround.obj
 0001:00052e4c       _fegetround                10053e4c f   libucrt:fegetround.obj
 0001:00052e59       __fcloseall                10053e59 f   libucrt:closeall.obj
 0001:00052f04       ?__mbrtoc32_utf8@__crt_mbstring@@YAIPA_UPBDIPAU_Mbstatet@@AAV__crt_cached_ptd_host@@@Z 10053f04 f   libucrt:mbrtoc32.obj
 0001:000530b5       _mbrtoc32                  100540b5 f   libucrt:mbrtoc32.obj
 0001:0005319f       ___dcrt_lowio_ensure_console_output_initialized 1005419f f   libucrt:initcon.obj
 0001:000531be       ___dcrt_terminate_console_output 100541be f   libucrt:initcon.obj
 0001:000531d5       ___dcrt_write_console      100541d5 f   libucrt:initcon.obj
 0001:0005322a       ___ascii_wcsnicmp          1005422a f   libucrt:wcsnicmp.obj
 0001:00053279       __towlower_fast_internal   10054279 f i libucrt:wcsnicmp.obj
 0001:000532a4       __towlower_internal        100542a4 f i libucrt:wcsnicmp.obj
 0001:000532e3       __wcsnicmp                 100542e3 f   libucrt:wcsnicmp.obj
 0001:0005332f       __wcsnicmp_l               1005432f f   libucrt:wcsnicmp.obj
 0001:00053402       __strnicmp                 10054402 f   libucrt:strnicmp.obj
 0001:0005346f       __strnicmp_l               1005446f f   libucrt:strnicmp.obj
 0001:0005353a       ___p__commode              1005453a f   libucrt:ncommode.obj
 0001:000536a3       __commit                   100546a3 f   libucrt:commit.obj
 0001:00053720       ___acrt_stdio_allocate_buffer_nolock 10054720 f   libucrt:_getbuf.obj
 0001:00053840       _qsort                     10054840 f   libucrt:qsort.obj
 0001:00053d30       _strpbrk                   10054d30 f   libucrt:strpbrk.obj
 0001:00053d70       __mbsdec                   10054d70 f   libucrt:mbsdec.obj
 0001:00053d87       __mbsdec_l                 10054d87 f   libucrt:mbsdec.obj
 0001:00053e14       ??B?$__crt_scoped_stack_ptr@_W@@QBE_NXZ 10054e14 f i libucrt:lcmapstringa.obj
 0001:0005400a       ___acrt_LCMapStringA       1005500a f   libucrt:lcmapstringa.obj
 0001:00054062       __wcsnicoll                10055062 f   libucrt:wcsnicol.obj
 0001:000540cf       __wcsnicoll_l              100550cf f   libucrt:wcsnicol.obj
 0001:0005418f       __strnicoll                1005518f f   libucrt:strnicol.obj
 0001:000541b8       __strnicoll_l              100551b8 f   libucrt:strnicol.obj
 0001:00054280       ___acrt_SetEnvironmentVariableA 10055280 f   libucrt:setenvironmentvariablea.obj
 0001:00054315       __msize                    10055315 f   libucrt:msize.obj
 0001:00054320       __msize_base               10055320 f   libucrt:msize.obj
 0001:00054353       __realloc_base             10055353 f   libucrt:realloc_base.obj
 0001:000543bc       ___acrt_GetStringTypeW     100553bc f   libucrt:getstringtypew.obj
 0001:000543d5       __set_error_mode           100553d5 f   libucrt:set_error_mode.obj
 0001:00054517       ??$message_box@$$TABQBDABQBDK@?$__crt_char_traits@D@@SAH$$QA$$TABQBD1$$QAK@Z 10055517 f i libucrt:crtmbox.obj
 0001:00054537       ??$message_box@$$TABQB_WABQB_WK@?$__crt_char_traits@_W@@SAH$$QA$$TABQB_W1$$QAK@Z 10055537 f i libucrt:crtmbox.obj
 0001:00054557       ??$message_box@PAUHWND__@@ABQBDABQBDABI@?$__crt_char_traits@D@@SAH$$QAPAUHWND__@@ABQBD1ABI@Z 10055557 f i libucrt:crtmbox.obj
 0001:00054577       ??$message_box@PAUHWND__@@ABQB_WABQB_WABI@?$__crt_char_traits@_W@@SAH$$QAPAUHWND__@@ABQB_W1ABI@Z 10055577 f i libucrt:crtmbox.obj
 0001:00054597       ??$output_debug_string@ABQBD@?$__crt_char_traits@D@@SAXABQBD@Z 10055597 f i libucrt:crtmbox.obj
 0001:000545a8       ??$output_debug_string@ABQB_W@?$__crt_char_traits@_W@@SAXABQB_W@Z 100555a8 f i libucrt:crtmbox.obj
 0001:000545ba       ___acrt_show_narrow_message_box 100555ba f   libucrt:crtmbox.obj
 0001:000545c5       ___acrt_show_wide_message_box 100555c5 f   libucrt:crtmbox.obj
 0001:000546af       ___acrt_GetLocaleInfoA     100556af f   libucrt:getlocaleinfoa.obj
 0001:00054d61       __i64toa                   10055d61 f   libucrt:xtoa.obj
 0001:00054da2       __i64toa_s                 10055da2 f   libucrt:xtoa.obj
 0001:00054de1       __i64tow                   10055de1 f   libucrt:xtoa.obj
 0001:00054e22       __i64tow_s                 10055e22 f   libucrt:xtoa.obj
 0001:00054e61       __itoa                     10055e61 f   libucrt:xtoa.obj
 0001:00054e96       __itoa_s                   10055e96 f   libucrt:xtoa.obj
 0001:00054ec9       __itow                     10055ec9 f   libucrt:xtoa.obj
 0001:00054efe       __itow_s                   10055efe f   libucrt:xtoa.obj
 0001:00054f31       __ltoa                     10055f31 f   libucrt:xtoa.obj
 0001:00054f66       __ltoa_s                   10055f66 f   libucrt:xtoa.obj
 0001:00054f99       __ltow                     10055f99 f   libucrt:xtoa.obj
 0001:00054fce       __ltow_s                   10055fce f   libucrt:xtoa.obj
 0001:00055001       __ui64toa                  10056001 f   libucrt:xtoa.obj
 0001:00055023       __ui64toa_s                10056023 f   libucrt:xtoa.obj
 0001:00055043       __ui64tow                  10056043 f   libucrt:xtoa.obj
 0001:00055065       __ui64tow_s                10056065 f   libucrt:xtoa.obj
 0001:00055085       __ultoa                    10056085 f   libucrt:xtoa.obj
 0001:000550a4       __ultoa_s                  100560a4 f   libucrt:xtoa.obj
 0001:000550c1       __ultow                    100560c1 f   libucrt:xtoa.obj
 0001:000550e0       __ultow_s                  100560e0 f   libucrt:xtoa.obj
 0001:000550fd       ___ascii_wcsicmp           100560fd f   libucrt:wcsicmp.obj
 0001:0005513a       __wcsicmp                  1005613a f   libucrt:wcsicmp.obj
 0001:00055183       __wcsicmp_l                10056183 f   libucrt:wcsicmp.obj
 0001:0005523b       ?reset_and_return@__crt_mbstring@@YAIIPAU_Mbstatet@@@Z 1005623b f   libucrt:common_utf8.obj
 0001:0005524f       ?return_illegal_sequence@__crt_mbstring@@YAIPAU_Mbstatet@@AAV__crt_cached_ptd_host@@@Z 1005624f f   libucrt:common_utf8.obj
 0001:00055271       __controlfp_s              10056271 f   libucrt:contrlfp.obj
 0001:000552d0       _fegetenv                  100562d0 f   libucrt:fegetenv.obj
 0001:000552ed       _fesetenv                  100562ed f   libucrt:fesetenv.obj
 0001:00055339       _feholdexcept              10056339 f   libucrt:feholdexcept.obj
 0001:00055390       __CIlog10                  10056390 f   libucrt:log10_impl.obj
 0001:000553cb       __CIlog10_default          100563cb f   libucrt:log10_impl.obj
 0001:000553df       __log10_default            100563df     libucrt:log10_impl.obj
 0001:000554a0       _ceil                      100564a0 f   libucrt:ceil_pentium4.obj
 0001:000554e0       __ceil_pentium4            100564e0 f   libucrt:ceil_pentium4.obj
 0001:000555bd       ??$__acrt_fenv_shift_bits@W4__acrt_fenv_abstract_control@@@@YA?AW4__acrt_fenv_abstract_control@@W40@0I@Z 100565bd f i libucrt:_fenvutils.obj
 0001:000555cf       ??$__acrt_fenv_shift_bits@W4__acrt_fenv_abstract_status@@@@YA?AW4__acrt_fenv_abstract_status@@W40@0I@Z 100565cf f i libucrt:_fenvutils.obj
 0001:000555e1       ??$__acrt_fenv_translate_bit@W4__acrt_fenv_abstract_control@@W4__acrt_fenv_machine_sse_control@@@@YA?AW4__acrt_fenv_abstract_control@@W4__acrt_fenv_machine_sse_control@@0W40@1@Z 100565e1 f i libucrt:_fenvutils.obj
 0001:000555f9       ??$__acrt_fenv_translate_bit@W4__acrt_fenv_abstract_control@@W4__acrt_fenv_machine_x87_control@@@@YA?AW4__acrt_fenv_abstract_control@@W4__acrt_fenv_machine_x87_control@@0W40@1@Z 100565f9 f i libucrt:_fenvutils.obj
 0001:00055611       ??$__acrt_fenv_translate_bit@W4__acrt_fenv_abstract_status@@W4__acrt_fenv_machine_sse_status@@@@YA?AW4__acrt_fenv_abstract_status@@W4__acrt_fenv_machine_sse_status@@0W40@1@Z 10056611 f i libucrt:_fenvutils.obj
 0001:00055626       ??$__acrt_fenv_translate_bit@W4__acrt_fenv_abstract_status@@W4__acrt_fenv_machine_x87_status@@@@YA?AW4__acrt_fenv_abstract_status@@W4__acrt_fenv_machine_x87_status@@0W40@1@Z 10056626 f i libucrt:_fenvutils.obj
 0001:0005563b       ??$__acrt_fenv_translate_bit@W4__acrt_fenv_machine_sse_control@@W4__acrt_fenv_abstract_control@@@@YA?AW4__acrt_fenv_machine_sse_control@@W4__acrt_fenv_abstract_control@@0W40@1@Z 1005663b f i libucrt:_fenvutils.obj
 0001:00055652       ??$__acrt_fenv_translate_bit@W4__acrt_fenv_machine_sse_status@@W4__acrt_fenv_abstract_status@@@@YA?AW4__acrt_fenv_machine_sse_status@@W4__acrt_fenv_abstract_status@@0W40@1@Z 10056652 f i libucrt:_fenvutils.obj
 0001:00055667       ??$__acrt_fenv_translate_bit@W4__acrt_fenv_machine_x87_control@@W4__acrt_fenv_abstract_control@@@@YA?AW4__acrt_fenv_machine_x87_control@@W4__acrt_fenv_abstract_control@@0W40@1@Z 10056667 f i libucrt:_fenvutils.obj
 0001:0005567e       ??$__acrt_fenv_translate_bit@W4__acrt_fenv_machine_x87_status@@W4__acrt_fenv_abstract_status@@@@YA?AW4__acrt_fenv_machine_x87_status@@W4__acrt_fenv_abstract_status@@0W40@1@Z 1005667e f i libucrt:_fenvutils.obj
 0001:00055693       ??$__acrt_fenv_unshift_bits@W4__acrt_fenv_abstract_control@@@@YA?AW4__acrt_fenv_abstract_control@@W40@0I@Z 10056693 f i libucrt:_fenvutils.obj
 0001:000556a5       ??$__acrt_fenv_unshift_bits@W4__acrt_fenv_abstract_status@@@@YA?AW4__acrt_fenv_abstract_status@@W40@0I@Z 100566a5 f i libucrt:_fenvutils.obj
 0001:00055a9a       ??I@YA?AW4__acrt_fenv_abstract_control@@W40@0@Z 10056a9a f i libucrt:_fenvutils.obj
 0001:00055aa7       ??I@YA?AW4__acrt_fenv_abstract_status@@W40@0@Z 10056aa7 f i libucrt:_fenvutils.obj
 0001:00055ab4       ??I@YA?AW4__acrt_fenv_machine_sse_control@@W40@0@Z 10056ab4 f i libucrt:_fenvutils.obj
 0001:00055ac1       ??I@YA?AW4__acrt_fenv_machine_sse_status@@W40@0@Z 10056ac1 f i libucrt:_fenvutils.obj
 0001:00055ace       ??I@YA?AW4__acrt_fenv_machine_x87_control@@W40@0@Z 10056ace f i libucrt:_fenvutils.obj
 0001:00055adb       ??I@YA?AW4__acrt_fenv_machine_x87_status@@W40@0@Z 10056adb f i libucrt:_fenvutils.obj
 0001:00055ae8       ??U@YA?AW4__acrt_fenv_abstract_control@@W40@0@Z 10056ae8 f i libucrt:_fenvutils.obj
 0001:00055af5       ??U@YA?AW4__acrt_fenv_abstract_status@@W40@0@Z 10056af5 f i libucrt:_fenvutils.obj
 0001:00055b02       ??U@YA?AW4__acrt_fenv_machine_sse_control@@W40@0@Z 10056b02 f i libucrt:_fenvutils.obj
 0001:00055b0f       ??U@YA?AW4__acrt_fenv_machine_x87_control@@W40@0@Z 10056b0f f i libucrt:_fenvutils.obj
 0001:00055b1c       ??_5@YAAAW4__acrt_fenv_abstract_control@@AAW40@W40@@Z 10056b1c f i libucrt:_fenvutils.obj
 0001:00055b2b       ??_5@YAAAW4__acrt_fenv_abstract_status@@AAW40@W40@@Z 10056b2b f i libucrt:_fenvutils.obj
 0001:00055b3a       ??_5@YAAAW4__acrt_fenv_machine_sse_control@@AAW40@W40@@Z 10056b3a f i libucrt:_fenvutils.obj
 0001:00055b4b       ??_5@YAAAW4__acrt_fenv_machine_sse_status@@AAW40@W40@@Z 10056b4b f i libucrt:_fenvutils.obj
 0001:00055b5a       ??_5@YAAAW4__acrt_fenv_machine_x87_control@@AAW40@W40@@Z 10056b5a f i libucrt:_fenvutils.obj
 0001:00055b6b       ??_5@YAAAW4__acrt_fenv_machine_x87_status@@AAW40@W40@@Z 10056b6b f i libucrt:_fenvutils.obj
 0001:00055b7a       ?__acrt_fenv_shift_abstract_sse_control@@YA?AW4__acrt_fenv_abstract_control@@W41@@Z 10056b7a f i libucrt:_fenvutils.obj
 0001:00055b97       ?__acrt_fenv_shift_abstract_sse_status@@YA?AW4__acrt_fenv_abstract_status@@W41@@Z 10056b97 f i libucrt:_fenvutils.obj
 0001:00055ba7       ?__acrt_fenv_shift_abstract_x87_control@@YA?AW4__acrt_fenv_abstract_control@@W41@@Z 10056ba7 f i libucrt:_fenvutils.obj
 0001:00055bc4       ?__acrt_fenv_shift_abstract_x87_status@@YA?AW4__acrt_fenv_abstract_status@@W41@@Z 10056bc4 f i libucrt:_fenvutils.obj
 0001:00055bd4       ?__acrt_fenv_unshift_abstract_sse_control@@YA?AW4__acrt_fenv_abstract_control@@W41@@Z 10056bd4 f i libucrt:_fenvutils.obj
 0001:00055bf3       ?__acrt_fenv_unshift_abstract_sse_status@@YA?AW4__acrt_fenv_abstract_status@@W41@@Z 10056bf3 f i libucrt:_fenvutils.obj
 0001:00055c03       ?__acrt_fenv_unshift_abstract_x87_control@@YA?AW4__acrt_fenv_abstract_control@@W41@@Z 10056c03 f i libucrt:_fenvutils.obj
 0001:00055c22       ?__acrt_fenv_unshift_abstract_x87_status@@YA?AW4__acrt_fenv_abstract_status@@W41@@Z 10056c22 f i libucrt:_fenvutils.obj
 0001:00056135       ___acrt_fenv_expand_round_control 10057135 f   libucrt:_fenvutils.obj
 0001:0005616b       ___acrt_fenv_get_common_round_control 1005716b f   libucrt:_fenvutils.obj
 0001:0005618d       ___acrt_fenv_get_control   1005718d f   libucrt:_fenvutils.obj
 0001:0005620d       ___acrt_fenv_get_fp_status_word_from_exception_mask 1005720d f   libucrt:_fenvutils.obj
 0001:00056227       ___acrt_fenv_get_status    10057227 f   libucrt:_fenvutils.obj
 0001:000562d1       ___acrt_fenv_set_control   100572d1 f   libucrt:_fenvutils.obj
 0001:0005634c       ___acrt_fenv_set_status    1005734c f   libucrt:_fenvutils.obj
 0001:00056448       __towlower_l               10057448 f   libucrt:towlower.obj
 0001:0005651c       _towlower                  1005751c f   libucrt:towlower.obj
 0001:00056530       ___ascii_strnicmp          10057530 f   libucrt:_strnicm.obj
 0001:00056591       ___strncnt                 10057591 f   libucrt:strncnt.obj
 0001:000565ad       ___acrt_CompareStringW     100575ad f   libucrt:comparestringw.obj
 0001:000568b1       ___acrt_CompareStringA     100578b1 f   libucrt:comparestringa.obj
 0001:000568f7       ___acrt_OutputDebugStringA@4 100578f7 f   libucrt:outputdebugstringa.obj
 0001:00056aa9       ___control87_2             10057aa9 f   libucrt:ieee87.obj
 0001:00056f41       ___fpreset_sse2            10057f41 f   libucrt:ieee87.obj
 0001:00057117       __clearfp                  10058117 f   libucrt:ieee87.obj
 0001:000571f5       __control87                100581f5 f   libucrt:ieee87.obj
 0001:000574f6       __controlfp                100584f6 f   libucrt:ieee87.obj
 0001:00057510       __fpreset                  10058510 f   libucrt:ieee87.obj
 0001:000575e6       __set_controlfp            100585e6 f   libucrt:ieee87.obj
 0001:00057659       __statusfp                 10058659 f   libucrt:ieee87.obj
 0001:000576f4       __statusfp2                100586f4 f   libucrt:ieee87.obj
 0001:00057757       ___acrt_initialize_sse2    10058757 f   libucrt:mathfcns.obj
 0001:00057767       __set_SSE2_enable          10058767 f   libucrt:mathfcns.obj
 0001:00057790       __CIlog10_pentium4         10058790 f   libucrt:log10_pentium4.obj
 0001:000577a8       __log10_pentium4           100587a8     libucrt:log10_pentium4.obj
 0001:00057a40       __fFEXP                    10058a40 f   libucrt:87tran.obj
 0001:00057a97       __rtinfpopse               10058a97     libucrt:87tran.obj
 0001:00057a99       __rtinfnpopse              10058a99     libucrt:87tran.obj
 0001:00057aa9       __fFLN                     10058aa9     libucrt:87tran.obj
 0001:00057b5e       __rtinfpop                 10058b5e     libucrt:87tran.obj
 0001:00057b60       __rtinfnpop                10058b60     libucrt:87tran.obj
 0001:00057b70       __rtforexpinf              10058b70 f   libucrt:87tran.obj
 0001:00057b7d       __ffexpm1                  10058b7d     libucrt:87tran.obj
 0001:00057c30       __trandisp1                10058c30 f   libucrt:87disp.obj
 0001:00057ca5       __trandisp2                10058ca5 f   libucrt:87disp.obj
 0001:00057d3f       __rttospopde               10058d3f     libucrt:87disp.obj
 0001:00057d44       __rttospop                 10058d44     libucrt:87disp.obj
 0001:00057d50       __rtnospop                 10058d50 f   libucrt:87disp.obj
 0001:00057d60       __rttosnpop                10058d60 f   libucrt:87disp.obj
 0001:00057d61       __rtnospopde               10058d61     libucrt:87disp.obj
 0001:00057d68       __rtzeropop                10058d68     libucrt:87disp.obj
 0001:00057d6a       __rtzeronpop               10058d6a     libucrt:87disp.obj
 0001:00057d70       __rtzerospop               10058d70 f   libucrt:87disp.obj
 0001:00057d7d       __rtonepop                 10058d7d     libucrt:87disp.obj
 0001:00057d80       __rtonenpop                10058d80 f   libucrt:87disp.obj
 0001:00057d90       __tosnan1                  10058d90 f   libucrt:87disp.obj
 0001:00057dc0       __nosnan2                  10058dc0 f   libucrt:87disp.obj
 0001:00057dd0       __tosnan2                  10058dd0 f   libucrt:87disp.obj
 0001:00057e00       __nan2                     10058e00 f   libucrt:87disp.obj
 0001:00057e40       __rtindfpop                10058e40 f   libucrt:87disp.obj
 0001:00057e42       __rtindfnpop               10058e42     libucrt:87disp.obj
 0001:00057e53       __rttosnpopde              10058e53     libucrt:87disp.obj
 0001:00057e60       __rtatan2inf               10058e60 f   libucrt:87disp.obj
 0001:00057e7d       __rtchsifneg               10058e7d     libucrt:87disp.obj
 0001:00057e84       ___setfflag                10058e84 f   libucrt:fp_flags.obj
 0001:00057ea0       __twoToTOS                 10058ea0 f   libucrt:common.obj
 0001:00057eb5       __load_CW                  10058eb5 f   libucrt:common.obj
 0001:00057ecc       __convertTOStoQNaN         10058ecc f   libucrt:common.obj
 0001:00057ee5       __fload_withFB             10058ee5 f   libucrt:common.obj
 0001:00057f28       __checkTOS_withFB          10058f28 f   libucrt:common.obj
 0001:00057f3e       __fast_exit                10058f3e f   libucrt:common.obj
 0001:00057f4b       __math_exit                10058f4b f   libucrt:common.obj
 0001:00057f75       __check_overflow_exit      10058f75 f   libucrt:common.obj
 0001:00057f89       __check_range_exit         10058f89 f   libucrt:common.obj
 0001:00058030       __startTwoArgErrorHandling 10059030 f   libucrt:genexcep.obj
 0001:00058047       __startOneArgErrorHandling 10059047 f   libucrt:genexcep.obj
 0001:00058083       ___libm_error_support      10059083 f   libucrt:libm_error.obj
 0001:00058277       ___libm_setusermatherr     10059277 f   libucrt:libm_error.obj
 0001:0005829e       __ceil_default             1005929e f   libucrt:ceil.obj
 0001:0005835c       ___acrt_LCMapStringW       1005935c f   libucrt:lcmapstringw.obj
 0001:0005839a       ___clrfp_sse2              1005939a f   libucrt:fpctrl.obj
 0001:000583cc       ___ctrlfp_sse2             100593cc f   libucrt:fpctrl.obj
 0001:00058407       ___fclrf_sse2              10059407 f   libucrt:fpctrl.obj
 0001:00058424       ___get_fpsr_sse2           10059424 f   libucrt:fpctrl.obj
 0001:00058440       ___set_fpsr_sse2           10059440 f   libucrt:fpctrl.obj
 0001:000584c0       ___set_statfp_sse2         100594c0 f   libucrt:fpctrl.obj
 0001:000584db       ___statfp_sse2             100594db f   libucrt:fpctrl.obj
 0001:000584f0       __clrfp                    100594f0 f   libucrt:fpctrl.obj
 0001:00058501       __ctrlfp                   10059501 f   libucrt:fpctrl.obj
 0001:0005852b       __set_statfp               1005952b f   libucrt:fpctrl.obj
 0001:00058584       __statfp                   10059584 f   libucrt:fpctrl.obj
 0001:00058594       __d_inttype                10059594 f   libucrt:powhlp.obj
 0001:000585fc       __powhlp                   100595fc f   libucrt:powhlp.obj
 0001:00058727       __87except                 10059727 f   libucrt:87except.obj
 0001:00058837       __frnd                     10059837 f   libucrt:frnd.obj
 0001:0005884b       ?should_round_up@__crt_strtox@@YA_N_N000@Z 1005984b f i libucrt:fpexcept.obj
 0001:00058898       __errcode                  10059898 f   libucrt:fpexcept.obj
 0001:000588cc       __except1                  100598cc f   libucrt:fpexcept.obj
 0001:0005899a       __except2                  1005999a f   libucrt:fpexcept.obj
 0001:00058aa2       __handle_exc               10059aa2 f   libucrt:fpexcept.obj
 0001:00058d22       __handle_qnan2             10059d22 f   libucrt:fpexcept.obj
 0001:00058d2f       __raise_exc                10059d2f f   libucrt:fpexcept.obj
 0001:00058d52       __raise_exc_ex             10059d52 f   libucrt:fpexcept.obj
 0001:00059043       __raise_excf               1005a043 f   libucrt:fpexcept.obj
 0001:00059066       __set_errno_from_matherr   1005a066 f   libucrt:fpexcept.obj
 0001:00059097       __umatherr                 1005a097 f   libucrt:fpexcept.obj
 0001:00059137       __add_exp                  1005a137 f   libucrt:util.obj
 0001:00059166       __decomp                   1005a166 f   libucrt:util.obj
 0001:00059238       __get_exp                  1005a238 f   libucrt:util.obj
 0001:00059250       __set_bexp                 1005a250 f   libucrt:util.obj
 0001:00059277       __set_exp                  1005a277 f   libucrt:util.obj
 0001:000592a4       __sptype                   1005a2a4 f   libucrt:util.obj
 0001:00059307       __chgsign                  1005a307 f   libucrt:ieeemisc.obj
 0001:0005932f       __chgsignf                 1005a32f f   libucrt:ieeemisc.obj
 0001:00059350       __copysign                 1005a350 f   libucrt:ieeemisc.obj
 0001:00059373       __copysignf                1005a373 f   libucrt:ieeemisc.obj
 0001:0005938f       __finite                   1005a38f f   libucrt:ieeemisc.obj
 0001:000593a9       __fpclass                  1005a3a9 f   libucrt:ieeemisc.obj
 0001:0005944d       __isnan                    1005a44d f   libucrt:ieeemisc.obj
 0001:00059484       __logb                     1005a484 f   libucrt:ieeemisc.obj
 0001:00059554       __nextafter                1005a554 f   libucrt:ieeemisc.obj
 0001:00059573       __scalb                    1005a573 f   libucrt:ieeemisc.obj
 0001:0005958d       _ldexp                     1005a58d f   libucrt:ldexp.obj
 0001:00059780       _nextafter                 1005a780 f   libucrt:nextafter.obj
 0001:0005979f       _nexttoward                1005a79f f   libucrt:nexttoward.obj
 0001:0005998a       __d_int                    1005a98a f   libucrt:_test.obj
 0001:00059a90       __dtest                    1005aa90 f   libucrt:_test.obj
 0001:00059af4       __fd_int                   1005aaf4 f   libucrt:_test.obj
 0001:00059bc1       __fdtest                   1005abc1 f   libucrt:_test.obj
 0001:00059c0f       __fperrraise               1005ac0f f   libucrt:_test.obj
 0001:00059c30       __ld_int                   1005ac30 f   libucrt:_test.obj
 0001:00059c3b       __ldtest                   1005ac3b f   libucrt:_test.obj
 0001:00059c46       __dclass                   1005ac46 f   libucrt:nan.obj
 0001:00059c57       __dpcomp                   1005ac57 f   libucrt:nan.obj
 0001:00059cad       __dsign                    1005acad f   libucrt:nan.obj
 0001:00059cbd       _nan                       1005acbd f   libucrt:nan.obj
 0001:00059cc4       __ldclass                  1005acc4 f   libucrt:nanl.obj
 0001:00059cd5       __ldpcomp                  1005acd5 f   libucrt:nanl.obj
 0001:00059d2b       __ldsign                   1005ad2b f   libucrt:nanl.obj
 0001:00059d3b       _nanl                      1005ad3b f   libucrt:nanl.obj
 0001:00059d42       ??_4@YAAAW4__acrt_fenv_abstract_status@@AAW40@W40@@Z 1005ad42 f i libucrt:fegetexceptflag.obj
 0001:00059d51       _fegetexceptflag           1005ad51 f   libucrt:fegetexceptflag.obj
 0001:00059d82       ??S@YA?AW4__acrt_fenv_abstract_status@@W40@@Z 1005ad82 f i libucrt:fesetexceptflag.obj
 0001:00059d8e       _fesetexceptflag           1005ad8e f   libucrt:fesetexceptflag.obj
 0001:00059df0       _fetestexcept              1005adf0 f   libucrt:fetestexcept.obj
 0001:00059e10       _QueryPerformanceCounter@4 1005ae10 f   kernel32:KERNEL32.dll
 0001:00059e16       _GetCurrentProcessId@0     1005ae16 f   kernel32:KERNEL32.dll
 0001:00059e1c       _GetCurrentThreadId@0      1005ae1c f   kernel32:KERNEL32.dll
 0001:00059e22       _GetSystemTimeAsFileTime@4 1005ae22 f   kernel32:KERNEL32.dll
 0001:00059e28       _InitializeSListHead@4     1005ae28 f   kernel32:KERNEL32.dll
 0001:00059e2e       _IsDebuggerPresent@0       1005ae2e f   kernel32:KERNEL32.dll
 0001:00059e34       _UnhandledExceptionFilter@4 1005ae34 f   kernel32:KERNEL32.dll
 0001:00059e3a       _SetUnhandledExceptionFilter@4 1005ae3a f   kernel32:KERNEL32.dll
 0001:00059e40       _GetStartupInfoW@4         1005ae40 f   kernel32:KERNEL32.dll
 0001:00059e46       _IsProcessorFeaturePresent@4 1005ae46 f   kernel32:KERNEL32.dll
 0001:00059e4c       _GetModuleHandleW@4        1005ae4c f   kernel32:KERNEL32.dll
 0001:00059e52       _GetCurrentProcess@0       1005ae52 f   kernel32:KERNEL32.dll
 0001:00059e58       _TerminateProcess@8        1005ae58 f   kernel32:KERNEL32.dll
 0001:00059e5e       _InterlockedPushEntrySList@8 1005ae5e f   kernel32:KERNEL32.dll
 0001:00059e64       _InterlockedFlushSList@4   1005ae64 f   kernel32:KERNEL32.dll
 0001:00059e6a       _RtlUnwind@16              1005ae6a f   kernel32:KERNEL32.dll
 0001:00059e70       _SetLastError@4            1005ae70 f   kernel32:KERNEL32.dll
 0001:00059e76       _EnterCriticalSection@4    1005ae76 f   kernel32:KERNEL32.dll
 0001:00059e7c       _LeaveCriticalSection@4    1005ae7c f   kernel32:KERNEL32.dll
 0001:00059e82       _DeleteCriticalSection@4   1005ae82 f   kernel32:KERNEL32.dll
 0001:00059e88       _InitializeCriticalSectionAndSpinCount@8 1005ae88 f   kernel32:KERNEL32.dll
 0001:00059e8e       _TlsAlloc@0                1005ae8e f   kernel32:KERNEL32.dll
 0001:00059e94       _TlsGetValue@4             1005ae94 f   kernel32:KERNEL32.dll
 0001:00059e9a       _TlsSetValue@8             1005ae9a f   kernel32:KERNEL32.dll
 0001:00059ea0       _TlsFree@4                 1005aea0 f   kernel32:KERNEL32.dll
 0001:00059ea6       _FreeLibrary@4             1005aea6 f   kernel32:KERNEL32.dll
 0001:00059eac       _GetProcAddress@8          1005aeac f   kernel32:KERNEL32.dll
 0001:00059eb2       _LoadLibraryExW@12         1005aeb2 f   kernel32:KERNEL32.dll
 0001:00059eb8       _EncodePointer@4           1005aeb8 f   kernel32:KERNEL32.dll
 0001:00059ebe       _RaiseException@16         1005aebe f   kernel32:KERNEL32.dll
 0001:00059ec4       _SetFilePointerEx@20       1005aec4 f   kernel32:KERNEL32.dll
 0001:00059eca       _GetFileType@4             1005aeca f   kernel32:KERNEL32.dll
 0001:00059ed0       _GetConsoleMode@8          1005aed0 f   kernel32:KERNEL32.dll
 0001:00059ed6       _ReadConsoleW@20           1005aed6 f   kernel32:KERNEL32.dll
 0001:00059edc       _GetConsoleOutputCP@0      1005aedc f   kernel32:KERNEL32.dll
 0001:00059ee2       _ExitProcess@4             1005aee2 f   kernel32:KERNEL32.dll
 0001:00059ee8       _GetModuleHandleExW@12     1005aee8 f   kernel32:KERNEL32.dll
 0001:00059eee       _GetModuleFileNameW@12     1005aeee f   kernel32:KERNEL32.dll
 0001:00059ef4       _SetStdHandle@8            1005aef4 f   kernel32:KERNEL32.dll
 0001:00059efa       _GetCurrentThread@0        1005aefa f   kernel32:KERNEL32.dll
 0001:00059f00       _GetStdHandle@4            1005af00 f   kernel32:KERNEL32.dll
 0001:00059f06       _HeapFree@12               1005af06 f   kernel32:KERNEL32.dll
 0001:00059f0c       _HeapAlloc@12              1005af0c f   kernel32:KERNEL32.dll
 0001:00059f12       _MultiByteToWideChar@24    1005af12 f   kernel32:KERNEL32.dll
 0001:00059f18       _GetTempPathW@8            1005af18 f   kernel32:KERNEL32.dll
 0001:00059f1e       _GetDateFormatW@24         1005af1e f   kernel32:KERNEL32.dll
 0001:00059f24       _GetTimeFormatW@24         1005af24 f   kernel32:KERNEL32.dll
 0001:00059f2a       _CompareStringW@24         1005af2a f   kernel32:KERNEL32.dll
 0001:00059f30       _LCMapStringW@24           1005af30 f   kernel32:KERNEL32.dll
 0001:00059f36       _GetLocaleInfoW@16         1005af36 f   kernel32:KERNEL32.dll
 0001:00059f3c       _IsValidLocale@8           1005af3c f   kernel32:KERNEL32.dll
 0001:00059f42       _GetUserDefaultLCID@0      1005af42 f   kernel32:KERNEL32.dll
 0001:00059f48       _EnumSystemLocalesW@8      1005af48 f   kernel32:KERNEL32.dll
 0001:00059f4e       _SetEndOfFile@4            1005af4e f   kernel32:KERNEL32.dll
 0001:00059f54       _WideCharToMultiByte@32    1005af54 f   kernel32:KERNEL32.dll
 0001:00059f5a       _GetFileSizeEx@8           1005af5a f   kernel32:KERNEL32.dll
 0001:00059f60       _FindClose@4               1005af60 f   kernel32:KERNEL32.dll
 0001:00059f66       _FindFirstFileExW@24       1005af66 f   kernel32:KERNEL32.dll
 0001:00059f6c       _FindNextFileW@8           1005af6c f   kernel32:KERNEL32.dll
 0001:00059f72       _IsValidCodePage@4         1005af72 f   kernel32:KERNEL32.dll
 0001:00059f78       _GetACP@0                  1005af78 f   kernel32:KERNEL32.dll
 0001:00059f7e       _GetOEMCP@0                1005af7e f   kernel32:KERNEL32.dll
 0001:00059f84       _GetCPInfo@8               1005af84 f   kernel32:KERNEL32.dll
 0001:00059f8a       _GetCommandLineA@0         1005af8a f   kernel32:KERNEL32.dll
 0001:00059f90       _GetCommandLineW@0         1005af90 f   kernel32:KERNEL32.dll
 0001:00059f96       _GetEnvironmentStringsW@0  1005af96 f   kernel32:KERNEL32.dll
 0001:00059f9c       _FreeEnvironmentStringsW@4 1005af9c f   kernel32:KERNEL32.dll
 0001:00059fa2       _SetEnvironmentVariableW@8 1005afa2 f   kernel32:KERNEL32.dll
 0001:00059fa8       _GetProcessHeap@0          1005afa8 f   kernel32:KERNEL32.dll
 0001:00059fae       _SetConsoleCtrlHandler@8   1005afae f   kernel32:KERNEL32.dll
 0001:00059fb4       _GetStringTypeW@16         1005afb4 f   kernel32:KERNEL32.dll
 0001:00059fba       _WriteConsoleW@20          1005afba f   kernel32:KERNEL32.dll
 0001:00059fc0       _FlushFileBuffers@4        1005afc0 f   kernel32:KERNEL32.dll
 0001:00059fc6       _HeapSize@12               1005afc6 f   kernel32:KERNEL32.dll
 0001:00059fcc       _HeapReAlloc@16            1005afcc f   kernel32:KERNEL32.dll
 0001:00059fd2       _OutputDebugStringW@4      1005afd2 f   kernel32:KERNEL32.dll
 0001:00059fd8       _DecodePointer@4           1005afd8 f   kernel32:KERNEL32.dll
 0001:00059fe0       __FindPESection            1005afe0 f   LIBCMT:pesect.obj
 0001:0005a030       __IsNonwritableInCurrentImage 1005b030 f   LIBCMT:pesect.obj
 0001:0005a0f0       __ValidateImageBase        1005b0f0 f   LIBCMT:pesect.obj
 0001:0005a121       ??1type_info@@UAE@XZ       1005b121 f   LIBCMT:std_type_info_static.obj
 0001:0005a128       ??_Etype_info@@UAEPAXI@Z   1005b128 f i LIBCMT:std_type_info_static.obj
 0001:0005a128       ??_Gtype_info@@UAEPAXI@Z   1005b128 f i LIBCMT:std_type_info_static.obj
 0001:0005a14b       __EH_epilog3               1005b14b f   LIBCMT:ehprolg3.obj
 0001:0005a15f       __EH_epilog3_GS            1005b15f f   LIBCMT:ehprolg3.obj
 0001:0005a16e       __EH_epilog3_catch_GS      1005b16e f   LIBCMT:ehprolg3.obj
 0001:0005a17d       __EH_prolog3               1005b17d f   LIBCMT:ehprolg3.obj
 0001:0005a1b0       __EH_prolog3_GS            1005b1b0 f   LIBCMT:ehprolg3.obj
 0001:0005a1e6       __EH_prolog3_catch         1005b1e6 f   LIBCMT:ehprolg3.obj
 0001:0005a21c       __EH_prolog3_catch_GS      1005b21c f   LIBCMT:ehprolg3.obj
 0001:0005a260       __aulldvrm                 1005b260 f   LIBCMT:ulldvrm.obj
 0001:0005a2f5       ??3@YAXPAXI@Z              1005b2f5 f   LIBCMT:delete_scalar_size.obj
 0001:0005a303       __except_handler4_noexcept 1005b303 f   LIBCMT:chandler4_noexcept.obj
 0001:0005a350       __aulldiv                  1005b350 f   LIBCMT:ulldiv.obj
 0001:0005a3c0       __aullrem                  1005b3c0 f   LIBCMT:ullrem.obj
 0001:0005a440       __alloca_probe             1005b440 f   LIBCMT:chkstk.obj
 0001:0005a440       __chkstk                   1005b440 f   LIBCMT:chkstk.obj
 0001:0005a470       __alldiv                   1005b470 f   LIBCMT:lldiv.obj
 0001:0005a520       __allrem                   1005b520 f   LIBCMT:llrem.obj
 0001:0005a5e0       __allmul                   1005b5e0 f   LIBCMT:llmul.obj
 0001:0005a620       __allshl                   1005b620 f   LIBCMT:llshl.obj
 0001:0005a640       __aullshr                  1005b640 f   LIBCMT:ullshr.obj
 0001:0005a660       __alloca_probe_16          1005b660 f   LIBCMT:alloca16.obj
 0001:0005a676       __alloca_probe_8           1005b676     LIBCMT:alloca16.obj
 0001:0005a690       __ftol2_sse_excpt          1005b690 f   LIBCMT:ftol2.obj
 0001:0005a6a0       __ftol2_sse                1005b6a0 f   LIBCMT:ftol2.obj
 0001:0005a6b0       __ftoi2                    1005b6b0 f   LIBCMT:ftol2.obj
 0001:0005a730       __ftoui2                   1005b730 f   LIBCMT:ftol2.obj
 0001:0005a7e0       __ftol2                    1005b7e0 f   LIBCMT:ftol2.obj
 0001:0005a890       __ftoul2                   1005b890 f   LIBCMT:ftol2.obj
 0001:0005a950       __ftoul2_legacy            1005b950 f   LIBCMT:ftol2.obj
 0001:0005a966       __initialize_default_precision 1005b966 f   LIBCMT:default_precision.obj
 0001:0005a987       ??3@YAXPAX@Z               1005b987 f   LIBCMT:delete_scalar.obj
 0001:0005aaa9       _memcmp                    1005baa9 f   libvcruntime:memcmp.obj
 0001:0005d710       _strrchr                   1005e710 f   libvcruntime:strrchr.obj
 0001:0005d850       _strchr                    1005e850 f   libvcruntime:strchr.obj
 0001:0005d8be       ___from_strstr_to_strchr   1005e8be     libvcruntime:strchr.obj
 0001:0005d97b       _wcschr                    1005e97b f   libvcruntime:wcschr.obj
 0001:0005da2b       __filter_x86_sse2_floating_point_exception 1005ea2b f   LIBCMT:x86_exception_filter.obj
 0001:0005da2b       __filter_x86_sse2_floating_point_exception_default 1005ea2b f   LIBCMT:x86_exception_filter.obj
 0001:0005dab0       _memchr                    1005eab0 f   libvcruntime:memchr.obj
 0002:00000000       __imp__ReadFile@20         1005f000     kernel32:KERNEL32.dll
 0002:00000004       __imp__WriteFile@20        1005f004     kernel32:KERNEL32.dll
 0002:00000008       __imp__SetFilePointer@16   1005f008     kernel32:KERNEL32.dll
 0002:0000000c       __imp__CreateFileW@28      1005f00c     kernel32:KERNEL32.dll
 0002:00000010       __imp__GetLastError@0      1005f010     kernel32:KERNEL32.dll
 0002:00000014       __imp__CreateFileA@28      1005f014     kernel32:KERNEL32.dll
 0002:00000018       __imp__CloseHandle@4       1005f018     kernel32:KERNEL32.dll
 0002:0000001c       __imp__OutputDebugStringW@4 1005f01c     kernel32:KERNEL32.dll
 0002:00000020       __imp__QueryPerformanceCounter@4 1005f020     kernel32:KERNEL32.dll
 0002:00000024       __imp__GetCurrentProcessId@0 1005f024     kernel32:KERNEL32.dll
 0002:00000028       __imp__GetCurrentThreadId@0 1005f028     kernel32:KERNEL32.dll
 0002:0000002c       __imp__GetSystemTimeAsFileTime@4 1005f02c     kernel32:KERNEL32.dll
 0002:00000030       __imp__InitializeSListHead@4 1005f030     kernel32:KERNEL32.dll
 0002:00000034       __imp__IsDebuggerPresent@0 1005f034     kernel32:KERNEL32.dll
 0002:00000038       __imp__UnhandledExceptionFilter@4 1005f038     kernel32:KERNEL32.dll
 0002:0000003c       __imp__SetUnhandledExceptionFilter@4 1005f03c     kernel32:KERNEL32.dll
 0002:00000040       __imp__GetStartupInfoW@4   1005f040     kernel32:KERNEL32.dll
 0002:00000044       __imp__IsProcessorFeaturePresent@4 1005f044     kernel32:KERNEL32.dll
 0002:00000048       __imp__GetModuleHandleW@4  1005f048     kernel32:KERNEL32.dll
 0002:0000004c       __imp__GetCurrentProcess@0 1005f04c     kernel32:KERNEL32.dll
 0002:00000050       __imp__TerminateProcess@8  1005f050     kernel32:KERNEL32.dll
 0002:00000054       __imp__InterlockedPushEntrySList@8 1005f054     kernel32:KERNEL32.dll
 0002:00000058       __imp__InterlockedFlushSList@4 1005f058     kernel32:KERNEL32.dll
 0002:0000005c       __imp__RtlUnwind@16        1005f05c     kernel32:KERNEL32.dll
 0002:00000060       __imp__SetLastError@4      1005f060     kernel32:KERNEL32.dll
 0002:00000064       __imp__EnterCriticalSection@4 1005f064     kernel32:KERNEL32.dll
 0002:00000068       __imp__LeaveCriticalSection@4 1005f068     kernel32:KERNEL32.dll
 0002:0000006c       __imp__DeleteCriticalSection@4 1005f06c     kernel32:KERNEL32.dll
 0002:00000070       __imp__InitializeCriticalSectionAndSpinCount@8 1005f070     kernel32:KERNEL32.dll
 0002:00000074       __imp__TlsAlloc@0          1005f074     kernel32:KERNEL32.dll
 0002:00000078       __imp__TlsGetValue@4       1005f078     kernel32:KERNEL32.dll
 0002:0000007c       __imp__TlsSetValue@8       1005f07c     kernel32:KERNEL32.dll
 0002:00000080       __imp__TlsFree@4           1005f080     kernel32:KERNEL32.dll
 0002:00000084       __imp__FreeLibrary@4       1005f084     kernel32:KERNEL32.dll
 0002:00000088       __imp__GetProcAddress@8    1005f088     kernel32:KERNEL32.dll
 0002:0000008c       __imp__LoadLibraryExW@12   1005f08c     kernel32:KERNEL32.dll
 0002:00000090       __imp__EncodePointer@4     1005f090     kernel32:KERNEL32.dll
 0002:00000094       __imp__RaiseException@16   1005f094     kernel32:KERNEL32.dll
 0002:00000098       __imp__SetFilePointerEx@20 1005f098     kernel32:KERNEL32.dll
 0002:0000009c       __imp__GetFileType@4       1005f09c     kernel32:KERNEL32.dll
 0002:000000a0       __imp__GetConsoleMode@8    1005f0a0     kernel32:KERNEL32.dll
 0002:000000a4       __imp__ReadConsoleW@20     1005f0a4     kernel32:KERNEL32.dll
 0002:000000a8       __imp__GetConsoleOutputCP@0 1005f0a8     kernel32:KERNEL32.dll
 0002:000000ac       __imp__ExitProcess@4       1005f0ac     kernel32:KERNEL32.dll
 0002:000000b0       __imp__GetModuleHandleExW@12 1005f0b0     kernel32:KERNEL32.dll
 0002:000000b4       __imp__GetModuleFileNameW@12 1005f0b4     kernel32:KERNEL32.dll
 0002:000000b8       __imp__SetStdHandle@8      1005f0b8     kernel32:KERNEL32.dll
 0002:000000bc       __imp__GetCurrentThread@0  1005f0bc     kernel32:KERNEL32.dll
 0002:000000c0       __imp__GetStdHandle@4      1005f0c0     kernel32:KERNEL32.dll
 0002:000000c4       __imp__HeapFree@12         1005f0c4     kernel32:KERNEL32.dll
 0002:000000c8       __imp__HeapAlloc@12        1005f0c8     kernel32:KERNEL32.dll
 0002:000000cc       __imp__MultiByteToWideChar@24 1005f0cc     kernel32:KERNEL32.dll
 0002:000000d0       __imp__GetTempPathW@8      1005f0d0     kernel32:KERNEL32.dll
 0002:000000d4       __imp__GetDateFormatW@24   1005f0d4     kernel32:KERNEL32.dll
 0002:000000d8       __imp__GetTimeFormatW@24   1005f0d8     kernel32:KERNEL32.dll
 0002:000000dc       __imp__CompareStringW@24   1005f0dc     kernel32:KERNEL32.dll
 0002:000000e0       __imp__LCMapStringW@24     1005f0e0     kernel32:KERNEL32.dll
 0002:000000e4       __imp__GetLocaleInfoW@16   1005f0e4     kernel32:KERNEL32.dll
 0002:000000e8       __imp__IsValidLocale@8     1005f0e8     kernel32:KERNEL32.dll
 0002:000000ec       __imp__GetUserDefaultLCID@0 1005f0ec     kernel32:KERNEL32.dll
 0002:000000f0       __imp__EnumSystemLocalesW@8 1005f0f0     kernel32:KERNEL32.dll
 0002:000000f4       __imp__SetEndOfFile@4      1005f0f4     kernel32:KERNEL32.dll
 0002:000000f8       __imp__WideCharToMultiByte@32 1005f0f8     kernel32:KERNEL32.dll
 0002:000000fc       __imp__GetFileSizeEx@8     1005f0fc     kernel32:KERNEL32.dll
 0002:00000100       __imp__FindClose@4         1005f100     kernel32:KERNEL32.dll
 0002:00000104       __imp__FindFirstFileExW@24 1005f104     kernel32:KERNEL32.dll
 0002:00000108       __imp__FindNextFileW@8     1005f108     kernel32:KERNEL32.dll
 0002:0000010c       __imp__IsValidCodePage@4   1005f10c     kernel32:KERNEL32.dll
 0002:00000110       __imp__GetACP@0            1005f110     kernel32:KERNEL32.dll
 0002:00000114       __imp__GetOEMCP@0          1005f114     kernel32:KERNEL32.dll
 0002:00000118       __imp__GetCPInfo@8         1005f118     kernel32:KERNEL32.dll
 0002:0000011c       __imp__GetCommandLineA@0   1005f11c     kernel32:KERNEL32.dll
 0002:00000120       __imp__GetCommandLineW@0   1005f120     kernel32:KERNEL32.dll
 0002:00000124       __imp__GetEnvironmentStringsW@0 1005f124     kernel32:KERNEL32.dll
 0002:00000128       __imp__FreeEnvironmentStringsW@4 1005f128     kernel32:KERNEL32.dll
 0002:0000012c       __imp__SetEnvironmentVariableW@8 1005f12c     kernel32:KERNEL32.dll
 0002:00000130       __imp__GetProcessHeap@0    1005f130     kernel32:KERNEL32.dll
 0002:00000134       __imp__SetConsoleCtrlHandler@8 1005f134     kernel32:KERNEL32.dll
 0002:00000138       __imp__GetStringTypeW@16   1005f138     kernel32:KERNEL32.dll
 0002:0000013c       __imp__WriteConsoleW@20    1005f13c     kernel32:KERNEL32.dll
 0002:00000140       __imp__FlushFileBuffers@4  1005f140     kernel32:KERNEL32.dll
 0002:00000144       __imp__HeapSize@12         1005f144     kernel32:KERNEL32.dll
 0002:00000148       __imp__HeapReAlloc@16      1005f148     kernel32:KERNEL32.dll
 0002:0000014c       __imp__DecodePointer@4     1005f14c     kernel32:KERNEL32.dll
 0002:00000150       \177KERNEL32_NULL_THUNK_DATA 1005f150     kernel32:KERNEL32.dll
 0002:00000154       ___guard_check_icall_fptr  1005f154     LIBCMT:guard_support.obj
 0002:00000158       ___guard_xfg_check_icall_fptr 1005f158     LIBCMT:guard_support.obj
 0002:0000015c       ___castguard_check_failure_os_handled_fptr 1005f15c     LIBCMT:guard_support.obj
 0002:00000160       ___xc_a                    1005f160     LIBCMT:initializers.obj
 0002:00000164       ___xc_z                    1005f164     LIBCMT:initializers.obj
 0002:00000168       ___xi_a                    1005f168     LIBCMT:initializers.obj
 0002:0000016c       ___acrt_stdio_initializer  1005f16c     libucrt:stdio_initializer.obj
 0002:00000170       ___acrt_multibyte_initializer 1005f170     libucrt:multibyte_initializer.obj
 0002:00000174       ___acrt_fmode_initializer  1005f174     libucrt:fmode_initializer.obj
 0002:00000178       ___acrt_tran_sse2_initializer 1005f178     libucrt:sse2_initializer.obj
 0002:0000017c       ___xi_z                    1005f17c     LIBCMT:initializers.obj
 0002:00000180       ___xp_a                    1005f180     LIBCMT:initializers.obj
 0002:00000184       ___acrt_locale_terminator  1005f184     libucrt:locale_initializer.obj
 0002:00000188       ___dcrt_console_output_terminator 1005f188     libucrt:console_output_initializer.obj
 0002:0000018c       ___acrt_stdio_terminator   1005f18c     libucrt:stdio_initializer.obj
 0002:00000190       ___xp_z                    1005f190     LIBCMT:initializers.obj
 0002:00000194       ___xt_a                    1005f194     LIBCMT:initializers.obj
 0002:00000198       ___xt_z                    1005f198     LIBCMT:initializers.obj
 0002:000001a0       __pDefaultRawDllMain       1005f1a0     LIBCMT:dll_dllmain.obj
 0002:000001a0       __pRawDllMain              1005f1a0     LIBCMT:dll_dllmain.obj
 0002:000001ac       __pDestructExceptionObject 1005f1ac     libvcruntime:ehhelpers.obj
 0002:00000538       ??_C@_08EHJDFFNH@__based?$CI@ 1005f538     libvcruntime:undname.obj
 0002:00000544       ??_C@_07KOLFKCDI@__cdecl@  1005f544     libvcruntime:undname.obj
 0002:0000054c       ??_C@_08GHMPAG@__pascal@   1005f54c     libvcruntime:undname.obj
 0002:00000558       ??_C@_09IFJBGAPI@__stdcall@ 1005f558     libvcruntime:undname.obj
 0002:00000564       ??_C@_0L@NPHFGOKO@__thiscall@ 1005f564     libvcruntime:undname.obj
 0002:00000570       ??_C@_0L@JMKHOMEK@__fastcall@ 1005f570     libvcruntime:undname.obj
 0002:0000057c       ??_C@_0N@BCKKPABJ@__vectorcall@ 1005f57c     libvcruntime:undname.obj
 0002:0000058c       ??_C@_09HIJEGCPM@__clrcall@ 1005f58c     libvcruntime:undname.obj
 0002:00000598       ??_C@_06GHPCKEAG@__eabi@   1005f598     libvcruntime:undname.obj
 0002:000005a0       ??_C@_09IOPIDJLG@__swift_1@ 1005f5a0     libvcruntime:undname.obj
 0002:000005ac       ??_C@_09KFNFGKHF@__swift_2@ 1005f5ac     libvcruntime:undname.obj
 0002:000005b8       ??_C@_09LMMOFLDE@__swift_3@ 1005f5b8     libvcruntime:undname.obj
 0002:000005c4       ??_C@_07JOMMBBKO@__ptr64@  1005f5c4     libvcruntime:undname.obj
 0002:000005cc       ??_C@_0L@PILCLIHE@__restrict@ 1005f5cc     libvcruntime:undname.obj
 0002:000005d8       ??_C@_0M@GFIIJFMG@__unaligned@ 1005f5d8     libvcruntime:undname.obj
 0002:000005e4       ??_C@_09DHDLOLLB@restrict?$CI@ 1005f5e4     libvcruntime:undname.obj
 0002:000005f0       ??_C@_04NIHEBCM@?5new@     1005f5f0     libvcruntime:undname.obj
 0002:000005f8       ??_C@_07FPCDHGMM@?5delete@ 1005f5f8     libvcruntime:undname.obj
 0002:00000600       ??_C@_01NEMOKFLO@?$DN@     1005f600     libvcruntime:undname.obj
 0002:00000604       ??_C@_02GPIOPFAK@?$DO?$DO@ 1005f604     libvcruntime:undname.obj
 0002:00000608       ??_C@_02FODMEDOG@?$DM?$DM@ 1005f608     libvcruntime:undname.obj
 0002:0000060c       ??_C@_01DCLJPIOD@?$CB@     1005f60c     libvcruntime:undname.obj
 0002:00000610       ??_C@_02EGOFBIJA@?$DN?$DN@ 1005f610     libvcruntime:undname.obj
 0002:00000614       ??_C@_02FDNJECIE@?$CB?$DN@ 1005f614     libvcruntime:undname.obj
 0002:00000618       ??_C@_02GPECMEKF@?$FL?$FN@ 1005f618     libvcruntime:undname.obj
 0002:0000061c       ??_C@_08LHJFAFGD@operator@ 1005f61c     libvcruntime:undname.obj
 0002:00000628       ??_C@_02HBOOOICD@?9?$DO@   1005f628     libvcruntime:undname.obj
 0002:0000062c       ??_C@_01NBENCBCI@?$CK@     1005f62c     libvcruntime:undname.obj
 0002:00000630       ??_C@_02ECNGHCIF@?$CL?$CL@ 1005f630     libvcruntime:undname.obj
 0002:00000634       ??_C@_02BAABKJLB@?9?9@     1005f634     libvcruntime:undname.obj
 0002:00000638       ??_C@_01MIFGBAGJ@?$CL@     1005f638     libvcruntime:undname.obj
 0002:0000063c       ??_C@_01HNPIGOCE@?$CG@     1005f63c     libvcruntime:undname.obj
 0002:00000640       ??_C@_03MNHNFDLC@?9?$DO?$CK@ 1005f640     libvcruntime:undname.obj
 0002:00000644       ??_C@_01KMDKNFGN@?1@       1005f644     libvcruntime:undname.obj
 0002:00000648       ??_C@_01FGNFDNOH@?$CF@     1005f648     libvcruntime:undname.obj
 0002:0000064c       ??_C@_01MNNFJEPP@?$DM@     1005f64c     libvcruntime:undname.obj
 0002:00000650       ??_C@_02EHCHHCKH@?$DM?$DN@ 1005f650     libvcruntime:undname.obj
 0002:00000654       ??_C@_01PPODPGHN@?$DO@     1005f654     libvcruntime:undname.obj
 0002:00000658       ??_C@_02EEKDKGMJ@?$DO?$DN@ 1005f658     libvcruntime:undname.obj
 0002:0000065c       ??_C@_01IHBHIGKO@?0@       1005f65c     libvcruntime:undname.obj
 0002:00000660       ??_C@_02HCKGKOFO@?$CI?$CJ@ 1005f660     libvcruntime:undname.obj
 0002:00000664       ??_C@_01PJKLJHI@?$HO@      1005f664     libvcruntime:undname.obj
 0002:00000668       ??_C@_01JKBOJNNK@?$FO@     1005f668     libvcruntime:undname.obj
 0002:0000066c       ??_C@_01DNKMNLPK@?$HM@     1005f66c     libvcruntime:undname.obj
 0002:00000670       ??_C@_02PPKAJPJL@?$CG?$CG@ 1005f670     libvcruntime:undname.obj
 0002:00000674       ??_C@_02NONPIBCD@?$HM?$HM@ 1005f674     libvcruntime:undname.obj
 0002:00000678       ??_C@_02FPIMKNGF@?$CK?$DN@ 1005f678     libvcruntime:undname.obj
 0002:0000067c       ??_C@_02FOEOMHFC@?$CL?$DN@ 1005f67c     libvcruntime:undname.obj
 0002:00000680       ??_C@_02FKMDLLOA@?9?$DN@   1005f680     libvcruntime:undname.obj
 0002:00000684       ??_C@_02FJEHGPIO@?1?$DN@   1005f684     libvcruntime:undname.obj
 0002:00000688       ??_C@_02FENAOKFI@?$CF?$DN@ 1005f688     libvcruntime:undname.obj
 0002:0000068c       ??_C@_03IKFCCPFF@?$DO?$DO?$DN@ 1005f68c     libvcruntime:undname.obj
 0002:00000690       ??_C@_03CDNPDDLA@?$DM?$DM?$DN@ 1005f690     libvcruntime:undname.obj
 0002:00000694       ??_C@_02FGJGFEAB@?$CG?$DN@ 1005f694     libvcruntime:undname.obj
 0002:00000698       ??_C@_02DHLNPPGH@?$HM?$DN@ 1005f698     libvcruntime:undname.obj
 0002:0000069c       ??_C@_02MHEGNOJ@?$FO?$DN@  1005f69c     libvcruntime:undname.obj
 0002:000006a0       ??_C@_09IFPLHPGF@?$GAvftable?8@ 1005f6a0     libvcruntime:undname.obj
 0002:000006ac       ??_C@_09BLBHBJP@?$GAvbtable?8@ 1005f6ac     libvcruntime:undname.obj
 0002:000006b8       ??_C@_07FEEIOKP@?$GAvcall?8@ 1005f6b8     libvcruntime:undname.obj
 0002:000006c0       ??_C@_08LLFFHHDJ@?$GAtypeof?8@ 1005f6c0     libvcruntime:undname.obj
 0002:000006cc       ??_C@_0BF@KDPPACIK@?$GAlocal?5static?5guard?8@ 1005f6cc     libvcruntime:undname.obj
 0002:000006e4       ??_C@_08OBABFOLI@?$GAstring?8@ 1005f6e4     libvcruntime:undname.obj
 0002:000006f0       ??_C@_0BD@JDLKDPAB@?$GAvbase?5destructor?8@ 1005f6f0     libvcruntime:undname.obj
 0002:00000704       ??_C@_0BN@DEGPLNFK@?$GAvector?5deleting?5destructor?8@ 1005f704     libvcruntime:undname.obj
 0002:00000724       ??_C@_0BO@OBMKPJIG@?$GAdefault?5constructor?5closure?8@ 1005f724     libvcruntime:undname.obj
 0002:00000744       ??_C@_0BN@IMDCHIKM@?$GAscalar?5deleting?5destructor?8@ 1005f744     libvcruntime:undname.obj
 0002:00000764       ??_C@_0BO@PFGOCPJJ@?$GAvector?5constructor?5iterator?8@ 1005f764     libvcruntime:undname.obj
 0002:00000784       ??_C@_0BN@LFPFMEDL@?$GAvector?5destructor?5iterator?8@ 1005f784     libvcruntime:undname.obj
 0002:000007a4       ??_C@_0CE@IKBNEHA@?$GAvector?5vbase?5constructor?5itera@ 1005f7a4     libvcruntime:undname.obj
 0002:000007c8       ??_C@_0BL@NILFHHPC@?$GAvirtual?5displacement?5map?8@ 1005f7c8     libvcruntime:undname.obj
 0002:000007e4       ??_C@_0CB@JONCMFFK@?$GAeh?5vector?5constructor?5iterator@ 1005f7e4     libvcruntime:undname.obj
 0002:00000808       ??_C@_0CA@GCEOPDGL@?$GAeh?5vector?5destructor?5iterator?8@ 1005f808     libvcruntime:undname.obj
 0002:00000828       ??_C@_0CH@OOJPLCPH@?$GAeh?5vector?5vbase?5constructor?5it@ 1005f828     libvcruntime:undname.obj
 0002:00000850       ??_C@_0BL@LLKPOHJI@?$GAcopy?5constructor?5closure?8@ 1005f850     libvcruntime:undname.obj
 0002:0000086c       ??_C@_0BA@KBCDOMBN@?$GAudt?5returning?8@ 1005f86c     libvcruntime:undname.obj
 0002:0000087c       ??_C@_03KLGMFNMG@?$GAEH@   1005f87c     libvcruntime:undname.obj
 0002:00000880       ??_C@_05KHLCHHI@?$GARTTI@  1005f880     libvcruntime:undname.obj
 0002:00000888       ??_C@_0BA@KKLDJDLB@?$GAlocal?5vftable?8@ 1005f888     libvcruntime:undname.obj
 0002:00000898       ??_C@_0CE@IIHCMGGL@?$GAlocal?5vftable?5constructor?5clos@ 1005f898     libvcruntime:undname.obj
 0002:000008bc       ??_C@_06FHBGPFGH@?5new?$FL?$FN@ 1005f8bc     libvcruntime:undname.obj
 0002:000008c4       ??_C@_09LBNFPBCA@?5delete?$FL?$FN@ 1005f8c4     libvcruntime:undname.obj
 0002:000008d0       ??_C@_0P@HJKNJFNN@?$GAomni?5callsig?8@ 1005f8d0     libvcruntime:undname.obj
 0002:000008e0       ??_C@_0BL@CNOONJFP@?$GAplacement?5delete?5closure?8@ 1005f8e0     libvcruntime:undname.obj
 0002:000008fc       ??_C@_0BN@CKNJLHMB@?$GAplacement?5delete?$FL?$FN?5closure?8@ 1005f8fc     libvcruntime:undname.obj
 0002:0000091c       ??_C@_0CG@CFDHKGGD@?$GAmanaged?5vector?5constructor?5ite@ 1005f91c     libvcruntime:undname.obj
 0002:00000944       ??_C@_0CF@IMGKMJNO@?$GAmanaged?5vector?5destructor?5iter@ 1005f944     libvcruntime:undname.obj
 0002:0000096c       ??_C@_0CG@HLDDJMAG@?$GAeh?5vector?5copy?5constructor?5ite@ 1005f96c     libvcruntime:undname.obj
 0002:00000994       ??_C@_0CM@FCBBDIGB@?$GAeh?5vector?5vbase?5copy?5construct@ 1005f994     libvcruntime:undname.obj
 0002:000009c0       ??_C@_0BL@CLIPGLGB@?$GAdynamic?5initializer?5for?5?8@ 1005f9c0     libvcruntime:undname.obj
 0002:000009dc       ??_C@_0CB@PDBIFEP@?$GAdynamic?5atexit?5destructor?5for?5@ 1005f9dc     libvcruntime:undname.obj
 0002:00000a00       ??_C@_0CD@CGAJBKEJ@?$GAvector?5copy?5constructor?5iterat@ 1005fa00     libvcruntime:undname.obj
 0002:00000a24       ??_C@_0CJ@GJELGAMM@?$GAvector?5vbase?5copy?5constructor?5@ 1005fa24     libvcruntime:undname.obj
 0002:00000a50       ??_C@_0CL@FGIJHLCE@?$GAmanaged?5vector?5copy?5constructo@ 1005fa50     libvcruntime:undname.obj
 0002:00000a7c       ??_C@_0BM@PMGGMLDN@?$GAlocal?5static?5thread?5guard?8@ 1005fa7c     libvcruntime:undname.obj
 0002:00000a98       ??_C@_0N@BDNMDMOL@operator?5?$CC?$CC?5@ 1005fa98     libvcruntime:undname.obj
 0002:00000aa8       ??_C@_0BC@GGEBGALA@operator?5co_await@ 1005faa8     libvcruntime:undname.obj
 0002:00000abc       ??_C@_0M@GAAIMMOH@operator?$DM?$DN?$DO@ 1005fabc     libvcruntime:undname.obj
 0002:00000ac8       ??_C@_0BC@DAFEJGAK@?5Type?5Descriptor?8@ 1005fac8     libvcruntime:undname.obj
 0002:00000adc       ??_C@_0BM@LDKODKLH@?5Base?5Class?5Descriptor?5at?5?$CI@ 1005fadc     libvcruntime:undname.obj
 0002:00000af8       ??_C@_0BD@LGICGFMM@?5Base?5Class?5Array?8@ 1005faf8     libvcruntime:undname.obj
 0002:00000b0c       ??_C@_0BN@MECKDCOJ@?5Class?5Hierarchy?5Descriptor?8@ 1005fb0c     libvcruntime:undname.obj
 0002:00000b2c       ??_C@_0BK@CFCOFLF@?5Complete?5Object?5Locator?8@ 1005fb2c     libvcruntime:undname.obj
 0002:00000b48       ??_C@_0BG@JNJLAMPM@?$GAanonymous?5namespace?8@ 1005fb48     libvcruntime:undname.obj
 0002:00000b60       ??_C@_04HEJADOOB@CV?3?5@   1005fb60     libvcruntime:undname.obj
 0002:00000b68       ??_C@_02MOLJINC@?3?3@      1005fb68     libvcruntime:undname.obj
 0002:00000b6c       ??_C@_0BE@JAEOCHPE@template?9parameter?9@ 1005fb6c     libvcruntime:undname.obj
 0002:00000b80       ??_C@_0BF@LNLGBBNL@?$GAtemplate?9parameter?9@ 1005fb80     libvcruntime:undname.obj
 0002:00000b98       ??_C@_0O@KHGCOMHP@generic?9type?9@ 1005fb98     libvcruntime:undname.obj
 0002:00000ba8       ??_C@_0P@ODDENDLM@?$GAgeneric?9type?9@ 1005fba8     libvcruntime:undname.obj
 0002:00000bb8       ??_C@_02OHHJMEON@?8?8@     1005fbb8     libvcruntime:undname.obj
 0002:00000bbc       ??_C@_0BN@IBLMMFAP@?$GAnon?9type?9template?9parameter@ 1005fbbc     libvcruntime:undname.obj
 0002:00000bdc       ??_C@_03DLDNIBIK@?$CFlf@   1005fbdc     libvcruntime:undname.obj
 0002:00000be0       ??_C@_04OFALKAJ@?$DP?$DP_C@ 1005fbe0     libvcruntime:undname.obj
 0002:00000be8       ??_C@_03KHICJKCI@?4?4?4@   1005fbe8     libvcruntime:undname.obj
 0002:00000bec       ??_C@_04HIBGFPH@NULL@      1005fbec     libvcruntime:undname.obj
 0002:00000bf4       ??_C@_02DPKJAMEF@?$CFd@    1005fbf4     libvcruntime:undname.obj
 0002:00000bf8       ??_C@_0BK@IHCCFNEL@?$GAtemplate?9type?9parameter?9@ 1005fbf8     libvcruntime:undname.obj
 0002:00000c14       ??_C@_0BK@OFCNNNKO@?$GAgeneric?9class?9parameter?9@ 1005fc14     libvcruntime:undname.obj
 0002:00000c30       ??_C@_0BL@NGJBLFIL@?$GAgeneric?9method?9parameter?9@ 1005fc30     libvcruntime:undname.obj
 0002:00000c4c       ??_C@_07OHNGEDJK@nullptr@  1005fc4c     libvcruntime:undname.obj
 0002:00000c54       ??_C@_06COJIGPIB@lambda@   1005fc54     libvcruntime:undname.obj
 0002:00000c5c       ??_C@_04GKJNKENE@void@     1005fc5c     libvcruntime:undname.obj
 0002:00000c64       ??_C@_0BE@EODMJLIF@?$GAtemplate?9parameter@ 1005fc64     libvcruntime:undname.obj
 0002:00000c78       ??_C@_03OPGICMGF@?$HN?8?5@ 1005fc78     libvcruntime:undname.obj
 0002:00000c7c       ??_C@_02IGFCGPIL@?$HN?8@   1005fc7c     libvcruntime:undname.obj
 0002:00000c80       ??_C@_0N@CBHHHENL@?$GAvtordispex?$HL@ 1005fc80     libvcruntime:undname.obj
 0002:00000c90       ??_C@_0L@GHPFDFH@?$GAvtordisp?$HL@ 1005fc90     libvcruntime:undname.obj
 0002:00000c9c       ??_C@_0L@HNGCOGAE@?$GAadjustor?$HL@ 1005fc9c     libvcruntime:undname.obj
 0002:00000ca8       ??_C@_0CB@KJDOOODE@?$GAlocal?5static?5destructor?5helper@ 1005fca8     libvcruntime:undname.obj
 0002:00000ccc       ??_C@_0DB@ILEFOCIJ@?$GAtemplate?5static?5data?5member?5co@ 1005fccc     libvcruntime:undname.obj
 0002:00000d00       ??_C@_0DA@HGFJFBBE@?$GAtemplate?5static?5data?5member?5de@ 1005fd00     libvcruntime:undname.obj
 0002:00000d30       ??_C@_07PGOEDBHP@static?5@ 1005fd30     libvcruntime:undname.obj
 0002:00000d38       ??_C@_08NIEOINHE@virtual?5@ 1005fd38     libvcruntime:undname.obj
 0002:00000d44       ??_C@_09LAPHOOG@private?3?5@ 1005fd44     libvcruntime:undname.obj
 0002:00000d50       ??_C@_0M@GAIFPFIP@protected?3?5@ 1005fd50     libvcruntime:undname.obj
 0002:00000d5c       ??_C@_08GPDDCMKI@public?3?5@ 1005fd5c     libvcruntime:undname.obj
 0002:00000d68       ??_C@_08KJLFOPNE@?$FLthunk?$FN?3@ 1005fd68     libvcruntime:undname.obj
 0002:00000d74       ??_C@_0M@DHNBOJMP@extern?5?$CCC?$CC?5@ 1005fd74     libvcruntime:undname.obj
 0002:00000d80       ??_C@_02KCKGHPCA@?$CJ?5@   1005fd80     libvcruntime:undname.obj
 0002:00000d84       ??_C@_05CIHEBHNO@char?5@   1005fd84     libvcruntime:undname.obj
 0002:00000d8c       ??_C@_06EHJMALKF@short?5@  1005fd8c     libvcruntime:undname.obj
 0002:00000d94       ??_C@_04LAHKHJMA@int?5@    1005fd94     libvcruntime:undname.obj
 0002:00000d9c       ??_C@_05CJIMAING@long?5@   1005fd9c     libvcruntime:undname.obj
 0002:00000da4       ??_C@_09EBBEKKIH@unsigned?5@ 1005fda4     libvcruntime:undname.obj
 0002:00000db0       ??_C@_05BEFAKPML@void?5@   1005fdb0     libvcruntime:undname.obj
 0002:00000db8       ??_C@_09GAIEOBLP@volatile?5@ 1005fdb8     libvcruntime:undname.obj
 0002:00000dc4       ??_C@_08PABEKFH@volatile@  1005fdc4     libvcruntime:undname.obj
 0002:00000dd0       ??_C@_0BA@LKIJLKPP@std?3?3nullptr_t?5@ 1005fdd0     libvcruntime:undname.obj
 0002:00000de0       ??_C@_0P@GCOCNKDM@std?3?3nullptr_t@ 1005fde0     libvcruntime:undname.obj
 0002:00000df0       ??_C@_0L@EGPHHEKN@?$DMellipsis?$DO@ 1005fdf0     libvcruntime:undname.obj
 0002:00000dfc       ??_C@_04EENFHACM@?0?4?4?4@ 1005fdfc     libvcruntime:undname.obj
 0002:00000e04       ??_C@_0M@ELJOJFFH@?0?$DMellipsis?$DO@ 1005fe04     libvcruntime:undname.obj
 0002:00000e10       ??_C@_09DNHFEOJI@?5noexcept@ 1005fe10     libvcruntime:undname.obj
 0002:00000e1c       ??_C@_03PBJBJNON@cpu@      1005fe1c     libvcruntime:undname.obj
 0002:00000e20       ??_C@_03DCBBJBAA@amp@      1005fe20     libvcruntime:undname.obj
 0002:00000e24       ??_C@_02KEGNLNML@?0?5@     1005fe24     libvcruntime:undname.obj
 0002:00000e28       ??_C@_04ENMBGAPA@char@     1005fe28     libvcruntime:undname.obj
 0002:00000e30       ??_C@_05BFKKPKCG@short@    1005fe30     libvcruntime:undname.obj
 0002:00000e38       ??_C@_03JBIPMCLC@int@      1005fe38     libvcruntime:undname.obj
 0002:00000e3c       ??_C@_04GOKPGOLB@long@     1005fe3c     libvcruntime:undname.obj
 0002:00000e44       ??_C@_05KNFBNCOH@float@    1005fe44     libvcruntime:undname.obj
 0002:00000e4c       ??_C@_06BNJCAIGJ@double@   1005fe4c     libvcruntime:undname.obj
 0002:00000e54       ??_C@_04DDKJGDCM@bool@     1005fe54     libvcruntime:undname.obj
 0002:00000e5c       ??_C@_06EBGKOKIG@__int8@   1005fe5c     libvcruntime:undname.obj
 0002:00000e64       ??_C@_07ICFHOGAF@__int16@  1005fe64     libvcruntime:undname.obj
 0002:00000e6c       ??_C@_07OFLPPHGP@__int32@  1005fe6c     libvcruntime:undname.obj
 0002:00000e74       ??_C@_07LFCOJCAC@__int64@  1005fe74     libvcruntime:undname.obj
 0002:00000e7c       ??_C@_08GAHOLHEO@__int128@ 1005fe7c     libvcruntime:undname.obj
 0002:00000e88       ??_C@_09EEKGDCPH@?$DMunknown?$DO@ 1005fe88     libvcruntime:undname.obj
 0002:00000e94       ??_C@_07CFHGOPCN@char8_t@  1005fe94     libvcruntime:undname.obj
 0002:00000e9c       ??_C@_08HBIPOFJB@char16_t@ 1005fe9c     libvcruntime:undname.obj
 0002:00000ea8       ??_C@_08IECNCBKG@char32_t@ 1005fea8     libvcruntime:undname.obj
 0002:00000eb4       ??_C@_07CLGGIAMF@wchar_t@  1005feb4     libvcruntime:undname.obj
 0002:00000ebc       ??_C@_04HAPDLBFF@auto@     1005febc     libvcruntime:undname.obj
 0002:00000ec4       ??_C@_0P@LHCGKIGK@decltype?$CIauto?$CJ@ 1005fec4     libvcruntime:undname.obj
 0002:00000ed4       ??_C@_05PCNBGHCF@this?5@   1005fed4     libvcruntime:undname.obj
 0002:00000edc       ??_C@_06GCICPBLB@__w64?5@  1005fedc     libvcruntime:undname.obj
 0002:00000ee4       ??_C@_07NFANNNEC@UNKNOWN@  1005fee4     libvcruntime:undname.obj
 0002:00000eec       ??_C@_07EDHNAJHC@signed?5@ 1005feec     libvcruntime:undname.obj
 0002:00000ef4       ??_C@_05BNCCCJPP@const@    1005fef4     libvcruntime:undname.obj
 0002:00000efc       ??_C@_09EFNPDFFP@?5volatile@ 1005fefc     libvcruntime:undname.obj
 0002:00000f08       ??_C@_0P@GCIFDJCJ@?$GAunknown?5ecsu?8@ 1005ff08     libvcruntime:undname.obj
 0002:00000f18       ??_C@_06MOJHIBMG@union?5@  1005ff18     libvcruntime:undname.obj
 0002:00000f20       ??_C@_07DIBCDNGL@struct?5@ 1005ff20     libvcruntime:undname.obj
 0002:00000f28       ??_C@_06LJBABKPM@class?5@  1005ff28     libvcruntime:undname.obj
 0002:00000f30       ??_C@_08KOFANOFK@coclass?5@ 1005ff30     libvcruntime:undname.obj
 0002:00000f3c       ??_C@_0N@DLIEFKNA@cointerface?5@ 1005ff3c     libvcruntime:undname.obj
 0002:00000f4c       ??_C@_05LJGMCFOG@enum?5@   1005ff4c     libvcruntime:undname.obj
 0002:00000f54       ??_C@_06LIJLOJAG@const?5@  1005ff54     libvcruntime:undname.obj
 0002:00000f5c       ??_C@_02KJPKDIBN@?$CG?5@   1005ff5c     libvcruntime:undname.obj
 0002:00000f60       ??_C@_03PCKGMOPB@?$CG?$CG?5@ 1005ff60     libvcruntime:undname.obj
 0002:00000f64       ??_C@_0M@EALIELKG@cli?3?3array?$DM@ 1005ff64     libvcruntime:undname.obj
 0002:00000f70       ??_C@_0O@GKABPPIF@cli?3?3pin_ptr?$DM@ 1005ff70     libvcruntime:undname.obj
 0002:00000f80       ??_C@_02GOGNNPBN@?$CJ?$FL@ 1005ff80     libvcruntime:undname.obj
 0002:00000f84       ??_C@_06EEGAIFAK@?$HLflat?$HN@ 1005ff84     libvcruntime:undname.obj
 0002:00000f8c       ??_C@_05JIBOFOHK@?$HLfor?5@ 1005ff8c     libvcruntime:undname.obj
 0002:00000f94       ??_C@_02MDINNEEG@s?5@      1005ff94     libvcruntime:undname.obj
 0002:00000f9c       ??_7DNameNode@@6B@         1005ff9c     libvcruntime:undname.obj
 0002:00000fb0       ??_7charNode@@6B@          1005ffb0     libvcruntime:undname.obj
 0002:00000fc4       ??_7pcharNode@@6B@         1005ffc4     libvcruntime:undname.obj
 0002:00000fd8       ??_7pDNameNode@@6B@        1005ffd8     libvcruntime:undname.obj
 0002:00000fec       ??_7DNameStatusNode@@6B@   1005ffec     libvcruntime:undname.obj
 0002:00001000       ??_7pairNode@@6B@          10060000     libvcruntime:undname.obj
 0002:00001110       ??_C@_04OKOHEJBO@?5?$DP?$DP?5@ 10060110     libvcruntime:undname.obj
 0002:00001118       ?nodes@?1??make@DNameStatusNode@@SAPBV2@W4DNameStatus@@@Z@4QBV2@B 10060118     libvcruntime:undname.obj
 0002:00001154       ??_C@_1DM@KHCHBNEB@?$AAa?$AAp?$AAi?$AA?9?$AAm?$AAs?$AA?9?$AAw?$AAi?$AAn?$AA?9?$AAc?$AAo?$AAr?$AAe@ 10060154     libvcruntime:winapi_downlevel.obj
 0002:00001190       ??_C@_1DK@LPPGFMPP@?$AAa?$AAp?$AAi?$AA?9?$AAm?$AAs?$AA?9?$AAw?$AAi?$AAn?$AA?9?$AAc?$AAo?$AAr?$AAe@ 10060190     libvcruntime:winapi_downlevel.obj
 0002:000011cc       ??_C@_1BC@GDMECMAK@?$AAk?$AAe?$AAr?$AAn?$AAe?$AAl?$AA3?$AA2@ 100601cc     libvcruntime:winapi_downlevel.obj
 0002:000011e0       ??_C@_1BA@PFFKHIOG@?$AAa?$AAp?$AAi?$AA?9?$AAm?$AAs?$AA?9@ 100601e0     libvcruntime:winapi_downlevel.obj
 0002:000011f8       ??_C@_08KNHFBNJ@FlsAlloc@  100601f8     libvcruntime:winapi_downlevel.obj
 0002:0000120c       ??_C@_07PEJMOBNF@FlsFree@  1006020c     libvcruntime:winapi_downlevel.obj
 0002:0000121c       ??_C@_0M@GDNOONDI@FlsGetValue@ 1006021c     libvcruntime:winapi_downlevel.obj
 0002:00001230       ??_C@_0M@JCPCPOEF@FlsSetValue@ 10060230     libvcruntime:winapi_downlevel.obj
 0002:00001244       ??_C@_0BM@HCFOFFN@InitializeCriticalSectionEx@ 10060244     libvcruntime:winapi_downlevel.obj
 0002:00001264       ??_7exception@std@@6B@     10060264     libvcruntime:frame.obj
 0002:0000126c       ??_C@_0BC@EOODALEL@Unknown?5exception@ 1006026c     libvcruntime:frame.obj
 0002:00001284       ??_7bad_exception@std@@6B@ 10060284     libvcruntime:frame.obj
 0002:0000128c       ??_C@_0O@DPKOEFFH@bad?5exception@ 1006028c     libvcruntime:frame.obj
 0002:0000129c       __Fenv1                    1006029c     libucrt:output.obj
 0002:000012a8       ?standard_lookup_table_spectre@__crt_stdio_output@@3V?$spectre_mitigated_lookup_table@Ustate_transition_pair@__crt_stdio_output@@$0IA@@1@B 100602a8     libucrt:output.obj
 0002:000013a8       ?format_validation_lookup_table_spectre@__crt_stdio_output@@3V?$spectre_mitigated_lookup_table@Ustate_transition_pair@__crt_stdio_output@@$0IA@@1@B 100603a8     libucrt:output.obj
 0002:000014a8       ??_C@_1O@CEDCILHN@?$AA?$CI?$AAn?$AAu?$AAl?$AAl?$AA?$CJ@ 100604a8     libucrt:output.obj
 0002:000014b8       ??_C@_06OJHGLDPL@?$CInull?$CJ@ 100604b8     libucrt:output.obj
 0002:00001628       ??_C@_0EA@FCLIIPNN@Visual?5C?$CL?$CL?5CRT?3?5Not?5enough?5memo@ 10060628     libucrt:strerror.obj
 0002:00001668       ??_C@_1IA@JENHHBGD@?$AAV?$AAi?$AAs?$AAu?$AAa?$AAl?$AA?5?$AAC?$AA?$CL?$AA?$CL?$AA?5?$AAC?$AAR?$AAT?$AA?3@ 10060668     libucrt:strerror.obj
 0002:000016e8       ___acrt_exception_action_table 100606e8     libucrt:exception_filter.obj
 0002:00001778       ___acrt_signal_action_table_count 10060778     libucrt:exception_filter.obj
 0002:0000177c       ___acrt_signal_action_table_size 1006077c     libucrt:exception_filter.obj
 0002:00001780       ___acrt_signal_action_first_fpe_index 10060780     libucrt:exception_filter.obj
 0002:00001784       ___acrt_signal_action_fpe_count 10060784     libucrt:exception_filter.obj
 0002:00001788       ??_C@_1BI@BGOHAHKC@?$AAm?$AAs?$AAc?$AAo?$AAr?$AAe?$AAe?$AA?4?$AAd?$AAl?$AAl@ 10060788     libucrt:exit.obj
 0002:000017a0       ??_C@_0P@MIGLKIOC@CorExitProcess@ 100607a0     libucrt:exit.obj
 0002:000018b0       ___lc_category             100608b0     libucrt:wsetlocale.obj
 0002:000018f8       ??_C@_1O@GIFLHMA@?$AAL?$AAC?$AA_?$AAA?$AAL?$AAL@ 100608f8     libucrt:wsetlocale.obj
 0002:00001908       ??_C@_1BG@PPOMIBNJ@?$AAL?$AAC?$AA_?$AAC?$AAO?$AAL?$AAL?$AAA?$AAT?$AAE@ 10060908     libucrt:wsetlocale.obj
 0002:00001920       ??_C@_1BC@FFJGAPJM@?$AAL?$AAC?$AA_?$AAC?$AAT?$AAY?$AAP?$AAE@ 10060920     libucrt:wsetlocale.obj
 0002:00001934       ??_C@_1BI@PCKFNJFB@?$AAL?$AAC?$AA_?$AAM?$AAO?$AAN?$AAE?$AAT?$AAA?$AAR?$AAY@ 10060934     libucrt:wsetlocale.obj
 0002:0000194c       ??_C@_1BG@ENIEDKID@?$AAL?$AAC?$AA_?$AAN?$AAU?$AAM?$AAE?$AAR?$AAI?$AAC@ 1006094c     libucrt:wsetlocale.obj
 0002:00001964       ??_C@_1BA@HAAOMIIG@?$AAL?$AAC?$AA_?$AAT?$AAI?$AAM?$AAE@ 10060964     libucrt:wsetlocale.obj
 0002:00001974       ??_C@_15NBPDDFIP@?$AA?$DN?$AA?$DL@ 10060974     libucrt:wsetlocale.obj
 0002:0000197c       ??_C@_13PJJBFPED@?$AA?$DL@ 1006097c     libucrt:wsetlocale.obj
 0002:00001980       ??_C@_13NMPKAAJP@?$AA?$DN@ 10060980     libucrt:wsetlocale.obj
 0002:00001984       ??_C@_13IMODFHAA@?$AA?9@   10060984     libucrt:wsetlocale.obj
 0002:00001988       ??_C@_17EFJLDFDO@?$AA?9?$AA_?$AA?4@ 10060988     libucrt:wsetlocale.obj
 0002:00001990       ??_C@_13FHBKNHDA@?$AAC@    10060990     libucrt:wsetlocale.obj
 0002:00001994       ??_C@_17MBJJLFDM@?$AA_?$AA?4?$AA?0@ 10060994     libucrt:wsetlocale.obj
 0002:0000199c       ??_C@_13ENNFDPBH@?$AA_@    1006099c     libucrt:wsetlocale.obj
 0002:000019a0       ??_C@_13JOFGPIOO@?$AA?4@   100609a0     libucrt:wsetlocale.obj
 0002:000019a8       ___lc_time_c               100609a8     libucrt:nlsdata.obj
 0002:00001b0c       ??_C@_03KOEHGMDN@Sun@      10060b0c     libucrt:nlsdata.obj
 0002:00001b10       ??_C@_03PDAGKDH@Mon@       10060b10     libucrt:nlsdata.obj
 0002:00001b14       ??_C@_03NAGEINEP@Tue@      10060b14     libucrt:nlsdata.obj
 0002:00001b18       ??_C@_03MHOMLAJA@Wed@      10060b18     libucrt:nlsdata.obj
 0002:00001b1c       ??_C@_03IOFIKPDN@Thu@      10060b1c     libucrt:nlsdata.obj
 0002:00001b20       ??_C@_03IDIOELNC@Fri@      10060b20     libucrt:nlsdata.obj
 0002:00001b24       ??_C@_03FEFJNEK@Sat@       10060b24     libucrt:nlsdata.obj
 0002:00001b28       ??_C@_06OOPIFAJ@Sunday@    10060b28     libucrt:nlsdata.obj
 0002:00001b30       ??_C@_06JLEDEDGH@Monday@   10060b30     libucrt:nlsdata.obj
 0002:00001b38       ??_C@_07BAAGCFCM@Tuesday@  10060b38     libucrt:nlsdata.obj
 0002:00001b40       ??_C@_09DLIGFAKA@Wednesday@ 10060b40     libucrt:nlsdata.obj
 0002:00001b4c       ??_C@_08HACCIKIA@Thursday@ 10060b4c     libucrt:nlsdata.obj
 0002:00001b58       ??_C@_06JECMNKMI@Friday@   10060b58     libucrt:nlsdata.obj
 0002:00001b60       ??_C@_08INBOOONO@Saturday@ 10060b60     libucrt:nlsdata.obj
 0002:00001b6c       ??_C@_03JIHJHPIE@Jan@      10060b6c     libucrt:nlsdata.obj
 0002:00001b70       ??_C@_03HJBDCHOM@Feb@      10060b70     libucrt:nlsdata.obj
 0002:00001b74       ??_C@_03ODNJBKGA@Mar@      10060b74     libucrt:nlsdata.obj
 0002:00001b78       ??_C@_03LEOLGMJP@Apr@      10060b78     libucrt:nlsdata.obj
 0002:00001b7c       ??_C@_03CNMDKL@May@        10060b7c     libucrt:nlsdata.obj
 0002:00001b80       ??_C@_03IDFGHECI@Jun@      10060b80     libucrt:nlsdata.obj
 0002:00001b84       ??_C@_03LBGABGKK@Jul@      10060b84     libucrt:nlsdata.obj
 0002:00001b88       ??_C@_03IFJFEIGA@Aug@      10060b88     libucrt:nlsdata.obj
 0002:00001b8c       ??_C@_03GGCAPAJC@Sep@      10060b8c     libucrt:nlsdata.obj
 0002:00001b90       ??_C@_03BMAOKBAD@Oct@      10060b90     libucrt:nlsdata.obj
 0002:00001b94       ??_C@_03JPJOFNIA@Nov@      10060b94     libucrt:nlsdata.obj
 0002:00001b98       ??_C@_03MKABNOCG@Dec@      10060b98     libucrt:nlsdata.obj
 0002:00001b9c       ??_C@_07CGJPFGJA@January@  10060b9c     libucrt:nlsdata.obj
 0002:00001ba4       ??_C@_08GNJGEPFN@February@ 10060ba4     libucrt:nlsdata.obj
 0002:00001bb0       ??_C@_05HPCKOFNC@March@    10060bb0     libucrt:nlsdata.obj
 0002:00001bb8       ??_C@_05DMJDNLEJ@April@    10060bb8     libucrt:nlsdata.obj
 0002:00001bc0       ??_C@_04CNLMGBGM@June@     10060bc0     libucrt:nlsdata.obj
 0002:00001bc8       ??_C@_04MIEPOIFP@July@     10060bc8     libucrt:nlsdata.obj
 0002:00001bd0       ??_C@_06LBBHFDDG@August@   10060bd0     libucrt:nlsdata.obj
 0002:00001bd8       ??_C@_09BHHEALKD@September@ 10060bd8     libucrt:nlsdata.obj
 0002:00001be4       ??_C@_07JJNFCEND@October@  10060be4     libucrt:nlsdata.obj
 0002:00001bec       ??_C@_08HCHEGEOA@November@ 10060bec     libucrt:nlsdata.obj
 0002:00001bf8       ??_C@_08EDHMEBNP@December@ 10060bf8     libucrt:nlsdata.obj
 0002:00001c04       ??_C@_02DEDBPAFC@AM@       10060c04     libucrt:nlsdata.obj
 0002:00001c08       ??_C@_02CJNFDJBF@PM@       10060c08     libucrt:nlsdata.obj
 0002:00001c0c       ??_C@_08BPBNCDIB@MM?1dd?1yy@ 10060c0c     libucrt:nlsdata.obj
 0002:00001c18       ??_C@_0BE@CKGJFCPC@dddd?0?5MMMM?5dd?0?5yyyy@ 10060c18     libucrt:nlsdata.obj
 0002:00001c2c       ??_C@_08JCCMCCIL@HH?3mm?3ss@ 10060c2c     libucrt:nlsdata.obj
 0002:00001c38       ??_C@_17MBGCMIPB@?$AAS?$AAu?$AAn@ 10060c38     libucrt:nlsdata.obj
 0002:00001c40       ??_C@_17KBOMKBF@?$AAM?$AAo?$AAn@ 10060c40     libucrt:nlsdata.obj
 0002:00001c48       ??_C@_17BMKGEGOJ@?$AAT?$AAu?$AAe@ 10060c48     libucrt:nlsdata.obj
 0002:00001c50       ??_C@_17CJEDCEPE@?$AAW?$AAe?$AAd@ 10060c50     libucrt:nlsdata.obj
 0002:00001c58       ??_C@_17PDPHAADD@?$AAT?$AAh?$AAu@ 10060c58     libucrt:nlsdata.obj
 0002:00001c60       ??_C@_17HFOLPPLP@?$AAF?$AAr?$AAi@ 10060c60     libucrt:nlsdata.obj
 0002:00001c68       ??_C@_17GGIBDPIH@?$AAS?$AAa?$AAt@ 10060c68     libucrt:nlsdata.obj
 0002:00001c70       ??_C@_1O@IHNHDHPB@?$AAS?$AAu?$AAn?$AAd?$AAa?$AAy@ 10060c70     libucrt:nlsdata.obj
 0002:00001c80       ??_C@_1O@MMNBFLIA@?$AAM?$AAo?$AAn?$AAd?$AAa?$AAy@ 10060c80     libucrt:nlsdata.obj
 0002:00001c90       ??_C@_1BA@ENFBFFEK@?$AAT?$AAu?$AAe?$AAs?$AAd?$AAa?$AAy@ 10060c90     libucrt:nlsdata.obj
 0002:00001ca0       ??_C@_1BE@EBOGMDOH@?$AAW?$AAe?$AAd?$AAn?$AAe?$AAs?$AAd?$AAa?$AAy@ 10060ca0     libucrt:nlsdata.obj
 0002:00001cb4       ??_C@_1BC@HHMNLIHE@?$AAT?$AAh?$AAu?$AAr?$AAs?$AAd?$AAa?$AAy@ 10060cb4     libucrt:nlsdata.obj
 0002:00001cc8       ??_C@_1O@PDICJHAG@?$AAF?$AAr?$AAi?$AAd?$AAa?$AAy@ 10060cc8     libucrt:nlsdata.obj
 0002:00001cd8       ??_C@_1BC@ENMNNPAJ@?$AAS?$AAa?$AAt?$AAu?$AAr?$AAd?$AAa?$AAy@ 10060cd8     libucrt:nlsdata.obj
 0002:00001cec       ??_C@_17DKNBKCHM@?$AAJ?$AAa?$AAn@ 10060cec     libucrt:nlsdata.obj
 0002:00001cf4       ??_C@_17LMDJEKJN@?$AAF?$AAe?$AAb@ 10060cf4     libucrt:nlsdata.obj
 0002:00001cfc       ??_C@_17CKNLEDEC@?$AAM?$AAa?$AAr@ 10060cfc     libucrt:nlsdata.obj
 0002:00001d04       ??_C@_17LFPOIHDD@?$AAA?$AAp?$AAr@ 10060d04     libucrt:nlsdata.obj
 0002:00001d0c       ??_C@_17PNNKMEED@?$AAM?$AAa?$AAy@ 10060d0c     libucrt:nlsdata.obj
 0002:00001d14       ??_C@_17KCJGOCPB@?$AAJ?$AAu?$AAn@ 10060d14     libucrt:nlsdata.obj
 0002:00001d1c       ??_C@_17IJPCKHK@?$AAJ?$AAu?$AAl@ 10060d1c     libucrt:nlsdata.obj
 0002:00001d24       ??_C@_17ICPELBCN@?$AAA?$AAu?$AAg@ 10060d24     libucrt:nlsdata.obj
 0002:00001d2c       ??_C@_17HCHCOKMG@?$AAS?$AAe?$AAp@ 10060d2c     libucrt:nlsdata.obj
 0002:00001d34       ??_C@_17FNLKOI@?$AAO?$AAc?$AAt@ 10060d34     libucrt:nlsdata.obj
 0002:00001d3c       ??_C@_17BBDMLCIG@?$AAN?$AAo?$AAv@ 10060d3c     libucrt:nlsdata.obj
 0002:00001d44       ??_C@_17EGKACKIF@?$AAD?$AAe?$AAc@ 10060d44     libucrt:nlsdata.obj
 0002:00001d4c       ??_C@_1BA@EFMEIEBA@?$AAJ?$AAa?$AAn?$AAu?$AAa?$AAr?$AAy@ 10060d4c     libucrt:nlsdata.obj
 0002:00001d5c       ??_C@_1BC@JGDDFFAM@?$AAF?$AAe?$AAb?$AAr?$AAu?$AAa?$AAr?$AAy@ 10060d5c     libucrt:nlsdata.obj
 0002:00001d70       ??_C@_1M@IKEENEDF@?$AAM?$AAa?$AAr?$AAc?$AAh@ 10060d70     libucrt:nlsdata.obj
 0002:00001d7c       ??_C@_1M@GJNLMHFD@?$AAA?$AAp?$AAr?$AAi?$AAl@ 10060d7c     libucrt:nlsdata.obj
 0002:00001d88       ??_C@_19EPFLPGAP@?$AAJ?$AAu?$AAn?$AAe@ 10060d88     libucrt:nlsdata.obj
 0002:00001d94       ??_C@_19BIFMLPCD@?$AAJ?$AAu?$AAl?$AAy@ 10060d94     libucrt:nlsdata.obj
 0002:00001da0       ??_C@_1O@PAHLKOAC@?$AAA?$AAu?$AAg?$AAu?$AAs?$AAt@ 10060da0     libucrt:nlsdata.obj
 0002:00001db0       ??_C@_1BE@DKAAMBJL@?$AAS?$AAe?$AAp?$AAt?$AAe?$AAm?$AAb?$AAe?$AAr@ 10060db0     libucrt:nlsdata.obj
 0002:00001dc4       ??_C@_1BA@EPANDLNG@?$AAO?$AAc?$AAt?$AAo?$AAb?$AAe?$AAr@ 10060dc4     libucrt:nlsdata.obj
 0002:00001dd4       ??_C@_1BC@BGLIFPF@?$AAN?$AAo?$AAv?$AAe?$AAm?$AAb?$AAe?$AAr@ 10060dd4     libucrt:nlsdata.obj
 0002:00001de8       ??_C@_1BC@FEMKIFH@?$AAD?$AAe?$AAc?$AAe?$AAm?$AAb?$AAe?$AAr@ 10060de8     libucrt:nlsdata.obj
 0002:00001dfc       ??_C@_15ODEHAHHF@?$AAA?$AAM@ 10060dfc     libucrt:nlsdata.obj
 0002:00001e04       ??_C@_15CLMNNGEL@?$AAP?$AAM@ 10060e04     libucrt:nlsdata.obj
 0002:00001e0c       ??_C@_1BC@IEBCMHCM@?$AAM?$AAM?$AA?1?$AAd?$AAd?$AA?1?$AAy?$AAy@ 10060e0c     libucrt:nlsdata.obj
 0002:00001e20       ??_C@_1CI@KNAKOEBC@?$AAd?$AAd?$AAd?$AAd?$AA?0?$AA?5?$AAM?$AAM?$AAM?$AAM?$AA?5?$AAd?$AAd?$AA?0?$AA?5@ 10060e20     libucrt:nlsdata.obj
 0002:00001e48       ??_C@_1BC@GDGBMEMK@?$AAH?$AAH?$AA?3?$AAm?$AAm?$AA?3?$AAs?$AAs@ 10060e48     libucrt:nlsdata.obj
 0002:00001e5c       ??_C@_1M@BMHNFIME@?$AAe?$AAn?$AA?9?$AAU?$AAS@ 10060e5c     libucrt:nlsdata.obj
 0002:00001e68       _RtlNtPathSeperatorString  10060e68     libucrt:winapi_thunks.obj
 0002:00001e70       ??_C@_13FPGAJAPJ@?$AA?2@   10060e70     libucrt:winapi_thunks.obj
 0002:00001e74       _RtlDosPathSeperatorsString 10060e74     libucrt:winapi_thunks.obj
 0002:00001e7c       ??_C@_15MNCACJLI@?$AA?2?$AA?1@ 10060e7c     libucrt:winapi_thunks.obj
 0002:00001e84       _RtlAlternateDosPathSeperatorString 10060e84     libucrt:winapi_thunks.obj
 0002:00001e8c       ??_C@_13CGOKJPIL@?$AA?1@   10060e8c     libucrt:winapi_thunks.obj
 0002:00001ee8       ??_C@_1EA@JGEFHKEI@?$AAa?$AAp?$AAi?$AA?9?$AAm?$AAs?$AA?9?$AAw?$AAi?$AAn?$AA?9?$AAc?$AAo?$AAr?$AAe@ 10060ee8     libucrt:winapi_thunks.obj
 0002:00001f28       ??_C@_1DI@KMEPCBPN@?$AAa?$AAp?$AAi?$AA?9?$AAm?$AAs?$AA?9?$AAw?$AAi?$AAn?$AA?9?$AAc?$AAo?$AAr?$AAe@ 10060f28     libucrt:winapi_thunks.obj
 0002:00001f60       ??_C@_1DI@IJCEHOCB@?$AAa?$AAp?$AAi?$AA?9?$AAm?$AAs?$AA?9?$AAw?$AAi?$AAn?$AA?9?$AAc?$AAo?$AAr?$AAe@ 10060f60     libucrt:winapi_thunks.obj
 0002:00001f98       ??_C@_1EI@MPIAOHOC@?$AAa?$AAp?$AAi?$AA?9?$AAm?$AAs?$AA?9?$AAw?$AAi?$AAn?$AA?9?$AAc?$AAo?$AAr?$AAe@ 10060f98     libucrt:winapi_thunks.obj
 0002:00001fe0       ??_C@_1FK@FPHCKFIE@?$AAa?$AAp?$AAi?$AA?9?$AAm?$AAs?$AA?9?$AAw?$AAi?$AAn?$AA?9?$AAc?$AAo?$AAr?$AAe@ 10060fe0     libucrt:winapi_thunks.obj
 0002:00002040       ??_C@_1EM@DILCGIIO@?$AAa?$AAp?$AAi?$AA?9?$AAm?$AAs?$AA?9?$AAw?$AAi?$AAn?$AA?9?$AAc?$AAo?$AAr?$AAe@ 10061040     libucrt:winapi_thunks.obj
 0002:0000208c       ??_C@_1DM@LNCGDDPN@?$AAa?$AAp?$AAi?$AA?9?$AAm?$AAs?$AA?9?$AAw?$AAi?$AAn?$AA?9?$AAc?$AAo?$AAr?$AAe@ 1006108c     libucrt:winapi_thunks.obj
 0002:000020c8       ??_C@_1DO@FPAPJEMD@?$AAa?$AAp?$AAi?$AA?9?$AAm?$AAs?$AA?9?$AAw?$AAi?$AAn?$AA?9?$AAc?$AAo?$AAr?$AAe@ 100610c8     libucrt:winapi_thunks.obj
 0002:00002108       ??_C@_1DK@NDHNAHIO@?$AAa?$AAp?$AAi?$AA?9?$AAm?$AAs?$AA?9?$AAw?$AAi?$AAn?$AA?9?$AAc?$AAo?$AAr?$AAe@ 10061108     libucrt:winapi_thunks.obj
 0002:00002144       ??_C@_1DM@KGHDGBCM@?$AAa?$AAp?$AAi?$AA?9?$AAm?$AAs?$AA?9?$AAw?$AAi?$AAn?$AA?9?$AAc?$AAo?$AAr?$AAe@ 10061144     libucrt:winapi_thunks.obj
 0002:00002180       ??_C@_1EO@IJIOEFOH@?$AAa?$AAp?$AAi?$AA?9?$AAm?$AAs?$AA?9?$AAw?$AAi?$AAn?$AA?9?$AAr?$AAt?$AAc?$AAo@ 10061180     libucrt:winapi_thunks.obj
 0002:000021d0       ??_C@_1FG@HHGEKANL@?$AAa?$AAp?$AAi?$AA?9?$AAm?$AAs?$AA?9?$AAw?$AAi?$AAn?$AA?9?$AAs?$AAe?$AAc?$AAu@ 100611d0     libucrt:winapi_thunks.obj
 0002:00002228       ??_C@_1EG@DBIOJECG@?$AAe?$AAx?$AAt?$AA?9?$AAm?$AAs?$AA?9?$AAw?$AAi?$AAn?$AA?9?$AAn?$AAt?$AAu?$AAs@ 10061228     libucrt:winapi_thunks.obj
 0002:00002270       ??_C@_1EO@FIHMJCLF@?$AAe?$AAx?$AAt?$AA?9?$AAm?$AAs?$AA?9?$AAw?$AAi?$AAn?$AA?9?$AAn?$AAt?$AAu?$AAs@ 10061270     libucrt:winapi_thunks.obj
 0002:000022c0       ??_C@_1BC@DNHGCMLG@?$AAa?$AAd?$AAv?$AAa?$AAp?$AAi?$AA3?$AA2@ 100612c0     libucrt:winapi_thunks.obj
 0002:000022d4       ??_C@_1BG@CJPGBMEF@?$AAk?$AAe?$AAr?$AAn?$AAe?$AAl?$AAb?$AAa?$AAs?$AAe@ 100612d4     libucrt:winapi_thunks.obj
 0002:000022ec       ??_C@_1M@OAIMIKLP@?$AAn?$AAt?$AAd?$AAl?$AAl@ 100612ec     libucrt:winapi_thunks.obj
 0002:000022f8       ??_C@_1EG@DPGNFKGC@?$AAa?$AAp?$AAi?$AA?9?$AAm?$AAs?$AA?9?$AAw?$AAi?$AAn?$AA?9?$AAa?$AAp?$AAp?$AAm@ 100612f8     libucrt:winapi_thunks.obj
 0002:00002340       ??_C@_1O@BCCLBEOE@?$AAu?$AAs?$AAe?$AAr?$AA3?$AA2@ 10061340     libucrt:winapi_thunks.obj
 0002:00002350       ??_C@_1DM@BPJLHKCE@?$AAa?$AAp?$AAi?$AA?9?$AAm?$AAs?$AA?9?$AAw?$AAi?$AAn?$AA?9?$AAc?$AAo?$AAr?$AAe@ 10061350     libucrt:winapi_thunks.obj
 0002:0000238c       ??_C@_1BA@IAIFMGEF@?$AAe?$AAx?$AAt?$AA?9?$AAm?$AAs?$AA?9@ 1006138c     libucrt:winapi_thunks.obj
 0002:000023a0       ??_C@_0BA@FHFNEAED@AreFileApisANSI@ 100613a0     libucrt:winapi_thunks.obj
 0002:000023b8       ??_C@_0BA@IHGNDAEB@CompareStringEx@ 100613b8     libucrt:winapi_thunks.obj
 0002:000023d0       ??_C@_0BE@LJANKFHF@EnumSystemLocalesEx@ 100613d0     libucrt:winapi_thunks.obj
 0002:000023ec       ??_C@_0BA@HNOPNCHB@GetActiveWindow@ 100613ec     libucrt:winapi_thunks.obj
 0002:00002404       ??_C@_0BA@EPCJIIPD@GetDateFormatEx@ 10061404     libucrt:winapi_thunks.obj
 0002:0000241c       ??_C@_0O@NNMIPI@GetTempPath2W@ 1006141c     libucrt:winapi_thunks.obj
 0002:00002434       ??_C@_0BJ@DIBIJBHA@GetEnabledXStateFeatures@ 10061434     libucrt:winapi_thunks.obj
 0002:00002458       ??_C@_0BD@HHGDFDBJ@GetLastActivePopup@ 10061458     libucrt:winapi_thunks.obj
 0002:00002474       ??_C@_0BA@ONOKGCMP@GetLocaleInfoEx@ 10061474     libucrt:winapi_thunks.obj
 0002:0000248c       ??_C@_0BI@DFKBFLJE@GetProcessWindowStation@ 1006148c     libucrt:winapi_thunks.obj
 0002:000024a8       ??_C@_0BP@FPNJPEJC@GetSystemTimePreciseAsFileTime@ 100614a8     libucrt:winapi_thunks.obj
 0002:000024d0       ??_C@_0BA@CIJJKCJJ@GetTimeFormatEx@ 100614d0     libucrt:winapi_thunks.obj
 0002:000024e8       ??_C@_0BJ@PBCCBIPI@GetUserDefaultLocaleName@ 100614e8     libucrt:winapi_thunks.obj
 0002:0000250c       ??_C@_0BK@DEKFELLI@GetUserObjectInformationW@ 1006150c     libucrt:winapi_thunks.obj
 0002:00002530       ??_C@_0BG@IKLDMBLM@GetXStateFeaturesMask@ 10061530     libucrt:winapi_thunks.obj
 0002:00002558       ??_C@_0BC@CELBKLLA@IsValidLocaleName@ 10061558     libucrt:winapi_thunks.obj
 0002:00002574       ??_C@_0O@KKBNKAPF@LCMapStringEx@ 10061574     libucrt:winapi_thunks.obj
 0002:0000258c       ??_C@_0BB@CDHDDLLP@LCIDToLocaleName@ 1006158c     libucrt:winapi_thunks.obj
 0002:000025a8       ??_C@_0BB@HBDEELFH@LocaleNameToLCID@ 100615a8     libucrt:winapi_thunks.obj
 0002:000025c4       ??_C@_0BE@KINNKFDA@LocateXStateFeature@ 100615c4     libucrt:winapi_thunks.obj
 0002:000025e0       ??_C@_0M@CHKKJDAI@MessageBoxA@ 100615e0     libucrt:winapi_thunks.obj
 0002:000025f4       ??_C@_0M@DLDCCGNP@MessageBoxW@ 100615f4     libucrt:winapi_thunks.obj
 0002:00002604       ??_C@_0N@PPOMPGGK@RoInitialize@ 10061604     libucrt:winapi_thunks.obj
 0002:00002618       ??_C@_0P@LLFHBIJD@RoUninitialize@ 10061618     libucrt:winapi_thunks.obj
 0002:0000262c       ??_C@_0CF@OJOFEIGO@AppPolicyGetProcessTerminationM@ 1006162c     libucrt:winapi_thunks.obj
 0002:00002658       ??_C@_0CF@NNDFDCOC@AppPolicyGetThreadInitializatio@ 10061658     libucrt:winapi_thunks.obj
 0002:00002684       ??_C@_0CE@OICFMIKE@AppPolicyGetShowDeveloperDiagno@ 10061684     libucrt:winapi_thunks.obj
 0002:000026ac       ??_C@_0BL@ODDJNEDA@AppPolicyGetWindowingModel@ 100616ac     libucrt:winapi_thunks.obj
 0002:000026d0       ??_C@_0BI@BKLFFAPO@SetThreadStackGuarantee@ 100616d0     libucrt:winapi_thunks.obj
 0002:000026f0       ??_C@_0BC@JEAENNKH@SystemFunction036@ 100616f0     libucrt:winapi_thunks.obj
 0002:00002768       ??_C@_03OEIAHPBN@INF@      10061768     libucrt:cvt.obj
 0002:0000276c       ??_C@_03OJHLLCGB@inf@      1006176c     libucrt:cvt.obj
 0002:00002770       ??_C@_03LKNCIKJB@NAN@      10061770     libucrt:cvt.obj
 0002:00002774       ??_C@_03LHCJEHON@nan@      10061774     libucrt:cvt.obj
 0002:00002778       ??_C@_09OFJJIMPC@NAN?$CISNAN?$CJ@ 10061778     libucrt:cvt.obj
 0002:00002784       ??_C@_09IPFBKMDL@nan?$CIsnan?$CJ@ 10061784     libucrt:cvt.obj
 0002:00002790       ??_C@_08IKHNHAJ@NAN?$CIIND?$CJ@ 10061790     libucrt:cvt.obj
 0002:0000279c       ??_C@_08OFCDMILK@nan?$CIind?$CJ@ 1006179c     libucrt:cvt.obj
 0002:000027a8       ??_C@_05KLBDPFGC@e?$CL000@ 100617a8     libucrt:cvt.obj
 0002:000027b0       __sys_first_posix_error    100617b0     libucrt:syserr.obj
 0002:000027b4       __sys_last_posix_error     100617b4     libucrt:syserr.obj
 0002:000027b8       __sys_posix_errlist        100617b8     libucrt:syserr.obj
 0002:00002860       __sys_errlist              10061860     libucrt:syserr.obj
 0002:00002910       ??_C@_08INEPGKHH@No?5error@ 10061910     libucrt:syserr.obj
 0002:0000291c       ??_C@_0BI@BJFCGOHL@Operation?5not?5permitted@ 1006191c     libucrt:syserr.obj
 0002:00002934       ??_C@_0BK@FMDHKPNF@No?5such?5file?5or?5directory@ 10061934     libucrt:syserr.obj
 0002:00002950       ??_C@_0BA@FKIAIBGA@No?5such?5process@ 10061950     libucrt:syserr.obj
 0002:00002960       ??_C@_0BK@FJBOAFDK@Interrupted?5function?5call@ 10061960     libucrt:syserr.obj
 0002:0000297c       ??_C@_0BD@KKNFOBBD@Input?1output?5error@ 1006197c     libucrt:syserr.obj
 0002:00002990       ??_C@_0BK@DPKMCKJ@No?5such?5device?5or?5address@ 10061990     libucrt:syserr.obj
 0002:000029ac       ??_C@_0BC@MFFGCDFL@Arg?5list?5too?5long@ 100619ac     libucrt:syserr.obj
 0002:000029c0       ??_C@_0BC@HKPNECK@Exec?5format?5error@ 100619c0     libucrt:syserr.obj
 0002:000029d4       ??_C@_0BE@NFGDDCEF@Bad?5file?5descriptor@ 100619d4     libucrt:syserr.obj
 0002:000029e8       ??_C@_0BD@LOHELEP@No?5child?5processes@ 100619e8     libucrt:syserr.obj
 0002:000029fc       ??_C@_0CB@EPFKGNAK@Resource?5temporarily?5unavailabl@ 100619fc     libucrt:syserr.obj
 0002:00002a20       ??_C@_0BB@IMDKMPFB@Not?5enough?5space@ 10061a20     libucrt:syserr.obj
 0002:00002a34       ??_C@_0BC@HFNFNKAI@Permission?5denied@ 10061a34     libucrt:syserr.obj
 0002:00002a48       ??_C@_0M@LOEHLCJD@Bad?5address@ 10061a48     libucrt:syserr.obj
 0002:00002a54       ??_C@_0O@NIPGCINC@Unknown?5error@ 10061a54     libucrt:syserr.obj
 0002:00002a64       ??_C@_0BA@BIBLIOEK@Resource?5device@ 10061a64     libucrt:syserr.obj
 0002:00002a74       ??_C@_0M@NAAJNNGH@File?5exists@ 10061a74     libucrt:syserr.obj
 0002:00002a80       ??_C@_0O@OAMDNOCP@Improper?5link@ 10061a80     libucrt:syserr.obj
 0002:00002a90       ??_C@_0P@NLEIANHE@No?5such?5device@ 10061a90     libucrt:syserr.obj
 0002:00002aa0       ??_C@_0BA@CJBACOOL@Not?5a?5directory@ 10061aa0     libucrt:syserr.obj
 0002:00002ab0       ??_C@_0P@NDHGCGKE@Is?5a?5directory@ 10061ab0     libucrt:syserr.obj
 0002:00002ac0       ??_C@_0BB@HMGGCEBG@Invalid?5argument@ 10061ac0     libucrt:syserr.obj
 0002:00002ad4       ??_C@_0BO@IIFBODJE@Too?5many?5open?5files?5in?5system@ 10061ad4     libucrt:syserr.obj
 0002:00002af4       ??_C@_0BE@INBJMKGG@Too?5many?5open?5files@ 10061af4     libucrt:syserr.obj
 0002:00002b08       ??_C@_0CE@ONOKNLPF@Inappropriate?5I?1O?5control?5opera@ 10061b08     libucrt:syserr.obj
 0002:00002b2c       ??_C@_0P@LFMMIPAE@File?5too?5large@ 10061b2c     libucrt:syserr.obj
 0002:00002b3c       ??_C@_0BI@FEALHKLD@No?5space?5left?5on?5device@ 10061b3c     libucrt:syserr.obj
 0002:00002b54       ??_C@_0N@FEHLOILP@Invalid?5seek@ 10061b54     libucrt:syserr.obj
 0002:00002b64       ??_C@_0BG@DDBFNKBH@Read?9only?5file?5system@ 10061b64     libucrt:syserr.obj
 0002:00002b7c       ??_C@_0P@PKCJJLLM@Too?5many?5links@ 10061b7c     libucrt:syserr.obj
 0002:00002b8c       ??_C@_0M@LHEPIIOM@Broken?5pipe@ 10061b8c     libucrt:syserr.obj
 0002:00002b98       ??_C@_0N@MMJPGLJK@Domain?5error@ 10061b98     libucrt:syserr.obj
 0002:00002ba8       ??_C@_0BB@FCBJFCAJ@Result?5too?5large@ 10061ba8     libucrt:syserr.obj
 0002:00002bbc       ??_C@_0BK@JAEBMJJM@Resource?5deadlock?5avoided@ 10061bbc     libucrt:syserr.obj
 0002:00002bd8       ??_C@_0BC@BEDIHIDK@Filename?5too?5long@ 10061bd8     libucrt:syserr.obj
 0002:00002bec       ??_C@_0BD@CLHBCGPB@No?5locks?5available@ 10061bec     libucrt:syserr.obj
 0002:00002c00       ??_C@_0BJ@IHEHINLI@Function?5not?5implemented@ 10061c00     libucrt:syserr.obj
 0002:00002c1c       ??_C@_0BE@ICMCHPHH@Directory?5not?5empty@ 10061c1c     libucrt:syserr.obj
 0002:00002c30       ??_C@_0BG@KLEAJEFJ@Illegal?5byte?5sequence@ 10061c30     libucrt:syserr.obj
 0002:00002c48       ??_C@_0P@LDMLAFHI@address?5in?5use@ 10061c48     libucrt:syserr.obj
 0002:00002c58       ??_C@_0BG@DHPCNBJB@address?5not?5available@ 10061c58     libucrt:syserr.obj
 0002:00002c70       ??_C@_0BN@LKKBCCDB@address?5family?5not?5supported@ 10061c70     libucrt:syserr.obj
 0002:00002c90       ??_C@_0BP@KAIHPOGN@connection?5already?5in?5progress@ 10061c90     libucrt:syserr.obj
 0002:00002cb0       ??_C@_0M@PMMIEFCP@bad?5message@ 10061cb0     libucrt:syserr.obj
 0002:00002cbc       ??_C@_0BD@MOLBPMEA@operation?5canceled@ 10061cbc     libucrt:syserr.obj
 0002:00002cd0       ??_C@_0BD@MGNDDEGM@connection?5aborted@ 10061cd0     libucrt:syserr.obj
 0002:00002ce4       ??_C@_0BD@PJLIIJEL@connection?5refused@ 10061ce4     libucrt:syserr.obj
 0002:00002cf8       ??_C@_0BB@IECNJNOI@connection?5reset@ 10061cf8     libucrt:syserr.obj
 0002:00002d0c       ??_C@_0BN@KDMIFEIP@destination?5address?5required@ 10061d0c     libucrt:syserr.obj
 0002:00002d2c       ??_C@_0BB@DHFDFGDM@host?5unreachable@ 10061d2c     libucrt:syserr.obj
 0002:00002d40       ??_C@_0BD@JPHBMONG@identifier?5removed@ 10061d40     libucrt:syserr.obj
 0002:00002d54       ??_C@_0BG@KDKHOPCO@operation?5in?5progress@ 10061d54     libucrt:syserr.obj
 0002:00002d6c       ??_C@_0BC@DFIBIBIL@already?5connected@ 10061d6c     libucrt:syserr.obj
 0002:00002d80       ??_C@_0BO@EFGOJEF@too?5many?5symbolic?5link?5levels@ 10061d80     libucrt:syserr.obj
 0002:00002da0       ??_C@_0N@IFLPBIOP@message?5size@ 10061da0     libucrt:syserr.obj
 0002:00002db0       ??_C@_0N@KIIEAAIO@network?5down@ 10061db0     libucrt:syserr.obj
 0002:00002dc0       ??_C@_0O@FNPDBHEE@network?5reset@ 10061dc0     libucrt:syserr.obj
 0002:00002dd0       ??_C@_0BE@IFNCKGE@network?5unreachable@ 10061dd0     libucrt:syserr.obj
 0002:00002de4       ??_C@_0BA@PFFCAOFK@no?5buffer?5space@ 10061de4     libucrt:syserr.obj
 0002:00002df4       ??_C@_0BF@PBGGPKKE@no?5message?5available@ 10061df4     libucrt:syserr.obj
 0002:00002e0c       ??_C@_07PLECNNKG@no?5link@ 10061e0c     libucrt:syserr.obj
 0002:00002e14       ??_C@_0L@EDOLMPAK@no?5message@ 10061e14     libucrt:syserr.obj
 0002:00002e20       ??_C@_0BD@EAMBFIDF@no?5protocol?5option@ 10061e20     libucrt:syserr.obj
 0002:00002e34       ??_C@_0BE@MKFDAFMP@no?5stream?5resources@ 10061e34     libucrt:syserr.obj
 0002:00002e48       ??_C@_0N@LGAPMMPI@not?5a?5stream@ 10061e48     libucrt:syserr.obj
 0002:00002e58       ??_C@_0O@GLMIBBEG@not?5connected@ 10061e58     libucrt:syserr.obj
 0002:00002e68       ??_C@_0BG@MPLKFPAE@state?5not?5recoverable@ 10061e68     libucrt:syserr.obj
 0002:00002e80       ??_C@_0N@POEIPGGF@not?5a?5socket@ 10061e80     libucrt:syserr.obj
 0002:00002e90       ??_C@_0O@NHEDABJP@not?5supported@ 10061e90     libucrt:syserr.obj
 0002:00002ea0       ??_C@_0BI@LNEGIFLN@operation?5not?5supported@ 10061ea0     libucrt:syserr.obj
 0002:00002eb8       ??_C@_0BA@KGKGOOJA@value?5too?5large@ 10061eb8     libucrt:syserr.obj
 0002:00002ec8       ??_C@_0L@BLPOFLNJ@owner?5dead@ 10061ec8     libucrt:syserr.obj
 0002:00002ed4       ??_C@_0P@FNPOCJBE@protocol?5error@ 10061ed4     libucrt:syserr.obj
 0002:00002ee4       ??_C@_0BH@JPPPLHJB@protocol?5not?5supported@ 10061ee4     libucrt:syserr.obj
 0002:00002efc       ??_C@_0BE@MIEJDDNH@wrong?5protocol?5type@ 10061efc     libucrt:syserr.obj
 0002:00002f10       ??_C@_0P@DIIFGFCG@stream?5timeout@ 10061f10     libucrt:syserr.obj
 0002:00002f20       ??_C@_09KJPPMAOI@timed?5out@ 10061f20     libucrt:syserr.obj
 0002:00002f2c       ??_C@_0P@IPFDMIFL@text?5file?5busy@ 10061f2c     libucrt:syserr.obj
 0002:00002f3c       ??_C@_0BG@OEMDKMEE@operation?5would?5block@ 10061f3c     libucrt:syserr.obj
 0002:00002f54       __sys_nerr                 10061f54     libucrt:syserr.obj
 0002:00002f58       ?ccs@?1???$__acrt_stdio_parse_mode@D@@YA?AU__acrt_stdio_stream_mode@@QBD@Z@4QBDB 10061f58     libucrt:openfile.obj
 0002:00002f5c       ?utf8_encoding@?1???$__acrt_stdio_parse_mode@D@@YA?AU__acrt_stdio_stream_mode@@QBD@Z@4QBDB 10061f5c     libucrt:openfile.obj
 0002:00002f64       ?utf16_encoding@?1???$__acrt_stdio_parse_mode@D@@YA?AU__acrt_stdio_stream_mode@@QBD@Z@4QBDB 10061f64     libucrt:openfile.obj
 0002:00002f6c       ?unicode_encoding@?1???$__acrt_stdio_parse_mode@D@@YA?AU__acrt_stdio_stream_mode@@QBD@Z@4QBDB 10061f6c     libucrt:openfile.obj
 0002:00002f74       ?ccs@?1???$__acrt_stdio_parse_mode@_W@@YA?AU__acrt_stdio_stream_mode@@QB_W@Z@4QB_WB 10061f74     libucrt:openfile.obj
 0002:00002f7c       ?utf8_encoding@?1???$__acrt_stdio_parse_mode@_W@@YA?AU__acrt_stdio_stream_mode@@QB_W@Z@4QB_WB 10061f7c     libucrt:openfile.obj
 0002:00002f88       ?utf16_encoding@?1???$__acrt_stdio_parse_mode@_W@@YA?AU__acrt_stdio_stream_mode@@QB_W@Z@4QB_WB 10061f88     libucrt:openfile.obj
 0002:00002f98       ?unicode_encoding@?1???$__acrt_stdio_parse_mode@_W@@YA?AU__acrt_stdio_stream_mode@@QB_W@Z@4QB_WB 10061f98     libucrt:openfile.obj
 0002:00002fb8       ??_C@_1M@HPNHIDJI@?$AAj?$AAa?$AA?9?$AAJ?$AAP@ 10061fb8     libucrt:mbctype.obj
 0002:00002fc4       ??_C@_1M@BIBDDEMK@?$AAz?$AAh?$AA?9?$AAC?$AAN@ 10061fc4     libucrt:mbctype.obj
 0002:00002fd0       ??_C@_1M@JLOOOEGK@?$AAk?$AAo?$AA?9?$AAK?$AAR@ 10061fd0     libucrt:mbctype.obj
 0002:00002fdc       ??_C@_1M@CLNBBOPM@?$AAz?$AAh?$AA?9?$AAT?$AAW@ 10061fdc     libucrt:mbctype.obj
 0002:00002fe8       ___newctype                10061fe8     libucrt:ctype.obj
 0002:000032e8       ___newclmap                100622e8     libucrt:ctype.obj
 0002:00003468       ___newcumap                10062468     libucrt:ctype.obj
 0002:000035e8       __wctype                   100625e8     libucrt:ctype.obj
 0002:000037ec       ??_C@_1DE@JNGNBFGO@?$AAR?$AAu?$AAn?$AAt?$AAi?$AAm?$AAe?$AA?5?$AAE?$AAr?$AAr?$AAo?$AAr?$AA?$CB?$AA?6@ 100627ec     libucrt:report_runtime_error.obj
 0002:00003820       ??_C@_1CO@EAEJAADC@?$AA?$DM?$AAp?$AAr?$AAo?$AAg?$AAr?$AAa?$AAm?$AA?5?$AAn?$AAa?$AAm?$AAe?$AA?5?$AAu@ 10062820     libucrt:report_runtime_error.obj
 0002:00003850       ??_C@_17LGKOMLJ@?$AA?4?$AA?4?$AA?4@ 10062850     libucrt:report_runtime_error.obj
 0002:00003858       ??_C@_15IABLJNFO@?$AA?6?$AA?6@ 10062858     libucrt:report_runtime_error.obj
 0002:00003860       ??_C@_1EK@MBDPDCGA@?$AAM?$AAi?$AAc?$AAr?$AAo?$AAs?$AAo?$AAf?$AAt?$AA?5?$AAV?$AAi?$AAs?$AAu?$AAa@ 10062860     libucrt:report_runtime_error.obj
 0002:000038b0       ___acrt_rg_language        100628b0     libucrt:get_qualified_locale.obj
 0002:00003bbc       ___acrt_rg_language_count  10062bbc     libucrt:get_qualified_locale.obj
 0002:00003bc0       ___acrt_rg_country         10062bc0     libucrt:get_qualified_locale.obj
 0002:00003cd4       ___acrt_rg_country_count   10062cd4     libucrt:get_qualified_locale.obj
 0002:00003cd8       ??_C@_1BC@LLOKLNP@?$AAa?$AAm?$AAe?$AAr?$AAi?$AAc?$AAa?$AAn@ 10062cd8     libucrt:get_qualified_locale.obj
 0002:00003cec       ??_C@_1CC@HEIGCDGG@?$AAa?$AAm?$AAe?$AAr?$AAi?$AAc?$AAa?$AAn?$AA?5?$AAe?$AAn?$AAg?$AAl?$AAi?$AAs@ 10062cec     libucrt:get_qualified_locale.obj
 0002:00003d10       ??_C@_1CC@IHCNOMIN@?$AAa?$AAm?$AAe?$AAr?$AAi?$AAc?$AAa?$AAn?$AA?9?$AAe?$AAn?$AAg?$AAl?$AAi?$AAs@ 10062d10     libucrt:get_qualified_locale.obj
 0002:00003d34       ??_C@_1BG@GKAGPCGG@?$AAa?$AAu?$AAs?$AAt?$AAr?$AAa?$AAl?$AAi?$AAa?$AAn@ 10062d34     libucrt:get_qualified_locale.obj
 0002:00003d4c       ??_C@_1BA@GMENCENF@?$AAb?$AAe?$AAl?$AAg?$AAi?$AAa?$AAn@ 10062d4c     libucrt:get_qualified_locale.obj
 0002:00003d5c       ??_C@_1BC@PJMIIAAN@?$AAc?$AAa?$AAn?$AAa?$AAd?$AAi?$AAa?$AAn@ 10062d5c     libucrt:get_qualified_locale.obj
 0002:00003d70       ??_C@_17NOIMNFBF@?$AAc?$AAh?$AAh@ 10062d70     libucrt:get_qualified_locale.obj
 0002:00003d78       ??_C@_17GGDALCHA@?$AAc?$AAh?$AAi@ 10062d78     libucrt:get_qualified_locale.obj
 0002:00003d80       ??_C@_1BA@NPNJKIBL@?$AAc?$AAh?$AAi?$AAn?$AAe?$AAs?$AAe@ 10062d80     libucrt:get_qualified_locale.obj
 0002:00003d90       ??_C@_1CC@DINBAMMJ@?$AAc?$AAh?$AAi?$AAn?$AAe?$AAs?$AAe?$AA?9?$AAh?$AAo?$AAn?$AAg?$AAk?$AAo?$AAn@ 10062d90     libucrt:get_qualified_locale.obj
 0002:00003db4       ??_C@_1CG@IOBJPACO@?$AAc?$AAh?$AAi?$AAn?$AAe?$AAs?$AAe?$AA?9?$AAs?$AAi?$AAm?$AAp?$AAl?$AAi?$AAf@ 10062db4     libucrt:get_qualified_locale.obj
 0002:00003ddc       ??_C@_1CE@GAJNDCKG@?$AAc?$AAh?$AAi?$AAn?$AAe?$AAs?$AAe?$AA?9?$AAs?$AAi?$AAn?$AAg?$AAa?$AAp?$AAo@ 10062ddc     libucrt:get_qualified_locale.obj
 0002:00003e00       ??_C@_1CI@PAJPIOOD@?$AAc?$AAh?$AAi?$AAn?$AAe?$AAs?$AAe?$AA?9?$AAt?$AAr?$AAa?$AAd?$AAi?$AAt?$AAi@ 10062e00     libucrt:get_qualified_locale.obj
 0002:00003e28       ??_C@_1BM@NILJBMMD@?$AAd?$AAu?$AAt?$AAc?$AAh?$AA?9?$AAb?$AAe?$AAl?$AAg?$AAi?$AAa?$AAn@ 10062e28     libucrt:get_qualified_locale.obj
 0002:00003e44       ??_C@_1CC@OOJPJNEJ@?$AAe?$AAn?$AAg?$AAl?$AAi?$AAs?$AAh?$AA?9?$AAa?$AAm?$AAe?$AAr?$AAi?$AAc?$AAa@ 10062e44     libucrt:get_qualified_locale.obj
 0002:00003e68       ??_C@_1BI@IOLFEEM@?$AAe?$AAn?$AAg?$AAl?$AAi?$AAs?$AAh?$AA?9?$AAa?$AAu?$AAs@ 10062e68     libucrt:get_qualified_locale.obj
 0002:00003e80       ??_C@_1BO@HFFNLENJ@?$AAe?$AAn?$AAg?$AAl?$AAi?$AAs?$AAh?$AA?9?$AAb?$AAe?$AAl?$AAi?$AAz?$AAe@ 10062e80     libucrt:get_qualified_locale.obj
 0002:00003ea0       ??_C@_1BI@HAPKJMPO@?$AAe?$AAn?$AAg?$AAl?$AAi?$AAs?$AAh?$AA?9?$AAc?$AAa?$AAn@ 10062ea0     libucrt:get_qualified_locale.obj
 0002:00003eb8       ??_C@_1CE@HLNDMIOJ@?$AAe?$AAn?$AAg?$AAl?$AAi?$AAs?$AAh?$AA?9?$AAc?$AAa?$AAr?$AAi?$AAb?$AAb?$AAe@ 10062eb8     libucrt:get_qualified_locale.obj
 0002:00003edc       ??_C@_1BI@LDHJHHAC@?$AAe?$AAn?$AAg?$AAl?$AAi?$AAs?$AAh?$AA?9?$AAi?$AAr?$AAe@ 10062edc     libucrt:get_qualified_locale.obj
 0002:00003ef4       ??_C@_1CA@NJMMCFOC@?$AAe?$AAn?$AAg?$AAl?$AAi?$AAs?$AAh?$AA?9?$AAj?$AAa?$AAm?$AAa?$AAi?$AAc?$AAa@ 10062ef4     libucrt:get_qualified_locale.obj
 0002:00003f14       ??_C@_1BG@BHJEBBGG@?$AAe?$AAn?$AAg?$AAl?$AAi?$AAs?$AAh?$AA?9?$AAn?$AAz@ 10062f14     libucrt:get_qualified_locale.obj
 0002:00003f2c       ??_C@_1CK@FGOEJJCO@?$AAe?$AAn?$AAg?$AAl?$AAi?$AAs?$AAh?$AA?9?$AAs?$AAo?$AAu?$AAt?$AAh?$AA?5?$AAa@ 10062f2c     libucrt:get_qualified_locale.obj
 0002:00003f58       ??_C@_1DE@PDBJPCJ@?$AAe?$AAn?$AAg?$AAl?$AAi?$AAs?$AAh?$AA?9?$AAt?$AAr?$AAi?$AAn?$AAi?$AAd?$AAa@ 10062f58     libucrt:get_qualified_locale.obj
 0002:00003f8c       ??_C@_1BG@JGCANDME@?$AAe?$AAn?$AAg?$AAl?$AAi?$AAs?$AAh?$AA?9?$AAu?$AAk@ 10062f8c     libucrt:get_qualified_locale.obj
 0002:00003fa4       ??_C@_1BG@DINKMLE@?$AAe?$AAn?$AAg?$AAl?$AAi?$AAs?$AAh?$AA?9?$AAu?$AAs@ 10062fa4     libucrt:get_qualified_locale.obj
 0002:00003fbc       ??_C@_1BI@NMFDBHJE@?$AAe?$AAn?$AAg?$AAl?$AAi?$AAs?$AAh?$AA?9?$AAu?$AAs?$AAa@ 10062fbc     libucrt:get_qualified_locale.obj
 0002:00003fd4       ??_C@_1BO@OIHKJKII@?$AAf?$AAr?$AAe?$AAn?$AAc?$AAh?$AA?9?$AAb?$AAe?$AAl?$AAg?$AAi?$AAa?$AAn@ 10062fd4     libucrt:get_qualified_locale.obj
 0002:00003ff4       ??_C@_1CA@NKAELJKI@?$AAf?$AAr?$AAe?$AAn?$AAc?$AAh?$AA?9?$AAc?$AAa?$AAn?$AAa?$AAd?$AAi?$AAa?$AAn@ 10062ff4     libucrt:get_qualified_locale.obj
 0002:00004014       ??_C@_1CE@MGKCNLGN@?$AAf?$AAr?$AAe?$AAn?$AAc?$AAh?$AA?9?$AAl?$AAu?$AAx?$AAe?$AAm?$AAb?$AAo?$AAu@ 10063014     libucrt:get_qualified_locale.obj
 0002:00004038       ??_C@_1BK@CEGEAILM@?$AAf?$AAr?$AAe?$AAn?$AAc?$AAh?$AA?9?$AAs?$AAw?$AAi?$AAs?$AAs@ 10063038     libucrt:get_qualified_locale.obj
 0002:00004054       ??_C@_1CA@PAFKEOCC@?$AAg?$AAe?$AAr?$AAm?$AAa?$AAn?$AA?9?$AAa?$AAu?$AAs?$AAt?$AAr?$AAi?$AAa?$AAn@ 10063054     libucrt:get_qualified_locale.obj
 0002:00004074       ??_C@_1CI@HCFHGOFD@?$AAg?$AAe?$AAr?$AAm?$AAa?$AAn?$AA?9?$AAl?$AAi?$AAc?$AAh?$AAt?$AAe?$AAn?$AAs@ 10063074     libucrt:get_qualified_locale.obj
 0002:0000409c       ??_C@_1CE@FEDDNPDG@?$AAg?$AAe?$AAr?$AAm?$AAa?$AAn?$AA?9?$AAl?$AAu?$AAx?$AAe?$AAm?$AAb?$AAo?$AAu@ 1006309c     libucrt:get_qualified_locale.obj
 0002:000040c0       ??_C@_1BK@LIMINNMN@?$AAg?$AAe?$AAr?$AAm?$AAa?$AAn?$AA?9?$AAs?$AAw?$AAi?$AAs?$AAs@ 100630c0     libucrt:get_qualified_locale.obj
 0002:000040dc       ??_C@_1BM@LGMDBEPD@?$AAi?$AAr?$AAi?$AAs?$AAh?$AA?9?$AAe?$AAn?$AAg?$AAl?$AAi?$AAs?$AAh@ 100630dc     libucrt:get_qualified_locale.obj
 0002:000040f8       ??_C@_1BM@NNCFBAEE@?$AAi?$AAt?$AAa?$AAl?$AAi?$AAa?$AAn?$AA?9?$AAs?$AAw?$AAi?$AAs?$AAs@ 100630f8     libucrt:get_qualified_locale.obj
 0002:00004114       ??_C@_1BE@FEDJNPIB@?$AAn?$AAo?$AAr?$AAw?$AAe?$AAg?$AAi?$AAa?$AAn@ 10063114     libucrt:get_qualified_locale.obj
 0002:00004128       ??_C@_1CC@CILKDEIE@?$AAn?$AAo?$AAr?$AAw?$AAe?$AAg?$AAi?$AAa?$AAn?$AA?9?$AAb?$AAo?$AAk?$AAm?$AAa@ 10063128     libucrt:get_qualified_locale.obj
 0002:0000414c       ??_C@_1CE@DHMMHEPL@?$AAn?$AAo?$AAr?$AAw?$AAe?$AAg?$AAi?$AAa?$AAn?$AA?9?$AAn?$AAy?$AAn?$AAo?$AAr@ 1006314c     libucrt:get_qualified_locale.obj
 0002:00004170       ??_C@_1CK@OPNMHECD@?$AAp?$AAo?$AAr?$AAt?$AAu?$AAg?$AAu?$AAe?$AAs?$AAe?$AA?9?$AAb?$AAr?$AAa?$AAz@ 10063170     libucrt:get_qualified_locale.obj
 0002:0000419c       ??_C@_1CE@KEEHCDB@?$AAs?$AAp?$AAa?$AAn?$AAi?$AAs?$AAh?$AA?9?$AAa?$AAr?$AAg?$AAe?$AAn?$AAt?$AAi@ 1006319c     libucrt:get_qualified_locale.obj
 0002:000041c0       ??_C@_1CA@GIAOLHJD@?$AAs?$AAp?$AAa?$AAn?$AAi?$AAs?$AAh?$AA?9?$AAb?$AAo?$AAl?$AAi?$AAv?$AAi?$AAa@ 100631c0     libucrt:get_qualified_locale.obj
 0002:000041e0       ??_C@_1BM@OJNDFNPD@?$AAs?$AAp?$AAa?$AAn?$AAi?$AAs?$AAh?$AA?9?$AAc?$AAh?$AAi?$AAl?$AAe@ 100631e0     libucrt:get_qualified_locale.obj
 0002:000041fc       ??_C@_1CC@OCOLPALL@?$AAs?$AAp?$AAa?$AAn?$AAi?$AAs?$AAh?$AA?9?$AAc?$AAo?$AAl?$AAo?$AAm?$AAb?$AAi@ 100631fc     libucrt:get_qualified_locale.obj
 0002:00004220       ??_C@_1CG@BPOFMKBB@?$AAs?$AAp?$AAa?$AAn?$AAi?$AAs?$AAh?$AA?9?$AAc?$AAo?$AAs?$AAt?$AAa?$AA?5?$AAr@ 10063220     libucrt:get_qualified_locale.obj
 0002:00004248       ??_C@_1DG@IGOBAPBB@?$AAs?$AAp?$AAa?$AAn?$AAi?$AAs?$AAh?$AA?9?$AAd?$AAo?$AAm?$AAi?$AAn?$AAi?$AAc@ 10063248     libucrt:get_qualified_locale.obj
 0002:00004280       ??_C@_1CA@JHAPGEGI@?$AAs?$AAp?$AAa?$AAn?$AAi?$AAs?$AAh?$AA?9?$AAe?$AAc?$AAu?$AAa?$AAd?$AAo?$AAr@ 10063280     libucrt:get_qualified_locale.obj
 0002:000042a0       ??_C@_1CI@LAPALJPP@?$AAs?$AAp?$AAa?$AAn?$AAi?$AAs?$AAh?$AA?9?$AAe?$AAl?$AA?5?$AAs?$AAa?$AAl?$AAv@ 100632a0     libucrt:get_qualified_locale.obj
 0002:000042c8       ??_C@_1CE@PDGBOFOM@?$AAs?$AAp?$AAa?$AAn?$AAi?$AAs?$AAh?$AA?9?$AAg?$AAu?$AAa?$AAt?$AAe?$AAm?$AAa@ 100632c8     libucrt:get_qualified_locale.obj
 0002:000042ec       ??_C@_1CC@NBEBAODI@?$AAs?$AAp?$AAa?$AAn?$AAi?$AAs?$AAh?$AA?9?$AAh?$AAo?$AAn?$AAd?$AAu?$AAr?$AAa@ 100632ec     libucrt:get_qualified_locale.obj
 0002:00004310       ??_C@_1CA@LLKGHBMF@?$AAs?$AAp?$AAa?$AAn?$AAi?$AAs?$AAh?$AA?9?$AAm?$AAe?$AAx?$AAi?$AAc?$AAa?$AAn@ 10063310     libucrt:get_qualified_locale.obj
 0002:00004330       ??_C@_1BO@LKNDOIGD@?$AAs?$AAp?$AAa?$AAn?$AAi?$AAs?$AAh?$AA?9?$AAm?$AAo?$AAd?$AAe?$AAr?$AAn@ 10063330     libucrt:get_qualified_locale.obj
 0002:00004350       ??_C@_1CE@NMDMOEEB@?$AAs?$AAp?$AAa?$AAn?$AAi?$AAs?$AAh?$AA?9?$AAn?$AAi?$AAc?$AAa?$AAr?$AAa?$AAg@ 10063350     libucrt:get_qualified_locale.obj
 0002:00004374       ??_C@_1BO@LLCBEJGB@?$AAs?$AAp?$AAa?$AAn?$AAi?$AAs?$AAh?$AA?9?$AAp?$AAa?$AAn?$AAa?$AAm?$AAa@ 10063374     libucrt:get_qualified_locale.obj
 0002:00004394       ??_C@_1CC@FKPGGIHO@?$AAs?$AAp?$AAa?$AAn?$AAi?$AAs?$AAh?$AA?9?$AAp?$AAa?$AAr?$AAa?$AAg?$AAu?$AAa@ 10063394     libucrt:get_qualified_locale.obj
 0002:000043b8       ??_C@_1BK@CDEIHOOP@?$AAs?$AAp?$AAa?$AAn?$AAi?$AAs?$AAh?$AA?9?$AAp?$AAe?$AAr?$AAu@ 100633b8     libucrt:get_qualified_locale.obj
 0002:000043d4       ??_C@_1CI@GAHAKKGP@?$AAs?$AAp?$AAa?$AAn?$AAi?$AAs?$AAh?$AA?9?$AAp?$AAu?$AAe?$AAr?$AAt?$AAo?$AA?5@ 100633d4     libucrt:get_qualified_locale.obj
 0002:000043fc       ??_C@_1CA@NKJBCAGP@?$AAs?$AAp?$AAa?$AAn?$AAi?$AAs?$AAh?$AA?9?$AAu?$AAr?$AAu?$AAg?$AAu?$AAa?$AAy@ 100633fc     libucrt:get_qualified_locale.obj
 0002:0000441c       ??_C@_1CE@ODILCONM@?$AAs?$AAp?$AAa?$AAn?$AAi?$AAs?$AAh?$AA?9?$AAv?$AAe?$AAn?$AAe?$AAz?$AAu?$AAe@ 1006341c     libucrt:get_qualified_locale.obj
 0002:00004440       ??_C@_1CA@OBNMCGFO@?$AAs?$AAw?$AAe?$AAd?$AAi?$AAs?$AAh?$AA?9?$AAf?$AAi?$AAn?$AAl?$AAa?$AAn?$AAd@ 10063440     libucrt:get_qualified_locale.obj
 0002:00004460       ??_C@_1M@PIPDDPPI@?$AAs?$AAw?$AAi?$AAs?$AAs@ 10063460     libucrt:get_qualified_locale.obj
 0002:0000446c       ??_C@_15PJPFLCCM@?$AAu?$AAk@ 1006346c     libucrt:get_qualified_locale.obj
 0002:00004474       ??_C@_15GMFIMNFM@?$AAu?$AAs@ 10063474     libucrt:get_qualified_locale.obj
 0002:0000447c       ??_C@_17HAEBFAGL@?$AAu?$AAs?$AAa@ 1006347c     libucrt:get_qualified_locale.obj
 0002:00004484       ??_C@_1BA@DPFJEPHB@?$AAa?$AAm?$AAe?$AAr?$AAi?$AAc?$AAa@ 10063484     libucrt:get_qualified_locale.obj
 0002:00004494       ??_C@_1BA@ELOGGFK@?$AAb?$AAr?$AAi?$AAt?$AAa?$AAi?$AAn@ 10063494     libucrt:get_qualified_locale.obj
 0002:000044a4       ??_C@_1M@GHBGIGDA@?$AAc?$AAh?$AAi?$AAn?$AAa@ 100634a4     libucrt:get_qualified_locale.obj
 0002:000044b0       ??_C@_1M@NCHEJOPO@?$AAc?$AAz?$AAe?$AAc?$AAh@ 100634b0     libucrt:get_qualified_locale.obj
 0002:000044bc       ??_C@_1BA@BKPAPBLA@?$AAe?$AAn?$AAg?$AAl?$AAa?$AAn?$AAd@ 100634bc     libucrt:get_qualified_locale.obj
 0002:000044cc       ??_C@_1BM@HKBCKIPC@?$AAg?$AAr?$AAe?$AAa?$AAt?$AA?5?$AAb?$AAr?$AAi?$AAt?$AAa?$AAi?$AAn@ 100634cc     libucrt:get_qualified_locale.obj
 0002:000044e8       ??_C@_1BA@PPCHPGJB@?$AAh?$AAo?$AAl?$AAl?$AAa?$AAn?$AAd@ 100634e8     libucrt:get_qualified_locale.obj
 0002:000044f8       ??_C@_1BE@JBMPEGDG@?$AAh?$AAo?$AAn?$AAg?$AA?9?$AAk?$AAo?$AAn?$AAg@ 100634f8     libucrt:get_qualified_locale.obj
 0002:0000450c       ??_C@_1BI@KOELBBPJ@?$AAn?$AAe?$AAw?$AA?9?$AAz?$AAe?$AAa?$AAl?$AAa?$AAn?$AAd@ 1006350c     libucrt:get_qualified_locale.obj
 0002:00004524       ??_C@_15HIEBHAIO@?$AAn?$AAz@ 10063524     libucrt:get_qualified_locale.obj
 0002:0000452c       ??_C@_1BC@CHBCPFPI@?$AAp?$AAr?$AA?5?$AAc?$AAh?$AAi?$AAn?$AAa@ 1006352c     libucrt:get_qualified_locale.obj
 0002:00004540       ??_C@_1BC@JAOIIFKD@?$AAp?$AAr?$AA?9?$AAc?$AAh?$AAi?$AAn?$AAa@ 10063540     libucrt:get_qualified_locale.obj
 0002:00004554       ??_C@_1BI@BEHPPHKC@?$AAp?$AAu?$AAe?$AAr?$AAt?$AAo?$AA?9?$AAr?$AAi?$AAc?$AAo@ 10063554     libucrt:get_qualified_locale.obj
 0002:0000456c       ??_C@_1O@PAEOFKDI@?$AAs?$AAl?$AAo?$AAv?$AAa?$AAk@ 1006356c     libucrt:get_qualified_locale.obj
 0002:0000457c       ??_C@_1BK@FIHMCKAM@?$AAs?$AAo?$AAu?$AAt?$AAh?$AA?5?$AAa?$AAf?$AAr?$AAi?$AAc?$AAa@ 1006357c     libucrt:get_qualified_locale.obj
 0002:00004598       ??_C@_1BI@NAEOODKB@?$AAs?$AAo?$AAu?$AAt?$AAh?$AA?5?$AAk?$AAo?$AAr?$AAe?$AAa@ 10063598     libucrt:get_qualified_locale.obj
 0002:000045b0       ??_C@_1BK@FBDGGIFF@?$AAs?$AAo?$AAu?$AAt?$AAh?$AA?9?$AAa?$AAf?$AAr?$AAi?$AAc?$AAa@ 100635b0     libucrt:get_qualified_locale.obj
 0002:000045cc       ??_C@_1BI@GHLEJDPK@?$AAs?$AAo?$AAu?$AAt?$AAh?$AA?9?$AAk?$AAo?$AAr?$AAe?$AAa@ 100635cc     libucrt:get_qualified_locale.obj
 0002:000045e4       ??_C@_1CE@PLHLOMJF@?$AAt?$AAr?$AAi?$AAn?$AAi?$AAd?$AAa?$AAd?$AA?5?$AA?$CG?$AA?5?$AAt?$AAo?$AAb?$AAa@ 100635e4     libucrt:get_qualified_locale.obj
 0002:00004608       ??_C@_1BO@MODIMHHI@?$AAu?$AAn?$AAi?$AAt?$AAe?$AAd?$AA?9?$AAk?$AAi?$AAn?$AAg?$AAd?$AAo?$AAm@ 10063608     libucrt:get_qualified_locale.obj
 0002:00004628       ??_C@_1BM@FFHJONBJ@?$AAu?$AAn?$AAi?$AAt?$AAe?$AAd?$AA?9?$AAs?$AAt?$AAa?$AAt?$AAe?$AAs@ 10063628     libucrt:get_qualified_locale.obj
 0002:00004644       ??_C@_19MPDNHKDG@?$AAu?$AAt?$AAf?$AA8@ 10063644     libucrt:get_qualified_locale.obj
 0002:00004650       ??_C@_17DNCLJFIF@?$AAA?$AAC?$AAP@ 10063650     libucrt:get_qualified_locale.obj
 0002:00004658       ??_C@_1M@FPEIIFAM@?$AAu?$AAt?$AAf?$AA?9?$AA8@ 10063658     libucrt:get_qualified_locale.obj
 0002:00004664       ??_C@_17CIKBIHLH@?$AAO?$AAC?$AAP@ 10063664     libucrt:get_qualified_locale.obj
 0002:0000466c       ___rglangidNotDefault      1006366c     libucrt:getqloc_downlevel.obj
 0002:00004da0       ??_C@_15EMKDOKLE@?$AAa?$AAr@ 10063da0     libucrt:lcidtoname_downlevel.obj
 0002:00004da8       ??_C@_15KNPADPLH@?$AAb?$AAg@ 10063da8     libucrt:lcidtoname_downlevel.obj
 0002:00004db0       ??_C@_15EDMHLDMO@?$AAc?$AAa@ 10063db0     libucrt:lcidtoname_downlevel.obj
 0002:00004db8       ??_C@_1O@BPEAJADD@?$AAz?$AAh?$AA?9?$AAC?$AAH?$AAS@ 10063db8     libucrt:lcidtoname_downlevel.obj
 0002:00004dc8       ??_C@_15LJNHCMNK@?$AAc?$AAs@ 10063dc8     libucrt:lcidtoname_downlevel.obj
 0002:00004dd0       ??_C@_15FOMCIDHG@?$AAd?$AAa@ 10063dd0     libucrt:lcidtoname_downlevel.obj
 0002:00004dd8       ??_C@_15NBKABECB@?$AAd?$AAe@ 10063dd8     libucrt:lcidtoname_downlevel.obj
 0002:00004de0       ??_C@_15GHPEIIAO@?$AAe?$AAl@ 10063de0     libucrt:lcidtoname_downlevel.obj
 0002:00004de8       ??_C@_15MNPNEAIF@?$AAe?$AAn@ 10063de8     libucrt:lcidtoname_downlevel.obj
 0002:00004df0       ??_C@_15GPIOMPMH@?$AAe?$AAs@ 10063df0     libucrt:lcidtoname_downlevel.obj
 0002:00004df8       ??_C@_15NGLOAKJC@?$AAf?$AAi@ 10063df8     libucrt:lcidtoname_downlevel.obj
 0002:00004e00       ??_C@_15FBKGNKAM@?$AAf?$AAr@ 10063e00     libucrt:lcidtoname_downlevel.obj
 0002:00004e08       ??_C@_15KGGCNEFK@?$AAh?$AAe@ 10063e08     libucrt:lcidtoname_downlevel.obj
 0002:00004e10       ??_C@_15PGHLIDMF@?$AAh?$AAu@ 10063e10     libucrt:lcidtoname_downlevel.obj
 0002:00004e18       ??_C@_15BIEMAPLM@?$AAi?$AAs@ 10063e18     libucrt:lcidtoname_downlevel.obj
 0002:00004e20       ??_C@_15IFJLDHAF@?$AAi?$AAt@ 10063e20     libucrt:lcidtoname_downlevel.obj
 0002:00004e28       ??_C@_15GEMIOCAG@?$AAj?$AAa@ 10063e28     libucrt:lcidtoname_downlevel.obj
 0002:00004e30       ??_C@_15EPELEGJA@?$AAk?$AAo@ 10063e30     libucrt:lcidtoname_downlevel.obj
 0002:00004e38       ??_C@_15NDDHIMN@?$AAn?$AAl@ 10063e38     libucrt:lcidtoname_downlevel.obj
 0002:00004e40       ??_C@_15BPIGNHCD@?$AAn?$AAo@ 10063e40     libucrt:lcidtoname_downlevel.obj
 0002:00004e48       ??_C@_15DEOPBLCG@?$AAp?$AAl@ 10063e48     libucrt:lcidtoname_downlevel.obj
 0002:00004e50       ??_C@_15KBECGEFG@?$AAp?$AAt@ 10063e50     libucrt:lcidtoname_downlevel.obj
 0002:00004e58       ??_C@_15GLJCBFMD@?$AAr?$AAo@ 10063e58     libucrt:lcidtoname_downlevel.obj
 0002:00004e60       ??_C@_15FEDGKCDI@?$AAr?$AAu@ 10063e60     libucrt:lcidtoname_downlevel.obj
 0002:00004e68       ??_C@_15GLKMLLHM@?$AAh?$AAr@ 10063e68     libucrt:lcidtoname_downlevel.obj
 0002:00004e70       ??_C@_15CPKMFBDB@?$AAs?$AAk@ 10063e70     libucrt:lcidtoname_downlevel.obj
 0002:00004e78       ??_C@_15BAAIOGMK@?$AAs?$AAq@ 10063e78     libucrt:lcidtoname_downlevel.obj
 0002:00004e80       ??_C@_15INNPNOHD@?$AAs?$AAv@ 10063e80     libucrt:lcidtoname_downlevel.obj
 0002:00004e88       ??_C@_15CABMMOGH@?$AAt?$AAh@ 10063e88     libucrt:lcidtoname_downlevel.obj
 0002:00004e90       ??_C@_15BPLIHJJM@?$AAt?$AAr@ 10063e90     libucrt:lcidtoname_downlevel.obj
 0002:00004e98       ??_C@_15NEOEKKDJ@?$AAu?$AAr@ 10063e98     libucrt:lcidtoname_downlevel.obj
 0002:00004ea0       ??_C@_15NFICGAJK@?$AAi?$AAd@ 10063ea0     libucrt:lcidtoname_downlevel.obj
 0002:00004ea8       ??_C@_15HPJPHDM@?$AAb?$AAe@ 10063ea8     libucrt:lcidtoname_downlevel.obj
 0002:00004eb0       ??_C@_15LCHLGJII@?$AAs?$AAl@ 10063eb0     libucrt:lcidtoname_downlevel.obj
 0002:00004eb8       ??_C@_15PCFJPHHO@?$AAe?$AAt@ 10063eb8     libucrt:lcidtoname_downlevel.obj
 0002:00004ec0       ??_C@_15HPFPGODN@?$AAl?$AAv@ 10063ec0     libucrt:lcidtoname_downlevel.obj
 0002:00004ec8       ??_C@_15NFFGKGLG@?$AAl?$AAt@ 10063ec8     libucrt:lcidtoname_downlevel.obj
 0002:00004ed0       ??_C@_15BDAKCCHN@?$AAf?$AAa@ 10063ed0     libucrt:lcidtoname_downlevel.obj
 0002:00004ed8       ??_C@_15NFGIAIAJ@?$AAv?$AAi@ 10063ed8     libucrt:lcidtoname_downlevel.obj
 0002:00004ee0       ??_C@_15LMKNDMHN@?$AAh?$AAy@ 10063ee0     libucrt:lcidtoname_downlevel.obj
 0002:00004ee8       ??_C@_15IJBHMCFL@?$AAa?$AAz@ 10063ee8     libucrt:lcidtoname_downlevel.obj
 0002:00004ef0       ??_C@_15EKOFJABL@?$AAe?$AAu@ 10063ef0     libucrt:lcidtoname_downlevel.obj
 0002:00004ef8       ??_C@_15BGHADCNK@?$AAm?$AAk@ 10063ef8     libucrt:lcidtoname_downlevel.obj
 0002:00004f00       ??_C@_15JDNICKHM@?$AAa?$AAf@ 10063f00     libucrt:lcidtoname_downlevel.obj
 0002:00004f08       ??_C@_15KPJEDBKD@?$AAk?$AAa@ 10063f08     libucrt:lcidtoname_downlevel.obj
 0002:00004f10       ??_C@_15PDNFFFEO@?$AAf?$AAo@ 10063f10     libucrt:lcidtoname_downlevel.obj
 0002:00004f18       ??_C@_15OMLEGLOC@?$AAh?$AAi@ 10063f18     libucrt:lcidtoname_downlevel.obj
 0002:00004f20       ??_C@_15IDNNENKK@?$AAm?$AAs@ 10063f20     libucrt:lcidtoname_downlevel.obj
 0002:00004f28       ??_C@_15MACJNBMH@?$AAk?$AAk@ 10063f28     libucrt:lcidtoname_downlevel.obj
 0002:00004f30       ??_C@_15DKDJEOND@?$AAk?$AAy@ 10063f30     libucrt:lcidtoname_downlevel.obj
 0002:00004f38       ??_C@_15DFGDLJBG@?$AAs?$AAw@ 10063f38     libucrt:lcidtoname_downlevel.obj
 0002:00004f40       ??_C@_15BBFAICNG@?$AAu?$AAz@ 10063f40     libucrt:lcidtoname_downlevel.obj
 0002:00004f48       ??_C@_15DKNDCGEA@?$AAt?$AAt@ 10063f48     libucrt:lcidtoname_downlevel.obj
 0002:00004f50       ??_C@_15MGIFMDPL@?$AAp?$AAa@ 10063f50     libucrt:lcidtoname_downlevel.obj
 0002:00004f58       ??_C@_15HCNDBBA@?$AAg?$AAu@ 10063f58     libucrt:lcidtoname_downlevel.obj
 0002:00004f60       ??_C@_15FNBEIBON@?$AAt?$AAa@ 10063f60     libucrt:lcidtoname_downlevel.obj
 0002:00004f68       ??_C@_15NCHGBGLK@?$AAt?$AAe@ 10063f68     libucrt:lcidtoname_downlevel.obj
 0002:00004f70       ??_C@_15PHPHCBPF@?$AAk?$AAn@ 10063f70     libucrt:lcidtoname_downlevel.obj
 0002:00004f78       ??_C@_15DLGBCKMP@?$AAm?$AAr@ 10063f78     libucrt:lcidtoname_downlevel.obj
 0002:00004f80       ??_C@_15EABBLBFF@?$AAs?$AAa@ 10063f80     libucrt:lcidtoname_downlevel.obj
 0002:00004f88       ??_C@_15CBKOMCOI@?$AAm?$AAn@ 10063f88     libucrt:lcidtoname_downlevel.obj
 0002:00004f90       ??_C@_15CKDMCJAF@?$AAg?$AAl@ 10063f90     libucrt:lcidtoname_downlevel.obj
 0002:00004f98       ??_C@_17CNJFBPG@?$AAk?$AAo?$AAk@ 10063f98     libucrt:lcidtoname_downlevel.obj
 0002:00004fa0       ??_C@_17FFBJICPL@?$AAs?$AAy?$AAr@ 10063fa0     libucrt:lcidtoname_downlevel.obj
 0002:00004fa8       ??_C@_17KPNDCPAF@?$AAd?$AAi?$AAv@ 10063fa8     libucrt:lcidtoname_downlevel.obj
 0002:00004fb0       ??_C@_11LOCGONAA@@         10063fb0     libucrt:lcidtoname_downlevel.obj
 0002:00004fb4       ??_C@_1M@OKAHONE@?$AAa?$AAr?$AA?9?$AAS?$AAA@ 10063fb4     libucrt:lcidtoname_downlevel.obj
 0002:00004fc0       ??_C@_1M@FFFIGIGK@?$AAb?$AAg?$AA?9?$AAB?$AAG@ 10063fc0     libucrt:lcidtoname_downlevel.obj
 0002:00004fcc       ??_C@_1M@BJNKEDC@?$AAc?$AAa?$AA?9?$AAE?$AAS@ 10063fcc     libucrt:lcidtoname_downlevel.obj
 0002:00004fd8       ??_C@_1M@IJJHFJHA@?$AAc?$AAs?$AA?9?$AAC?$AAZ@ 10063fd8     libucrt:lcidtoname_downlevel.obj
 0002:00004fe4       ??_C@_1M@CLPEOBGI@?$AAd?$AAa?$AA?9?$AAD?$AAK@ 10063fe4     libucrt:lcidtoname_downlevel.obj
 0002:00004ff0       ??_C@_1M@MCMADGCB@?$AAd?$AAe?$AA?9?$AAD?$AAE@ 10063ff0     libucrt:lcidtoname_downlevel.obj
 0002:00004ffc       ??_C@_1M@OOCKEMAM@?$AAe?$AAl?$AA?9?$AAG?$AAR@ 10063ffc     libucrt:lcidtoname_downlevel.obj
 0002:00005008       ??_C@_1M@DDNJFGID@?$AAf?$AAi?$AA?9?$AAF?$AAI@ 10064008     libucrt:lcidtoname_downlevel.obj
 0002:00005014       ??_C@_1M@GLIPPMAC@?$AAf?$AAr?$AA?9?$AAF?$AAR@ 10064014     libucrt:lcidtoname_downlevel.obj
 0002:00005020       ??_C@_1M@GFMCHPE@?$AAh?$AAe?$AA?9?$AAI?$AAL@ 10064020     libucrt:lcidtoname_downlevel.obj
 0002:0000502c       ??_C@_1M@MHLPGNKM@?$AAh?$AAu?$AA?9?$AAH?$AAU@ 1006402c     libucrt:lcidtoname_downlevel.obj
 0002:00005038       ??_C@_1M@LPDDNNPN@?$AAi?$AAs?$AA?9?$AAI?$AAS@ 10064038     libucrt:lcidtoname_downlevel.obj
 0002:00005044       ??_C@_1M@MADIPODN@?$AAi?$AAt?$AA?9?$AAI?$AAT@ 10064044     libucrt:lcidtoname_downlevel.obj
 0002:00005050       ??_C@_1M@IHBJJGG@?$AAn?$AAl?$AA?9?$AAN?$AAL@ 10064050     libucrt:lcidtoname_downlevel.obj
 0002:0000505c       ??_C@_1M@EANAGDL@?$AAn?$AAb?$AA?9?$AAN?$AAO@ 1006405c     libucrt:lcidtoname_downlevel.obj
 0002:00005068       ??_C@_1M@NEIEMEGP@?$AAp?$AAl?$AA?9?$AAP?$AAL@ 10064068     libucrt:lcidtoname_downlevel.obj
 0002:00005074       ??_C@_1M@BOCFIGEP@?$AAp?$AAt?$AA?9?$AAB?$AAR@ 10064074     libucrt:lcidtoname_downlevel.obj
 0002:00005080       ??_C@_1M@IMPFOPBG@?$AAr?$AAo?$AA?9?$AAR?$AAO@ 10064080     libucrt:lcidtoname_downlevel.obj
 0002:0000508c       ??_C@_1M@IDNNEJMM@?$AAr?$AAu?$AA?9?$AAR?$AAU@ 1006408c     libucrt:lcidtoname_downlevel.obj
 0002:00005098       ??_C@_1M@LILEEOGM@?$AAh?$AAr?$AA?9?$AAH?$AAR@ 10064098     libucrt:lcidtoname_downlevel.obj
 0002:000050a4       ??_C@_1M@FKIFEHPB@?$AAs?$AAk?$AA?9?$AAS?$AAK@ 100640a4     libucrt:lcidtoname_downlevel.obj
 0002:000050b0       ??_C@_1M@LJMAMNPJ@?$AAs?$AAq?$AA?9?$AAA?$AAL@ 100640b0     libucrt:lcidtoname_downlevel.obj
 0002:000050bc       ??_C@_1M@GIAKDKJK@?$AAs?$AAv?$AA?9?$AAS?$AAE@ 100640bc     libucrt:lcidtoname_downlevel.obj
 0002:000050c8       ??_C@_1M@MKJKIKCL@?$AAt?$AAh?$AA?9?$AAT?$AAH@ 100640c8     libucrt:lcidtoname_downlevel.obj
 0002:000050d4       ??_C@_1M@MFLCCMPB@?$AAt?$AAr?$AA?9?$AAT?$AAR@ 100640d4     libucrt:lcidtoname_downlevel.obj
 0002:000050e0       ??_C@_1M@OIJHDKJN@?$AAu?$AAr?$AA?9?$AAP?$AAK@ 100640e0     libucrt:lcidtoname_downlevel.obj
 0002:000050ec       ??_C@_1M@LHIPCIEK@?$AAi?$AAd?$AA?9?$AAI?$AAD@ 100640ec     libucrt:lcidtoname_downlevel.obj
 0002:000050f8       ??_C@_1M@MFMOBGI@?$AAu?$AAk?$AA?9?$AAU?$AAA@ 100640f8     libucrt:lcidtoname_downlevel.obj
 0002:00005104       ??_C@_1M@OBGLJIPL@?$AAb?$AAe?$AA?9?$AAB?$AAY@ 10064104     libucrt:lcidtoname_downlevel.obj
 0002:00005110       ??_C@_1M@BCFAJEAD@?$AAs?$AAl?$AA?9?$AAS?$AAI@ 10064110     libucrt:lcidtoname_downlevel.obj
 0002:0000511c       ??_C@_1M@FKFFEDDN@?$AAe?$AAt?$AA?9?$AAE?$AAE@ 1006411c     libucrt:lcidtoname_downlevel.obj
 0002:00005128       ??_C@_1M@KGKKAACI@?$AAl?$AAv?$AA?9?$AAL?$AAV@ 10064128     libucrt:lcidtoname_downlevel.obj
 0002:00005134       ??_C@_1M@IFGBIJO@?$AAl?$AAt?$AA?9?$AAL?$AAT@ 10064134     libucrt:lcidtoname_downlevel.obj
 0002:00005140       ??_C@_1M@FGEAHEDM@?$AAf?$AAa?$AA?9?$AAI?$AAR@ 10064140     libucrt:lcidtoname_downlevel.obj
 0002:0000514c       ??_C@_1M@KBMAIBFN@?$AAv?$AAi?$AA?9?$AAV?$AAN@ 1006414c     libucrt:lcidtoname_downlevel.obj
 0002:00005158       ??_C@_1M@GPCBKDJK@?$AAh?$AAy?$AA?9?$AAA?$AAM@ 10064158     libucrt:lcidtoname_downlevel.obj
 0002:00005164       ??_C@_1BG@BECMDDJB@?$AAa?$AAz?$AA?9?$AAA?$AAZ?$AA?9?$AAL?$AAa?$AAt?$AAn@ 10064164     libucrt:lcidtoname_downlevel.obj
 0002:0000517c       ??_C@_1M@MAOFCAEA@?$AAe?$AAu?$AA?9?$AAE?$AAS@ 1006417c     libucrt:lcidtoname_downlevel.obj
 0002:00005188       ??_C@_1M@IGHABKPI@?$AAm?$AAk?$AA?9?$AAM?$AAK@ 10064188     libucrt:lcidtoname_downlevel.obj
 0002:00005194       ??_C@_1M@IAIGNEJG@?$AAt?$AAn?$AA?9?$AAZ?$AAA@ 10064194     libucrt:lcidtoname_downlevel.obj
