 zlibwapi

 Timestamp is 64db5b04 (Tue Aug 15 23:01:24 2023)

 Preferred load address is 10000000

 Start         Length     Name                   Class
 0001:00000000 0005db0dH .text$mn                CODE
 0001:0005db0d 000001d7H .text$x                 CODE
 0002:00000000 00000154H .idata$5                DATA
 0002:00000154 0000000cH .00cfg                  DATA
 0002:00000160 00000004H .CRT$XCA                DATA
 0002:00000164 00000004H .CRT$XCZ                DATA
 0002:00000168 00000004H .CRT$XIA                DATA
 0002:0000016c 00000010H .CRT$XIC                DATA
 0002:0000017c 00000004H .CRT$XIZ                DATA
 0002:00000180 00000004H .CRT$XPA                DATA
 0002:00000184 00000008H .CRT$XPX                DATA
 0002:0000018c 00000004H .CRT$XPXA               DATA
 0002:00000190 00000004H .CRT$XPZ                DATA
 0002:00000194 00000004H .CRT$XTA                DATA
 0002:00000198 00000008H .CRT$XTZ                DATA
 0002:0000019c 00000000H .gfids$y                DATA
 0002:000001a0 0000c8e0H .rdata                  DATA
 0002:0000ca80 00000040H .rdata$CastGuardVftablesA DATA
 0002:0000cac0 00000040H .rdata$CastGuardVftablesC DATA
 0002:0000cb00 000002a0H .rdata$r                DATA
 0002:0000cda0 000004c0H .rdata$voltmd           DATA
 0002:0000d260 00000390H .rdata$zzzdbg           DATA
 0002:0000d5f0 00000004H .rtc$IAA                DATA
 0002:0000d5f4 00000004H .rtc$IZZ                DATA
 0002:0000d5f8 00000004H .rtc$TAA                DATA
 0002:0000d5fc 00000004H .rtc$TZZ                DATA
 0002:0000d600 00000c30H .xdata$x                DATA
 0002:0000e230 00000d50H .edata                  DATA
 0002:0000ef80 00000014H .idata$2                DATA
 0002:0000ef94 00000014H .idata$3                DATA
 0002:0000efa8 00000154H .idata$4                DATA
 0002:0000f0fc 0000062cH .idata$6                DATA
 0003:00000000 000008b0H .data                   DATA
 0003:000008b0 00000058H .data$r                 DATA
 0003:00000908 000000b8H .data$rs                DATA
 0003:000009c0 000012e0H .bss                    DATA
 0004:00000000 00000060H .rsrc$01                DATA
 0004:00000060 00000340H .rsrc$02                DATA

  Address         Publics by Value              Rva+Base       Lib:Object

 0000:00000000       ___AbsoluteZero            00000000     <absolute>
 0000:00000000       ___arm64x_extra_rfe_table  00000000     <absolute>
 0000:00000000       ___arm64x_extra_rfe_table_size 00000000     <absolute>
 0000:00000000       ___arm64x_native_entrypoint 00000000     <absolute>
 0000:00000000       ___arm64x_redirection_metadata 00000000     <absolute>
 0000:00000000       ___arm64x_redirection_metadata_count 00000000     <absolute>
 0000:00000000       ___dynamic_value_reloc_table 00000000     <absolute>
 0000:00000000       ___enclave_config          00000000     <absolute>
 0000:00000000       ___guard_check_icall_a64n_fptr 00000000     <absolute>
 0000:00000000       ___guard_eh_cont_count     00000000     <absolute>
 0000:00000000       ___guard_eh_cont_table     00000000     <absolute>
 0000:00000000       ___guard_fids_count        00000000     <absolute>
 0000:00000000       ___guard_fids_table        00000000     <absolute>
 0000:00000000       ___guard_iat_count         00000000     <absolute>
 0000:00000000       ___guard_iat_table         00000000     <absolute>
 0000:00000000       ___guard_longjmp_count     00000000     <absolute>
 0000:00000000       ___guard_longjmp_table     00000000     <absolute>
 0000:00000000       ___hybrid_auxiliary_delayload_iat 00000000     <absolute>
 0000:00000000       ___hybrid_auxiliary_delayload_iat_copy 00000000     <absolute>
 0000:00000000       ___hybrid_auxiliary_iat    00000000     <absolute>
 0000:00000000       ___hybrid_auxiliary_iat_copy 00000000     <absolute>
 0000:00000000       ___hybrid_code_map         00000000     <absolute>
 0000:00000000       ___hybrid_code_map_count   00000000     <absolute>
 0000:00000000       ___safe_se_handler_count   00000000     <absolute>
 0000:00000000       ___safe_se_handler_table   00000000     <absolute>
 0000:00000000       ___x64_code_ranges_to_entry_points 00000000     <absolute>
 0000:00000000       ___x64_code_ranges_to_entry_points_count 00000000     <absolute>
 0000:00000000       __except_list              00000000     <absolute>
 0000:00000100       ___guard_flags             00000100     <absolute>
 0000:00000000       ___ImageBase               10000000     <linker-defined>
 0001:00000000       _adler32_z@12              10001000 f   adler32.obj
 0001:00000280       _adler32@12                10001280 f   adler32.obj
 0001:000003c0       _adler32_combine@12        100013c0 f   adler32.obj
 0001:000003e0       _compress2@20              100013e0 f   compress.obj
 0001:000004c0       _compress@16               100014c0 f   compress.obj
 0001:000004e0       _compressBound@4           100014e0 f   compress.obj
 0001:000005b0       _get_crc_table@0           100015b0 f   crc32.obj
 0001:00000650       _crc32_z@12                10001650 f   crc32.obj
 0001:00000970       _crc32@12                  10001970 f   crc32.obj
 0001:00000980       _crc32_combine64@16        10001980 f   crc32.obj
 0001:000009b0       _crc32_combine@12          100019b0 f   crc32.obj
 0001:000009d0       _crc32_combine_gen64@8     100019d0 f   crc32.obj
 0001:000009f0       _crc32_combine_gen@4       100019f0 f   crc32.obj
 0001:00000a10       _crc32_combine_op@12       10001a10 f   crc32.obj
 0001:00000cd0       _deflateInit_@16           10001cd0 f   deflate.obj
 0001:00000cf0       _deflateInit2_@32          10001cf0 f   deflate.obj
 0001:00000f90       _deflateSetDictionary@12   10001f90 f   deflate.obj
 0001:00001130       _deflateGetDictionary@12   10002130 f   deflate.obj
 0001:00001190       _deflateResetKeep@4        10002190 f   deflate.obj
 0001:000012e0       _deflateReset@4            100022e0 f   deflate.obj
 0001:00001310       _deflateSetHeader@8        10002310 f   deflate.obj
 0001:00001340       _deflatePending@12         10002340 f   deflate.obj
 0001:00001380       _deflatePrime@12           10002380 f   deflate.obj
 0001:00001420       _deflateParams@12          10002420 f   deflate.obj
 0001:00001570       _deflateTune@20            10002570 f   deflate.obj
 0001:000015c0       _deflateBound@8            100025c0 f   deflate.obj
 0001:00001770       _deflate@8                 10002770 f   deflate.obj
 0001:000020a0       _deflateEnd@4              100030a0 f   deflate.obj
 0001:00002150       _deflateCopy@8             10003150 f   deflate.obj
 0001:000033f0       _gzclose@4                 100043f0 f   gzclose.obj
 0001:00003420       ___local_stdio_printf_options 10004420 f i gzlib.obj
 0001:00003430       _vsnprintf                 10004430 f i gzlib.obj
 0001:00003470       _snprintf                  10004470 f i gzlib.obj
 0001:00003820       _gzopen@8                  10004820 f   gzlib.obj
 0001:00003840       _gzdopen@8                 10004840 f   gzlib.obj
 0001:000038a0       _gzopen_w@8                100048a0 f   gzlib.obj
 0001:000038c0       _gzbuffer@8                100048c0 f   gzlib.obj
 0001:00003910       _gzrewind@4                10004910 f   gzlib.obj
 0001:00003970       _gzseek64@16               10004970 f   gzlib.obj
 0001:00003b20       _gzseek@12                 10004b20 f   gzlib.obj
 0001:00003b60       _gztell64@4                10004b60 f   gzlib.obj
 0001:00003bc0       _gztell@4                  10004bc0 f   gzlib.obj
 0001:00003bf0       _gzoffset64@4              10004bf0 f   gzlib.obj
 0001:00003c40       _gzoffset@4                10004c40 f   gzlib.obj
 0001:00003c70       _gzeof@4                   10004c70 f   gzlib.obj
 0001:00003ca0       _gzerror@8                 10004ca0 f   gzlib.obj
 0001:00003cf0       _gzclearerr@4              10004cf0 f   gzlib.obj
 0001:00003d40       _gz_error                  10004d40 f   gzlib.obj
 0001:00004410       _gzread@12                 10005410 f   gzread.obj
 0001:00004480       _gzfread@16                10005480 f   gzread.obj
 0001:00004500       _gzgetc@4                  10005500 f   gzread.obj
 0001:00004570       _gzgetc_@4                 10005570 f   gzread.obj
 0001:00004580       _gzungetc@8                10005580 f   gzread.obj
 0001:00004690       _gzgets@12                 10005690 f   gzread.obj
 0001:000047b0       _gzdirect@4                100057b0 f   gzread.obj
 0001:000047f0       _gzclose_r@4               100057f0 f   gzread.obj
 0001:00004c80       _gzwrite@12                10005c80 f   gzwrite.obj
 0001:00004cd0       _gzfwrite@16               10005cd0 f   gzwrite.obj
 0001:00004d40       _gzputc@8                  10005d40 f   gzwrite.obj
 0001:00004e00       _gzputs@8                  10005e00 f   gzwrite.obj
 0001:00004e70       _gzvprintf                 10005e70 f   gzwrite.obj
 0001:00004fa0       _gzprintf                  10005fa0 f   gzwrite.obj
 0001:00004fc0       _gzflush@8                 10005fc0 f   gzwrite.obj
 0001:00005030       _gzsetparams@12            10006030 f   gzwrite.obj
 0001:000050f0       _gzclose_w@4               100060f0 f   gzwrite.obj
 0001:000051c0       _inflateBackInit_@20       100061c0 f   infback.obj
 0001:000052d0       _inflateBack@20            100062d0 f   infback.obj
 0001:00006050       _inflateBackEnd@4          10007050 f   infback.obj
 0001:00006090       _inflate_fast              10007090 f   inffast.obj
 0001:00006500       _inflateResetKeep@4        10007500 f   inflate.obj
 0001:000065b0       _inflateReset@4            100075b0 f   inflate.obj
 0001:000065f0       _inflateReset2@8           100075f0 f   inflate.obj
 0001:00006680       _inflateInit2_@16          10007680 f   inflate.obj
 0001:00006750       _inflateInit_@12           10007750 f   inflate.obj
 0001:00006770       _inflatePrime@12           10007770 f   inflate.obj
 0001:00006910       _inflate@8                 10007910 f   inflate.obj
 0001:00008080       _inflateEnd@4              10009080 f   inflate.obj
 0001:000080e0       _inflateGetDictionary@12   100090e0 f   inflate.obj
 0001:00008150       _inflateSetDictionary@12   10009150 f   inflate.obj
 0001:000081f0       _inflateGetHeader@8        100091f0 f   inflate.obj
 0001:000082b0       _inflateSync@4             100092b0 f   inflate.obj
 0001:000083d0       _inflateSyncPoint@4        100093d0 f   inflate.obj
 0001:00008410       _inflateCopy@8             10009410 f   inflate.obj
 0001:00008570       _inflateUndermine@8        10009570 f   inflate.obj
 0001:000085a0       _inflateValidate@8         100095a0 f   inflate.obj
 0001:000085e0       _inflateMark@4             100095e0 f   inflate.obj
 0001:00008650       _inflateCodesUsed@4        10009650 f   inflate.obj
 0001:00008680       _inflate_table             10009680 f   inftrees.obj
 0001:00008b60       _call_zopen64              10009b60 f   ioapi.obj
 0001:00008b80       _call_zseek64              10009b80 f   ioapi.obj
 0001:00008bd0       _call_ztell64              10009bd0 f   ioapi.obj
 0001:00008c00       _fill_zlib_filefunc64_32_def_from_filefunc32 10009c00 f   ioapi.obj
 0001:00008e10       _fill_fopen64_filefunc     10009e10 f   ioapi.obj
 0001:00008f00       _win32_open64_file_func    10009f00 f   iowin32.obj
 0001:00008f60       _win32_open64_file_funcA   10009f60 f   iowin32.obj
 0001:00008fc0       _win32_open64_file_funcW   10009fc0 f   iowin32.obj
 0001:00009020       _win32_open_file_func      1000a020 f   iowin32.obj
 0001:00009080       _win32_read_file_func      1000a080 f   iowin32.obj
 0001:000090d0       _win32_write_file_func     1000a0d0 f   iowin32.obj
 0001:00009180       _win32_tell_file_func      1000a180 f   iowin32.obj
 0001:000091d0       _win32_tell64_file_func    1000a1d0 f   iowin32.obj
 0001:00009230       _win32_seek_file_func      1000a230 f   iowin32.obj
 0001:000092a0       _win32_seek64_file_func    1000a2a0 f   iowin32.obj
 0001:00009320       _win32_close_file_func     1000a320 f   iowin32.obj
 0001:00009350       _win32_error_file_func     1000a350 f   iowin32.obj
 0001:00009370       _fill_win32_filefunc       1000a370 f   iowin32.obj
 0001:000093b0       _fill_win32_filefunc64     1000a3b0 f   iowin32.obj
 0001:000093f0       _fill_win32_filefunc64A    1000a3f0 f   iowin32.obj
 0001:00009430       _fill_win32_filefunc64W    1000a430 f   iowin32.obj
 0001:00009680       __tr_init                  1000a680 f   trees.obj
 0001:0000a560       __tr_stored_block          1000b560 f   trees.obj
 0001:0000a660       __tr_flush_bits            1000b660 f   trees.obj
 0001:0000a670       __tr_align                 1000b670 f   trees.obj
 0001:0000ac00       __tr_flush_block           1000bc00 f   trees.obj
 0001:0000ae20       _uncompress2@16            1000be20 f   uncompr.obj
 0001:0000af50       _uncompress@16             1000bf50 f   uncompr.obj
 0001:0000b1a0       _unzStringFileNameCompare@12 1000c1a0 f   unzip.obj
 0001:0000ba20       _unzOpen2@8                1000ca20 f   unzip.obj
 0001:0000ba70       _unzOpen2_64@8             1000ca70 f   unzip.obj
 0001:0000bad0       _unzOpen@4                 1000cad0 f   unzip.obj
 0001:0000baf0       _unzOpen64@4               1000caf0 f   unzip.obj
 0001:0000bb10       _unzClose@4                1000cb10 f   unzip.obj
 0001:0000bb50       _unzGetGlobalInfo64@8      1000cb50 f   unzip.obj
 0001:0000bb80       _unzGetGlobalInfo@8        1000cb80 f   unzip.obj
 0001:0000c200       _unzGetCurrentFileInfo64@32 1000d200 f   unzip.obj
 0001:0000c230       _unzGetCurrentFileInfo@32  1000d230 f   unzip.obj
 0001:0000c2f0       _unzGoToFirstFile@4        1000d2f0 f   unzip.obj
 0001:0000c360       _unzGoToNextFile@4         1000d360 f   unzip.obj
 0001:0000c410       _unzLocateFile@12          1000d410 f   unzip.obj
 0001:0000c5c0       _unzGetFilePos64@8         1000d5c0 f   unzip.obj
 0001:0000c610       _unzGetFilePos@8           1000d610 f   unzip.obj
 0001:0000c640       _unzGoToFilePos64@8        1000d640 f   unzip.obj
 0001:0000c6b0       _unzGoToFilePos@8          1000d6b0 f   unzip.obj
 0001:0000c950       _unzOpenCurrentFile3@20    1000d950 f   unzip.obj
 0001:0000cbe0       _unzOpenCurrentFile@4      1000dbe0 f   unzip.obj
 0001:0000cc00       _unzOpenCurrentFilePassword@8 1000dc00 f   unzip.obj
 0001:0000cc20       _unzOpenCurrentFile2@16    1000dc20 f   unzip.obj
 0001:0000cc40       _unzGetCurrentFileZStreamPos64@4 1000dc40 f   unzip.obj
 0001:0000cc80       _unzReadCurrentFile@12     1000dc80 f   unzip.obj
 0001:0000cf50       _unztell@4                 1000df50 f   unzip.obj
 0001:0000cf80       _unztell64@4               1000df80 f   unzip.obj
 0001:0000cfb0       _unzeof@4                  1000dfb0 f   unzip.obj
 0001:0000cff0       _unzGetLocalExtrafield@12  1000dff0 f   unzip.obj
 0001:0000d0c0       _unzCloseCurrentFile@4     1000e0c0 f   unzip.obj
 0001:0000d150       _unzGetGlobalComment@12    1000e150 f   unzip.obj
 0001:0000e220       _zipOpen3@16               1000f220 f   zip.obj
 0001:0000e390       _zipOpen2@16               1000f390 f   zip.obj
 0001:0000e3e0       _zipOpen2_64@16            1000f3e0 f   zip.obj
 0001:0000e440       _zipOpen@8                 1000f440 f   zip.obj
 0001:0000e460       _zipOpen64@8               1000f460 f   zip.obj
 0001:0000e6c0       _zipOpenNewFileInZip4_64@76 1000f6c0 f   zip.obj
 0001:0000ec10       _zipOpenNewFileInZip3@64   1000fc10 f   zip.obj
 0001:0000ec60       _zipOpenNewFileInZip3_64@68 1000fc60 f   zip.obj
 0001:0000ecb0       _zipOpenNewFileInZip2@44   1000fcb0 f   zip.obj
 0001:0000ecf0       _zipOpenNewFileInZip2_64@48 1000fcf0 f   zip.obj
 0001:0000ed30       _zipOpenNewFileInZip64@44  1000fd30 f   zip.obj
 0001:0000ed70       _zipOpenNewFileInZip@40    1000fd70 f   zip.obj
 0001:0000ee70       _zipWriteInFileInZip@12    1000fe70 f   zip.obj
 0001:0000ef80       _zipCloseFileInZipRaw@12   1000ff80 f   zip.obj
 0001:0000efa0       _zipCloseFileInZipRaw64@16 1000ffa0 f   zip.obj
 0001:0000f4f0       _zipCloseFileInZip@4       100104f0 f   zip.obj
 0001:0000f850       _zipClose@8                10010850 f   zip.obj
 0001:0000f9e0       _zlibVersion@0             100109e0 f   zutil.obj
 0001:0000f9f0       _zlibCompileFlags@0        100109f0 f   zutil.obj
 0001:0000fa00       _zError@4                  10010a00 f   zutil.obj
 0001:0000fa20       _zcalloc                   10010a20 f   zutil.obj
 0001:0000fa40       _zcfree                    10010a40 f   zutil.obj
 0001:0000fa50       _ReadFile@20               10010a50 f   kernel32:KERNEL32.dll
 0001:0000fa56       _WriteFile@20              10010a56 f   kernel32:KERNEL32.dll
 0001:0000fa5c       _SetFilePointer@16         10010a5c f   kernel32:KERNEL32.dll
 0001:0000fa62       _CreateFileW@28            10010a62 f   kernel32:KERNEL32.dll
 0001:0000fa68       _GetLastError@0            10010a68 f   kernel32:KERNEL32.dll
 0001:0000fa6e       _CreateFileA@28            10010a6e f   kernel32:KERNEL32.dll
 0001:0000fa74       _CloseHandle@4             10010a74 f   kernel32:KERNEL32.dll
 0001:0000fdba       __CRT_INIT@12              10010dba f   LIBCMT:dll_dllmain.obj
 0001:0000fdc3       __DllMainCRTStartup@12     10010dc3 f   LIBCMT:dll_dllmain.obj
 0001:0000fe33       ___security_init_cookie    10010e33 f   LIBCMT:gs_support.obj
 0001:0000fe7e       _DllMain@12                10010e7e f   LIBCMT:dll_dllmain_stub.obj
 0001:0000fe84       ?__scrt_initialize_type_info@@YAXXZ 10010e84 f   LIBCMT:tncleanup.obj
 0001:0000fe90       ?__scrt_uninitialize_type_info@@YAXXZ 10010e90 f   LIBCMT:tncleanup.obj
 0001:0000fe9c       ___local_stdio_scanf_options 10010e9c f i LIBCMT:default_local_stdio_options.obj
 0001:0000fea2       ___scrt_initialize_default_local_stdio_options 10010ea2 f   LIBCMT:default_local_stdio_options.obj
 0001:0000febf       ?configure_argv@__scrt_narrow_argv_policy@@SAHXZ 10010ebf f i LIBCMT:utility.obj
 0001:0000ff10       ?initialize_environment@__scrt_narrow_environment_policy@@SAHXZ 10010f10 f i LIBCMT:utility.obj
 0001:0000ff48       _NtCurrentTeb              10010f48 f i LIBCMT:utility.obj
 0001:0000ff4f       ___scrt_acquire_startup_lock 10010f4f f   LIBCMT:utility.obj
 0001:0000ff81       ___scrt_dllmain_after_initialize_c 10010f81 f   LIBCMT:utility.obj
 0001:0000ffac       ___scrt_dllmain_before_initialize_c 10010fac f   LIBCMT:utility.obj
 0001:0000ffba       ___scrt_dllmain_crt_thread_attach 10010fba f   LIBCMT:utility.obj
 0001:0000ffd9       ___scrt_dllmain_crt_thread_detach 10010fd9 f   LIBCMT:utility.obj
 0001:0000ffe6       ___scrt_dllmain_exception_filter 10010fe6 f   LIBCMT:utility.obj
 0001:0001001a       ___scrt_dllmain_uninitialize_c 1001101a f   LIBCMT:utility.obj
 0001:0001003d       ___scrt_dllmain_uninitialize_critical 1001103d f   LIBCMT:utility.obj
 0001:0001004a       ___scrt_initialize_crt     1001104a f   LIBCMT:utility.obj
 0001:00010083       ___scrt_initialize_onexit_tables 10011083 f   LIBCMT:utility.obj
 0001:0001010a       ___scrt_is_nonwritable_in_current_image 1001110a f   LIBCMT:utility.obj
 0001:0001019e       ___scrt_release_startup_lock 1001119e f   LIBCMT:utility.obj
 0001:000101bb       ___scrt_uninitialize_crt   100111bb f   LIBCMT:utility.obj
 0001:000101e3       __onexit                   100111e3 f   LIBCMT:utility.obj
 0001:00010210       _at_quick_exit             10011210 f   LIBCMT:utility.obj
 0001:00010233       _atexit                    10011233 f   LIBCMT:utility.obj
 0001:00010248       ___scrt_get_dyn_tls_init_callback 10011248 f   LIBCMT:dyn_tls_init.obj
 0001:0001024e       ___scrt_fastfail           1001124e f   LIBCMT:utility_desktop.obj
 0001:00010369       ___scrt_get_show_window_mode 10011369 f   LIBCMT:utility_desktop.obj
 0001:0001039a       ___scrt_initialize_mta     1001139a f   LIBCMT:utility_desktop.obj
 0001:0001039f       ___scrt_initialize_winrt   1001139f f   LIBCMT:utility_desktop.obj
 0001:000103a2       ___scrt_is_managed_app     100113a2 f   LIBCMT:utility_desktop.obj
 0001:000103e4       ___scrt_set_unhandled_exception_filter 100113e4 f   LIBCMT:utility_desktop.obj
 0001:000103f0       ___scrt_exe_initialize_mta 100113f0 f   LIBCMT:utility_desktop.obj
 0001:000103f0       ___scrt_stub_for_initialize_mta 100113f0 f   LIBCMT:utility_desktop.obj
 0001:000103f3       ___scrt_unhandled_exception_filter@4 100113f3 f   LIBCMT:utility_desktop.obj
 0001:00010449       __crt_debugger_hook        10011449 f   LIBCMT:utility_desktop.obj
 0001:00010451       __RTC_Initialize           10011451 f   LIBCMT:initsect.obj
 0001:0001047d       __RTC_Terminate            1001147d f   LIBCMT:initsect.obj
 0001:000104b0       __SEH_prolog4              100114b0 f   LIBCMT:sehprolg4.obj
 0001:00010500       __SEH_epilog4              10011500 f   LIBCMT:sehprolg4.obj
 0001:00010514       @_guard_check_icall_nop@4  10011514 f i LIBCMT:guard_support.obj
 0001:00010517       _ReadNoFence               10011517 f i LIBCMT:guard_support.obj
 0001:00010521       _ReadPointerNoFence        10011521 f i LIBCMT:guard_support.obj
 0001:0001052b       __InlineInterlockedExchangePointer 1001152b f i LIBCMT:guard_support.obj
 0001:00010538       ___castguard_check_failure_debugbreak 10011538 f i LIBCMT:guard_support.obj
 0001:00010553       ___castguard_check_failure_fastfail 10011553 f i LIBCMT:guard_support.obj
 0001:00010572       ___castguard_check_failure_nop 10011572 f i LIBCMT:guard_support.obj
 0001:00010575       ___castguard_check_failure_os_handled 10011575 f i LIBCMT:guard_support.obj
 0001:000105b6       ___castguard_check_failure_user_handled 100115b6 f i LIBCMT:guard_support.obj
 0001:00010624       ___castguard_set_user_handler 10011624 f i LIBCMT:guard_support.obj
 0001:00010633       ___castguard_slow_path_check_debugbreak 10011633 f i LIBCMT:guard_support.obj
 0001:00010660       ___castguard_slow_path_check_fastfail 10011660 f i LIBCMT:guard_support.obj
 0001:00010691       ___castguard_slow_path_check_nop 10011691 f i LIBCMT:guard_support.obj
 0001:00010694       ___castguard_slow_path_check_os_handled 10011694 f i LIBCMT:guard_support.obj
 0001:000106d5       ___castguard_slow_path_check_user_handled 100116d5 f i LIBCMT:guard_support.obj
 0001:00010736       __guard_icall_checks_enforced 10011736 f i LIBCMT:guard_support.obj
 0001:00010748       ___isa_available_init      10011748 f   LIBCMT:cpu_disp.obj
 0001:0001091c       __get_startup_argv_mode    1001191c f   LIBCMT:argv_mode.obj
 0001:00010920       ___scrt_is_ucrt_dll_in_use 10011920 f   LIBCMT:ucrt_detection.obj
 0001:0001092c       @__security_check_cookie@4 1001192c f   LIBCMT:secchk.obj
 0001:0001093a       ___raise_securityfailure   1001193a f   LIBCMT:gs_report.obj
 0001:00010962       ___report_gsfailure        10011962 f   LIBCMT:gs_report.obj
 0001:00010a5c       ___report_rangecheckfailure 10011a5c f   LIBCMT:gs_report.obj
 0001:00010a68       ___report_securityfailure  10011a68 f   LIBCMT:gs_report.obj
 0001:00010b37       ___report_securityfailureEx 10011b37 f   LIBCMT:gs_report.obj
 0001:00010c90       __except_handler4          10011c90 f   libvcruntime:chandler4.obj
 0001:00010dfc       ??$?RD@__crt_internal_free_policy@@QBEXQBD@Z 10011dfc f i libvcruntime:std_type_info.obj
 0001:00010e0c       ??$?RX@__crt_internal_free_policy@@QBEXQBX@Z 10011e0c f i libvcruntime:std_type_info.obj
 0001:00010e1c       ??$__crt_interlocked_compare_exchange_pointer@$$CBDPAD$$T@@YAPBDPDSBDQAD$$T@Z 10011e1c f i libvcruntime:std_type_info.obj
 0001:00010e2e       ??$__crt_interlocked_read_pointer@$$CBD@@YAPBDPDSBD@Z 10011e2e f i libvcruntime:std_type_info.obj
 0001:00010e39       ??0?$__crt_unique_heap_ptr@DU__crt_internal_free_policy@@@@QAE@QAD@Z 10011e39 f i libvcruntime:std_type_info.obj
 0001:00010e47       ??0?$__crt_unique_heap_ptr@XU__crt_internal_free_policy@@@@QAE@QAX@Z 10011e47 f i libvcruntime:std_type_info.obj
 0001:00010e55       ??1?$__crt_unique_heap_ptr@DU__crt_internal_free_policy@@@@QAE@XZ 10011e55 f i libvcruntime:std_type_info.obj
 0001:00010e65       ??1?$__crt_unique_heap_ptr@XU__crt_internal_free_policy@@@@QAE@XZ 10011e65 f i libvcruntime:std_type_info.obj
 0001:00010e75       ??B?$__crt_unique_heap_ptr@DU__crt_internal_free_policy@@@@QBE_NXZ 10011e75 f i libvcruntime:std_type_info.obj
 0001:00010e7c       ??B?$__crt_unique_heap_ptr@XU__crt_internal_free_policy@@@@QBE_NXZ 10011e7c f i libvcruntime:std_type_info.obj
 0001:00010ea3       ?__crt_interlocked_read_32@@YAHPDH@Z 10011ea3 f i libvcruntime:std_type_info.obj
 0001:00010eae       ?detach@?$__crt_unique_heap_ptr@XU__crt_internal_free_policy@@@@QAEPAXXZ 10011eae f i libvcruntime:std_type_info.obj
 0001:00010eb4       ?get@?$__crt_unique_heap_ptr@DU__crt_internal_free_policy@@@@QBEPADXZ 10011eb4 f i libvcruntime:std_type_info.obj
 0001:00010eb7       ?get@?$__crt_unique_heap_ptr@XU__crt_internal_free_policy@@@@QBEPAXXZ 10011eb7 f i libvcruntime:std_type_info.obj
 0001:00010eba       ?is_valid@?$__crt_unique_heap_ptr@DU__crt_internal_free_policy@@@@QBE_NXZ 10011eba f i libvcruntime:std_type_info.obj
 0001:00010ec1       ?is_valid@?$__crt_unique_heap_ptr@XU__crt_internal_free_policy@@@@QBE_NXZ 10011ec1 f i libvcruntime:std_type_info.obj
 0001:00010ec8       ?release@?$__crt_unique_heap_ptr@DU__crt_internal_free_policy@@@@QAEXXZ 10011ec8 f i libvcruntime:std_type_info.obj
 0001:00010ed8       ?release@?$__crt_unique_heap_ptr@XU__crt_internal_free_policy@@@@QAEXXZ 10011ed8 f i libvcruntime:std_type_info.obj
 0001:00010ee8       ___std_type_info_compare   10011ee8 f   libvcruntime:std_type_info.obj
 0001:00010f24       ___std_type_info_destroy_list 10011f24 f   libvcruntime:std_type_info.obj
 0001:00010f47       ___std_type_info_hash      10011f47 f   libvcruntime:std_type_info.obj
 0001:00010f6d       ___std_type_info_name      10011f6d f   libvcruntime:std_type_info.obj
 0001:00011033       ___vcrt_initialize         10012033 f   libvcruntime:initialization.obj
 0001:00011052       ___vcrt_thread_attach      10012052 f   libvcruntime:initialization.obj
 0001:0001105d       ___vcrt_thread_detach      1001205d f   libvcruntime:initialization.obj
 0001:00011068       ___vcrt_uninitialize       10012068 f   libvcruntime:initialization.obj
 0001:0001107f       ___vcrt_uninitialize_critical 1001207f f   libvcruntime:initialization.obj
 0001:0001108a       ___DestructExceptionObject 1001208a f   libvcruntime:ehhelpers.obj
 0001:0001112b       ?_CallMemberFunction0@@YGXQAX0@Z 1001212b f i libvcruntime:ehhelpers.obj
 0001:00011190       ?raw_name@type_info@@QBEPBDXZ 10012190 f i libvcruntime:ehhelpers.obj
 0001:00011194       __IsExceptionObjectToBeDestroyed 10012194 f   libvcruntime:ehhelpers.obj
 0001:000111ba       __SetWinRTOutOfMemoryExceptionCallback 100121ba f   libvcruntime:ehhelpers.obj
 0001:000111c7       ___AdjustPointer           100121c7 f   libvcruntime:ehhelpers.obj
 0001:000111ec       ___FrameUnwindFilter       100121ec f   libvcruntime:ehhelpers.obj
 0001:00011242       ___GetPlatformExceptionInfo 10012242 f   libvcruntime:ehhelpers.obj
 0001:0001128e       ___current_exception       1001228e f   libvcruntime:ehhelpers.obj
 0001:00011297       ___current_exception_context 10012297 f   libvcruntime:ehhelpers.obj
 0001:000112a0       ___processing_throw        100122a0 f   libvcruntime:ehhelpers.obj
 0001:000112a9       ___std_terminate           100122a9 f   libvcruntime:ehhelpers.obj
 0001:000112ae       __is_exception_typeof      100122ae f   libvcruntime:ehhelpers.obj
 0001:00011360       _memset                    10012360 f   libvcruntime:memset.obj
 0001:000114c0       __local_unwind4            100124c0 f   libvcruntime:exsup4.obj
 0001:000115b0       __seh_longjmp_unwind4@4    100125b0 f   libvcruntime:exsup4.obj
 0001:000115e0       @_EH4_CallFilterFunc@8     100125e0 f   libvcruntime:exsup4.obj
 0001:00011600       @_EH4_TransferToHandler@8  10012600 f   libvcruntime:exsup4.obj
 0001:00011620       @_EH4_GlobalUnwind2@8      10012620 f   libvcruntime:exsup4.obj
 0001:00011640       @_EH4_LocalUnwind@16       10012640 f   libvcruntime:exsup4.obj
 0001:00011662       ___except_validate_context_record 10012662 f   libvcruntime:jbcxrval.obj
 0001:00011692       ___except_validate_jump_buffer 10012692 f   libvcruntime:jbcxrval.obj
 0001:000116bf       ___except_validate_jump_buffer_common 100126bf f i libvcruntime:jbcxrval.obj
 0001:000116f8       ??$?0$00@DName@@QAE@PBDU?$StringLifeSelector@$00@@@Z 100126f8 f i libvcruntime:undname.obj
 0001:0001172b       ??$?0$00@pcharNode@@QAE@PBDHU?$StringLifeSelector@$00@@@Z 1001272b f i libvcruntime:undname.obj
 0001:00011746       ??$?0$01@DName@@QAE@PBDU?$StringLifeSelector@$01@@@Z 10012746 f i libvcruntime:undname.obj
 0001:00011779       ??$?0$01@pcharNode@@QAE@PBDHU?$StringLifeSelector@$01@@@Z 10012779 f i libvcruntime:undname.obj
 0001:000117b9       ??$?0$0A@@DName@@QAE@PBDU?$StringLifeSelector@$0A@@@@Z 100127b9 f i libvcruntime:undname.obj
 0001:000117ec       ??$?0$0A@@pcharNode@@QAE@PBDHU?$StringLifeSelector@$0A@@@@Z 100127ec f i libvcruntime:undname.obj
 0001:0001182c       ??$?0_K$0A@@?$optional@_K@std@@QAE@$$QA_K@Z 1001282c f i libvcruntime:undname.obj
 0001:00011846       ??$?0_K@?$_Optional_construct_base@_K@std@@QAE@Uin_place_t@1@$$QA_K@Z 10012846 f i libvcruntime:undname.obj
 0001:00011860       ??$?0_K@?$_Optional_destruct_base@_K$00@std@@QAE@Uin_place_t@1@$$QA_K@Z 10012860 f i libvcruntime:undname.obj
 0001:0001187a       ??$append@VDNameNode@@@DName@@AAEXPBVDNameNode@@@Z 1001287a f i libvcruntime:undname.obj
 0001:000118bb       ??$append@VDNameStatusNode@@@DName@@AAEXPBVDNameStatusNode@@@Z 100128bb f i libvcruntime:undname.obj
 0001:000118fc       ??$append@VcharNode@@@DName@@AAEXPBVcharNode@@@Z 100128fc f i libvcruntime:undname.obj
 0001:0001193d       ??$append@VpDNameNode@@@DName@@AAEXPBVpDNameNode@@@Z 1001293d f i libvcruntime:undname.obj
 0001:0001197e       ??$append@VpcharNode@@@DName@@AAEXPBVpcharNode@@@Z 1001297e f i libvcruntime:undname.obj
 0001:000119bf       ??$doPchar@$00@DName@@AAEXPBDH@Z 100129bf f i libvcruntime:undname.obj
 0001:00011a2a       ??$doPchar@$01@DName@@AAEXPBDH@Z 10012a2a f i libvcruntime:undname.obj
 0001:00011a9b       ??$doPchar@$0A@@DName@@AAEXPBDH@Z 10012a9b f i libvcruntime:undname.obj
 0001:00011b0c       ??$forward@_K@std@@YA$$QA_KAA_K@Z 10012b0c f i libvcruntime:undname.obj
 0001:00011bd0       ??$size@D$04@std@@YAIAAY04$$CBD@Z 10012bd0 f i libvcruntime:undname.obj
 0001:00011bd4       ??0?$_Optional_construct_base@_K@std@@QAE@XZ 10012bd4 f i libvcruntime:undname.obj
 0001:00011bdb       ??0?$_Optional_destruct_base@_K$00@std@@QAE@XZ 10012bdb f i libvcruntime:undname.obj
 0001:00011be2       ??0?$optional@_K@std@@QAE@XZ 10012be2 f i libvcruntime:undname.obj
 0001:00011be9       ??0Block@_HeapManager@@QAE@XZ 10012be9 f i libvcruntime:undname.obj
 0001:00011bef       ??0DName@@QAE@AAPBDD@Z     10012bef f   libvcruntime:undname.obj
 0001:00011c6f       ??0DName@@QAE@ABUStringLiteral@@@Z 10012c6f f   libvcruntime:undname.obj
 0001:00011c96       ??0DName@@QAE@ABV0@@Z      10012c96 f i libvcruntime:undname.obj
 0001:00011cac       ??0DName@@QAE@D@Z          10012cac f   libvcruntime:undname.obj
 0001:00011cc8       ??0DName@@QAE@PAV0@@Z      10012cc8 f   libvcruntime:undname.obj
 0001:00011d11       ??0DName@@QAE@W4DNameStatus@@@Z 10012d11 f   libvcruntime:undname.obj
 0001:00011d51       ??0DName@@QAE@XZ           10012d51 f i libvcruntime:undname.obj
 0001:00011d5b       ??0DName@@QAE@_J@Z         10012d5b f   libvcruntime:undname.obj
 0001:00011de5       ??0DName@@QAE@_K@Z         10012de5 f   libvcruntime:undname.obj
 0001:00011e49       ??0DNameNode@@IAE@XZ       10012e49 f i libvcruntime:undname.obj
 0001:00011e52       ??0Replicator@@QAE@XZ      10012e52 f i libvcruntime:undname.obj
 0001:00011e61       ??0UnDecorator@@QAE@PBDP6APADJ@ZK@Z 10012e61 f i libvcruntime:undname.obj
 0001:00011ead       ??0_Nontrivial_dummy_type@std@@QAE@XZ 10012ead f i libvcruntime:undname.obj
 0001:00011eb0       ??0charNode@@QAE@D@Z       10012eb0 f i libvcruntime:undname.obj
 0001:00011ec5       ??0pDNameNode@@QAE@PAVDName@@@Z 10012ec5 f   libvcruntime:undname.obj
 0001:00011eed       ??0pairNode@@QAE@PBVDNameNode@@0@Z 10012eed f i libvcruntime:undname.obj
 0001:00011f13       ??2@YAPAXIAAV_HeapManager@@H@Z 10012f13 f   libvcruntime:undname.obj
 0001:00011f32       ??4DName@@QAEAAV0@ABUStringLiteral@@@Z 10012f32 f   libvcruntime:undname.obj
 0001:00011f53       ??4DName@@QAEAAV0@ABV0@@Z  10012f53 f   libvcruntime:undname.obj
 0001:00011f69       ??4DName@@QAEAAV0@D@Z      10012f69 f i libvcruntime:undname.obj
 0001:00011f85       ??4DName@@QAEAAV0@PAV0@@Z  10012f85 f   libvcruntime:undname.obj
 0001:00011fc8       ??4DName@@QAEAAV0@W4DNameStatus@@@Z 10012fc8 f   libvcruntime:undname.obj
 0001:00011ffa       ??AReplicator@@QBE?AVDName@@H@Z 10012ffa f   libvcruntime:undname.obj
 0001:00012036       ??B?$optional@_K@std@@QBE_NXZ 10013036 f i libvcruntime:undname.obj
 0001:0001203a       ??D?$_Optional_construct_base@_K@std@@QGAEAA_KXZ 1001303a f i libvcruntime:undname.obj
 0001:0001203d       ??H@YA?AVDName@@ABUStringLiteral@@ABV0@@Z 1001303d f i libvcruntime:undname.obj
 0001:0001205f       ??H@YA?AVDName@@DABV0@@Z   1001305f f i libvcruntime:undname.obj
 0001:0001208a       ??H@YA?AVDName@@W4DNameStatus@@ABV0@@Z 1001308a f i libvcruntime:undname.obj
 0001:000120ac       ??HDName@@QBE?AV0@ABUStringLiteral@@@Z 100130ac f   libvcruntime:undname.obj
 0001:000120ce       ??HDName@@QBE?AV0@ABV0@@Z  100130ce f   libvcruntime:undname.obj
 0001:000120f0       ??HDName@@QBE?AV0@D@Z      100130f0 f   libvcruntime:undname.obj
 0001:00012112       ??HDName@@QBE?AV0@PAV0@@Z  10013112 f   libvcruntime:undname.obj
 0001:00012134       ??HDName@@QBE?AV0@W4DNameStatus@@@Z 10013134 f   libvcruntime:undname.obj
 0001:00012156       ??HStringLiteral@@QBE?AU0@H@Z 10013156 f i libvcruntime:undname.obj
 0001:00012170       ??YDName@@QAEAAV0@ABUStringLiteral@@@Z 10013170 f   libvcruntime:undname.obj
 0001:000121c8       ??YDName@@QAEAAV0@ABV0@@Z  100131c8 f   libvcruntime:undname.obj
 0001:0001221f       ??YDName@@QAEAAV0@D@Z      1001321f f   libvcruntime:undname.obj
 0001:00012274       ??YDName@@QAEAAV0@PAV0@@Z  10013274 f   libvcruntime:undname.obj
 0001:000122d8       ??YDName@@QAEAAV0@W4DNameStatus@@@Z 100132d8 f   libvcruntime:undname.obj
 0001:00012318       ??YReplicator@@QAEAAV0@ABVDName@@@Z 10013318 f   libvcruntime:undname.obj
 0001:00012358       ??_5DName@@QAEAAV0@ABV0@@Z 10013358 f   libvcruntime:undname.obj
 0001:00012377       ??__K_l@@YA?AUStringLiteral@@PBDI@Z 10013377 f i libvcruntime:undname.obj
 0001:00012382       ?Constructor@_HeapManager@@QAEXP6APAXI@ZP6AXPAX@Z@Z 10013382 f i libvcruntime:undname.obj
 0001:0001239f       ?Destructor@_HeapManager@@QAEXXZ 1001339f f i libvcruntime:undname.obj
 0001:000123e3       ?UScore@UnDecorator@@SA?AUStringLiteral@@W4Tokens@@@Z 100133e3 f   libvcruntime:undname.obj
 0001:0001240a       ?composeDeclaration@UnDecorator@@CA?AVDName@@ABV2@@Z 1001340a f i libvcruntime:undname.obj
 0001:00013102       ?doAccessSpecifiers@UnDecorator@@SAHXZ 10014102 f i libvcruntime:undname.obj
 0001:00013110       ?doAllocationLanguage@UnDecorator@@SAHXZ 10014110 f i libvcruntime:undname.obj
 0001:0001311e       ?doAllocationModel@UnDecorator@@SAHXZ 1001411e f i libvcruntime:undname.obj
 0001:0001312c       ?doEcsu@UnDecorator@@SAHXZ 1001412c f i libvcruntime:undname.obj
 0001:0001313a       ?doEllipsis@UnDecorator@@SAHXZ 1001413a f i libvcruntime:undname.obj
 0001:00013148       ?doFunctionReturns@UnDecorator@@SAHXZ 10014148 f i libvcruntime:undname.obj
 0001:00013156       ?doMSKeywords@UnDecorator@@SAHXZ 10014156 f i libvcruntime:undname.obj
 0001:00013163       ?doMemberTypes@UnDecorator@@SAHXZ 10014163 f i libvcruntime:undname.obj
 0001:00013171       ?doNameOnly@UnDecorator@@SAHXZ 10014171 f i libvcruntime:undname.obj
 0001:0001317c       ?doNoIdentCharCheck@UnDecorator@@SAHXZ 1001417c f i libvcruntime:undname.obj
 0001:00013187       ?doPchar@DName@@AAEXD@Z    10014187 f   libvcruntime:undname.obj
 0001:000131bf       ?doPtr64@UnDecorator@@SAHXZ 100141bf f i libvcruntime:undname.obj
 0001:000131cd       ?doRestrictionSpec@UnDecorator@@SAHXZ 100141cd f i libvcruntime:undname.obj
 0001:000131db       ?doThisTypes@UnDecorator@@SAHXZ 100141db f i libvcruntime:undname.obj
 0001:000131ed       ?doThrowTypes@UnDecorator@@SAHXZ 100141ed f i libvcruntime:undname.obj
 0001:000131fb       ?doTypeOnly@UnDecorator@@SAHXZ 100141fb f i libvcruntime:undname.obj
 0001:00013206       ?doUnderScore@UnDecorator@@SAHXZ 10014206 f i libvcruntime:undname.obj
 0001:00013211       ?getAddressOf@UnDecorator@@CA?AVDName@@XZ 10014211 f   libvcruntime:undname.obj
 0001:00013279       ?getArgumentList@UnDecorator@@CA?AVDName@@XZ 10014279 f   libvcruntime:undname.obj
 0001:000133e3       ?getArgumentTypes@UnDecorator@@CA?AVDName@@XZ 100143e3 f   libvcruntime:undname.obj
 0001:000134eb       ?getArrayAccess@UnDecorator@@CA?AVDName@@XZ 100144eb f   libvcruntime:undname.obj
 0001:0001355f       ?getArrayObject@UnDecorator@@CA?AVDName@@XZ 1001455f f   libvcruntime:undname.obj
 0001:000135ea       ?getArrayType@UnDecorator@@CA?AVDName@@ABV2@@Z 100145ea f i libvcruntime:undname.obj
 0001:00013787       ?getBasedType@UnDecorator@@CA?AVDName@@XZ 10014787 f   libvcruntime:undname.obj
 0001:00013836       ?getBasicDataType@UnDecorator@@CA?AVDName@@ABV2@@Z 10014836 f   libvcruntime:undname.obj
 0001:00013d92       ?getCHPEName@UnDecorator@@QAEPADPADH@Z 10014d92 f i libvcruntime:undname.obj
 0001:00013e6f       ?getCallIndex@UnDecorator@@CA?AVDName@@XZ 10014e6f f i libvcruntime:undname.obj
 0001:00013e83       ?getCallingConvention@UnDecorator@@CA?AVDName@@XZ 10014e83 f   libvcruntime:undname.obj
 0001:00013f58       ?getDataIndirectType@UnDecorator@@CA?AVDName@@ABV2@W4IndirectionKind@@0H@Z 10014f58 f   libvcruntime:undname.obj
 0001:0001470a       ?getDataIndirectType@UnDecorator@@CA?AVDName@@XZ 1001570a f i libvcruntime:undname.obj
 0001:00014738       ?getDataType@UnDecorator@@CA?AVDName@@PAV2@@Z 10015738 f   libvcruntime:undname.obj
 0001:0001480f       ?getDecoratedName@UnDecorator@@CA?AVDName@@XZ 1001580f f   libvcruntime:undname.obj
 0001:00014a63       ?getDimension@UnDecorator@@CA?AVDName@@_N@Z 10015a63 f   libvcruntime:undname.obj
 0001:00014b6a       ?getDispatchTarget@UnDecorator@@CA?AVDName@@XZ 10015b6a f   libvcruntime:undname.obj
 0001:00014bbb       ?getDisplacement@UnDecorator@@CA?AVDName@@XZ 10015bbb f i libvcruntime:undname.obj
 0001:00014bcf       ?getECSUDataType@UnDecorator@@CA?AVDName@@XZ 10015bcf f   libvcruntime:undname.obj
 0001:00014d79       ?getECSUName@UnDecorator@@CA?AVDName@@XZ 10015d79 f i libvcruntime:undname.obj
 0001:00014d8a       ?getEnumType@UnDecorator@@CA?AVDName@@XZ 10015d8a f i libvcruntime:undname.obj
 0001:00014eaa       ?getExtendedDataIndirectType@UnDecorator@@CA?AVDName@@AAW4IndirectionKind@@AA_NH@Z 10015eaa f   libvcruntime:undname.obj
 0001:00015056       ?getExternalDataType@UnDecorator@@CA?AVDName@@ABV2@@Z 10016056 f i libvcruntime:undname.obj
 0001:000150bb       ?getFloatingPoint@UnDecorator@@CA?AVDName@@H@Z 100160bb f   libvcruntime:undname.obj
 0001:00015179       ?getFunctionIndirectType@UnDecorator@@CA?AVDName@@ABV2@@Z 10016179 f   libvcruntime:undname.obj
 0001:00015523       ?getGuardNumber@UnDecorator@@CA?AVDName@@XZ 10016523 f i libvcruntime:undname.obj
 0001:00015537       ?getLastChar@DName@@QBEDXZ 10016537 f i libvcruntime:undname.obj
 0001:00015557       ?getLastChar@DNameStatusNode@@UBEDXZ 10016557 f i libvcruntime:undname.obj
 0001:00015563       ?getLastChar@charNode@@UBEDXZ 10016563 f i libvcruntime:undname.obj
 0001:00015567       ?getLastChar@pDNameNode@@UBEDXZ 10016567 f i libvcruntime:undname.obj
 0001:00015575       ?getLastChar@pairNode@@UBEDXZ 10016575 f i libvcruntime:undname.obj
 0001:000155aa       ?getLastChar@pcharNode@@UBEDXZ 100165aa f i libvcruntime:undname.obj
 0001:000155bc       ?getLexicalFrame@UnDecorator@@CA?AVDName@@XZ 100165bc f i libvcruntime:undname.obj
 0001:000155ed       ?getMemberAccess@UnDecorator@@CA?AVDName@@XZ 100165ed f   libvcruntime:undname.obj
 0001:0001565d       ?getMemoryWithBuffer@_HeapManager@@QAEPAXI@Z 1001665d f   libvcruntime:undname.obj
 0001:000156c7       ?getMemoryWithoutBuffer@_HeapManager@@QAEPAXI@Z 100166c7 f   libvcruntime:undname.obj
 0001:000156e7       ?getNoexcept@UnDecorator@@CA?AVDName@@XZ 100166e7 f   libvcruntime:undname.obj
 0001:0001572f       ?getNumberOfDimensions@UnDecorator@@CAHXZ 1001672f f   libvcruntime:undname.obj
 0001:00015791       ?getOperatorName@UnDecorator@@CA?AVDName@@_NPA_N@Z 10016791 f i libvcruntime:undname.obj
 0001:00015fbb       ?getPointerToMember@UnDecorator@@CA?AVDName@@XZ 10016fbb f   libvcruntime:undname.obj
 0001:00016077       ?getPointerType@UnDecorator@@CA?AVDName@@ABV2@0@Z 10017077 f i libvcruntime:undname.obj
 0001:00016092       ?getPointerTypeArray@UnDecorator@@CA?AVDName@@ABV2@0@Z 10017092 f i libvcruntime:undname.obj
 0001:000160ad       ?getPrimaryDataType@UnDecorator@@CA?AVDName@@ABV2@@Z 100170ad f   libvcruntime:undname.obj
 0001:000162fb       ?getPtrRefDataType@UnDecorator@@CA?AVDName@@ABV2@H@Z 100172fb f   libvcruntime:undname.obj
 0001:00016468       ?getPtrRefType@UnDecorator@@CA?AVDName@@ABV2@0W4IndirectionKind@@@Z 10017468 f   libvcruntime:undname.obj
 0001:00016579       ?getReferenceType@UnDecorator@@CA?AVDName@@ABV2@0W4IndirectionKind@@@Z 10017579 f i libvcruntime:undname.obj
 0001:00016595       ?getRestrictionSpec@UnDecorator@@CA?AVDName@@XZ 10017595 f   libvcruntime:undname.obj
 0001:000166ae       ?getReturnType@UnDecorator@@CA?AVDName@@PAV2@@Z 100176ae f   libvcruntime:undname.obj
 0001:000166dd       ?getScope@UnDecorator@@CA?AVDName@@XZ 100176dd f   libvcruntime:undname.obj
 0001:00016a9b       ?getScopedName@UnDecorator@@CA?AVDName@@XZ 10017a9b f   libvcruntime:undname.obj
 0001:00016b8e       ?getSignedDimension@UnDecorator@@CA?AVDName@@XZ 10017b8e f   libvcruntime:undname.obj
 0001:00016bdf       ?getStorageConvention@UnDecorator@@CA?AVDName@@XZ 10017bdf f i libvcruntime:undname.obj
 0001:00016bf0       ?getString@DName@@QBEPADPAD0@Z 10017bf0 f i libvcruntime:undname.obj
 0001:00016c1d       ?getString@DName@@QBEPADPADH@Z 10017c1d f i libvcruntime:undname.obj
 0001:00016c72       ?getString@DNameStatusNode@@UBEPADPAD0@Z 10017c72 f i libvcruntime:undname.obj
 0001:00016cb9       ?getString@charNode@@UBEPADPAD0@Z 10017cb9 f i libvcruntime:undname.obj
 0001:00016cce       ?getString@pDNameNode@@UBEPADPAD0@Z 10017cce f i libvcruntime:undname.obj
 0001:00016ce5       ?getString@pairNode@@UBEPADPAD0@Z 10017ce5 f i libvcruntime:undname.obj
 0001:00016d2b       ?getString@pcharNode@@UBEPADPAD0@Z 10017d2b f i libvcruntime:undname.obj
 0001:00016d46       ?getStringEncoding@UnDecorator@@CA?AVDName@@W4PrefixKind@@H@Z 10017d46 f   libvcruntime:undname.obj
 0001:00016dd9       ?getStringHelper@@YAPADPADPBD1H@Z 10017dd9 f i libvcruntime:undname.obj
 0001:00016e03       ?getStringObject@UnDecorator@@CA?AVDName@@XZ 10017e03 f   libvcruntime:undname.obj
 0001:00016e4e       ?getSymbolName@UnDecorator@@CA?AVDName@@XZ 10017e4e f i libvcruntime:undname.obj
 0001:00016e96       ?getTemplateArgumentList@UnDecorator@@CA?AVDName@@XZ 10017e96 f   libvcruntime:undname.obj
 0001:00017046       ?getTemplateName@UnDecorator@@CA?AVDName@@_N@Z 10018046 f   libvcruntime:undname.obj
 0001:000171a6       ?getTemplateNonTypeArgument@UnDecorator@@CA?AVDName@@XZ 100181a6 f   libvcruntime:undname.obj
 0001:0001756e       ?getTemplateTypeArgument@UnDecorator@@CA?AVDName@@XZ 1001856e f   libvcruntime:undname.obj
 0001:0001767f       ?getThisType@UnDecorator@@CA?AVDName@@XZ 1001867f f i libvcruntime:undname.obj
 0001:000176ae       ?getThrowTypes@UnDecorator@@CA?AVDName@@XZ 100186ae f   libvcruntime:undname.obj
 0001:000176cd       ?getTypeEncoding@UnDecorator@@CAHXZ 100186cd f i libvcruntime:undname.obj
 0001:00017a0d       ?getUndecoratedName@UnDecorator@@QAEPADPADH@Z 10018a0d f i libvcruntime:undname.obj
 0001:00017b2c       ?getUnionObject@UnDecorator@@CA?AVDName@@XZ 10018b2c f   libvcruntime:undname.obj
 0001:00017bd3       ?getVCallThunkType@UnDecorator@@CA?AVDName@@XZ 10018bd3 f i libvcruntime:undname.obj
 0001:00017c1d       ?getValue@UnDecorator@@CA?AV?$optional@_K@std@@XZ 10018c1d f   libvcruntime:undname.obj
 0001:00017c74       ?getValueObject@UnDecorator@@CA?AVDName@@XZ 10018c74 f   libvcruntime:undname.obj
 0001:00017d6e       ?getVbTableType@UnDecorator@@CA?AVDName@@ABV2@@Z 10018d6e f i libvcruntime:undname.obj
 0001:00017d83       ?getVdispMapType@UnDecorator@@CA?AVDName@@ABV2@@Z 10018d83 f i libvcruntime:undname.obj
 0001:00017de4       ?getVfTableType@UnDecorator@@CA?AVDName@@ABV2@@Z 10018de4 f i libvcruntime:undname.obj
 0001:00017f38       ?getZName@UnDecorator@@CA?AVDName@@_N0@Z 10018f38 f   libvcruntime:undname.obj
 0001:00018151       ?get_current_character_and_increment_buffer@UnDecorator@@CADXZ 10019151 f i libvcruntime:undname.obj
 0001:00018165       ?haveTemplateParameters@UnDecorator@@SAHXZ 10019165 f i libvcruntime:undname.obj
 0001:00018170       ?increment_buffer@UnDecorator@@CA_NI@Z 10019170 f i libvcruntime:undname.obj
 0001:00018198       ?increment_buffer_no_check@UnDecorator@@CAXI@Z 10019198 f i libvcruntime:undname.obj
 0001:000181a6       ?increment_buffer_no_check@UnDecorator@@CAXXZ 100191a6 f i libvcruntime:undname.obj
 0001:000181ad       ?isArray@DName@@QBEHXZ     100191ad f i libvcruntime:undname.obj
 0001:000181b7       ?isComArray@DName@@QBEHXZ  100191b7 f i libvcruntime:undname.obj
 0001:000181c1       ?isEmpty@DName@@QBEHXZ     100191c1 f i libvcruntime:undname.obj
 0001:000181c9       ?isFull@Replicator@@QBEHXZ 100191c9 f i libvcruntime:undname.obj
 0001:000181d2       ?isNoTE@DName@@QBEHXZ      100191d2 f i libvcruntime:undname.obj
 0001:000181dc       ?isPinPtr@DName@@QBEHXZ    100191dc f i libvcruntime:undname.obj
 0001:000181e6       ?isPtrRef@DName@@QBEHXZ    100191e6 f i libvcruntime:undname.obj
 0001:000181f0       ?isUDC@DName@@QBEHXZ       100191f0 f i libvcruntime:undname.obj
 0001:00018201       ?isUDTThunk@DName@@QBEHXZ  10019201 f i libvcruntime:undname.obj
 0001:00018212       ?isVCallThunk@DName@@QBEHXZ 10019212 f i libvcruntime:undname.obj
 0001:0001821c       ?isValid@DName@@QBEHXZ     1001921c f i libvcruntime:undname.obj
 0001:00018226       ?length@DName@@QBEHXZ      10019226 f i libvcruntime:undname.obj
 0001:00018245       ?length@DNameStatusNode@@UBEHXZ 10019245 f i libvcruntime:undname.obj
 0001:00018249       ?length@charNode@@UBEHXZ   10019249 f i libvcruntime:undname.obj
 0001:0001824d       ?length@pDNameNode@@UBEHXZ 1001924d f i libvcruntime:undname.obj
 0001:0001825b       ?length@pairNode@@UBEHXZ   1001925b f i libvcruntime:undname.obj
 0001:000182a4       ?length@pcharNode@@UBEHXZ  100192a4 f i libvcruntime:undname.obj
 0001:000182a8       ?make@DNameStatusNode@@SAPBV1@W4DNameStatus@@@Z 100192a8 f i libvcruntime:undname.obj
 0001:000182c4       ?parseDecoratedName@UnDecorator@@CA?AVDName@@XZ 100192c4 f   libvcruntime:undname.obj
 0001:000183bf       ?raw_length@DNameStatusNode@@UBEHXZ 100193bf f i libvcruntime:undname.obj
 0001:000183c3       ?raw_length@charNode@@UBEHXZ 100193c3 f i libvcruntime:undname.obj
 0001:000183c7       ?raw_length@pDNameNode@@UBEHXZ 100193c7 f i libvcruntime:undname.obj
 0001:000183cb       ?raw_length@pairNode@@UBEHXZ 100193cb f i libvcruntime:undname.obj
 0001:000183cf       ?raw_length@pcharNode@@UBEHXZ 100193cf f i libvcruntime:undname.obj
 0001:000183d3       ?setIsArray@DName@@QAEXXZ  100193d3 f i libvcruntime:undname.obj
 0001:000183db       ?setIsComArray@DName@@QAEXXZ 100193db f i libvcruntime:undname.obj
 0001:000183e3       ?setIsNoTE@DName@@QAEXXZ   100193e3 f i libvcruntime:undname.obj
 0001:000183eb       ?setIsPinPtr@DName@@QAEXXZ 100193eb f i libvcruntime:undname.obj
 0001:000183f3       ?setIsUDC@DName@@QAEXXZ    100193f3 f i libvcruntime:undname.obj
 0001:00018400       ?setIsVCallThunk@DName@@QAEXXZ 10019400 f i libvcruntime:undname.obj
 0001:00018408       ?setPtrRef@DName@@QAEAAV1@XZ 10019408 f i libvcruntime:undname.obj
 0001:00018412       ?status@DName@@QBE?AW4DNameStatus@@XZ 10019412 f i libvcruntime:undname.obj
 0001:0001847e       ___unDName                 1001947e f   libvcruntime:undname.obj
 0001:000184a1       ___unDNameEx               100194a1 f   libvcruntime:undname.obj
 0001:00018540       __vsprintf_s_l             10019540 f i libvcruntime:undname.obj
 0001:0001856d       _sprintf_s                 1001956d f i libvcruntime:undname.obj
 0001:00018589       _unDNameGenerateCHPE       10019589 f   libvcruntime:undname.obj
 0001:00018626       ??$?RU__vcrt_ptd@@@__crt_internal_free_policy@@QBEXQBU__vcrt_ptd@@@Z 10019626 f i libvcruntime:per_thread_data.obj
 0001:00018636       ??0?$__crt_unique_heap_ptr@U__vcrt_ptd@@U__crt_internal_free_policy@@@@QAE@QAU__vcrt_ptd@@@Z 10019636 f i libvcruntime:per_thread_data.obj
 0001:00018653       ??1?$__crt_unique_heap_ptr@U__vcrt_ptd@@U__crt_internal_free_policy@@@@QAE@XZ 10019653 f i libvcruntime:per_thread_data.obj
 0001:0001866c       ??B?$__crt_unique_heap_ptr@U__vcrt_ptd@@U__crt_internal_free_policy@@@@QBE_NXZ 1001966c f i libvcruntime:per_thread_data.obj
 0001:00018673       ?detach@?$__crt_unique_heap_ptr@U__vcrt_ptd@@U__crt_internal_free_policy@@@@QAEPAU__vcrt_ptd@@XZ 10019673 f i libvcruntime:per_thread_data.obj
 0001:00018679       ?get@?$__crt_unique_heap_ptr@U__vcrt_ptd@@U__crt_internal_free_policy@@@@QBEPAU__vcrt_ptd@@XZ 10019679 f i libvcruntime:per_thread_data.obj
 0001:0001867c       ?is_valid@?$__crt_unique_heap_ptr@U__vcrt_ptd@@U__crt_internal_free_policy@@@@QBE_NXZ 1001967c f i libvcruntime:per_thread_data.obj
 0001:00018683       ?release@?$__crt_unique_heap_ptr@U__vcrt_ptd@@U__crt_internal_free_policy@@@@QAEXXZ 10019683 f i libvcruntime:per_thread_data.obj
 0001:000186ad       ___vcrt_freefls@4          100196ad f   libvcruntime:per_thread_data.obj
 0001:000186c9       ___vcrt_freeptd            100196c9 f   libvcruntime:per_thread_data.obj
 0001:000186ff       ___vcrt_getptd             100196ff f   libvcruntime:per_thread_data.obj
 0001:0001870d       ___vcrt_getptd_noexit      1001970d f   libvcruntime:per_thread_data.obj
 0001:0001879f       ___vcrt_getptd_noinit      1001979f f   libvcruntime:per_thread_data.obj
 0001:000187d6       ___vcrt_initialize_ptd     100197d6 f   libvcruntime:per_thread_data.obj
 0001:00018809       ___vcrt_uninitialize_ptd   10019809 f   libvcruntime:per_thread_data.obj
 0001:00018824       ___vcrt_initialize_locks   10019824 f   libvcruntime:locks.obj
 0001:00018860       ___vcrt_lock               10019860 f   libvcruntime:locks.obj
 0001:00018875       ___vcrt_uninitialize_locks 10019875 f   libvcruntime:locks.obj
 0001:000188a4       ___vcrt_unlock             100198a4 f   libvcruntime:locks.obj
 0001:000188c0       __global_unwind2           100198c0 f   libvcruntime:exsup.obj
 0001:00018940       __local_unwind2            10019940 f   libvcruntime:exsup.obj
 0001:000189e0       __abnormal_termination     100199e0 f   libvcruntime:exsup.obj
 0001:00018a10       __NLG_Notify1              10019a10 f   libvcruntime:exsup.obj
 0001:00018a20       __NLG_Notify               10019a20 f   libvcruntime:exsup.obj
 0001:00018a37       __NLG_Dispatch             10019a37     libvcruntime:exsup.obj
 0001:00018a37       __NLG_Dispatch2            10019a37     libvcruntime:exsup.obj
 0001:00018a40       __NLG_Call                 10019a40 f   libvcruntime:exsup.obj
 0001:00018a42       __NLG_Return2              10019a42     libvcruntime:exsup.obj
 0001:00018a43       ??$__crt_interlocked_exchange_pointer@$$A6AXXZP6AXXZ@@YAP6AXXZPDS6AXXZQ6AXXZ@Z 10019a43 f i libvcruntime:purevirt.obj
 0001:00018a50       ??$__crt_interlocked_read_pointer@$$A6AXXZ@@YAP6AXXZPDS6AXXZ@Z 10019a50 f i libvcruntime:purevirt.obj
 0001:00018a5b       __get_purecall_handler     10019a5b f   libvcruntime:purevirt.obj
 0001:00018a62       __purecall                 10019a62 f   libvcruntime:purevirt.obj
 0001:00018a7e       __set_purecall_handler     10019a7e f   libvcruntime:purevirt.obj
 0001:00018a8d       ??$?0AAViterator@TryBlockMap@__FrameHandler3@@AAV012@$0A@@?$pair@Viterator@TryBlockMap@__FrameHandler3@@V123@@std@@QAE@AAViterator@TryBlockMap@__FrameHandler3@@0@Z 10019a8d f i libvcruntime:trnsctrl.obj
 0001:00018ab1       ??$forward@AAViterator@TryBlockMap@__FrameHandler3@@@std@@YAAAViterator@TryBlockMap@__FrameHandler3@@AAV123@@Z 10019ab1 f i libvcruntime:trnsctrl.obj
 0001:00018ab9       ??0iterator@TryBlockMap@__FrameHandler3@@QAE@AAV12@I@Z 10019ab9 f i libvcruntime:trnsctrl.obj
 0001:00018acd       ?GetRangeOfTrysToCheck@__FrameHandler3@@SA?AU?$pair@Viterator@TryBlockMap@__FrameHandler3@@V123@@std@@AAVTryBlockMap@1@HPAXPBU_s_FuncInfo@@H@Z 10019acd f   libvcruntime:trnsctrl.obj
 0001:00018b3d       ?_CallCatchBlock2@@YAPAXPAUEHRegistrationNode@@PBU_s_FuncInfo@@PAXHK@Z 10019b3d f   libvcruntime:trnsctrl.obj
 0001:00018b9a       ?_CallSETranslator@@YAHPAUEHExceptionRecord@@PAUEHRegistrationNode@@PAX2PBU_s_FuncInfo@@H1@Z 10019b9a f   libvcruntime:trnsctrl.obj
 0001:00018c90       ?_JumpToContinuation@@YGXPAXPAUEHRegistrationNode@@@Z 10019c90 f   libvcruntime:trnsctrl.obj
 0001:00018cc0       ?_UnwindNestedFrames@@YGXPAUEHRegistrationNode@@PAUEHExceptionRecord@@@Z 10019cc0 f   libvcruntime:trnsctrl.obj
 0001:00018d13       __CatchGuardHandler        10019d13 f   libvcruntime:trnsctrl.obj
 0001:00018d44       __CreateFrameInfo          10019d44 f   libvcruntime:trnsctrl.obj
 0001:00018d68       __FindAndUnlinkFrame       10019d68 f   libvcruntime:trnsctrl.obj
 0001:00018db0       __TranslatorGuardHandler   10019db0 f   libvcruntime:trnsctrl.obj
 0001:00018e4d       ___CxxFrameHandler         10019e4d f   libvcruntime:trnsctrl.obj
 0001:00018e83       ___CxxFrameHandler2        10019e83 f   libvcruntime:trnsctrl.obj
 0001:00018eb9       ___CxxFrameHandler3        10019eb9 f   libvcruntime:trnsctrl.obj
 0001:00018eef       ___CxxLongjmpUnwind@4      10019eef f   libvcruntime:trnsctrl.obj
 0001:00018f20       _memcpy                    10019f20 f   libvcruntime:memcpy.obj
 0001:00019494       ??$__crt_interlocked_exchange_pointer@UHINSTANCE__@@PAU1@@@YAPAUHINSTANCE__@@PDSAU0@QAU0@@Z 1001a494 f i libvcruntime:winapi_downlevel.obj
 0001:000194a1       ??$__crt_interlocked_exchange_pointer@UHINSTANCE__@@PAX@@YAPAUHINSTANCE__@@PDSAU0@QAX@Z 1001a4a1 f i libvcruntime:winapi_downlevel.obj
 0001:000194ae       ??$__crt_interlocked_exchange_pointer@XPAX@@YAPAXPDSAXQAX@Z 1001a4ae f i libvcruntime:winapi_downlevel.obj
 0001:000194bb       ??$__crt_interlocked_read_pointer@UHINSTANCE__@@@@YAPAUHINSTANCE__@@PDSAU0@@Z 1001a4bb f i libvcruntime:winapi_downlevel.obj
 0001:000194c6       ??$__crt_interlocked_read_pointer@X@@YAPAXPDSAX@Z 1001a4c6 f i libvcruntime:winapi_downlevel.obj
 0001:00019752       ___vcrt_FlsAlloc           1001a752 f   libvcruntime:winapi_downlevel.obj
 0001:0001978d       ___vcrt_FlsFree            1001a78d f   libvcruntime:winapi_downlevel.obj
 0001:000197c8       ___vcrt_FlsGetValue        1001a7c8 f   libvcruntime:winapi_downlevel.obj
 0001:00019803       ___vcrt_FlsSetValue        1001a803 f   libvcruntime:winapi_downlevel.obj
 0001:00019841       ___vcrt_InitializeCriticalSectionEx 1001a841 f   libvcruntime:winapi_downlevel.obj
 0001:00019fba       ??$TypeMatchHelper@V__FrameHandler3@@@@YAHPBU_s_HandlerType@@PBU_s_CatchableType@@PBU_s_ThrowInfo@@@Z 1001afba f i libvcruntime:frame.obj
 0001:0001a048       ??$__InternalCxxFrameHandler@V__FrameHandler3@@@@YA?AW4_EXCEPTION_DISPOSITION@@PAUEHExceptionRecord@@PAUEHRegistrationNode@@PAU_CONTEXT@@PAXPBU_s_FuncInfo@@H1E@Z 1001b048 f i libvcruntime:frame.obj
 0001:0001a14a       ??$__InternalCxxFrameHandlerWrapper@V__FrameHandler3@@@@YA?AW4_EXCEPTION_DISPOSITION@@PAUEHExceptionRecord@@PAUEHRegistrationNode@@PAU_CONTEXT@@PAXPBU_s_FuncInfo@@H1E@Z 1001b14a f i libvcruntime:frame.obj
 0001:0001a153       ??0HandlerMap@__FrameHandler3@@QAE@PBU_s_TryBlockMapEntry@@II@Z 1001b153 f i libvcruntime:frame.obj
 0001:0001a16a       ??0TryBlockMap@__FrameHandler3@@QAE@PBU_s_FuncInfo@@I@Z 1001b16a f i libvcruntime:frame.obj
 0001:0001a17e       ??0bad_exception@std@@QAE@ABV01@@Z 1001b17e f i libvcruntime:frame.obj
 0001:0001a199       ??0bad_exception@std@@QAE@XZ 1001b199 f i libvcruntime:frame.obj
 0001:0001a1b1       ??0exception@std@@QAE@ABV01@@Z 1001b1b1 f i libvcruntime:frame.obj
 0001:0001a1dd       ??0exception@std@@QAE@QBDH@Z 1001b1dd f i libvcruntime:frame.obj
 0001:0001a1fa       ??0iterator@HandlerMap@__FrameHandler3@@QAE@AAV12@I@Z 1001b1fa f i libvcruntime:frame.obj
 0001:0001a20e       ??1bad_exception@std@@UAE@XZ 1001b20e f i libvcruntime:frame.obj
 0001:0001a21f       ??1exception@std@@UAE@XZ   1001b21f f i libvcruntime:frame.obj
 0001:0001a230       ??8iterator@HandlerMap@__FrameHandler3@@QBE_NABV012@@Z 1001b230 f i libvcruntime:frame.obj
 0001:0001a243       ??8type_info@@QBE_NABV0@@Z 1001b243 f i libvcruntime:frame.obj
 0001:0001a262       ??9iterator@HandlerMap@__FrameHandler3@@QBE_NABV012@@Z 1001b262 f i libvcruntime:frame.obj
 0001:0001a275       ??Diterator@HandlerMap@__FrameHandler3@@QAE?BU_s_HandlerType@@XZ 1001b275 f i libvcruntime:frame.obj
 0001:0001a294       ??Diterator@TryBlockMap@__FrameHandler3@@QAE?BU_s_TryBlockMapEntry@@XZ 1001b294 f i libvcruntime:frame.obj
 0001:0001a2b6       ??Eiterator@HandlerMap@__FrameHandler3@@QAEAAV012@XZ 1001b2b6 f i libvcruntime:frame.obj
 0001:0001a2bc       ??Eiterator@TryBlockMap@__FrameHandler3@@QAEAAV012@XZ 1001b2bc f i libvcruntime:frame.obj
 0001:0001a2c2       ??Miterator@TryBlockMap@__FrameHandler3@@QBE_NABV012@@Z 1001b2c2 f i libvcruntime:frame.obj
 0001:0001a2d5       ??_Ebad_exception@std@@UAEPAXI@Z 1001b2d5 f i libvcruntime:frame.obj
 0001:0001a2d5       ??_Gbad_exception@std@@UAEPAXI@Z 1001b2d5 f i libvcruntime:frame.obj
 0001:0001a302       ??_Eexception@std@@UAEPAXI@Z 1001b302 f i libvcruntime:frame.obj
 0001:0001a302       ??_Gexception@std@@UAEPAXI@Z 1001b302 f i libvcruntime:frame.obj
 0001:0001a32f       ?BuildCatchObject@__FrameHandler3@@SAXPAUEHExceptionRecord@@PAXPBU_s_HandlerType@@PBU_s_CatchableType@@@Z 1001b32f f   libvcruntime:frame.obj
 0001:0001a334       ?BuildCatchObjectHelper@__FrameHandler3@@SAHPAUEHExceptionRecord@@PAXPBU_s_HandlerType@@PBU_s_CatchableType@@@Z 1001b334 f   libvcruntime:frame.obj
 0001:0001a595       ?FrameUnwindToEmptyState@__FrameHandler3@@SAXPAUEHRegistrationNode@@PAXPBU_s_FuncInfo@@@Z 1001b595 f   libvcruntime:frame.obj
 0001:0001a5ad       ?FrameUnwindToState@__FrameHandler3@@SAXPAUEHRegistrationNode@@PAXPBU_s_FuncInfo@@H@Z 1001b5ad f   libvcruntime:frame.obj
 0001:0001a695       ?GetMaxState@__FrameHandler3@@SAHPAXPBU_s_FuncInfo@@@Z 1001b695 f i libvcruntime:frame.obj
 0001:0001a773       ?TypeMatch@__FrameHandler3@@SAHPBU_s_HandlerType@@PBU_s_CatchableType@@PBU_s_ThrowInfo@@@Z 1001b773 f   libvcruntime:frame.obj
 0001:0001a77c       ?_CallMemberFunction1@@YGXQAX00@Z 1001b77c f i libvcruntime:frame.obj
 0001:0001a78c       ?_CallMemberFunction2@@YGXQAX00H@Z 1001b78c f i libvcruntime:frame.obj
 0001:0001a79f       ?begin@HandlerMap@__FrameHandler3@@QAE?AViterator@12@XZ 1001b79f f i libvcruntime:frame.obj
 0001:0001a7af       ?end@HandlerMap@__FrameHandler3@@QAE?AViterator@12@XZ 1001b7af f i libvcruntime:frame.obj
 0001:0001a7c0       ?getESTypes@__FrameHandler3@@SAPBU_s_ESTypeList@@PBU_s_FuncInfo@@@Z 1001b7c0 f i libvcruntime:frame.obj
 0001:0001a7cb       ?getLastEntry@HandlerMap@__FrameHandler3@@QAEPBU_s_HandlerType@@XZ 1001b7cb f i libvcruntime:frame.obj
 0001:0001a7d9       ?getMagicNum@__FrameHandler3@@SAIPBU_s_FuncInfo@@@Z 1001b7d9 f i libvcruntime:frame.obj
 0001:0001a7e8       ?getNumTryBlocks@TryBlockMap@__FrameHandler3@@QAEIXZ 1001b7e8 f i libvcruntime:frame.obj
 0001:0001a7ee       ?isEHs@__FrameHandler3@@SA_NPBU_s_FuncInfo@@@Z 1001b7ee f i libvcruntime:frame.obj
 0001:0001a7fb       ?isNoExcept@__FrameHandler3@@SA_NPBU_s_FuncInfo@@@Z 1001b7fb f i libvcruntime:frame.obj
 0001:0001a80b       ?what@exception@std@@UBEPBDXZ 1001b80b f i libvcruntime:frame.obj
 0001:0001a818       ___BuildCatchObject        1001b818 f   libvcruntime:frame.obj
 0001:0001a81d       ___BuildCatchObjectHelper  1001b81d f   libvcruntime:frame.obj
 0001:0001a826       ___TypeMatch               1001b826 f   libvcruntime:frame.obj
 0001:0001a82f       ___vcrt_EncodePointer      1001b82f f i libvcruntime:frame.obj
 0001:0001a840       __CallSettingFrame@12      1001b840 f   libvcruntime:lowhelpr.obj
 0001:0001a867       __NLG_Return               1001b867     libvcruntime:lowhelpr.obj
 0001:0001a8a0       __get_unexpected           1001b8a0 f   libvcruntime:unexpected.obj
 0001:0001a8b2       _set_unexpected            1001b8b2 f   libvcruntime:unexpected.obj
 0001:0001a8d0       _unexpected                1001b8d0 f   libvcruntime:unexpected.obj
 0001:0001a8ed       ?GetCurrentState@__FrameHandler3@@SAHPAUEHRegistrationNode@@PAXPBU_s_FuncInfo@@@Z 1001b8ed f   libvcruntime:ehstate.obj
 0001:0001a90a       ?SetState@__FrameHandler3@@SAXPAUEHRegistrationNode@@PBU_s_FuncInfo@@H@Z 1001b90a f   libvcruntime:ehstate.obj
 0001:0001a918       ??$?RD@__crt_public_free_policy@@QBEXQBD@Z 1001b918 f i libvcruntime:std_exception.obj
 0001:0001a928       ??0?$__crt_unique_heap_ptr@DU__crt_public_free_policy@@@@QAE@QAD@Z 1001b928 f i libvcruntime:std_exception.obj
 0001:0001a936       ??1?$__crt_unique_heap_ptr@DU__crt_public_free_policy@@@@QAE@XZ 1001b936 f i libvcruntime:std_exception.obj
 0001:0001a946       ??B?$__crt_unique_heap_ptr@DU__crt_public_free_policy@@@@QBE_NXZ 1001b946 f i libvcruntime:std_exception.obj
 0001:0001a94d       ?detach@?$__crt_unique_heap_ptr@DU__crt_public_free_policy@@@@QAEPADXZ 1001b94d f i libvcruntime:std_exception.obj
 0001:0001a953       ?get@?$__crt_unique_heap_ptr@DU__crt_public_free_policy@@@@QBEPADXZ 1001b953 f i libvcruntime:std_exception.obj
 0001:0001a956       ?is_valid@?$__crt_unique_heap_ptr@DU__crt_public_free_policy@@@@QBE_NXZ 1001b956 f i libvcruntime:std_exception.obj
 0001:0001a95d       ?release@?$__crt_unique_heap_ptr@DU__crt_public_free_policy@@@@QAEXXZ 1001b95d f i libvcruntime:std_exception.obj
 0001:0001a96d       ___std_exception_copy      1001b96d f   libvcruntime:std_exception.obj
 0001:0001a9d0       ___std_exception_destroy   1001b9d0 f   libvcruntime:std_exception.obj
 0001:0001a9ef       __CxxThrowException@8      1001b9ef f   libvcruntime:throw.obj
 0001:0001aa60       _memmove                   1001ba60 f   libvcruntime:memmove.obj
 0001:0001b2ea       ??0?$cached@H@__crt_cached_ptd_host@@QAE@XZ 1001c2ea f i libucrt:lseek.obj
 0001:0001b2f1       ??0?$cached@K@__crt_cached_ptd_host@@QAE@XZ 1001c2f1 f i libucrt:lseek.obj
 0001:0001b2f8       ??0__crt_cached_ptd_host@@QAE@QAU__crt_locale_pointers@@@Z 1001c2f8 f i libucrt:lseek.obj
 0001:0001b340       ??0__crt_scoped_get_last_error_reset@@QAE@XZ 1001c340 f i libucrt:lseek.obj
 0001:0001b351       ??1__crt_cached_ptd_host@@QAE@XZ 1001c351 f i libucrt:lseek.obj
 0001:0001b38d       ??1__crt_scoped_get_last_error_reset@@QAE@XZ 1001c38d f i libucrt:lseek.obj
 0001:0001b396       ?check_synchronize_global_state_index@__crt_cached_ptd_host@@AAEIABV__crt_scoped_get_last_error_reset@@@Z 1001c396 f i libucrt:lseek.obj
 0001:0001b3ae       ?check_synchronize_per_thread_data@__crt_cached_ptd_host@@AAEPAU__acrt_ptd@@XZ 1001c3ae f i libucrt:lseek.obj
 0001:0001b495       ?force_synchronize_global_state_index@__crt_cached_ptd_host@@AAEIABV__crt_scoped_get_last_error_reset@@@Z 1001c495 f i libucrt:lseek.obj
 0001:0001b4a2       ?force_synchronize_per_thread_data@__crt_cached_ptd_host@@AAEPAU__acrt_ptd@@XZ 1001c4a2 f i libucrt:lseek.obj
 0001:0001b4e8       ?get_current_state_index@__crt_state_management@@YAIABV__crt_scoped_get_last_error_reset@@@Z 1001c4e8 f i libucrt:lseek.obj
 0001:0001b4eb       ?get_doserrno@__crt_cached_ptd_host@@QAE@XZ 1001c4eb f i libucrt:lseek.obj
 0001:0001b4ef       ?get_errno@__crt_cached_ptd_host@@QAE@XZ 1001c4ef f i libucrt:lseek.obj
 0001:0001b4f3       ?get_raw_ptd@__crt_cached_ptd_host@@QAEPAU__acrt_ptd@@XZ 1001c4f3 f i libucrt:lseek.obj
 0001:0001b510       ?set@?$cached@H@__crt_cached_ptd_host@@QAEHH@Z 1001c510 f i libucrt:lseek.obj
 0001:0001b522       ?set@?$cached@K@__crt_cached_ptd_host@@QAEKK@Z 1001c522 f i libucrt:lseek.obj
 0001:0001b534       ?unsafe_value@?$cached@H@__crt_cached_ptd_host@@QAEHXZ 1001c534 f i libucrt:lseek.obj
 0001:0001b537       ?unsafe_value@?$cached@K@__crt_cached_ptd_host@@QAEKXZ 1001c537 f i libucrt:lseek.obj
 0001:0001b53a       ?valid@?$cached@H@__crt_cached_ptd_host@@QBE_NXZ 1001c53a f i libucrt:lseek.obj
 0001:0001b53e       ?valid@?$cached@K@__crt_cached_ptd_host@@QBE_NXZ 1001c53e f i libucrt:lseek.obj
 0001:0001b542       ___acrt_enable_global_locale_sync 1001c542 f i libucrt:lseek.obj
 0001:0001b557       ___acrt_locale_changed     1001c557 f i libucrt:lseek.obj
 0001:0001b562       __lseek                    1001c562 f   libucrt:lseek.obj
 0001:0001b599       __lseek_internal           1001c599 f   libucrt:lseek.obj
 0001:0001b5a4       __lseek_nolock             1001c5a4 f   libucrt:lseek.obj
 0001:0001b5db       __lseek_nolock_internal    1001c5db f   libucrt:lseek.obj
 0001:0001b5e6       __lseeki64                 1001c5e6 f   libucrt:lseek.obj
 0001:0001b626       __lseeki64_internal        1001c626 f   libucrt:lseek.obj
 0001:0001b644       __lseeki64_nolock          1001c644 f   libucrt:lseek.obj
 0001:0001b684       __lseeki64_nolock_internal 1001c684 f   libucrt:lseek.obj
 0001:0001b6a2       ??$__acrt_convert_wcs_mbs_cp@D_WV<lambda_62f6974d9771e494a5ea317cc32e971c>@@U__crt_win32_buffer_internal_dynamic_resizing@@@@YAHQBDAAV?$__crt_win32_buffer@_WU__crt_win32_buffer_internal_dynamic_resizing@@@@ABV<lambda_62f6974d9771e494a5ea317cc32e971c>@@I@Z 1001c6a2 f i libucrt:open.obj
 0001:0001b754       ??$__acrt_mbs_to_wcs_cp@U__crt_win32_buffer_internal_dynamic_resizing@@@@YAHQBDAAV?$__crt_win32_buffer@_WU__crt_win32_buffer_internal_dynamic_resizing@@@@I@Z 1001c754 f i libucrt:open.obj
 0001:0001bac9       ??$tsopen_nolock@PAHABQAHABQBDABHABHABHABH@?$__crt_char_traits@D@@SAH$$QAPAHABQAHABQBDABH333@Z 1001cac9 f i libucrt:open.obj
 0001:0001bafb       ??$tsopen_nolock@PAHABQAHABQB_WABHABHABHABH@?$__crt_char_traits@_W@@SAH$$QAPAHABQAHABQB_WABH333@Z 1001cafb f i libucrt:open.obj
 0001:0001bb2d       ??$tsopen_nolock@PAHPAHABQBDABHHABHH@?$__crt_char_traits@D@@SAH$$QAPAH0ABQBDABH$$QAH23@Z 1001cb2d f i libucrt:open.obj
 0001:0001bb5f       ??$tsopen_nolock@PAHPAHABQB_WABHHABHH@?$__crt_char_traits@_W@@SAH$$QAPAH0ABQB_WABH$$QAH23@Z 1001cb5f f i libucrt:open.obj
 0001:0001bb91       ??0?$__crt_win32_buffer@_WU__crt_win32_buffer_internal_dynamic_resizing@@@@QAE@XZ 1001cb91 f i libucrt:open.obj
 0001:0001bba7       ??0_LocaleUpdate@@QAE@QAU__crt_locale_pointers@@@Z 1001cba7 f i libucrt:open.obj
 0001:0001bc29       ??1?$__crt_win32_buffer@_WU__crt_win32_buffer_internal_dynamic_resizing@@@@QAE@XZ 1001cc29 f i libucrt:open.obj
 0001:0001bc2e       ??1_LocaleUpdate@@QAE@XZ   1001cc2e f i libucrt:open.obj
 0001:0001bc3e       ??R<lambda_62f6974d9771e494a5ea317cc32e971c>@@QBE@IQBDQA_WI@Z 1001cc3e f i libucrt:open.obj
 0001:0001bc5f       ?GetLocaleT@_LocaleUpdate@@QAEPAU__crt_locale_pointers@@XZ 1001cc5f f i libucrt:open.obj
 0001:0001bc63       ?__acrt_get_utf8_acp_compatibility_codepage@@YAIXZ 1001cc63 f i libucrt:open.obj
 0001:0001bca2       ?_deallocate@?$__crt_win32_buffer@_WU__crt_win32_buffer_internal_dynamic_resizing@@@@AAEXXZ 1001cca2 f i libucrt:open.obj
 0001:0001bcbc       ?allocate@?$__crt_win32_buffer@_WU__crt_win32_buffer_internal_dynamic_resizing@@@@QAEHI@Z 1001ccbc f i libucrt:open.obj
 0001:0001bcfb       ?allocate@__crt_win32_buffer_internal_dynamic_resizing@@SAHQAPAXIABV__crt_win32_buffer_empty_debug_info@@@Z 1001ccfb f i libucrt:open.obj
 0001:0001bd1a       ?capacity@?$__crt_win32_buffer@_WU__crt_win32_buffer_internal_dynamic_resizing@@@@QBEIXZ 1001cd1a f i libucrt:open.obj
 0001:0001bf99       ?data@?$__crt_win32_buffer@_WU__crt_win32_buffer_internal_dynamic_resizing@@@@QAEPA_WXZ 1001cf99 f i libucrt:open.obj
 0001:0001bf9d       ?deallocate@__crt_win32_buffer_internal_dynamic_resizing@@SAXQAXABV__crt_win32_buffer_empty_debug_info@@@Z 1001cf9d f i libucrt:open.obj
 0001:0001bfad       ?debug_info@?$__crt_win32_buffer@_WU__crt_win32_buffer_internal_dynamic_resizing@@@@QBEABV__crt_win32_buffer_empty_debug_info@@XZ 1001cfad f i libucrt:open.obj
 0001:0001c293       ?set_to_nullptr@?$__crt_win32_buffer@_WU__crt_win32_buffer_internal_dynamic_resizing@@@@QAEXXZ 1001d293 f i libucrt:open.obj
 0001:0001c2aa       ?size@?$__crt_win32_buffer@_WU__crt_win32_buffer_internal_dynamic_resizing@@@@QAEXI@Z 1001d2aa f i libucrt:open.obj
 0001:0001c363       ___acrt_disable_global_locale_sync 1001d363 f i libucrt:open.obj
 0001:0001c376       __invoke_watson_if_error   1001d376 f i libucrt:open.obj
 0001:0001c398       __open                     1001d398 f   libucrt:open.obj
 0001:0001c3b0       __sopen                    1001d3b0 f   libucrt:open.obj
 0001:0001c3e3       __sopen_dispatch           1001d3e3 f   libucrt:open.obj
 0001:0001c3ee       __sopen_nolock             1001d3ee f   libucrt:open.obj
 0001:0001c45c       __sopen_s                  1001d45c f   libucrt:open.obj
 0001:0001c47c       __wopen                    1001d47c f   libucrt:open.obj
 0001:0001c494       __wsopen                   1001d494 f   libucrt:open.obj
 0001:0001c4c7       __wsopen_dispatch          1001d4c7 f   libucrt:open.obj
 0001:0001c4d2       __wsopen_nolock            1001d4d2 f   libucrt:open.obj
 0001:0001c7fc       __wsopen_s                 1001d7fc f   libucrt:open.obj
 0001:0001cb98       ?get_locale@__crt_cached_ptd_host@@QAEPAU__crt_locale_pointers@@XZ 1001db98 f i libucrt:wcstombs.obj
 0001:0001cbad       ?update_locale@__crt_cached_ptd_host@@AAEXXZ 1001dbad f i libucrt:wcstombs.obj
 0001:0001cbb8       ?update_locale_slow@__crt_cached_ptd_host@@AAEXXZ 1001dbb8 f i libucrt:wcstombs.obj
 0001:0001cc11       ?value_or@?$cached@H@__crt_cached_ptd_host@@QBEHH@Z 1001dc11 f i libucrt:wcstombs.obj
 0001:0001cc52       __wcstombs_l               1001dc52 f   libucrt:wcstombs.obj
 0001:0001cc8a       __wcstombs_s_l             1001dc8a f   libucrt:wcstombs.obj
 0001:0001ccc8       _wcstombs                  1001dcc8 f   libucrt:wcstombs.obj
 0001:0001ccff       _wcstombs_s                1001dcff f   libucrt:wcstombs.obj
 0001:0001cd3c       ??$?0ABV?$stream_output_adapter@D@__crt_stdio_output@@AB_KABQBDAAV__crt_cached_ptd_host@@ABQAD@?$format_validation_base@DV?$stream_output_adapter@D@__crt_stdio_output@@@__crt_stdio_output@@IAE@ABV?$stream_output_adapter@D@1@AB_KABQBDAAV__crt_cached_ptd_host@@ABQAD@Z 1001dd3c f i libucrt:output.obj
 0001:0001cd5f       ??$?0ABV?$stream_output_adapter@D@__crt_stdio_output@@AB_KABQBDAAV__crt_cached_ptd_host@@ABQAD@?$positional_parameter_base@DV?$stream_output_adapter@D@__crt_stdio_output@@@__crt_stdio_output@@IAE@ABV?$stream_output_adapter@D@1@AB_KABQBDAAV__crt_cached_ptd_host@@ABQAD@Z 1001dd5f f i libucrt:output.obj
 0001:0001cda7       ??$?0ABV?$stream_output_adapter@D@__crt_stdio_output@@AB_KABQBDAAV__crt_cached_ptd_host@@ABQAD@?$standard_base@DV?$stream_output_adapter@D@__crt_stdio_output@@@__crt_stdio_output@@IAE@ABV?$stream_output_adapter@D@1@AB_KABQBDAAV__crt_cached_ptd_host@@ABQAD@Z 1001dda7 f i libucrt:output.obj
 0001:0001cdda       ??$?0ABV?$stream_output_adapter@_W@__crt_stdio_output@@AB_KABQB_WAAV__crt_cached_ptd_host@@ABQAD@?$format_validation_base@_WV?$stream_output_adapter@_W@__crt_stdio_output@@@__crt_stdio_output@@IAE@ABV?$stream_output_adapter@_W@1@AB_KABQB_WAAV__crt_cached_ptd_host@@ABQAD@Z 1001ddda f i libucrt:output.obj
 0001:0001cdfd       ??$?0ABV?$stream_output_adapter@_W@__crt_stdio_output@@AB_KABQB_WAAV__crt_cached_ptd_host@@ABQAD@?$positional_parameter_base@_WV?$stream_output_adapter@_W@__crt_stdio_output@@@__crt_stdio_output@@IAE@ABV?$stream_output_adapter@_W@1@AB_KABQB_WAAV__crt_cached_ptd_host@@ABQAD@Z 1001ddfd f i libucrt:output.obj
 0001:0001ce45       ??$?0ABV?$stream_output_adapter@_W@__crt_stdio_output@@AB_KABQB_WAAV__crt_cached_ptd_host@@ABQAD@?$standard_base@_WV?$stream_output_adapter@_W@__crt_stdio_output@@@__crt_stdio_output@@IAE@ABV?$stream_output_adapter@_W@1@AB_KABQB_WAAV__crt_cached_ptd_host@@ABQAD@Z 1001de45 f i libucrt:output.obj
 0001:0001ce78       ??$?0ABV?$string_output_adapter@D@__crt_stdio_output@@AB_KABQBDAAV__crt_cached_ptd_host@@ABQAD@?$format_validation_base@DV?$string_output_adapter@D@__crt_stdio_output@@@__crt_stdio_output@@IAE@ABV?$string_output_adapter@D@1@AB_KABQBDAAV__crt_cached_ptd_host@@ABQAD@Z 1001de78 f i libucrt:output.obj
 0001:0001ce9b       ??$?0ABV?$string_output_adapter@D@__crt_stdio_output@@AB_KABQBDAAV__crt_cached_ptd_host@@ABQAD@?$positional_parameter_base@DV?$string_output_adapter@D@__crt_stdio_output@@@__crt_stdio_output@@IAE@ABV?$string_output_adapter@D@1@AB_KABQBDAAV__crt_cached_ptd_host@@ABQAD@Z 1001de9b f i libucrt:output.obj
 0001:0001cee3       ??$?0ABV?$string_output_adapter@D@__crt_stdio_output@@AB_KABQBDAAV__crt_cached_ptd_host@@ABQAD@?$standard_base@DV?$string_output_adapter@D@__crt_stdio_output@@@__crt_stdio_output@@IAE@ABV?$string_output_adapter@D@1@AB_KABQBDAAV__crt_cached_ptd_host@@ABQAD@Z 1001dee3 f i libucrt:output.obj
 0001:0001cf16       ??$?0ABV?$string_output_adapter@_W@__crt_stdio_output@@AB_KABQB_WAAV__crt_cached_ptd_host@@ABQAD@?$format_validation_base@_WV?$string_output_adapter@_W@__crt_stdio_output@@@__crt_stdio_output@@IAE@ABV?$string_output_adapter@_W@1@AB_KABQB_WAAV__crt_cached_ptd_host@@ABQAD@Z 1001df16 f i libucrt:output.obj
 0001:0001cf39       ??$?0ABV?$string_output_adapter@_W@__crt_stdio_output@@AB_KABQB_WAAV__crt_cached_ptd_host@@ABQAD@?$positional_parameter_base@_WV?$string_output_adapter@_W@__crt_stdio_output@@@__crt_stdio_output@@IAE@ABV?$string_output_adapter@_W@1@AB_KABQB_WAAV__crt_cached_ptd_host@@ABQAD@Z 1001df39 f i libucrt:output.obj
 0001:0001cf81       ??$?0ABV?$string_output_adapter@_W@__crt_stdio_output@@AB_KABQB_WAAV__crt_cached_ptd_host@@ABQAD@?$standard_base@_WV?$string_output_adapter@_W@__crt_stdio_output@@@__crt_stdio_output@@IAE@ABV?$string_output_adapter@_W@1@AB_KABQB_WAAV__crt_cached_ptd_host@@ABQAD@Z 1001df81 f i libucrt:output.obj
 0001:0001d2ba       ??$__crt_interlocked_read@J@@YAJPDJ@Z 1001e2ba f i libucrt:output.obj
 0001:0001d2c7       ??$_tcstol_internal@DPAPAD$0A@@@YAJAAV__crt_cached_ptd_host@@QBDQAPADH@Z 1001e2c7 f i libucrt:output.obj
 0001:0001d2f2       ??$_tcstol_internal@_WPAPA_W$0A@@@YAJAAV__crt_cached_ptd_host@@QB_WQAPA_WH@Z 1001e2f2 f i libucrt:output.obj
 0001:0001e24c       ??$count@D@formatting_buffer@__crt_stdio_output@@QBEIXZ 1001f24c f i libucrt:output.obj
 0001:0001e264       ??$count@_W@formatting_buffer@__crt_stdio_output@@QBEIXZ 1001f264 f i libucrt:output.obj
 0001:0001e27d       ??$data@D@formatting_buffer@__crt_stdio_output@@QAEPADXZ 1001f27d f i libucrt:output.obj
 0001:0001e28a       ??$data@_W@formatting_buffer@__crt_stdio_output@@QAEPA_WXZ 1001f28a f i libucrt:output.obj
 0001:0001e297       ??$ensure_buffer_is_big_enough@D@formatting_buffer@__crt_stdio_output@@QAE_NIAAV__crt_cached_ptd_host@@@Z 1001f297 f i libucrt:output.obj
 0001:0001e318       ??$ensure_buffer_is_big_enough@_W@formatting_buffer@__crt_stdio_output@@QAE_NIAAV__crt_cached_ptd_host@@@Z 1001f318 f i libucrt:output.obj
 0001:0001e39a       ??$extract_argument_from_va_list@C_J@?$positional_parameter_base@DV?$stream_output_adapter@D@__crt_stdio_output@@@__crt_stdio_output@@IAE_NAA_J@Z 1001f39a f i libucrt:output.obj
 0001:0001e429       ??$extract_argument_from_va_list@C_J@?$positional_parameter_base@DV?$string_output_adapter@D@__crt_stdio_output@@@__crt_stdio_output@@IAE_NAA_J@Z 1001f429 f i libucrt:output.obj
 0001:0001e4b8       ??$extract_argument_from_va_list@C_J@?$positional_parameter_base@_WV?$stream_output_adapter@_W@__crt_stdio_output@@@__crt_stdio_output@@IAE_NAA_J@Z 1001f4b8 f i libucrt:output.obj
 0001:0001e548       ??$extract_argument_from_va_list@C_J@?$positional_parameter_base@_WV?$string_output_adapter@_W@__crt_stdio_output@@@__crt_stdio_output@@IAE_NAA_J@Z 1001f548 f i libucrt:output.obj
 0001:0001e5d8       ??$extract_argument_from_va_list@C_J@?$standard_base@DV?$stream_output_adapter@D@__crt_stdio_output@@@__crt_stdio_output@@IAE_NAA_J@Z 1001f5d8 f i libucrt:output.obj
 0001:0001e5f8       ??$extract_argument_from_va_list@C_J@?$standard_base@DV?$string_output_adapter@D@__crt_stdio_output@@@__crt_stdio_output@@IAE_NAA_J@Z 1001f5f8 f i libucrt:output.obj
 0001:0001e618       ??$extract_argument_from_va_list@C_J@?$standard_base@_WV?$stream_output_adapter@_W@__crt_stdio_output@@@__crt_stdio_output@@IAE_NAA_J@Z 1001f618 f i libucrt:output.obj
 0001:0001e638       ??$extract_argument_from_va_list@C_J@?$standard_base@_WV?$string_output_adapter@_W@__crt_stdio_output@@@__crt_stdio_output@@IAE_NAA_J@Z 1001f638 f i libucrt:output.obj
 0001:0001e658       ??$extract_argument_from_va_list@E_J@?$positional_parameter_base@DV?$stream_output_adapter@D@__crt_stdio_output@@@__crt_stdio_output@@IAE_NAA_J@Z 1001f658 f i libucrt:output.obj
 0001:0001e6e7       ??$extract_argument_from_va_list@E_J@?$positional_parameter_base@DV?$string_output_adapter@D@__crt_stdio_output@@@__crt_stdio_output@@IAE_NAA_J@Z 1001f6e7 f i libucrt:output.obj
 0001:0001e776       ??$extract_argument_from_va_list@E_J@?$positional_parameter_base@_WV?$stream_output_adapter@_W@__crt_stdio_output@@@__crt_stdio_output@@IAE_NAA_J@Z 1001f776 f i libucrt:output.obj
 0001:0001e806       ??$extract_argument_from_va_list@E_J@?$positional_parameter_base@_WV?$string_output_adapter@_W@__crt_stdio_output@@@__crt_stdio_output@@IAE_NAA_J@Z 1001f806 f i libucrt:output.obj
 0001:0001e896       ??$extract_argument_from_va_list@E_J@?$standard_base@DV?$stream_output_adapter@D@__crt_stdio_output@@@__crt_stdio_output@@IAE_NAA_J@Z 1001f896 f i libucrt:output.obj
 0001:0001e8b6       ??$extract_argument_from_va_list@E_J@?$standard_base@DV?$string_output_adapter@D@__crt_stdio_output@@@__crt_stdio_output@@IAE_NAA_J@Z 1001f8b6 f i libucrt:output.obj
 0001:0001e8d6       ??$extract_argument_from_va_list@E_J@?$standard_base@_WV?$stream_output_adapter@_W@__crt_stdio_output@@@__crt_stdio_output@@IAE_NAA_J@Z 1001f8d6 f i libucrt:output.obj
 0001:0001e8f6       ??$extract_argument_from_va_list@E_J@?$standard_base@_WV?$string_output_adapter@_W@__crt_stdio_output@@@__crt_stdio_output@@IAE_NAA_J@Z 1001f8f6 f i libucrt:output.obj
 0001:0001e916       ??$extract_argument_from_va_list@F_J@?$positional_parameter_base@DV?$stream_output_adapter@D@__crt_stdio_output@@@__crt_stdio_output@@IAE_NAA_J@Z 1001f916 f i libucrt:output.obj
 0001:0001e9a5       ??$extract_argument_from_va_list@F_J@?$positional_parameter_base@DV?$string_output_adapter@D@__crt_stdio_output@@@__crt_stdio_output@@IAE_NAA_J@Z 1001f9a5 f i libucrt:output.obj
 0001:0001ea34       ??$extract_argument_from_va_list@F_J@?$positional_parameter_base@_WV?$stream_output_adapter@_W@__crt_stdio_output@@@__crt_stdio_output@@IAE_NAA_J@Z 1001fa34 f i libucrt:output.obj
 0001:0001eac4       ??$extract_argument_from_va_list@F_J@?$positional_parameter_base@_WV?$string_output_adapter@_W@__crt_stdio_output@@@__crt_stdio_output@@IAE_NAA_J@Z 1001fac4 f i libucrt:output.obj
 0001:0001eb54       ??$extract_argument_from_va_list@F_J@?$standard_base@DV?$stream_output_adapter@D@__crt_stdio_output@@@__crt_stdio_output@@IAE_NAA_J@Z 1001fb54 f i libucrt:output.obj
 0001:0001eb74       ??$extract_argument_from_va_list@F_J@?$standard_base@DV?$string_output_adapter@D@__crt_stdio_output@@@__crt_stdio_output@@IAE_NAA_J@Z 1001fb74 f i libucrt:output.obj
 0001:0001eb94       ??$extract_argument_from_va_list@F_J@?$standard_base@_WV?$stream_output_adapter@_W@__crt_stdio_output@@@__crt_stdio_output@@IAE_NAA_J@Z 1001fb94 f i libucrt:output.obj
 0001:0001ebb4       ??$extract_argument_from_va_list@F_J@?$standard_base@_WV?$string_output_adapter@_W@__crt_stdio_output@@@__crt_stdio_output@@IAE_NAA_J@Z 1001fbb4 f i libucrt:output.obj
 0001:0001ebd4       ??$extract_argument_from_va_list@GD@?$positional_parameter_base@DV?$stream_output_adapter@D@__crt_stdio_output@@@__crt_stdio_output@@IAE_NAAD@Z 1001fbd4 f i libucrt:output.obj
 0001:0001ec62       ??$extract_argument_from_va_list@GD@?$positional_parameter_base@DV?$string_output_adapter@D@__crt_stdio_output@@@__crt_stdio_output@@IAE_NAAD@Z 1001fc62 f i libucrt:output.obj
 0001:0001ecf0       ??$extract_argument_from_va_list@GD@?$standard_base@DV?$stream_output_adapter@D@__crt_stdio_output@@@__crt_stdio_output@@IAE_NAAD@Z 1001fcf0 f i libucrt:output.obj
 0001:0001ed0b       ??$extract_argument_from_va_list@GD@?$standard_base@DV?$string_output_adapter@D@__crt_stdio_output@@@__crt_stdio_output@@IAE_NAAD@Z 1001fd0b f i libucrt:output.obj
 0001:0001ed26       ??$extract_argument_from_va_list@G_J@?$positional_parameter_base@DV?$stream_output_adapter@D@__crt_stdio_output@@@__crt_stdio_output@@IAE_NAA_J@Z 1001fd26 f i libucrt:output.obj
 0001:0001edb5       ??$extract_argument_from_va_list@G_J@?$positional_parameter_base@DV?$string_output_adapter@D@__crt_stdio_output@@@__crt_stdio_output@@IAE_NAA_J@Z 1001fdb5 f i libucrt:output.obj
 0001:0001ee44       ??$extract_argument_from_va_list@G_J@?$positional_parameter_base@_WV?$stream_output_adapter@_W@__crt_stdio_output@@@__crt_stdio_output@@IAE_NAA_J@Z 1001fe44 f i libucrt:output.obj
 0001:0001eed4       ??$extract_argument_from_va_list@G_J@?$positional_parameter_base@_WV?$string_output_adapter@_W@__crt_stdio_output@@@__crt_stdio_output@@IAE_NAA_J@Z 1001fed4 f i libucrt:output.obj
 0001:0001ef64       ??$extract_argument_from_va_list@G_J@?$standard_base@DV?$stream_output_adapter@D@__crt_stdio_output@@@__crt_stdio_output@@IAE_NAA_J@Z 1001ff64 f i libucrt:output.obj
 0001:0001ef84       ??$extract_argument_from_va_list@G_J@?$standard_base@DV?$string_output_adapter@D@__crt_stdio_output@@@__crt_stdio_output@@IAE_NAA_J@Z 1001ff84 f i libucrt:output.obj
 0001:0001efa4       ??$extract_argument_from_va_list@G_J@?$standard_base@_WV?$stream_output_adapter@_W@__crt_stdio_output@@@__crt_stdio_output@@IAE_NAA_J@Z 1001ffa4 f i libucrt:output.obj
 0001:0001efc4       ??$extract_argument_from_va_list@G_J@?$standard_base@_WV?$string_output_adapter@_W@__crt_stdio_output@@@__crt_stdio_output@@IAE_NAA_J@Z 1001ffc4 f i libucrt:output.obj
 0001:0001efe4       ??$extract_argument_from_va_list@H_J@?$positional_parameter_base@DV?$stream_output_adapter@D@__crt_stdio_output@@@__crt_stdio_output@@IAE_NAA_J@Z 1001ffe4 f i libucrt:output.obj
 0001:0001f06d       ??$extract_argument_from_va_list@H_J@?$positional_parameter_base@DV?$string_output_adapter@D@__crt_stdio_output@@@__crt_stdio_output@@IAE_NAA_J@Z 1002006d f i libucrt:output.obj
 0001:0001f0f6       ??$extract_argument_from_va_list@H_J@?$positional_parameter_base@_WV?$stream_output_adapter@_W@__crt_stdio_output@@@__crt_stdio_output@@IAE_NAA_J@Z 100200f6 f i libucrt:output.obj
 0001:0001f180       ??$extract_argument_from_va_list@H_J@?$positional_parameter_base@_WV?$string_output_adapter@_W@__crt_stdio_output@@@__crt_stdio_output@@IAE_NAA_J@Z 10020180 f i libucrt:output.obj
 0001:0001f20a       ??$extract_argument_from_va_list@H_J@?$standard_base@DV?$stream_output_adapter@D@__crt_stdio_output@@@__crt_stdio_output@@IAE_NAA_J@Z 1002020a f i libucrt:output.obj
 0001:0001f229       ??$extract_argument_from_va_list@H_J@?$standard_base@DV?$string_output_adapter@D@__crt_stdio_output@@@__crt_stdio_output@@IAE_NAA_J@Z 10020229 f i libucrt:output.obj
 0001:0001f248       ??$extract_argument_from_va_list@H_J@?$standard_base@_WV?$stream_output_adapter@_W@__crt_stdio_output@@@__crt_stdio_output@@IAE_NAA_J@Z 10020248 f i libucrt:output.obj
 0001:0001f267       ??$extract_argument_from_va_list@H_J@?$standard_base@_WV?$string_output_adapter@_W@__crt_stdio_output@@@__crt_stdio_output@@IAE_NAA_J@Z 10020267 f i libucrt:output.obj
 0001:0001f286       ??$extract_argument_from_va_list@I_J@?$positional_parameter_base@DV?$stream_output_adapter@D@__crt_stdio_output@@@__crt_stdio_output@@IAE_NAA_J@Z 10020286 f i libucrt:output.obj
 0001:0001f31c       ??$extract_argument_from_va_list@I_J@?$positional_parameter_base@DV?$string_output_adapter@D@__crt_stdio_output@@@__crt_stdio_output@@IAE_NAA_J@Z 1002031c f i libucrt:output.obj
 0001:0001f3b2       ??$extract_argument_from_va_list@I_J@?$positional_parameter_base@_WV?$stream_output_adapter@_W@__crt_stdio_output@@@__crt_stdio_output@@IAE_NAA_J@Z 100203b2 f i libucrt:output.obj
 0001:0001f449       ??$extract_argument_from_va_list@I_J@?$positional_parameter_base@_WV?$string_output_adapter@_W@__crt_stdio_output@@@__crt_stdio_output@@IAE_NAA_J@Z 10020449 f i libucrt:output.obj
 0001:0001f4e0       ??$extract_argument_from_va_list@I_J@?$standard_base@DV?$stream_output_adapter@D@__crt_stdio_output@@@__crt_stdio_output@@IAE_NAA_J@Z 100204e0 f i libucrt:output.obj
 0001:0001f4ff       ??$extract_argument_from_va_list@I_J@?$standard_base@DV?$string_output_adapter@D@__crt_stdio_output@@@__crt_stdio_output@@IAE_NAA_J@Z 100204ff f i libucrt:output.obj
 0001:0001f51e       ??$extract_argument_from_va_list@I_J@?$standard_base@_WV?$stream_output_adapter@_W@__crt_stdio_output@@@__crt_stdio_output@@IAE_NAA_J@Z 1002051e f i libucrt:output.obj
 0001:0001f53d       ??$extract_argument_from_va_list@I_J@?$standard_base@_WV?$string_output_adapter@_W@__crt_stdio_output@@@__crt_stdio_output@@IAE_NAA_J@Z 1002053d f i libucrt:output.obj
 0001:0001f55c       ??$extract_argument_from_va_list@PADPAD@?$positional_parameter_base@DV?$stream_output_adapter@D@__crt_stdio_output@@@__crt_stdio_output@@IAE_NAAPAD@Z 1002055c f i libucrt:output.obj
 0001:0001f5ea       ??$extract_argument_from_va_list@PADPAD@?$positional_parameter_base@DV?$string_output_adapter@D@__crt_stdio_output@@@__crt_stdio_output@@IAE_NAAPAD@Z 100205ea f i libucrt:output.obj
 0001:0001f678       ??$extract_argument_from_va_list@PADPAD@?$positional_parameter_base@_WV?$stream_output_adapter@_W@__crt_stdio_output@@@__crt_stdio_output@@IAE_NAAPAD@Z 10020678 f i libucrt:output.obj
 0001:0001f707       ??$extract_argument_from_va_list@PADPAD@?$positional_parameter_base@_WV?$string_output_adapter@_W@__crt_stdio_output@@@__crt_stdio_output@@IAE_NAAPAD@Z 10020707 f i libucrt:output.obj
 0001:0001f796       ??$extract_argument_from_va_list@PADPAD@?$standard_base@DV?$stream_output_adapter@D@__crt_stdio_output@@@__crt_stdio_output@@IAE_NAAPAD@Z 10020796 f i libucrt:output.obj
 0001:0001f7b3       ??$extract_argument_from_va_list@PADPAD@?$standard_base@DV?$string_output_adapter@D@__crt_stdio_output@@@__crt_stdio_output@@IAE_NAAPAD@Z 100207b3 f i libucrt:output.obj
 0001:0001f7d0       ??$extract_argument_from_va_list@PADPAD@?$standard_base@_WV?$stream_output_adapter@_W@__crt_stdio_output@@@__crt_stdio_output@@IAE_NAAPAD@Z 100207d0 f i libucrt:output.obj
 0001:0001f7ed       ??$extract_argument_from_va_list@PADPAD@?$standard_base@_WV?$string_output_adapter@_W@__crt_stdio_output@@@__crt_stdio_output@@IAE_NAAPAD@Z 100207ed f i libucrt:output.obj
 0001:0001f80a       ??$extract_argument_from_va_list@PAUansi_string@?1??type_case_Z@?$output_processor@DV?$stream_output_adapter@D@__crt_stdio_output@@V?$format_validation_base@DV?$stream_output_adapter@D@__crt_stdio_output@@@2@@__crt_stdio_output@@AAE_NXZ@PAU1?1??234@AAE_NXZ@@?$standard_base@DV?$stream_output_adapter@D@__crt_stdio_output@@@__crt_stdio_output@@IAE_NAAPAUansi_string@?1??type_case_Z@?$output_processor@DV?$stream_output_adapter@D@__crt_stdio_output@@V?$format_validation_base@DV?$stream_output_adapter@D@__crt_stdio_output@@@2@@1@AAE_NXZ@@Z 1002080a f i libucrt:output.obj
 0001:0001f827       ??$extract_argument_from_va_list@PAUansi_string@?1??type_case_Z@?$output_processor@DV?$stream_output_adapter@D@__crt_stdio_output@@V?$positional_parameter_base@DV?$stream_output_adapter@D@__crt_stdio_output@@@2@@__crt_stdio_output@@AAE_NXZ@PAU1?1??234@AAE_NXZ@@?$positional_parameter_base@DV?$stream_output_adapter@D@__crt_stdio_output@@@__crt_stdio_output@@IAE_NAAPAUansi_string@?1??type_case_Z@?$output_processor@DV?$stream_output_adapter@D@__crt_stdio_output@@V?$positional_parameter_base@DV?$stream_output_adapter@D@__crt_stdio_output@@@2@@1@AAE_NXZ@@Z 10020827 f i libucrt:output.obj
 0001:0001f8b5       ??$extract_argument_from_va_list@PAUansi_string@?1??type_case_Z@?$output_processor@DV?$stream_output_adapter@D@__crt_stdio_output@@V?$positional_parameter_base@DV?$stream_output_adapter@D@__crt_stdio_output@@@2@@__crt_stdio_output@@AAE_NXZ@PAU1?1??234@AAE_NXZ@@?$standard_base@DV?$stream_output_adapter@D@__crt_stdio_output@@@__crt_stdio_output@@IAE_NAAPAUansi_string@?1??type_case_Z@?$output_processor@DV?$stream_output_adapter@D@__crt_stdio_output@@V?$positional_parameter_base@DV?$stream_output_adapter@D@__crt_stdio_output@@@2@@1@AAE_NXZ@@Z 100208b5 f i libucrt:output.obj
 0001:0001f8d2       ??$extract_argument_from_va_list@PAUansi_string@?1??type_case_Z@?$output_processor@DV?$stream_output_adapter@D@__crt_stdio_output@@V?$standard_base@DV?$stream_output_adapter@D@__crt_stdio_output@@@2@@__crt_stdio_output@@AAE_NXZ@PAU1?1??234@AAE_NXZ@@?$standard_base@DV?$stream_output_adapter@D@__crt_stdio_output@@@__crt_stdio_output@@IAE_NAAPAUansi_string@?1??type_case_Z@?$output_processor@DV?$stream_output_adapter@D@__crt_stdio_output@@V?$standard_base@DV?$stream_output_adapter@D@__crt_stdio_output@@@2@@1@AAE_NXZ@@Z 100208d2 f i libucrt:output.obj
 0001:0001f8ef       ??$extract_argument_from_va_list@PAUansi_string@?1??type_case_Z@?$output_processor@DV?$string_output_adapter@D@__crt_stdio_output@@V?$format_validation_base@DV?$string_output_adapter@D@__crt_stdio_output@@@2@@__crt_stdio_output@@AAE_NXZ@PAU1?1??234@AAE_NXZ@@?$standard_base@DV?$string_output_adapter@D@__crt_stdio_output@@@__crt_stdio_output@@IAE_NAAPAUansi_string@?1??type_case_Z@?$output_processor@DV?$string_output_adapter@D@__crt_stdio_output@@V?$format_validation_base@DV?$string_output_adapter@D@__crt_stdio_output@@@2@@1@AAE_NXZ@@Z 100208ef f i libucrt:output.obj
 0001:0001f90c       ??$extract_argument_from_va_list@PAUansi_string@?1??type_case_Z@?$output_processor@DV?$string_output_adapter@D@__crt_stdio_output@@V?$positional_parameter_base@DV?$string_output_adapter@D@__crt_stdio_output@@@2@@__crt_stdio_output@@AAE_NXZ@PAU1?1??234@AAE_NXZ@@?$positional_parameter_base@DV?$string_output_adapter@D@__crt_stdio_output@@@__crt_stdio_output@@IAE_NAAPAUansi_string@?1??type_case_Z@?$output_processor@DV?$string_output_adapter@D@__crt_stdio_output@@V?$positional_parameter_base@DV?$string_output_adapter@D@__crt_stdio_output@@@2@@1@AAE_NXZ@@Z 1002090c f i libucrt:output.obj
 0001:0001f99a       ??$extract_argument_from_va_list@PAUansi_string@?1??type_case_Z@?$output_processor@DV?$string_output_adapter@D@__crt_stdio_output@@V?$positional_parameter_base@DV?$string_output_adapter@D@__crt_stdio_output@@@2@@__crt_stdio_output@@AAE_NXZ@PAU1?1??234@AAE_NXZ@@?$standard_base@DV?$string_output_adapter@D@__crt_stdio_output@@@__crt_stdio_output@@IAE_NAAPAUansi_string@?1??type_case_Z@?$output_processor@DV?$string_output_adapter@D@__crt_stdio_output@@V?$positional_parameter_base@DV?$string_output_adapter@D@__crt_stdio_output@@@2@@1@AAE_NXZ@@Z 1002099a f i libucrt:output.obj
 0001:0001f9b7       ??$extract_argument_from_va_list@PAUansi_string@?1??type_case_Z@?$output_processor@DV?$string_output_adapter@D@__crt_stdio_output@@V?$standard_base@DV?$string_output_adapter@D@__crt_stdio_output@@@2@@__crt_stdio_output@@AAE_NXZ@PAU1?1??234@AAE_NXZ@@?$standard_base@DV?$string_output_adapter@D@__crt_stdio_output@@@__crt_stdio_output@@IAE_NAAPAUansi_string@?1??type_case_Z@?$output_processor@DV?$string_output_adapter@D@__crt_stdio_output@@V?$standard_base@DV?$string_output_adapter@D@__crt_stdio_output@@@2@@1@AAE_NXZ@@Z 100209b7 f i libucrt:output.obj
 0001:0001f9d4       ??$extract_argument_from_va_list@PAUansi_string@?1??type_case_Z@?$output_processor@_WV?$stream_output_adapter@_W@__crt_stdio_output@@V?$format_validation_base@_WV?$stream_output_adapter@_W@__crt_stdio_output@@@2@@__crt_stdio_output@@AAE_NXZ@PAU1?1??234@AAE_NXZ@@?$standard_base@_WV?$stream_output_adapter@_W@__crt_stdio_output@@@__crt_stdio_output@@IAE_NAAPAUansi_string@?1??type_case_Z@?$output_processor@_WV?$stream_output_adapter@_W@__crt_stdio_output@@V?$format_validation_base@_WV?$stream_output_adapter@_W@__crt_stdio_output@@@2@@1@AAE_NXZ@@Z 100209d4 f i libucrt:output.obj
 0001:0001f9f1       ??$extract_argument_from_va_list@PAUansi_string@?1??type_case_Z@?$output_processor@_WV?$stream_output_adapter@_W@__crt_stdio_output@@V?$positional_parameter_base@_WV?$stream_output_adapter@_W@__crt_stdio_output@@@2@@__crt_stdio_output@@AAE_NXZ@PAU1?1??234@AAE_NXZ@@?$positional_parameter_base@_WV?$stream_output_adapter@_W@__crt_stdio_output@@@__crt_stdio_output@@IAE_NAAPAUansi_string@?1??type_case_Z@?$output_processor@_WV?$stream_output_adapter@_W@__crt_stdio_output@@V?$positional_parameter_base@_WV?$stream_output_adapter@_W@__crt_stdio_output@@@2@@1@AAE_NXZ@@Z 100209f1 f i libucrt:output.obj
 0001:0001fa80       ??$extract_argument_from_va_list@PAUansi_string@?1??type_case_Z@?$output_processor@_WV?$stream_output_adapter@_W@__crt_stdio_output@@V?$positional_parameter_base@_WV?$stream_output_adapter@_W@__crt_stdio_output@@@2@@__crt_stdio_output@@AAE_NXZ@PAU1?1??234@AAE_NXZ@@?$standard_base@_WV?$stream_output_adapter@_W@__crt_stdio_output@@@__crt_stdio_output@@IAE_NAAPAUansi_string@?1??type_case_Z@?$output_processor@_WV?$stream_output_adapter@_W@__crt_stdio_output@@V?$positional_parameter_base@_WV?$stream_output_adapter@_W@__crt_stdio_output@@@2@@1@AAE_NXZ@@Z 10020a80 f i libucrt:output.obj
 0001:0001fa9d       ??$extract_argument_from_va_list@PAUansi_string@?1??type_case_Z@?$output_processor@_WV?$stream_output_adapter@_W@__crt_stdio_output@@V?$standard_base@_WV?$stream_output_adapter@_W@__crt_stdio_output@@@2@@__crt_stdio_output@@AAE_NXZ@PAU1?1??234@AAE_NXZ@@?$standard_base@_WV?$stream_output_adapter@_W@__crt_stdio_output@@@__crt_stdio_output@@IAE_NAAPAUansi_string@?1??type_case_Z@?$output_processor@_WV?$stream_output_adapter@_W@__crt_stdio_output@@V?$standard_base@_WV?$stream_output_adapter@_W@__crt_stdio_output@@@2@@1@AAE_NXZ@@Z 10020a9d f i libucrt:output.obj
 0001:0001faba       ??$extract_argument_from_va_list@PAUansi_string@?1??type_case_Z@?$output_processor@_WV?$string_output_adapter@_W@__crt_stdio_output@@V?$format_validation_base@_WV?$string_output_adapter@_W@__crt_stdio_output@@@2@@__crt_stdio_output@@AAE_NXZ@PAU1?1??234@AAE_NXZ@@?$standard_base@_WV?$string_output_adapter@_W@__crt_stdio_output@@@__crt_stdio_output@@IAE_NAAPAUansi_string@?1??type_case_Z@?$output_processor@_WV?$string_output_adapter@_W@__crt_stdio_output@@V?$format_validation_base@_WV?$string_output_adapter@_W@__crt_stdio_output@@@2@@1@AAE_NXZ@@Z 10020aba f i libucrt:output.obj
 0001:0001fad7       ??$extract_argument_from_va_list@PAUansi_string@?1??type_case_Z@?$output_processor@_WV?$string_output_adapter@_W@__crt_stdio_output@@V?$positional_parameter_base@_WV?$string_output_adapter@_W@__crt_stdio_output@@@2@@__crt_stdio_output@@AAE_NXZ@PAU1?1??234@AAE_NXZ@@?$positional_parameter_base@_WV?$string_output_adapter@_W@__crt_stdio_output@@@__crt_stdio_output@@IAE_NAAPAUansi_string@?1??type_case_Z@?$output_processor@_WV?$string_output_adapter@_W@__crt_stdio_output@@V?$positional_parameter_base@_WV?$string_output_adapter@_W@__crt_stdio_output@@@2@@1@AAE_NXZ@@Z 10020ad7 f i libucrt:output.obj
 0001:0001fb66       ??$extract_argument_from_va_list@PAUansi_string@?1??type_case_Z@?$output_processor@_WV?$string_output_adapter@_W@__crt_stdio_output@@V?$positional_parameter_base@_WV?$string_output_adapter@_W@__crt_stdio_output@@@2@@__crt_stdio_output@@AAE_NXZ@PAU1?1??234@AAE_NXZ@@?$standard_base@_WV?$string_output_adapter@_W@__crt_stdio_output@@@__crt_stdio_output@@IAE_NAAPAUansi_string@?1??type_case_Z@?$output_processor@_WV?$string_output_adapter@_W@__crt_stdio_output@@V?$positional_parameter_base@_WV?$string_output_adapter@_W@__crt_stdio_output@@@2@@1@AAE_NXZ@@Z 10020b66 f i libucrt:output.obj
 0001:0001fb83       ??$extract_argument_from_va_list@PAUansi_string@?1??type_case_Z@?$output_processor@_WV?$string_output_adapter@_W@__crt_stdio_output@@V?$standard_base@_WV?$string_output_adapter@_W@__crt_stdio_output@@@2@@__crt_stdio_output@@AAE_NXZ@PAU1?1??234@AAE_NXZ@@?$standard_base@_WV?$string_output_adapter@_W@__crt_stdio_output@@@__crt_stdio_output@@IAE_NAAPAUansi_string@?1??type_case_Z@?$output_processor@_WV?$string_output_adapter@_W@__crt_stdio_output@@V?$standard_base@_WV?$string_output_adapter@_W@__crt_stdio_output@@@2@@1@AAE_NXZ@@Z 10020b83 f i libucrt:output.obj
 0001:0001fba0       ??$extract_argument_from_va_list@PAXPAX@?$positional_parameter_base@DV?$stream_output_adapter@D@__crt_stdio_output@@@__crt_stdio_output@@IAE_NAAPAX@Z 10020ba0 f i libucrt:output.obj
 0001:0001fc2e       ??$extract_argument_from_va_list@PAXPAX@?$positional_parameter_base@DV?$string_output_adapter@D@__crt_stdio_output@@@__crt_stdio_output@@IAE_NAAPAX@Z 10020c2e f i libucrt:output.obj
 0001:0001fcbc       ??$extract_argument_from_va_list@PAXPAX@?$positional_parameter_base@_WV?$stream_output_adapter@_W@__crt_stdio_output@@@__crt_stdio_output@@IAE_NAAPAX@Z 10020cbc f i libucrt:output.obj
 0001:0001fd4b       ??$extract_argument_from_va_list@PAXPAX@?$positional_parameter_base@_WV?$string_output_adapter@_W@__crt_stdio_output@@@__crt_stdio_output@@IAE_NAAPAX@Z 10020d4b f i libucrt:output.obj
 0001:0001fdda       ??$extract_argument_from_va_list@PAXPAX@?$standard_base@DV?$stream_output_adapter@D@__crt_stdio_output@@@__crt_stdio_output@@IAE_NAAPAX@Z 10020dda f i libucrt:output.obj
 0001:0001fdf7       ??$extract_argument_from_va_list@PAXPAX@?$standard_base@DV?$string_output_adapter@D@__crt_stdio_output@@@__crt_stdio_output@@IAE_NAAPAX@Z 10020df7 f i libucrt:output.obj
 0001:0001fe14       ??$extract_argument_from_va_list@PAXPAX@?$standard_base@_WV?$stream_output_adapter@_W@__crt_stdio_output@@@__crt_stdio_output@@IAE_NAAPAX@Z 10020e14 f i libucrt:output.obj
 0001:0001fe31       ??$extract_argument_from_va_list@PAXPAX@?$standard_base@_WV?$string_output_adapter@_W@__crt_stdio_output@@@__crt_stdio_output@@IAE_NAAPAX@Z 10020e31 f i libucrt:output.obj
 0001:0001fe4e       ??$extract_argument_from_va_list@U_CRT_DOUBLE@@U1@@?$positional_parameter_base@DV?$stream_output_adapter@D@__crt_stdio_output@@@__crt_stdio_output@@IAE_NAAU_CRT_DOUBLE@@@Z 10020e4e f i libucrt:output.obj
 0001:0001fee4       ??$extract_argument_from_va_list@U_CRT_DOUBLE@@U1@@?$positional_parameter_base@DV?$string_output_adapter@D@__crt_stdio_output@@@__crt_stdio_output@@IAE_NAAU_CRT_DOUBLE@@@Z 10020ee4 f i libucrt:output.obj
 0001:0001ff7a       ??$extract_argument_from_va_list@U_CRT_DOUBLE@@U1@@?$positional_parameter_base@_WV?$stream_output_adapter@_W@__crt_stdio_output@@@__crt_stdio_output@@IAE_NAAU_CRT_DOUBLE@@@Z 10020f7a f i libucrt:output.obj
 0001:00020011       ??$extract_argument_from_va_list@U_CRT_DOUBLE@@U1@@?$positional_parameter_base@_WV?$string_output_adapter@_W@__crt_stdio_output@@@__crt_stdio_output@@IAE_NAAU_CRT_DOUBLE@@@Z 10021011 f i libucrt:output.obj
 0001:000200a8       ??$extract_argument_from_va_list@U_CRT_DOUBLE@@U1@@?$standard_base@DV?$stream_output_adapter@D@__crt_stdio_output@@@__crt_stdio_output@@IAE_NAAU_CRT_DOUBLE@@@Z 100210a8 f i libucrt:output.obj
 0001:000200c9       ??$extract_argument_from_va_list@U_CRT_DOUBLE@@U1@@?$standard_base@DV?$string_output_adapter@D@__crt_stdio_output@@@__crt_stdio_output@@IAE_NAAU_CRT_DOUBLE@@@Z 100210c9 f i libucrt:output.obj
 0001:000200ea       ??$extract_argument_from_va_list@U_CRT_DOUBLE@@U1@@?$standard_base@_WV?$stream_output_adapter@_W@__crt_stdio_output@@@__crt_stdio_output@@IAE_NAAU_CRT_DOUBLE@@@Z 100210ea f i libucrt:output.obj
 0001:0002010b       ??$extract_argument_from_va_list@U_CRT_DOUBLE@@U1@@?$standard_base@_WV?$string_output_adapter@_W@__crt_stdio_output@@@__crt_stdio_output@@IAE_NAAU_CRT_DOUBLE@@@Z 1002110b f i libucrt:output.obj
 0001:0002012c       ??$extract_argument_from_va_list@_J_J@?$positional_parameter_base@DV?$stream_output_adapter@D@__crt_stdio_output@@@__crt_stdio_output@@IAE_NAA_J@Z 1002112c f i libucrt:output.obj
 0001:000201c6       ??$extract_argument_from_va_list@_J_J@?$positional_parameter_base@DV?$string_output_adapter@D@__crt_stdio_output@@@__crt_stdio_output@@IAE_NAA_J@Z 100211c6 f i libucrt:output.obj
 0001:00020260       ??$extract_argument_from_va_list@_J_J@?$positional_parameter_base@_WV?$stream_output_adapter@_W@__crt_stdio_output@@@__crt_stdio_output@@IAE_NAA_J@Z 10021260 f i libucrt:output.obj
 0001:000202fb       ??$extract_argument_from_va_list@_J_J@?$positional_parameter_base@_WV?$string_output_adapter@_W@__crt_stdio_output@@@__crt_stdio_output@@IAE_NAA_J@Z 100212fb f i libucrt:output.obj
 0001:00020396       ??$extract_argument_from_va_list@_J_J@?$standard_base@DV?$stream_output_adapter@D@__crt_stdio_output@@@__crt_stdio_output@@IAE_NAA_J@Z 10021396 f i libucrt:output.obj
 0001:000203b7       ??$extract_argument_from_va_list@_J_J@?$standard_base@DV?$string_output_adapter@D@__crt_stdio_output@@@__crt_stdio_output@@IAE_NAA_J@Z 100213b7 f i libucrt:output.obj
 0001:000203d8       ??$extract_argument_from_va_list@_J_J@?$standard_base@_WV?$stream_output_adapter@_W@__crt_stdio_output@@@__crt_stdio_output@@IAE_NAA_J@Z 100213d8 f i libucrt:output.obj
 0001:000203f9       ??$extract_argument_from_va_list@_J_J@?$standard_base@_WV?$string_output_adapter@_W@__crt_stdio_output@@@__crt_stdio_output@@IAE_NAA_J@Z 100213f9 f i libucrt:output.obj
 0001:0002041a       ??$extract_argument_from_va_list@_K_J@?$positional_parameter_base@DV?$stream_output_adapter@D@__crt_stdio_output@@@__crt_stdio_output@@IAE_NAA_J@Z 1002141a f i libucrt:output.obj
 0001:000204b4       ??$extract_argument_from_va_list@_K_J@?$positional_parameter_base@DV?$string_output_adapter@D@__crt_stdio_output@@@__crt_stdio_output@@IAE_NAA_J@Z 100214b4 f i libucrt:output.obj
 0001:0002054e       ??$extract_argument_from_va_list@_K_J@?$positional_parameter_base@_WV?$stream_output_adapter@_W@__crt_stdio_output@@@__crt_stdio_output@@IAE_NAA_J@Z 1002154e f i libucrt:output.obj
 0001:000205e9       ??$extract_argument_from_va_list@_K_J@?$positional_parameter_base@_WV?$string_output_adapter@_W@__crt_stdio_output@@@__crt_stdio_output@@IAE_NAA_J@Z 100215e9 f i libucrt:output.obj
 0001:00020684       ??$extract_argument_from_va_list@_K_J@?$standard_base@DV?$stream_output_adapter@D@__crt_stdio_output@@@__crt_stdio_output@@IAE_NAA_J@Z 10021684 f i libucrt:output.obj
 0001:000206a5       ??$extract_argument_from_va_list@_K_J@?$standard_base@DV?$string_output_adapter@D@__crt_stdio_output@@@__crt_stdio_output@@IAE_NAA_J@Z 100216a5 f i libucrt:output.obj
 0001:000206c6       ??$extract_argument_from_va_list@_K_J@?$standard_base@_WV?$stream_output_adapter@_W@__crt_stdio_output@@@__crt_stdio_output@@IAE_NAA_J@Z 100216c6 f i libucrt:output.obj
 0001:000206e7       ??$extract_argument_from_va_list@_K_J@?$standard_base@_WV?$string_output_adapter@_W@__crt_stdio_output@@@__crt_stdio_output@@IAE_NAA_J@Z 100216e7 f i libucrt:output.obj
 0001:00020708       ??$extract_argument_from_va_list@_W_W@?$positional_parameter_base@DV?$stream_output_adapter@D@__crt_stdio_output@@@__crt_stdio_output@@IAE_NAA_W@Z 10021708 f i libucrt:output.obj
 0001:0002079a       ??$extract_argument_from_va_list@_W_W@?$positional_parameter_base@DV?$string_output_adapter@D@__crt_stdio_output@@@__crt_stdio_output@@IAE_NAA_W@Z 1002179a f i libucrt:output.obj
 0001:0002082c       ??$extract_argument_from_va_list@_W_W@?$positional_parameter_base@_WV?$stream_output_adapter@_W@__crt_stdio_output@@@__crt_stdio_output@@IAE_NAA_W@Z 1002182c f i libucrt:output.obj
 0001:000208bf       ??$extract_argument_from_va_list@_W_W@?$positional_parameter_base@_WV?$string_output_adapter@_W@__crt_stdio_output@@@__crt_stdio_output@@IAE_NAA_W@Z 100218bf f i libucrt:output.obj
 0001:00020952       ??$extract_argument_from_va_list@_W_W@?$standard_base@DV?$stream_output_adapter@D@__crt_stdio_output@@@__crt_stdio_output@@IAE_NAA_W@Z 10021952 f i libucrt:output.obj
 0001:0002096f       ??$extract_argument_from_va_list@_W_W@?$standard_base@DV?$string_output_adapter@D@__crt_stdio_output@@@__crt_stdio_output@@IAE_NAA_W@Z 1002196f f i libucrt:output.obj
 0001:0002098c       ??$extract_argument_from_va_list@_W_W@?$standard_base@_WV?$stream_output_adapter@_W@__crt_stdio_output@@@__crt_stdio_output@@IAE_NAA_W@Z 1002198c f i libucrt:output.obj
 0001:000209a9       ??$extract_argument_from_va_list@_W_W@?$standard_base@_WV?$string_output_adapter@_W@__crt_stdio_output@@@__crt_stdio_output@@IAE_NAA_W@Z 100219a9 f i libucrt:output.obj
 0001:000209c6       ??$get_parameter_type@D@?$positional_parameter_base@DV?$stream_output_adapter@D@__crt_stdio_output@@@__crt_stdio_output@@CA?AW4parameter_type@01@PAD@Z 100219c6 f i libucrt:output.obj
 0001:000209ca       ??$get_parameter_type@D@?$positional_parameter_base@DV?$string_output_adapter@D@__crt_stdio_output@@@__crt_stdio_output@@CA?AW4parameter_type@01@PAD@Z 100219ca f i libucrt:output.obj
 0001:000209ce       ??$get_parameter_type@D@?$positional_parameter_base@_WV?$stream_output_adapter@_W@__crt_stdio_output@@@__crt_stdio_output@@CA?AW4parameter_type@01@PAD@Z 100219ce f i libucrt:output.obj
 0001:000209d2       ??$get_parameter_type@D@?$positional_parameter_base@_WV?$string_output_adapter@_W@__crt_stdio_output@@@__crt_stdio_output@@CA?AW4parameter_type@01@PAD@Z 100219d2 f i libucrt:output.obj
 0001:000209d6       ??$get_parameter_type@Uansi_string@?1??type_case_Z@?$output_processor@DV?$stream_output_adapter@D@__crt_stdio_output@@V?$positional_parameter_base@DV?$stream_output_adapter@D@__crt_stdio_output@@@2@@__crt_stdio_output@@AAE_NXZ@@?$positional_parameter_base@DV?$stream_output_adapter@D@__crt_stdio_output@@@__crt_stdio_output@@CA?AW4parameter_type@01@PAUansi_string@?1??type_case_Z@?$output_processor@DV?$stream_output_adapter@D@__crt_stdio_output@@V?$positional_parameter_base@DV?$stream_output_adapter@D@__crt_stdio_output@@@2@@1@AAE_NXZ@@Z 100219d6 f i libucrt:output.obj
 0001:000209da       ??$get_parameter_type@Uansi_string@?1??type_case_Z@?$output_processor@DV?$string_output_adapter@D@__crt_stdio_output@@V?$positional_parameter_base@DV?$string_output_adapter@D@__crt_stdio_output@@@2@@__crt_stdio_output@@AAE_NXZ@@?$positional_parameter_base@DV?$string_output_adapter@D@__crt_stdio_output@@@__crt_stdio_output@@CA?AW4parameter_type@01@PAUansi_string@?1??type_case_Z@?$output_processor@DV?$string_output_adapter@D@__crt_stdio_output@@V?$positional_parameter_base@DV?$string_output_adapter@D@__crt_stdio_output@@@2@@1@AAE_NXZ@@Z 100219da f i libucrt:output.obj
 0001:000209de       ??$get_parameter_type@Uansi_string@?1??type_case_Z@?$output_processor@_WV?$stream_output_adapter@_W@__crt_stdio_output@@V?$positional_parameter_base@_WV?$stream_output_adapter@_W@__crt_stdio_output@@@2@@__crt_stdio_output@@AAE_NXZ@@?$positional_parameter_base@_WV?$stream_output_adapter@_W@__crt_stdio_output@@@__crt_stdio_output@@CA?AW4parameter_type@01@PAUansi_string@?1??type_case_Z@?$output_processor@_WV?$stream_output_adapter@_W@__crt_stdio_output@@V?$positional_parameter_base@_WV?$stream_output_adapter@_W@__crt_stdio_output@@@2@@1@AAE_NXZ@@Z 100219de f i libucrt:output.obj
 0001:000209e2       ??$get_parameter_type@Uansi_string@?1??type_case_Z@?$output_processor@_WV?$string_output_adapter@_W@__crt_stdio_output@@V?$positional_parameter_base@_WV?$string_output_adapter@_W@__crt_stdio_output@@@2@@__crt_stdio_output@@AAE_NXZ@@?$positional_parameter_base@_WV?$string_output_adapter@_W@__crt_stdio_output@@@__crt_stdio_output@@CA?AW4parameter_type@01@PAUansi_string@?1??type_case_Z@?$output_processor@_WV?$string_output_adapter@_W@__crt_stdio_output@@V?$positional_parameter_base@_WV?$string_output_adapter@_W@__crt_stdio_output@@@2@@1@AAE_NXZ@@Z 100219e2 f i libucrt:output.obj
 0001:000209e6       ??$get_parameter_type@X@?$positional_parameter_base@DV?$stream_output_adapter@D@__crt_stdio_output@@@__crt_stdio_output@@CA?AW4parameter_type@01@PAX@Z 100219e6 f i libucrt:output.obj
 0001:000209ea       ??$get_parameter_type@X@?$positional_parameter_base@DV?$string_output_adapter@D@__crt_stdio_output@@@__crt_stdio_output@@CA?AW4parameter_type@01@PAX@Z 100219ea f i libucrt:output.obj
 0001:000209ee       ??$get_parameter_type@X@?$positional_parameter_base@_WV?$stream_output_adapter@_W@__crt_stdio_output@@@__crt_stdio_output@@CA?AW4parameter_type@01@PAX@Z 100219ee f i libucrt:output.obj
 0001:000209f2       ??$get_parameter_type@X@?$positional_parameter_base@_WV?$string_output_adapter@_W@__crt_stdio_output@@@__crt_stdio_output@@CA?AW4parameter_type@01@PAX@Z 100219f2 f i libucrt:output.obj
 0001:000209f6       ??$is_character_specifier@D@?$positional_parameter_base@DV?$stream_output_adapter@D@__crt_stdio_output@@@__crt_stdio_output@@CA_ND@Z 100219f6 f i libucrt:output.obj
 0001:00020a0e       ??$is_character_specifier@D@?$positional_parameter_base@DV?$string_output_adapter@D@__crt_stdio_output@@@__crt_stdio_output@@CA_ND@Z 10021a0e f i libucrt:output.obj
 0001:00020a26       ??$is_character_specifier@_W@?$positional_parameter_base@_WV?$stream_output_adapter@_W@__crt_stdio_output@@@__crt_stdio_output@@CA_N_W@Z 10021a26 f i libucrt:output.obj
 0001:00020a41       ??$is_character_specifier@_W@?$positional_parameter_base@_WV?$string_output_adapter@_W@__crt_stdio_output@@@__crt_stdio_output@@CA_N_W@Z 10021a41 f i libucrt:output.obj
 0001:00020a5c       ??$is_integral_specifier@D@?$positional_parameter_base@DV?$stream_output_adapter@D@__crt_stdio_output@@@__crt_stdio_output@@CA_ND@Z 10021a5c f i libucrt:output.obj
 0001:00020a88       ??$is_integral_specifier@D@?$positional_parameter_base@DV?$string_output_adapter@D@__crt_stdio_output@@@__crt_stdio_output@@CA_ND@Z 10021a88 f i libucrt:output.obj
 0001:00020ab4       ??$is_integral_specifier@_W@?$positional_parameter_base@_WV?$stream_output_adapter@_W@__crt_stdio_output@@@__crt_stdio_output@@CA_N_W@Z 10021ab4 f i libucrt:output.obj
 0001:00020aef       ??$is_integral_specifier@_W@?$positional_parameter_base@_WV?$string_output_adapter@_W@__crt_stdio_output@@@__crt_stdio_output@@CA_N_W@Z 10021aef f i libucrt:output.obj
 0001:00020b2a       ??$is_overflow_condition@K@__crt_strtox@@YA_NIK@Z 10021b2a f i libucrt:output.obj
 0001:00020b5e       ??$is_pointer_specifier@D@?$positional_parameter_base@DV?$stream_output_adapter@D@__crt_stdio_output@@@__crt_stdio_output@@CA_ND@Z 10021b5e f i libucrt:output.obj
 0001:00020b6c       ??$is_pointer_specifier@D@?$positional_parameter_base@DV?$string_output_adapter@D@__crt_stdio_output@@@__crt_stdio_output@@CA_ND@Z 10021b6c f i libucrt:output.obj
 0001:00020b7a       ??$is_pointer_specifier@_W@?$positional_parameter_base@_WV?$stream_output_adapter@_W@__crt_stdio_output@@@__crt_stdio_output@@CA_N_W@Z 10021b7a f i libucrt:output.obj
 0001:00020b89       ??$is_pointer_specifier@_W@?$positional_parameter_base@_WV?$string_output_adapter@_W@__crt_stdio_output@@@__crt_stdio_output@@CA_N_W@Z 10021b89 f i libucrt:output.obj
 0001:00020b98       ??$is_string_specifier@D@?$positional_parameter_base@DV?$stream_output_adapter@D@__crt_stdio_output@@@__crt_stdio_output@@CA_ND@Z 10021b98 f i libucrt:output.obj
 0001:00020bb0       ??$is_string_specifier@D@?$positional_parameter_base@DV?$string_output_adapter@D@__crt_stdio_output@@@__crt_stdio_output@@CA_ND@Z 10021bb0 f i libucrt:output.obj
 0001:00020bc8       ??$is_string_specifier@_W@?$positional_parameter_base@_WV?$stream_output_adapter@_W@__crt_stdio_output@@@__crt_stdio_output@@CA_N_W@Z 10021bc8 f i libucrt:output.obj
 0001:00020be3       ??$is_string_specifier@_W@?$positional_parameter_base@_WV?$string_output_adapter@_W@__crt_stdio_output@@@__crt_stdio_output@@CA_N_W@Z 10021be3 f i libucrt:output.obj
 0001:00020bfe       ??$is_wide_character_specifier@D@__crt_stdio_output@@YA_N_KDW4length_modifier@0@@Z 10021bfe f i libucrt:output.obj
 0001:00020c2f       ??$is_wide_character_specifier@_W@__crt_stdio_output@@YA_N_K_WW4length_modifier@0@@Z 10021c2f f i libucrt:output.obj
 0001:00020c7d       ??$make_c_string_character_source@DPAPAD@__crt_strtox@@YA?AV?$c_string_character_source@D@0@QBDQAPAD@Z 10021c7d f i libucrt:output.obj
 0001:00020c98       ??$make_c_string_character_source@_WPAPA_W@__crt_strtox@@YA?AV?$c_string_character_source@_W@0@QB_WQAPA_W@Z 10021c98 f i libucrt:output.obj
 0001:00020cb3       ??$parse_integer@KV?$c_string_character_source@D@__crt_strtox@@$0A@@__crt_strtox@@YAKAAV__crt_cached_ptd_host@@V?$c_string_character_source@D@0@H_N@Z 10021cb3 f i libucrt:output.obj
 0001:00020ec2       ??$parse_integer@KV?$c_string_character_source@_W@__crt_strtox@@$0A@@__crt_strtox@@YAKAAV__crt_cached_ptd_host@@V?$c_string_character_source@_W@0@H_N@Z 10021ec2 f i libucrt:output.obj
 0001:00021495       ??$peek_va_arg@C@__crt_stdio_output@@YACPAD@Z 10022495 f i libucrt:output.obj
 0001:000214a1       ??$peek_va_arg@E@__crt_stdio_output@@YAEPAD@Z 100224a1 f i libucrt:output.obj
 0001:000214ad       ??$peek_va_arg@F@__crt_stdio_output@@YAFPAD@Z 100224ad f i libucrt:output.obj
 0001:000214ba       ??$peek_va_arg@G@__crt_stdio_output@@YAGPAD@Z 100224ba f i libucrt:output.obj
 0001:000214c7       ??$peek_va_arg@H@__crt_stdio_output@@YAHPAD@Z 100224c7 f i libucrt:output.obj
 0001:000214d3       ??$peek_va_arg@I@__crt_stdio_output@@YAIPAD@Z 100224d3 f i libucrt:output.obj
 0001:000214df       ??$peek_va_arg@PAD@__crt_stdio_output@@YAPADPAD@Z 100224df f i libucrt:output.obj
 0001:000214eb       ??$peek_va_arg@PAUansi_string@?1??type_case_Z@?$output_processor@DV?$stream_output_adapter@D@__crt_stdio_output@@V?$positional_parameter_base@DV?$stream_output_adapter@D@__crt_stdio_output@@@2@@__crt_stdio_output@@AAE_NXZ@@__crt_stdio_output@@YAPAUansi_string@?1??type_case_Z@?$output_processor@DV?$stream_output_adapter@D@__crt_stdio_output@@V?$positional_parameter_base@DV?$stream_output_adapter@D@__crt_stdio_output@@@2@@0@AAE_NXZ@PAD@Z 100224eb f i libucrt:output.obj
 0001:000214f7       ??$peek_va_arg@PAUansi_string@?1??type_case_Z@?$output_processor@DV?$string_output_adapter@D@__crt_stdio_output@@V?$positional_parameter_base@DV?$string_output_adapter@D@__crt_stdio_output@@@2@@__crt_stdio_output@@AAE_NXZ@@__crt_stdio_output@@YAPAUansi_string@?1??type_case_Z@?$output_processor@DV?$string_output_adapter@D@__crt_stdio_output@@V?$positional_parameter_base@DV?$string_output_adapter@D@__crt_stdio_output@@@2@@0@AAE_NXZ@PAD@Z 100224f7 f i libucrt:output.obj
 0001:00021503       ??$peek_va_arg@PAUansi_string@?1??type_case_Z@?$output_processor@_WV?$stream_output_adapter@_W@__crt_stdio_output@@V?$positional_parameter_base@_WV?$stream_output_adapter@_W@__crt_stdio_output@@@2@@__crt_stdio_output@@AAE_NXZ@@__crt_stdio_output@@YAPAUansi_string@?1??type_case_Z@?$output_processor@_WV?$stream_output_adapter@_W@__crt_stdio_output@@V?$positional_parameter_base@_WV?$stream_output_adapter@_W@__crt_stdio_output@@@2@@0@AAE_NXZ@PAD@Z 10022503 f i libucrt:output.obj
 0001:0002150f       ??$peek_va_arg@PAUansi_string@?1??type_case_Z@?$output_processor@_WV?$string_output_adapter@_W@__crt_stdio_output@@V?$positional_parameter_base@_WV?$string_output_adapter@_W@__crt_stdio_output@@@2@@__crt_stdio_output@@AAE_NXZ@@__crt_stdio_output@@YAPAUansi_string@?1??type_case_Z@?$output_processor@_WV?$string_output_adapter@_W@__crt_stdio_output@@V?$positional_parameter_base@_WV?$string_output_adapter@_W@__crt_stdio_output@@@2@@0@AAE_NXZ@PAD@Z 1002250f f i libucrt:output.obj
 0001:0002151b       ??$peek_va_arg@PAX@__crt_stdio_output@@YAPAXPAD@Z 1002251b f i libucrt:output.obj
 0001:00021527       ??$peek_va_arg@U_CRT_DOUBLE@@@__crt_stdio_output@@YA?AU_CRT_DOUBLE@@PAD@Z 10022527 f i libucrt:output.obj
 0001:00021536       ??$peek_va_arg@_J@__crt_stdio_output@@YA_JPAD@Z 10022536 f i libucrt:output.obj
 0001:00021545       ??$peek_va_arg@_K@__crt_stdio_output@@YA_KPAD@Z 10022545 f i libucrt:output.obj
 0001:00021554       ??$peek_va_arg@_W@__crt_stdio_output@@YA_WPAD@Z 10022554 f i libucrt:output.obj
 0001:00021561       ??$puttc_nolock_internal@ABDPAU_iobuf@@AAV__crt_cached_ptd_host@@@?$__crt_char_traits@D@@SAHABD$$QAPAU_iobuf@@AAV__crt_cached_ptd_host@@@Z 10022561 f i libucrt:output.obj
 0001:0002157f       ??$puttc_nolock_internal@AB_WPAU_iobuf@@AAV__crt_cached_ptd_host@@@?$__crt_char_traits@_W@@SAGAB_W$$QAPAU_iobuf@@AAV__crt_cached_ptd_host@@@Z 1002257f f i libucrt:output.obj
 0001:0002159d       ??$read_va_arg@C@__crt_stdio_output@@YACAAPAD@Z 1002259d f i libucrt:output.obj
 0001:000215b0       ??$read_va_arg@E@__crt_stdio_output@@YAEAAPAD@Z 100225b0 f i libucrt:output.obj
 0001:000215c3       ??$read_va_arg@F@__crt_stdio_output@@YAFAAPAD@Z 100225c3 f i libucrt:output.obj
 0001:000215d7       ??$read_va_arg@G@__crt_stdio_output@@YAGAAPAD@Z 100225d7 f i libucrt:output.obj
 0001:000215eb       ??$read_va_arg@H@__crt_stdio_output@@YAHAAPAD@Z 100225eb f i libucrt:output.obj
 0001:000215fe       ??$read_va_arg@I@__crt_stdio_output@@YAIAAPAD@Z 100225fe f i libucrt:output.obj
 0001:00021611       ??$read_va_arg@PAD@__crt_stdio_output@@YAPADAAPAD@Z 10022611 f i libucrt:output.obj
 0001:00021624       ??$read_va_arg@PAUansi_string@?1??type_case_Z@?$output_processor@DV?$stream_output_adapter@D@__crt_stdio_output@@V?$format_validation_base@DV?$stream_output_adapter@D@__crt_stdio_output@@@2@@__crt_stdio_output@@AAE_NXZ@@__crt_stdio_output@@YAPAUansi_string@?1??type_case_Z@?$output_processor@DV?$stream_output_adapter@D@__crt_stdio_output@@V?$format_validation_base@DV?$stream_output_adapter@D@__crt_stdio_output@@@2@@0@AAE_NXZ@AAPAD@Z 10022624 f i libucrt:output.obj
 0001:00021637       ??$read_va_arg@PAUansi_string@?1??type_case_Z@?$output_processor@DV?$stream_output_adapter@D@__crt_stdio_output@@V?$positional_parameter_base@DV?$stream_output_adapter@D@__crt_stdio_output@@@2@@__crt_stdio_output@@AAE_NXZ@@__crt_stdio_output@@YAPAUansi_string@?1??type_case_Z@?$output_processor@DV?$stream_output_adapter@D@__crt_stdio_output@@V?$positional_parameter_base@DV?$stream_output_adapter@D@__crt_stdio_output@@@2@@0@AAE_NXZ@AAPAD@Z 10022637 f i libucrt:output.obj
 0001:0002164a       ??$read_va_arg@PAUansi_string@?1??type_case_Z@?$output_processor@DV?$stream_output_adapter@D@__crt_stdio_output@@V?$standard_base@DV?$stream_output_adapter@D@__crt_stdio_output@@@2@@__crt_stdio_output@@AAE_NXZ@@__crt_stdio_output@@YAPAUansi_string@?1??type_case_Z@?$output_processor@DV?$stream_output_adapter@D@__crt_stdio_output@@V?$standard_base@DV?$stream_output_adapter@D@__crt_stdio_output@@@2@@0@AAE_NXZ@AAPAD@Z 1002264a f i libucrt:output.obj
 0001:0002165d       ??$read_va_arg@PAUansi_string@?1??type_case_Z@?$output_processor@DV?$string_output_adapter@D@__crt_stdio_output@@V?$format_validation_base@DV?$string_output_adapter@D@__crt_stdio_output@@@2@@__crt_stdio_output@@AAE_NXZ@@__crt_stdio_output@@YAPAUansi_string@?1??type_case_Z@?$output_processor@DV?$string_output_adapter@D@__crt_stdio_output@@V?$format_validation_base@DV?$string_output_adapter@D@__crt_stdio_output@@@2@@0@AAE_NXZ@AAPAD@Z 1002265d f i libucrt:output.obj
 0001:00021670       ??$read_va_arg@PAUansi_string@?1??type_case_Z@?$output_processor@DV?$string_output_adapter@D@__crt_stdio_output@@V?$positional_parameter_base@DV?$string_output_adapter@D@__crt_stdio_output@@@2@@__crt_stdio_output@@AAE_NXZ@@__crt_stdio_output@@YAPAUansi_string@?1??type_case_Z@?$output_processor@DV?$string_output_adapter@D@__crt_stdio_output@@V?$positional_parameter_base@DV?$string_output_adapter@D@__crt_stdio_output@@@2@@0@AAE_NXZ@AAPAD@Z 10022670 f i libucrt:output.obj
 0001:00021683       ??$read_va_arg@PAUansi_string@?1??type_case_Z@?$output_processor@DV?$string_output_adapter@D@__crt_stdio_output@@V?$standard_base@DV?$string_output_adapter@D@__crt_stdio_output@@@2@@__crt_stdio_output@@AAE_NXZ@@__crt_stdio_output@@YAPAUansi_string@?1??type_case_Z@?$output_processor@DV?$string_output_adapter@D@__crt_stdio_output@@V?$standard_base@DV?$string_output_adapter@D@__crt_stdio_output@@@2@@0@AAE_NXZ@AAPAD@Z 10022683 f i libucrt:output.obj
 0001:00021696       ??$read_va_arg@PAUansi_string@?1??type_case_Z@?$output_processor@_WV?$stream_output_adapter@_W@__crt_stdio_output@@V?$format_validation_base@_WV?$stream_output_adapter@_W@__crt_stdio_output@@@2@@__crt_stdio_output@@AAE_NXZ@@__crt_stdio_output@@YAPAUansi_string@?1??type_case_Z@?$output_processor@_WV?$stream_output_adapter@_W@__crt_stdio_output@@V?$format_validation_base@_WV?$stream_output_adapter@_W@__crt_stdio_output@@@2@@0@AAE_NXZ@AAPAD@Z 10022696 f i libucrt:output.obj
 0001:000216a9       ??$read_va_arg@PAUansi_string@?1??type_case_Z@?$output_processor@_WV?$stream_output_adapter@_W@__crt_stdio_output@@V?$positional_parameter_base@_WV?$stream_output_adapter@_W@__crt_stdio_output@@@2@@__crt_stdio_output@@AAE_NXZ@@__crt_stdio_output@@YAPAUansi_string@?1??type_case_Z@?$output_processor@_WV?$stream_output_adapter@_W@__crt_stdio_output@@V?$positional_parameter_base@_WV?$stream_output_adapter@_W@__crt_stdio_output@@@2@@0@AAE_NXZ@AAPAD@Z 100226a9 f i libucrt:output.obj
 0001:000216bc       ??$read_va_arg@PAUansi_string@?1??type_case_Z@?$output_processor@_WV?$stream_output_adapter@_W@__crt_stdio_output@@V?$standard_base@_WV?$stream_output_adapter@_W@__crt_stdio_output@@@2@@__crt_stdio_output@@AAE_NXZ@@__crt_stdio_output@@YAPAUansi_string@?1??type_case_Z@?$output_processor@_WV?$stream_output_adapter@_W@__crt_stdio_output@@V?$standard_base@_WV?$stream_output_adapter@_W@__crt_stdio_output@@@2@@0@AAE_NXZ@AAPAD@Z 100226bc f i libucrt:output.obj
 0001:000216cf       ??$read_va_arg@PAUansi_string@?1??type_case_Z@?$output_processor@_WV?$string_output_adapter@_W@__crt_stdio_output@@V?$format_validation_base@_WV?$string_output_adapter@_W@__crt_stdio_output@@@2@@__crt_stdio_output@@AAE_NXZ@@__crt_stdio_output@@YAPAUansi_string@?1??type_case_Z@?$output_processor@_WV?$string_output_adapter@_W@__crt_stdio_output@@V?$format_validation_base@_WV?$string_output_adapter@_W@__crt_stdio_output@@@2@@0@AAE_NXZ@AAPAD@Z 100226cf f i libucrt:output.obj
 0001:000216e2       ??$read_va_arg@PAUansi_string@?1??type_case_Z@?$output_processor@_WV?$string_output_adapter@_W@__crt_stdio_output@@V?$positional_parameter_base@_WV?$string_output_adapter@_W@__crt_stdio_output@@@2@@__crt_stdio_output@@AAE_NXZ@@__crt_stdio_output@@YAPAUansi_string@?1??type_case_Z@?$output_processor@_WV?$string_output_adapter@_W@__crt_stdio_output@@V?$positional_parameter_base@_WV?$string_output_adapter@_W@__crt_stdio_output@@@2@@0@AAE_NXZ@AAPAD@Z 100226e2 f i libucrt:output.obj
 0001:000216f5       ??$read_va_arg@PAUansi_string@?1??type_case_Z@?$output_processor@_WV?$string_output_adapter@_W@__crt_stdio_output@@V?$standard_base@_WV?$string_output_adapter@_W@__crt_stdio_output@@@2@@__crt_stdio_output@@AAE_NXZ@@__crt_stdio_output@@YAPAUansi_string@?1??type_case_Z@?$output_processor@_WV?$string_output_adapter@_W@__crt_stdio_output@@V?$standard_base@_WV?$string_output_adapter@_W@__crt_stdio_output@@@2@@0@AAE_NXZ@AAPAD@Z 100226f5 f i libucrt:output.obj
 0001:00021708       ??$read_va_arg@PAX@__crt_stdio_output@@YAPAXAAPAD@Z 10022708 f i libucrt:output.obj
 0001:0002171b       ??$read_va_arg@U_CRT_DOUBLE@@@__crt_stdio_output@@YA?AU_CRT_DOUBLE@@AAPAD@Z 1002271b f i libucrt:output.obj
 0001:00021731       ??$read_va_arg@_J@__crt_stdio_output@@YA_JAAPAD@Z 10022731 f i libucrt:output.obj
 0001:00021747       ??$read_va_arg@_K@__crt_stdio_output@@YA_KAAPAD@Z 10022747 f i libucrt:output.obj
 0001:0002175d       ??$read_va_arg@_W@__crt_stdio_output@@YA_WAAPAD@Z 1002275d f i libucrt:output.obj
 0001:00021771       ??$scratch_count@D@formatting_buffer@__crt_stdio_output@@QBEIXZ 10022771 f i libucrt:output.obj
 0001:00021776       ??$scratch_data@D@formatting_buffer@__crt_stdio_output@@QAEPADXZ 10022776 f i libucrt:output.obj
 0001:00021794       ??$type_case_integer@$07@?$output_processor@DV?$stream_output_adapter@D@__crt_stdio_output@@V?$format_validation_base@DV?$stream_output_adapter@D@__crt_stdio_output@@@2@@__crt_stdio_output@@AAE_N_N@Z 10022794 f i libucrt:output.obj
 0001:00021921       ??$type_case_integer@$07@?$output_processor@DV?$stream_output_adapter@D@__crt_stdio_output@@V?$positional_parameter_base@DV?$stream_output_adapter@D@__crt_stdio_output@@@2@@__crt_stdio_output@@AAE_N_N@Z 10022921 f i libucrt:output.obj
 0001:00021abd       ??$type_case_integer@$07@?$output_processor@DV?$stream_output_adapter@D@__crt_stdio_output@@V?$standard_base@DV?$stream_output_adapter@D@__crt_stdio_output@@@2@@__crt_stdio_output@@AAE_N_N@Z 10022abd f i libucrt:output.obj
 0001:00021c4a       ??$type_case_integer@$07@?$output_processor@DV?$string_output_adapter@D@__crt_stdio_output@@V?$format_validation_base@DV?$string_output_adapter@D@__crt_stdio_output@@@2@@__crt_stdio_output@@AAE_N_N@Z 10022c4a f i libucrt:output.obj
 0001:00021dd7       ??$type_case_integer@$07@?$output_processor@DV?$string_output_adapter@D@__crt_stdio_output@@V?$positional_parameter_base@DV?$string_output_adapter@D@__crt_stdio_output@@@2@@__crt_stdio_output@@AAE_N_N@Z 10022dd7 f i libucrt:output.obj
 0001:00021f73       ??$type_case_integer@$07@?$output_processor@DV?$string_output_adapter@D@__crt_stdio_output@@V?$standard_base@DV?$string_output_adapter@D@__crt_stdio_output@@@2@@__crt_stdio_output@@AAE_N_N@Z 10022f73 f i libucrt:output.obj
 0001:00022100       ??$type_case_integer@$07@?$output_processor@_WV?$stream_output_adapter@_W@__crt_stdio_output@@V?$format_validation_base@_WV?$stream_output_adapter@_W@__crt_stdio_output@@@2@@__crt_stdio_output@@AAE_N_N@Z 10023100 f i libucrt:output.obj
 0001:00022292       ??$type_case_integer@$07@?$output_processor@_WV?$stream_output_adapter@_W@__crt_stdio_output@@V?$positional_parameter_base@_WV?$stream_output_adapter@_W@__crt_stdio_output@@@2@@__crt_stdio_output@@AAE_N_N@Z 10023292 f i libucrt:output.obj
 0001:00022432       ??$type_case_integer@$07@?$output_processor@_WV?$stream_output_adapter@_W@__crt_stdio_output@@V?$standard_base@_WV?$stream_output_adapter@_W@__crt_stdio_output@@@2@@__crt_stdio_output@@AAE_N_N@Z 10023432 f i libucrt:output.obj
 0001:000225c4       ??$type_case_integer@$07@?$output_processor@_WV?$string_output_adapter@_W@__crt_stdio_output@@V?$format_validation_base@_WV?$string_output_adapter@_W@__crt_stdio_output@@@2@@__crt_stdio_output@@AAE_N_N@Z 100235c4 f i libucrt:output.obj
 0001:00022756       ??$type_case_integer@$07@?$output_processor@_WV?$string_output_adapter@_W@__crt_stdio_output@@V?$positional_parameter_base@_WV?$string_output_adapter@_W@__crt_stdio_output@@@2@@__crt_stdio_output@@AAE_N_N@Z 10023756 f i libucrt:output.obj
 0001:000228f6       ??$type_case_integer@$07@?$output_processor@_WV?$string_output_adapter@_W@__crt_stdio_output@@V?$standard_base@_WV?$string_output_adapter@_W@__crt_stdio_output@@@2@@__crt_stdio_output@@AAE_N_N@Z 100238f6 f i libucrt:output.obj
 0001:00022a88       ??$type_case_integer@$09@?$output_processor@DV?$stream_output_adapter@D@__crt_stdio_output@@V?$format_validation_base@DV?$stream_output_adapter@D@__crt_stdio_output@@@2@@__crt_stdio_output@@AAE_N_N@Z 10023a88 f i libucrt:output.obj
 0001:00022c15       ??$type_case_integer@$09@?$output_processor@DV?$stream_output_adapter@D@__crt_stdio_output@@V?$positional_parameter_base@DV?$stream_output_adapter@D@__crt_stdio_output@@@2@@__crt_stdio_output@@AAE_N_N@Z 10023c15 f i libucrt:output.obj
 0001:00022db1       ??$type_case_integer@$09@?$output_processor@DV?$stream_output_adapter@D@__crt_stdio_output@@V?$standard_base@DV?$stream_output_adapter@D@__crt_stdio_output@@@2@@__crt_stdio_output@@AAE_N_N@Z 10023db1 f i libucrt:output.obj
 0001:00022f3e       ??$type_case_integer@$09@?$output_processor@DV?$string_output_adapter@D@__crt_stdio_output@@V?$format_validation_base@DV?$string_output_adapter@D@__crt_stdio_output@@@2@@__crt_stdio_output@@AAE_N_N@Z 10023f3e f i libucrt:output.obj
 0001:000230cb       ??$type_case_integer@$09@?$output_processor@DV?$string_output_adapter@D@__crt_stdio_output@@V?$positional_parameter_base@DV?$string_output_adapter@D@__crt_stdio_output@@@2@@__crt_stdio_output@@AAE_N_N@Z 100240cb f i libucrt:output.obj
 0001:00023267       ??$type_case_integer@$09@?$output_processor@DV?$string_output_adapter@D@__crt_stdio_output@@V?$standard_base@DV?$string_output_adapter@D@__crt_stdio_output@@@2@@__crt_stdio_output@@AAE_N_N@Z 10024267 f i libucrt:output.obj
 0001:000233f4       ??$type_case_integer@$09@?$output_processor@_WV?$stream_output_adapter@_W@__crt_stdio_output@@V?$format_validation_base@_WV?$stream_output_adapter@_W@__crt_stdio_output@@@2@@__crt_stdio_output@@AAE_N_N@Z 100243f4 f i libucrt:output.obj
 0001:00023586       ??$type_case_integer@$09@?$output_processor@_WV?$stream_output_adapter@_W@__crt_stdio_output@@V?$positional_parameter_base@_WV?$stream_output_adapter@_W@__crt_stdio_output@@@2@@__crt_stdio_output@@AAE_N_N@Z 10024586 f i libucrt:output.obj
 0001:00023726       ??$type_case_integer@$09@?$output_processor@_WV?$stream_output_adapter@_W@__crt_stdio_output@@V?$standard_base@_WV?$stream_output_adapter@_W@__crt_stdio_output@@@2@@__crt_stdio_output@@AAE_N_N@Z 10024726 f i libucrt:output.obj
 0001:000238b8       ??$type_case_integer@$09@?$output_processor@_WV?$string_output_adapter@_W@__crt_stdio_output@@V?$format_validation_base@_WV?$string_output_adapter@_W@__crt_stdio_output@@@2@@__crt_stdio_output@@AAE_N_N@Z 100248b8 f i libucrt:output.obj
 0001:00023a4a       ??$type_case_integer@$09@?$output_processor@_WV?$string_output_adapter@_W@__crt_stdio_output@@V?$positional_parameter_base@_WV?$string_output_adapter@_W@__crt_stdio_output@@@2@@__crt_stdio_output@@AAE_N_N@Z 10024a4a f i libucrt:output.obj
 0001:00023bea       ??$type_case_integer@$09@?$output_processor@_WV?$string_output_adapter@_W@__crt_stdio_output@@V?$standard_base@_WV?$string_output_adapter@_W@__crt_stdio_output@@@2@@__crt_stdio_output@@AAE_N_N@Z 10024bea f i libucrt:output.obj
 0001:00023d7c       ??$type_case_integer@$0BA@@?$output_processor@DV?$stream_output_adapter@D@__crt_stdio_output@@V?$format_validation_base@DV?$stream_output_adapter@D@__crt_stdio_output@@@2@@__crt_stdio_output@@AAE_N_N@Z 10024d7c f i libucrt:output.obj
 0001:00023f09       ??$type_case_integer@$0BA@@?$output_processor@DV?$stream_output_adapter@D@__crt_stdio_output@@V?$positional_parameter_base@DV?$stream_output_adapter@D@__crt_stdio_output@@@2@@__crt_stdio_output@@AAE_N_N@Z 10024f09 f i libucrt:output.obj
 0001:000240a5       ??$type_case_integer@$0BA@@?$output_processor@DV?$stream_output_adapter@D@__crt_stdio_output@@V?$standard_base@DV?$stream_output_adapter@D@__crt_stdio_output@@@2@@__crt_stdio_output@@AAE_N_N@Z 100250a5 f i libucrt:output.obj
 0001:00024232       ??$type_case_integer@$0BA@@?$output_processor@DV?$string_output_adapter@D@__crt_stdio_output@@V?$format_validation_base@DV?$string_output_adapter@D@__crt_stdio_output@@@2@@__crt_stdio_output@@AAE_N_N@Z 10025232 f i libucrt:output.obj
 0001:000243bf       ??$type_case_integer@$0BA@@?$output_processor@DV?$string_output_adapter@D@__crt_stdio_output@@V?$positional_parameter_base@DV?$string_output_adapter@D@__crt_stdio_output@@@2@@__crt_stdio_output@@AAE_N_N@Z 100253bf f i libucrt:output.obj
 0001:0002455b       ??$type_case_integer@$0BA@@?$output_processor@DV?$string_output_adapter@D@__crt_stdio_output@@V?$standard_base@DV?$string_output_adapter@D@__crt_stdio_output@@@2@@__crt_stdio_output@@AAE_N_N@Z 1002555b f i libucrt:output.obj
 0001:000246e8       ??$type_case_integer@$0BA@@?$output_processor@_WV?$stream_output_adapter@_W@__crt_stdio_output@@V?$format_validation_base@_WV?$stream_output_adapter@_W@__crt_stdio_output@@@2@@__crt_stdio_output@@AAE_N_N@Z 100256e8 f i libucrt:output.obj
 0001:0002487a       ??$type_case_integer@$0BA@@?$output_processor@_WV?$stream_output_adapter@_W@__crt_stdio_output@@V?$positional_parameter_base@_WV?$stream_output_adapter@_W@__crt_stdio_output@@@2@@__crt_stdio_output@@AAE_N_N@Z 1002587a f i libucrt:output.obj
 0001:00024a1a       ??$type_case_integer@$0BA@@?$output_processor@_WV?$stream_output_adapter@_W@__crt_stdio_output@@V?$standard_base@_WV?$stream_output_adapter@_W@__crt_stdio_output@@@2@@__crt_stdio_output@@AAE_N_N@Z 10025a1a f i libucrt:output.obj
 0001:00024bac       ??$type_case_integer@$0BA@@?$output_processor@_WV?$string_output_adapter@_W@__crt_stdio_output@@V?$format_validation_base@_WV?$string_output_adapter@_W@__crt_stdio_output@@@2@@__crt_stdio_output@@AAE_N_N@Z 10025bac f i libucrt:output.obj
 0001:00024d3e       ??$type_case_integer@$0BA@@?$output_processor@_WV?$string_output_adapter@_W@__crt_stdio_output@@V?$positional_parameter_base@_WV?$string_output_adapter@_W@__crt_stdio_output@@@2@@__crt_stdio_output@@AAE_N_N@Z 10025d3e f i libucrt:output.obj
 0001:00024ede       ??$type_case_integer@$0BA@@?$output_processor@_WV?$string_output_adapter@_W@__crt_stdio_output@@V?$standard_base@_WV?$string_output_adapter@_W@__crt_stdio_output@@@2@@__crt_stdio_output@@AAE_N_N@Z 10025ede f i libucrt:output.obj
 0001:00025070       ??$type_case_integer_parse_into_buffer@I$07@?$output_processor@DV?$stream_output_adapter@D@__crt_stdio_output@@V?$format_validation_base@DV?$stream_output_adapter@D@__crt_stdio_output@@@2@@__crt_stdio_output@@AAEXI_N@Z 10026070 f i libucrt:output.obj
 0001:000250d3       ??$type_case_integer_parse_into_buffer@I$07@?$output_processor@DV?$stream_output_adapter@D@__crt_stdio_output@@V?$positional_parameter_base@DV?$stream_output_adapter@D@__crt_stdio_output@@@2@@__crt_stdio_output@@AAEXI_N@Z 100260d3 f i libucrt:output.obj
 0001:00025136       ??$type_case_integer_parse_into_buffer@I$07@?$output_processor@DV?$stream_output_adapter@D@__crt_stdio_output@@V?$standard_base@DV?$stream_output_adapter@D@__crt_stdio_output@@@2@@__crt_stdio_output@@AAEXI_N@Z 10026136 f i libucrt:output.obj
 0001:00025199       ??$type_case_integer_parse_into_buffer@I$07@?$output_processor@DV?$string_output_adapter@D@__crt_stdio_output@@V?$format_validation_base@DV?$string_output_adapter@D@__crt_stdio_output@@@2@@__crt_stdio_output@@AAEXI_N@Z 10026199 f i libucrt:output.obj
 0001:000251fc       ??$type_case_integer_parse_into_buffer@I$07@?$output_processor@DV?$string_output_adapter@D@__crt_stdio_output@@V?$positional_parameter_base@DV?$string_output_adapter@D@__crt_stdio_output@@@2@@__crt_stdio_output@@AAEXI_N@Z 100261fc f i libucrt:output.obj
 0001:0002525f       ??$type_case_integer_parse_into_buffer@I$07@?$output_processor@DV?$string_output_adapter@D@__crt_stdio_output@@V?$standard_base@DV?$string_output_adapter@D@__crt_stdio_output@@@2@@__crt_stdio_output@@AAEXI_N@Z 1002625f f i libucrt:output.obj
 0001:000252c2       ??$type_case_integer_parse_into_buffer@I$07@?$output_processor@_WV?$stream_output_adapter@_W@__crt_stdio_output@@V?$format_validation_base@_WV?$stream_output_adapter@_W@__crt_stdio_output@@@2@@__crt_stdio_output@@AAEXI_N@Z 100262c2 f i libucrt:output.obj
 0001:00025335       ??$type_case_integer_parse_into_buffer@I$07@?$output_processor@_WV?$stream_output_adapter@_W@__crt_stdio_output@@V?$positional_parameter_base@_WV?$stream_output_adapter@_W@__crt_stdio_output@@@2@@__crt_stdio_output@@AAEXI_N@Z 10026335 f i libucrt:output.obj
 0001:000253a8       ??$type_case_integer_parse_into_buffer@I$07@?$output_processor@_WV?$stream_output_adapter@_W@__crt_stdio_output@@V?$standard_base@_WV?$stream_output_adapter@_W@__crt_stdio_output@@@2@@__crt_stdio_output@@AAEXI_N@Z 100263a8 f i libucrt:output.obj
 0001:0002541b       ??$type_case_integer_parse_into_buffer@I$07@?$output_processor@_WV?$string_output_adapter@_W@__crt_stdio_output@@V?$format_validation_base@_WV?$string_output_adapter@_W@__crt_stdio_output@@@2@@__crt_stdio_output@@AAEXI_N@Z 1002641b f i libucrt:output.obj
 0001:0002548e       ??$type_case_integer_parse_into_buffer@I$07@?$output_processor@_WV?$string_output_adapter@_W@__crt_stdio_output@@V?$positional_parameter_base@_WV?$string_output_adapter@_W@__crt_stdio_output@@@2@@__crt_stdio_output@@AAEXI_N@Z 1002648e f i libucrt:output.obj
 0001:00025501       ??$type_case_integer_parse_into_buffer@I$07@?$output_processor@_WV?$string_output_adapter@_W@__crt_stdio_output@@V?$standard_base@_WV?$string_output_adapter@_W@__crt_stdio_output@@@2@@__crt_stdio_output@@AAEXI_N@Z 10026501 f i libucrt:output.obj
 0001:00025574       ??$type_case_integer_parse_into_buffer@I$09@?$output_processor@DV?$stream_output_adapter@D@__crt_stdio_output@@V?$format_validation_base@DV?$stream_output_adapter@D@__crt_stdio_output@@@2@@__crt_stdio_output@@AAEXI_N@Z 10026574 f i libucrt:output.obj
 0001:000255fb       ??$type_case_integer_parse_into_buffer@I$09@?$output_processor@DV?$stream_output_adapter@D@__crt_stdio_output@@V?$positional_parameter_base@DV?$stream_output_adapter@D@__crt_stdio_output@@@2@@__crt_stdio_output@@AAEXI_N@Z 100265fb f i libucrt:output.obj
 0001:00025682       ??$type_case_integer_parse_into_buffer@I$09@?$output_processor@DV?$stream_output_adapter@D@__crt_stdio_output@@V?$standard_base@DV?$stream_output_adapter@D@__crt_stdio_output@@@2@@__crt_stdio_output@@AAEXI_N@Z 10026682 f i libucrt:output.obj
 0001:00025709       ??$type_case_integer_parse_into_buffer@I$09@?$output_processor@DV?$string_output_adapter@D@__crt_stdio_output@@V?$format_validation_base@DV?$string_output_adapter@D@__crt_stdio_output@@@2@@__crt_stdio_output@@AAEXI_N@Z 10026709 f i libucrt:output.obj
 0001:00025790       ??$type_case_integer_parse_into_buffer@I$09@?$output_processor@DV?$string_output_adapter@D@__crt_stdio_output@@V?$positional_parameter_base@DV?$string_output_adapter@D@__crt_stdio_output@@@2@@__crt_stdio_output@@AAEXI_N@Z 10026790 f i libucrt:output.obj
 0001:00025817       ??$type_case_integer_parse_into_buffer@I$09@?$output_processor@DV?$string_output_adapter@D@__crt_stdio_output@@V?$standard_base@DV?$string_output_adapter@D@__crt_stdio_output@@@2@@__crt_stdio_output@@AAEXI_N@Z 10026817 f i libucrt:output.obj
 0001:0002589e       ??$type_case_integer_parse_into_buffer@I$09@?$output_processor@_WV?$stream_output_adapter@_W@__crt_stdio_output@@V?$format_validation_base@_WV?$stream_output_adapter@_W@__crt_stdio_output@@@2@@__crt_stdio_output@@AAEXI_N@Z 1002689e f i libucrt:output.obj
 0001:0002593a       ??$type_case_integer_parse_into_buffer@I$09@?$output_processor@_WV?$stream_output_adapter@_W@__crt_stdio_output@@V?$positional_parameter_base@_WV?$stream_output_adapter@_W@__crt_stdio_output@@@2@@__crt_stdio_output@@AAEXI_N@Z 1002693a f i libucrt:output.obj
 0001:000259d6       ??$type_case_integer_parse_into_buffer@I$09@?$output_processor@_WV?$stream_output_adapter@_W@__crt_stdio_output@@V?$standard_base@_WV?$stream_output_adapter@_W@__crt_stdio_output@@@2@@__crt_stdio_output@@AAEXI_N@Z 100269d6 f i libucrt:output.obj
 0001:00025a72       ??$type_case_integer_parse_into_buffer@I$09@?$output_processor@_WV?$string_output_adapter@_W@__crt_stdio_output@@V?$format_validation_base@_WV?$string_output_adapter@_W@__crt_stdio_output@@@2@@__crt_stdio_output@@AAEXI_N@Z 10026a72 f i libucrt:output.obj
 0001:00025b0e       ??$type_case_integer_parse_into_buffer@I$09@?$output_processor@_WV?$string_output_adapter@_W@__crt_stdio_output@@V?$positional_parameter_base@_WV?$string_output_adapter@_W@__crt_stdio_output@@@2@@__crt_stdio_output@@AAEXI_N@Z 10026b0e f i libucrt:output.obj
 0001:00025baa       ??$type_case_integer_parse_into_buffer@I$09@?$output_processor@_WV?$string_output_adapter@_W@__crt_stdio_output@@V?$standard_base@_WV?$string_output_adapter@_W@__crt_stdio_output@@@2@@__crt_stdio_output@@AAEXI_N@Z 10026baa f i libucrt:output.obj
 0001:00025c46       ??$type_case_integer_parse_into_buffer@I$0BA@@?$output_processor@DV?$stream_output_adapter@D@__crt_stdio_output@@V?$format_validation_base@DV?$stream_output_adapter@D@__crt_stdio_output@@@2@@__crt_stdio_output@@AAEXI_N@Z 10026c46 f i libucrt:output.obj
 0001:00025cc3       ??$type_case_integer_parse_into_buffer@I$0BA@@?$output_processor@DV?$stream_output_adapter@D@__crt_stdio_output@@V?$positional_parameter_base@DV?$stream_output_adapter@D@__crt_stdio_output@@@2@@__crt_stdio_output@@AAEXI_N@Z 10026cc3 f i libucrt:output.obj
 0001:00025d40       ??$type_case_integer_parse_into_buffer@I$0BA@@?$output_processor@DV?$stream_output_adapter@D@__crt_stdio_output@@V?$standard_base@DV?$stream_output_adapter@D@__crt_stdio_output@@@2@@__crt_stdio_output@@AAEXI_N@Z 10026d40 f i libucrt:output.obj
 0001:00025dbd       ??$type_case_integer_parse_into_buffer@I$0BA@@?$output_processor@DV?$string_output_adapter@D@__crt_stdio_output@@V?$format_validation_base@DV?$string_output_adapter@D@__crt_stdio_output@@@2@@__crt_stdio_output@@AAEXI_N@Z 10026dbd f i libucrt:output.obj
 0001:00025e3a       ??$type_case_integer_parse_into_buffer@I$0BA@@?$output_processor@DV?$string_output_adapter@D@__crt_stdio_output@@V?$positional_parameter_base@DV?$string_output_adapter@D@__crt_stdio_output@@@2@@__crt_stdio_output@@AAEXI_N@Z 10026e3a f i libucrt:output.obj
 0001:00025eb7       ??$type_case_integer_parse_into_buffer@I$0BA@@?$output_processor@DV?$string_output_adapter@D@__crt_stdio_output@@V?$standard_base@DV?$string_output_adapter@D@__crt_stdio_output@@@2@@__crt_stdio_output@@AAEXI_N@Z 10026eb7 f i libucrt:output.obj
 0001:00025f34       ??$type_case_integer_parse_into_buffer@I$0BA@@?$output_processor@_WV?$stream_output_adapter@_W@__crt_stdio_output@@V?$format_validation_base@_WV?$stream_output_adapter@_W@__crt_stdio_output@@@2@@__crt_stdio_output@@AAEXI_N@Z 10026f34 f i libucrt:output.obj
 0001:00025fbe       ??$type_case_integer_parse_into_buffer@I$0BA@@?$output_processor@_WV?$stream_output_adapter@_W@__crt_stdio_output@@V?$positional_parameter_base@_WV?$stream_output_adapter@_W@__crt_stdio_output@@@2@@__crt_stdio_output@@AAEXI_N@Z 10026fbe f i libucrt:output.obj
 0001:00026048       ??$type_case_integer_parse_into_buffer@I$0BA@@?$output_processor@_WV?$stream_output_adapter@_W@__crt_stdio_output@@V?$standard_base@_WV?$stream_output_adapter@_W@__crt_stdio_output@@@2@@__crt_stdio_output@@AAEXI_N@Z 10027048 f i libucrt:output.obj
 0001:000260d2       ??$type_case_integer_parse_into_buffer@I$0BA@@?$output_processor@_WV?$string_output_adapter@_W@__crt_stdio_output@@V?$format_validation_base@_WV?$string_output_adapter@_W@__crt_stdio_output@@@2@@__crt_stdio_output@@AAEXI_N@Z 100270d2 f i libucrt:output.obj
 0001:0002615c       ??$type_case_integer_parse_into_buffer@I$0BA@@?$output_processor@_WV?$string_output_adapter@_W@__crt_stdio_output@@V?$positional_parameter_base@_WV?$string_output_adapter@_W@__crt_stdio_output@@@2@@__crt_stdio_output@@AAEXI_N@Z 1002715c f i libucrt:output.obj
 0001:000261e6       ??$type_case_integer_parse_into_buffer@I$0BA@@?$output_processor@_WV?$string_output_adapter@_W@__crt_stdio_output@@V?$standard_base@_WV?$string_output_adapter@_W@__crt_stdio_output@@@2@@__crt_stdio_output@@AAEXI_N@Z 100271e6 f i libucrt:output.obj
 0001:00026270       ??$type_case_integer_parse_into_buffer@_K$07@?$output_processor@DV?$stream_output_adapter@D@__crt_stdio_output@@V?$format_validation_base@DV?$stream_output_adapter@D@__crt_stdio_output@@@2@@__crt_stdio_output@@AAEX_K_N@Z 10027270 f i libucrt:output.obj
 0001:000262e8       ??$type_case_integer_parse_into_buffer@_K$07@?$output_processor@DV?$stream_output_adapter@D@__crt_stdio_output@@V?$positional_parameter_base@DV?$stream_output_adapter@D@__crt_stdio_output@@@2@@__crt_stdio_output@@AAEX_K_N@Z 100272e8 f i libucrt:output.obj
 0001:00026360       ??$type_case_integer_parse_into_buffer@_K$07@?$output_processor@DV?$stream_output_adapter@D@__crt_stdio_output@@V?$standard_base@DV?$stream_output_adapter@D@__crt_stdio_output@@@2@@__crt_stdio_output@@AAEX_K_N@Z 10027360 f i libucrt:output.obj
 0001:000263d8       ??$type_case_integer_parse_into_buffer@_K$07@?$output_processor@DV?$string_output_adapter@D@__crt_stdio_output@@V?$format_validation_base@DV?$string_output_adapter@D@__crt_stdio_output@@@2@@__crt_stdio_output@@AAEX_K_N@Z 100273d8 f i libucrt:output.obj
 0001:00026450       ??$type_case_integer_parse_into_buffer@_K$07@?$output_processor@DV?$string_output_adapter@D@__crt_stdio_output@@V?$positional_parameter_base@DV?$string_output_adapter@D@__crt_stdio_output@@@2@@__crt_stdio_output@@AAEX_K_N@Z 10027450 f i libucrt:output.obj
 0001:000264c8       ??$type_case_integer_parse_into_buffer@_K$07@?$output_processor@DV?$string_output_adapter@D@__crt_stdio_output@@V?$standard_base@DV?$string_output_adapter@D@__crt_stdio_output@@@2@@__crt_stdio_output@@AAEX_K_N@Z 100274c8 f i libucrt:output.obj
 0001:00026540       ??$type_case_integer_parse_into_buffer@_K$07@?$output_processor@_WV?$stream_output_adapter@_W@__crt_stdio_output@@V?$format_validation_base@_WV?$stream_output_adapter@_W@__crt_stdio_output@@@2@@__crt_stdio_output@@AAEX_K_N@Z 10027540 f i libucrt:output.obj
 0001:000265c7       ??$type_case_integer_parse_into_buffer@_K$07@?$output_processor@_WV?$stream_output_adapter@_W@__crt_stdio_output@@V?$positional_parameter_base@_WV?$stream_output_adapter@_W@__crt_stdio_output@@@2@@__crt_stdio_output@@AAEX_K_N@Z 100275c7 f i libucrt:output.obj
 0001:0002664e       ??$type_case_integer_parse_into_buffer@_K$07@?$output_processor@_WV?$stream_output_adapter@_W@__crt_stdio_output@@V?$standard_base@_WV?$stream_output_adapter@_W@__crt_stdio_output@@@2@@__crt_stdio_output@@AAEX_K_N@Z 1002764e f i libucrt:output.obj
 0001:000266d5       ??$type_case_integer_parse_into_buffer@_K$07@?$output_processor@_WV?$string_output_adapter@_W@__crt_stdio_output@@V?$format_validation_base@_WV?$string_output_adapter@_W@__crt_stdio_output@@@2@@__crt_stdio_output@@AAEX_K_N@Z 100276d5 f i libucrt:output.obj
 0001:0002675c       ??$type_case_integer_parse_into_buffer@_K$07@?$output_processor@_WV?$string_output_adapter@_W@__crt_stdio_output@@V?$positional_parameter_base@_WV?$string_output_adapter@_W@__crt_stdio_output@@@2@@__crt_stdio_output@@AAEX_K_N@Z 1002775c f i libucrt:output.obj
 0001:000267e3       ??$type_case_integer_parse_into_buffer@_K$07@?$output_processor@_WV?$string_output_adapter@_W@__crt_stdio_output@@V?$standard_base@_WV?$string_output_adapter@_W@__crt_stdio_output@@@2@@__crt_stdio_output@@AAEX_K_N@Z 100277e3 f i libucrt:output.obj
 0001:0002686a       ??$type_case_integer_parse_into_buffer@_K$09@?$output_processor@DV?$stream_output_adapter@D@__crt_stdio_output@@V?$format_validation_base@DV?$stream_output_adapter@D@__crt_stdio_output@@@2@@__crt_stdio_output@@AAEX_K_N@Z 1002786a f i libucrt:output.obj
 0001:00026911       ??$type_case_integer_parse_into_buffer@_K$09@?$output_processor@DV?$stream_output_adapter@D@__crt_stdio_output@@V?$positional_parameter_base@DV?$stream_output_adapter@D@__crt_stdio_output@@@2@@__crt_stdio_output@@AAEX_K_N@Z 10027911 f i libucrt:output.obj
 0001:000269b8       ??$type_case_integer_parse_into_buffer@_K$09@?$output_processor@DV?$stream_output_adapter@D@__crt_stdio_output@@V?$standard_base@DV?$stream_output_adapter@D@__crt_stdio_output@@@2@@__crt_stdio_output@@AAEX_K_N@Z 100279b8 f i libucrt:output.obj
 0001:00026a5f       ??$type_case_integer_parse_into_buffer@_K$09@?$output_processor@DV?$string_output_adapter@D@__crt_stdio_output@@V?$format_validation_base@DV?$string_output_adapter@D@__crt_stdio_output@@@2@@__crt_stdio_output@@AAEX_K_N@Z 10027a5f f i libucrt:output.obj
 0001:00026b06       ??$type_case_integer_parse_into_buffer@_K$09@?$output_processor@DV?$string_output_adapter@D@__crt_stdio_output@@V?$positional_parameter_base@DV?$string_output_adapter@D@__crt_stdio_output@@@2@@__crt_stdio_output@@AAEX_K_N@Z 10027b06 f i libucrt:output.obj
 0001:00026bad       ??$type_case_integer_parse_into_buffer@_K$09@?$output_processor@DV?$string_output_adapter@D@__crt_stdio_output@@V?$standard_base@DV?$string_output_adapter@D@__crt_stdio_output@@@2@@__crt_stdio_output@@AAEX_K_N@Z 10027bad f i libucrt:output.obj
 0001:00026c54       ??$type_case_integer_parse_into_buffer@_K$09@?$output_processor@_WV?$stream_output_adapter@_W@__crt_stdio_output@@V?$format_validation_base@_WV?$stream_output_adapter@_W@__crt_stdio_output@@@2@@__crt_stdio_output@@AAEX_K_N@Z 10027c54 f i libucrt:output.obj
 0001:00026d11       ??$type_case_integer_parse_into_buffer@_K$09@?$output_processor@_WV?$stream_output_adapter@_W@__crt_stdio_output@@V?$positional_parameter_base@_WV?$stream_output_adapter@_W@__crt_stdio_output@@@2@@__crt_stdio_output@@AAEX_K_N@Z 10027d11 f i libucrt:output.obj
 0001:00026dce       ??$type_case_integer_parse_into_buffer@_K$09@?$output_processor@_WV?$stream_output_adapter@_W@__crt_stdio_output@@V?$standard_base@_WV?$stream_output_adapter@_W@__crt_stdio_output@@@2@@__crt_stdio_output@@AAEX_K_N@Z 10027dce f i libucrt:output.obj
 0001:00026e8b       ??$type_case_integer_parse_into_buffer@_K$09@?$output_processor@_WV?$string_output_adapter@_W@__crt_stdio_output@@V?$format_validation_base@_WV?$string_output_adapter@_W@__crt_stdio_output@@@2@@__crt_stdio_output@@AAEX_K_N@Z 10027e8b f i libucrt:output.obj
 0001:00026f48       ??$type_case_integer_parse_into_buffer@_K$09@?$output_processor@_WV?$string_output_adapter@_W@__crt_stdio_output@@V?$positional_parameter_base@_WV?$string_output_adapter@_W@__crt_stdio_output@@@2@@__crt_stdio_output@@AAEX_K_N@Z 10027f48 f i libucrt:output.obj
 0001:00027005       ??$type_case_integer_parse_into_buffer@_K$09@?$output_processor@_WV?$string_output_adapter@_W@__crt_stdio_output@@V?$standard_base@_WV?$string_output_adapter@_W@__crt_stdio_output@@@2@@__crt_stdio_output@@AAEX_K_N@Z 10028005 f i libucrt:output.obj
 0001:000270c2       ??$type_case_integer_parse_into_buffer@_K$0BA@@?$output_processor@DV?$stream_output_adapter@D@__crt_stdio_output@@V?$format_validation_base@DV?$stream_output_adapter@D@__crt_stdio_output@@@2@@__crt_stdio_output@@AAEX_K_N@Z 100280c2 f i libucrt:output.obj
 0001:0002714c       ??$type_case_integer_parse_into_buffer@_K$0BA@@?$output_processor@DV?$stream_output_adapter@D@__crt_stdio_output@@V?$positional_parameter_base@DV?$stream_output_adapter@D@__crt_stdio_output@@@2@@__crt_stdio_output@@AAEX_K_N@Z 1002814c f i libucrt:output.obj
 0001:000271d6       ??$type_case_integer_parse_into_buffer@_K$0BA@@?$output_processor@DV?$stream_output_adapter@D@__crt_stdio_output@@V?$standard_base@DV?$stream_output_adapter@D@__crt_stdio_output@@@2@@__crt_stdio_output@@AAEX_K_N@Z 100281d6 f i libucrt:output.obj
 0001:00027260       ??$type_case_integer_parse_into_buffer@_K$0BA@@?$output_processor@DV?$string_output_adapter@D@__crt_stdio_output@@V?$format_validation_base@DV?$string_output_adapter@D@__crt_stdio_output@@@2@@__crt_stdio_output@@AAEX_K_N@Z 10028260 f i libucrt:output.obj
 0001:000272ea       ??$type_case_integer_parse_into_buffer@_K$0BA@@?$output_processor@DV?$string_output_adapter@D@__crt_stdio_output@@V?$positional_parameter_base@DV?$string_output_adapter@D@__crt_stdio_output@@@2@@__crt_stdio_output@@AAEX_K_N@Z 100282ea f i libucrt:output.obj
 0001:00027374       ??$type_case_integer_parse_into_buffer@_K$0BA@@?$output_processor@DV?$string_output_adapter@D@__crt_stdio_output@@V?$standard_base@DV?$string_output_adapter@D@__crt_stdio_output@@@2@@__crt_stdio_output@@AAEX_K_N@Z 10028374 f i libucrt:output.obj
 0001:000273fe       ??$type_case_integer_parse_into_buffer@_K$0BA@@?$output_processor@_WV?$stream_output_adapter@_W@__crt_stdio_output@@V?$format_validation_base@_WV?$stream_output_adapter@_W@__crt_stdio_output@@@2@@__crt_stdio_output@@AAEX_K_N@Z 100283fe f i libucrt:output.obj
 0001:00027494       ??$type_case_integer_parse_into_buffer@_K$0BA@@?$output_processor@_WV?$stream_output_adapter@_W@__crt_stdio_output@@V?$positional_parameter_base@_WV?$stream_output_adapter@_W@__crt_stdio_output@@@2@@__crt_stdio_output@@AAEX_K_N@Z 10028494 f i libucrt:output.obj
 0001:0002752a       ??$type_case_integer_parse_into_buffer@_K$0BA@@?$output_processor@_WV?$stream_output_adapter@_W@__crt_stdio_output@@V?$standard_base@_WV?$stream_output_adapter@_W@__crt_stdio_output@@@2@@__crt_stdio_output@@AAEX_K_N@Z 1002852a f i libucrt:output.obj
 0001:000275c0       ??$type_case_integer_parse_into_buffer@_K$0BA@@?$output_processor@_WV?$string_output_adapter@_W@__crt_stdio_output@@V?$format_validation_base@_WV?$string_output_adapter@_W@__crt_stdio_output@@@2@@__crt_stdio_output@@AAEX_K_N@Z 100285c0 f i libucrt:output.obj
 0001:00027656       ??$type_case_integer_parse_into_buffer@_K$0BA@@?$output_processor@_WV?$string_output_adapter@_W@__crt_stdio_output@@V?$positional_parameter_base@_WV?$string_output_adapter@_W@__crt_stdio_output@@@2@@__crt_stdio_output@@AAEX_K_N@Z 10028656 f i libucrt:output.obj
 0001:000276ec       ??$type_case_integer_parse_into_buffer@_K$0BA@@?$output_processor@_WV?$string_output_adapter@_W@__crt_stdio_output@@V?$standard_base@_WV?$string_output_adapter@_W@__crt_stdio_output@@@2@@__crt_stdio_output@@AAEX_K_N@Z 100286ec f i libucrt:output.obj
 0001:00027782       ??$write_multiple_characters@V?$stream_output_adapter@D@__crt_stdio_output@@D@__crt_stdio_output@@YAXABV?$stream_output_adapter@D@0@DHQAHAAV__crt_cached_ptd_host@@@Z 10028782 f i libucrt:output.obj
 0001:000277b1       ??$write_multiple_characters@V?$stream_output_adapter@_W@__crt_stdio_output@@D@__crt_stdio_output@@YAXABV?$stream_output_adapter@_W@0@DHQAHAAV__crt_cached_ptd_host@@@Z 100287b1 f i libucrt:output.obj
 0001:000277e5       ??$write_multiple_characters@V?$string_output_adapter@D@__crt_stdio_output@@D@__crt_stdio_output@@YAXABV?$string_output_adapter@D@0@DHQAHAAV__crt_cached_ptd_host@@@Z 100287e5 f i libucrt:output.obj
 0001:00027848       ??$write_multiple_characters@V?$string_output_adapter@_W@__crt_stdio_output@@D@__crt_stdio_output@@YAXABV?$string_output_adapter@_W@0@DHQAHAAV__crt_cached_ptd_host@@@Z 10028848 f i libucrt:output.obj
 0001:00027a77       ??0?$c_string_character_source@D@__crt_strtox@@QAE@QBDQAPBD@Z 10028a77 f i libucrt:output.obj
 0001:00027a93       ??0?$c_string_character_source@_W@__crt_strtox@@QAE@QB_WQAPB_W@Z 10028a93 f i libucrt:output.obj
 0001:00027aaf       ??0?$common_data@D@__crt_stdio_output@@IAE@AAV__crt_cached_ptd_host@@@Z 10028aaf f i libucrt:output.obj
 0001:00027af6       ??0?$common_data@_W@__crt_stdio_output@@IAE@AAV__crt_cached_ptd_host@@@Z 10028af6 f i libucrt:output.obj
 0001:00027b42       ??0?$output_adapter_data@DV?$stream_output_adapter@D@__crt_stdio_output@@@__crt_stdio_output@@IAE@ABV?$stream_output_adapter@D@1@_KQBDAAV__crt_cached_ptd_host@@QAD@Z 10028b42 f i libucrt:output.obj
 0001:00027ba9       ??0?$output_adapter_data@DV?$string_output_adapter@D@__crt_stdio_output@@@__crt_stdio_output@@IAE@ABV?$string_output_adapter@D@1@_KQBDAAV__crt_cached_ptd_host@@QAD@Z 10028ba9 f i libucrt:output.obj
 0001:00027c10       ??0?$output_adapter_data@_WV?$stream_output_adapter@_W@__crt_stdio_output@@@__crt_stdio_output@@IAE@ABV?$stream_output_adapter@_W@1@_KQB_WAAV__crt_cached_ptd_host@@QAD@Z 10028c10 f i libucrt:output.obj
 0001:00027c7c       ??0?$output_adapter_data@_WV?$string_output_adapter@_W@__crt_stdio_output@@@__crt_stdio_output@@IAE@ABV?$string_output_adapter@_W@1@_KQB_WAAV__crt_cached_ptd_host@@QAD@Z 10028c7c f i libucrt:output.obj
 0001:00027ce8       ??0?$output_processor@DV?$stream_output_adapter@D@__crt_stdio_output@@V?$format_validation_base@DV?$stream_output_adapter@D@__crt_stdio_output@@@2@@__crt_stdio_output@@QAE@ABV?$stream_output_adapter@D@1@_KQBDAAV__crt_cached_ptd_host@@QAD@Z 10028ce8 f i libucrt:output.obj
 0001:00027d15       ??0?$output_processor@DV?$stream_output_adapter@D@__crt_stdio_output@@V?$positional_parameter_base@DV?$stream_output_adapter@D@__crt_stdio_output@@@2@@__crt_stdio_output@@QAE@ABV?$stream_output_adapter@D@1@_KQBDAAV__crt_cached_ptd_host@@QAD@Z 10028d15 f i libucrt:output.obj
 0001:00027d3b       ??0?$output_processor@DV?$stream_output_adapter@D@__crt_stdio_output@@V?$standard_base@DV?$stream_output_adapter@D@__crt_stdio_output@@@2@@__crt_stdio_output@@QAE@ABV?$stream_output_adapter@D@1@_KQBDAAV__crt_cached_ptd_host@@QAD@Z 10028d3b f i libucrt:output.obj
 0001:00027d68       ??0?$output_processor@DV?$string_output_adapter@D@__crt_stdio_output@@V?$format_validation_base@DV?$string_output_adapter@D@__crt_stdio_output@@@2@@__crt_stdio_output@@QAE@ABV?$string_output_adapter@D@1@_KQBDAAV__crt_cached_ptd_host@@QAD@Z 10028d68 f i libucrt:output.obj
 0001:00027d95       ??0?$output_processor@DV?$string_output_adapter@D@__crt_stdio_output@@V?$positional_parameter_base@DV?$string_output_adapter@D@__crt_stdio_output@@@2@@__crt_stdio_output@@QAE@ABV?$string_output_adapter@D@1@_KQBDAAV__crt_cached_ptd_host@@QAD@Z 10028d95 f i libucrt:output.obj
 0001:00027dbb       ??0?$output_processor@DV?$string_output_adapter@D@__crt_stdio_output@@V?$standard_base@DV?$string_output_adapter@D@__crt_stdio_output@@@2@@__crt_stdio_output@@QAE@ABV?$string_output_adapter@D@1@_KQBDAAV__crt_cached_ptd_host@@QAD@Z 10028dbb f i libucrt:output.obj
 0001:00027de8       ??0?$output_processor@_WV?$stream_output_adapter@_W@__crt_stdio_output@@V?$format_validation_base@_WV?$stream_output_adapter@_W@__crt_stdio_output@@@2@@__crt_stdio_output@@QAE@ABV?$stream_output_adapter@_W@1@_KQB_WAAV__crt_cached_ptd_host@@QAD@Z 10028de8 f i libucrt:output.obj
 0001:00027e15       ??0?$output_processor@_WV?$stream_output_adapter@_W@__crt_stdio_output@@V?$positional_parameter_base@_WV?$stream_output_adapter@_W@__crt_stdio_output@@@2@@__crt_stdio_output@@QAE@ABV?$stream_output_adapter@_W@1@_KQB_WAAV__crt_cached_ptd_host@@QAD@Z 10028e15 f i libucrt:output.obj
 0001:00027e3b       ??0?$output_processor@_WV?$stream_output_adapter@_W@__crt_stdio_output@@V?$standard_base@_WV?$stream_output_adapter@_W@__crt_stdio_output@@@2@@__crt_stdio_output@@QAE@ABV?$stream_output_adapter@_W@1@_KQB_WAAV__crt_cached_ptd_host@@QAD@Z 10028e3b f i libucrt:output.obj
 0001:00027e68       ??0?$output_processor@_WV?$string_output_adapter@_W@__crt_stdio_output@@V?$format_validation_base@_WV?$string_output_adapter@_W@__crt_stdio_output@@@2@@__crt_stdio_output@@QAE@ABV?$string_output_adapter@_W@1@_KQB_WAAV__crt_cached_ptd_host@@QAD@Z 10028e68 f i libucrt:output.obj
 0001:00027e95       ??0?$output_processor@_WV?$string_output_adapter@_W@__crt_stdio_output@@V?$positional_parameter_base@_WV?$string_output_adapter@_W@__crt_stdio_output@@@2@@__crt_stdio_output@@QAE@ABV?$string_output_adapter@_W@1@_KQB_WAAV__crt_cached_ptd_host@@QAD@Z 10028e95 f i libucrt:output.obj
 0001:00027ebb       ??0?$output_processor@_WV?$string_output_adapter@_W@__crt_stdio_output@@V?$standard_base@_WV?$string_output_adapter@_W@__crt_stdio_output@@@2@@__crt_stdio_output@@QAE@ABV?$string_output_adapter@_W@1@_KQB_WAAV__crt_cached_ptd_host@@QAD@Z 10028ebb f i libucrt:output.obj
 0001:00027ee8       ??0?$stream_output_adapter@D@__crt_stdio_output@@QAE@QAU_iobuf@@@Z 10028ee8 f i libucrt:output.obj
 0001:00027ef8       ??0?$stream_output_adapter@_W@__crt_stdio_output@@QAE@QAU_iobuf@@@Z 10028ef8 f i libucrt:output.obj
 0001:00027f08       ??0?$string_output_adapter@D@__crt_stdio_output@@QAE@QAU?$string_output_adapter_context@D@1@@Z 10028f08 f i libucrt:output.obj
 0001:00027f18       ??0?$string_output_adapter@_W@__crt_stdio_output@@QAE@QAU?$string_output_adapter_context@_W@1@@Z 10028f18 f i libucrt:output.obj
 0001:00027f28       ??0__acrt_stdio_temporary_buffering_guard@@QAE@QAU_iobuf@@AAV__crt_cached_ptd_host@@@Z 10028f28 f i libucrt:output.obj
 0001:00027f4c       ??0__crt_stdio_stream@@QAE@QAU_iobuf@@@Z 10028f4c f i libucrt:output.obj
 0001:00027f5c       ??0formatting_buffer@__crt_stdio_output@@QAE@XZ 10028f5c f i libucrt:output.obj
 0001:00027f6d       ??0guard@?$cached@H@__crt_cached_ptd_host@@QAE@AAU12@@Z 10028f6d f i libucrt:output.obj
 0001:00027f8c       ??1?$c_string_character_source@D@__crt_strtox@@QAE@XZ 10028f8c f i libucrt:output.obj
 0001:00027f98       ??1?$c_string_character_source@_W@__crt_strtox@@QAE@XZ 10028f98 f i libucrt:output.obj
 0001:00027fa4       ??1?$common_data@D@__crt_stdio_output@@QAE@XZ 10028fa4 f i libucrt:output.obj
 0001:00027fac       ??1?$common_data@_W@__crt_stdio_output@@QAE@XZ 10028fac f i libucrt:output.obj
 0001:00027fb4       ??1?$format_validation_base@DV?$stream_output_adapter@D@__crt_stdio_output@@@__crt_stdio_output@@QAE@XZ 10028fb4 f i libucrt:output.obj
 0001:00027fbc       ??1?$format_validation_base@DV?$string_output_adapter@D@__crt_stdio_output@@@__crt_stdio_output@@QAE@XZ 10028fbc f i libucrt:output.obj
 0001:00027fc4       ??1?$format_validation_base@_WV?$stream_output_adapter@_W@__crt_stdio_output@@@__crt_stdio_output@@QAE@XZ 10028fc4 f i libucrt:output.obj
 0001:00027fcc       ??1?$format_validation_base@_WV?$string_output_adapter@_W@__crt_stdio_output@@@__crt_stdio_output@@QAE@XZ 10028fcc f i libucrt:output.obj
 0001:00027fd4       ??1?$output_adapter_data@DV?$stream_output_adapter@D@__crt_stdio_output@@@__crt_stdio_output@@QAE@XZ 10028fd4 f i libucrt:output.obj
 0001:00027fdc       ??1?$output_adapter_data@DV?$string_output_adapter@D@__crt_stdio_output@@@__crt_stdio_output@@QAE@XZ 10028fdc f i libucrt:output.obj
 0001:00027fe4       ??1?$output_adapter_data@_WV?$stream_output_adapter@_W@__crt_stdio_output@@@__crt_stdio_output@@QAE@XZ 10028fe4 f i libucrt:output.obj
 0001:00027fec       ??1?$output_adapter_data@_WV?$string_output_adapter@_W@__crt_stdio_output@@@__crt_stdio_output@@QAE@XZ 10028fec f i libucrt:output.obj
 0001:00027ff4       ??1?$output_processor@DV?$stream_output_adapter@D@__crt_stdio_output@@V?$format_validation_base@DV?$stream_output_adapter@D@__crt_stdio_output@@@2@@__crt_stdio_output@@QAE@XZ 10028ff4 f i libucrt:output.obj
 0001:00027ffc       ??1?$output_processor@DV?$stream_output_adapter@D@__crt_stdio_output@@V?$positional_parameter_base@DV?$stream_output_adapter@D@__crt_stdio_output@@@2@@__crt_stdio_output@@QAE@XZ 10028ffc f i libucrt:output.obj
 0001:00028004       ??1?$output_processor@DV?$stream_output_adapter@D@__crt_stdio_output@@V?$standard_base@DV?$stream_output_adapter@D@__crt_stdio_output@@@2@@__crt_stdio_output@@QAE@XZ 10029004 f i libucrt:output.obj
 0001:0002800c       ??1?$output_processor@DV?$string_output_adapter@D@__crt_stdio_output@@V?$format_validation_base@DV?$string_output_adapter@D@__crt_stdio_output@@@2@@__crt_stdio_output@@QAE@XZ 1002900c f i libucrt:output.obj
 0001:00028014       ??1?$output_processor@DV?$string_output_adapter@D@__crt_stdio_output@@V?$positional_parameter_base@DV?$string_output_adapter@D@__crt_stdio_output@@@2@@__crt_stdio_output@@QAE@XZ 10029014 f i libucrt:output.obj
 0001:0002801c       ??1?$output_processor@DV?$string_output_adapter@D@__crt_stdio_output@@V?$standard_base@DV?$string_output_adapter@D@__crt_stdio_output@@@2@@__crt_stdio_output@@QAE@XZ 1002901c f i libucrt:output.obj
 0001:00028024       ??1?$output_processor@_WV?$stream_output_adapter@_W@__crt_stdio_output@@V?$format_validation_base@_WV?$stream_output_adapter@_W@__crt_stdio_output@@@2@@__crt_stdio_output@@QAE@XZ 10029024 f i libucrt:output.obj
 0001:0002802c       ??1?$output_processor@_WV?$stream_output_adapter@_W@__crt_stdio_output@@V?$positional_parameter_base@_WV?$stream_output_adapter@_W@__crt_stdio_output@@@2@@__crt_stdio_output@@QAE@XZ 1002902c f i libucrt:output.obj
 0001:00028034       ??1?$output_processor@_WV?$stream_output_adapter@_W@__crt_stdio_output@@V?$standard_base@_WV?$stream_output_adapter@_W@__crt_stdio_output@@@2@@__crt_stdio_output@@QAE@XZ 10029034 f i libucrt:output.obj
 0001:0002803c       ??1?$output_processor@_WV?$string_output_adapter@_W@__crt_stdio_output@@V?$format_validation_base@_WV?$string_output_adapter@_W@__crt_stdio_output@@@2@@__crt_stdio_output@@QAE@XZ 1002903c f i libucrt:output.obj
 0001:00028044       ??1?$output_processor@_WV?$string_output_adapter@_W@__crt_stdio_output@@V?$positional_parameter_base@_WV?$string_output_adapter@_W@__crt_stdio_output@@@2@@__crt_stdio_output@@QAE@XZ 10029044 f i libucrt:output.obj
 0001:0002804c       ??1?$output_processor@_WV?$string_output_adapter@_W@__crt_stdio_output@@V?$standard_base@_WV?$string_output_adapter@_W@__crt_stdio_output@@@2@@__crt_stdio_output@@QAE@XZ 1002904c f i libucrt:output.obj
 0001:00028054       ??1?$positional_parameter_base@DV?$stream_output_adapter@D@__crt_stdio_output@@@__crt_stdio_output@@QAE@XZ 10029054 f i libucrt:output.obj
 0001:0002805c       ??1?$positional_parameter_base@DV?$string_output_adapter@D@__crt_stdio_output@@@__crt_stdio_output@@QAE@XZ 1002905c f i libucrt:output.obj
 0001:00028064       ??1?$positional_parameter_base@_WV?$stream_output_adapter@_W@__crt_stdio_output@@@__crt_stdio_output@@QAE@XZ 10029064 f i libucrt:output.obj
 0001:0002806c       ??1?$positional_parameter_base@_WV?$string_output_adapter@_W@__crt_stdio_output@@@__crt_stdio_output@@QAE@XZ 1002906c f i libucrt:output.obj
 0001:00028074       ??1?$standard_base@DV?$stream_output_adapter@D@__crt_stdio_output@@@__crt_stdio_output@@QAE@XZ 10029074 f i libucrt:output.obj
 0001:0002807c       ??1?$standard_base@DV?$string_output_adapter@D@__crt_stdio_output@@@__crt_stdio_output@@QAE@XZ 1002907c f i libucrt:output.obj
 0001:00028084       ??1?$standard_base@_WV?$stream_output_adapter@_W@__crt_stdio_output@@@__crt_stdio_output@@QAE@XZ 10029084 f i libucrt:output.obj
 0001:0002808c       ??1?$standard_base@_WV?$string_output_adapter@_W@__crt_stdio_output@@@__crt_stdio_output@@QAE@XZ 1002908c f i libucrt:output.obj
 0001:00028094       ??1__acrt_stdio_temporary_buffering_guard@@QAE@XZ 10029094 f i libucrt:output.obj
 0001:000280a7       ??1formatting_buffer@__crt_stdio_output@@QAE@XZ 100290a7 f i libucrt:output.obj
 0001:000280c1       ??1guard@?$cached@H@__crt_cached_ptd_host@@QAE@XZ 100290c1 f i libucrt:output.obj
 0001:000280d7       ??4?$__crt_unique_heap_ptr@DU__crt_internal_free_policy@@@@QAEAAV0@$$QAV0@@Z 100290d7 f i libucrt:output.obj
 0001:000280fb       ??A?$spectre_mitigated_lookup_table@Ustate_transition_pair@__crt_stdio_output@@$0IA@@__crt_stdio_output@@QBEABUstate_transition_pair@1@I@Z 100290fb f i libucrt:output.obj
 0001:0002810d       ??C__crt_stdio_stream@@QBEPAU__crt_stdio_stream_data@@XZ 1002910d f i libucrt:output.obj
 0001:00028576       ?adjust_hexit@?$output_processor@DV?$stream_output_adapter@D@__crt_stdio_output@@V?$format_validation_base@DV?$stream_output_adapter@D@__crt_stdio_output@@@2@@__crt_stdio_output@@CADH_N@Z 10029576 f i libucrt:output.obj
 0001:0002858a       ?adjust_hexit@?$output_processor@DV?$stream_output_adapter@D@__crt_stdio_output@@V?$positional_parameter_base@DV?$stream_output_adapter@D@__crt_stdio_output@@@2@@__crt_stdio_output@@CADH_N@Z 1002958a f i libucrt:output.obj
 0001:0002859e       ?adjust_hexit@?$output_processor@DV?$stream_output_adapter@D@__crt_stdio_output@@V?$standard_base@DV?$stream_output_adapter@D@__crt_stdio_output@@@2@@__crt_stdio_output@@CADH_N@Z 1002959e f i libucrt:output.obj
 0001:000285b2       ?adjust_hexit@?$output_processor@DV?$string_output_adapter@D@__crt_stdio_output@@V?$format_validation_base@DV?$string_output_adapter@D@__crt_stdio_output@@@2@@__crt_stdio_output@@CADH_N@Z 100295b2 f i libucrt:output.obj
 0001:000285c6       ?adjust_hexit@?$output_processor@DV?$string_output_adapter@D@__crt_stdio_output@@V?$positional_parameter_base@DV?$string_output_adapter@D@__crt_stdio_output@@@2@@__crt_stdio_output@@CADH_N@Z 100295c6 f i libucrt:output.obj
 0001:000285da       ?adjust_hexit@?$output_processor@DV?$string_output_adapter@D@__crt_stdio_output@@V?$standard_base@DV?$string_output_adapter@D@__crt_stdio_output@@@2@@__crt_stdio_output@@CADH_N@Z 100295da f i libucrt:output.obj
 0001:000285ee       ?adjust_hexit@?$output_processor@_WV?$stream_output_adapter@_W@__crt_stdio_output@@V?$format_validation_base@_WV?$stream_output_adapter@_W@__crt_stdio_output@@@2@@__crt_stdio_output@@CADH_N@Z 100295ee f i libucrt:output.obj
 0001:00028602       ?adjust_hexit@?$output_processor@_WV?$stream_output_adapter@_W@__crt_stdio_output@@V?$positional_parameter_base@_WV?$stream_output_adapter@_W@__crt_stdio_output@@@2@@__crt_stdio_output@@CADH_N@Z 10029602 f i libucrt:output.obj
 0001:00028616       ?adjust_hexit@?$output_processor@_WV?$stream_output_adapter@_W@__crt_stdio_output@@V?$standard_base@_WV?$stream_output_adapter@_W@__crt_stdio_output@@@2@@__crt_stdio_output@@CADH_N@Z 10029616 f i libucrt:output.obj
 0001:0002862a       ?adjust_hexit@?$output_processor@_WV?$string_output_adapter@_W@__crt_stdio_output@@V?$format_validation_base@_WV?$string_output_adapter@_W@__crt_stdio_output@@@2@@__crt_stdio_output@@CADH_N@Z 1002962a f i libucrt:output.obj
 0001:0002863e       ?adjust_hexit@?$output_processor@_WV?$string_output_adapter@_W@__crt_stdio_output@@V?$positional_parameter_base@_WV?$string_output_adapter@_W@__crt_stdio_output@@@2@@__crt_stdio_output@@CADH_N@Z 1002963e f i libucrt:output.obj
 0001:00028652       ?adjust_hexit@?$output_processor@_WV?$string_output_adapter@_W@__crt_stdio_output@@V?$standard_base@_WV?$string_output_adapter@_W@__crt_stdio_output@@@2@@__crt_stdio_output@@CADH_N@Z 10029652 f i libucrt:output.obj
 0001:00028666       ?advance_to_next_pass@?$positional_parameter_base@DV?$stream_output_adapter@D@__crt_stdio_output@@@__crt_stdio_output@@IAE_NXZ 10029666 f i libucrt:output.obj
 0001:000286b4       ?advance_to_next_pass@?$positional_parameter_base@DV?$string_output_adapter@D@__crt_stdio_output@@@__crt_stdio_output@@IAE_NXZ 100296b4 f i libucrt:output.obj
 0001:00028702       ?advance_to_next_pass@?$positional_parameter_base@_WV?$stream_output_adapter@_W@__crt_stdio_output@@@__crt_stdio_output@@IAE_NXZ 10029702 f i libucrt:output.obj
 0001:00028750       ?advance_to_next_pass@?$positional_parameter_base@_WV?$string_output_adapter@_W@__crt_stdio_output@@@__crt_stdio_output@@IAE_NXZ 10029750 f i libucrt:output.obj
 0001:0002879e       ?advance_to_next_pass@?$standard_base@DV?$stream_output_adapter@D@__crt_stdio_output@@@__crt_stdio_output@@IAE_NXZ 1002979e f i libucrt:output.obj
 0001:000287af       ?advance_to_next_pass@?$standard_base@DV?$string_output_adapter@D@__crt_stdio_output@@@__crt_stdio_output@@IAE_NXZ 100297af f i libucrt:output.obj
 0001:000287c0       ?advance_to_next_pass@?$standard_base@_WV?$stream_output_adapter@_W@__crt_stdio_output@@@__crt_stdio_output@@IAE_NXZ 100297c0 f i libucrt:output.obj
 0001:000287d1       ?advance_to_next_pass@?$standard_base@_WV?$string_output_adapter@_W@__crt_stdio_output@@@__crt_stdio_output@@IAE_NXZ 100297d1 f i libucrt:output.obj
 0001:000287e2       ?check@?$cached@H@__crt_cached_ptd_host@@QBE_NH@Z 100297e2 f i libucrt:output.obj
 0001:000287fe       ?create_guard@?$cached@H@__crt_cached_ptd_host@@QAE?AVguard@12@XZ 100297fe f i libucrt:output.obj
 0001:0002881b       ?crop_zeroes@__crt_stdio_output@@YAXPADQAU__crt_locale_pointers@@@Z 1002981b f i libucrt:output.obj
 0001:0002887b       ?disable@guard@?$cached@H@__crt_cached_ptd_host@@QAEXXZ 1002987b f i libucrt:output.obj
 0001:00028880       ?enable@guard@?$cached@H@__crt_cached_ptd_host@@QAEXXZ 10029880 f i libucrt:output.obj
 0001:00028885       ?find_next_state@?$output_processor@DV?$stream_output_adapter@D@__crt_stdio_output@@V?$format_validation_base@DV?$stream_output_adapter@D@__crt_stdio_output@@@2@@__crt_stdio_output@@ABE?AW4state@2@DW432@@Z 10029885 f i libucrt:output.obj
 0001:000288c2       ?find_next_state@?$output_processor@DV?$stream_output_adapter@D@__crt_stdio_output@@V?$positional_parameter_base@DV?$stream_output_adapter@D@__crt_stdio_output@@@2@@__crt_stdio_output@@ABE?AW4state@2@DW432@@Z 100298c2 f i libucrt:output.obj
 0001:000288ff       ?find_next_state@?$output_processor@DV?$stream_output_adapter@D@__crt_stdio_output@@V?$standard_base@DV?$stream_output_adapter@D@__crt_stdio_output@@@2@@__crt_stdio_output@@ABE?AW4state@2@DW432@@Z 100298ff f i libucrt:output.obj
 0001:0002893a       ?find_next_state@?$output_processor@DV?$string_output_adapter@D@__crt_stdio_output@@V?$format_validation_base@DV?$string_output_adapter@D@__crt_stdio_output@@@2@@__crt_stdio_output@@ABE?AW4state@2@DW432@@Z 1002993a f i libucrt:output.obj
 0001:00028977       ?find_next_state@?$output_processor@DV?$string_output_adapter@D@__crt_stdio_output@@V?$positional_parameter_base@DV?$string_output_adapter@D@__crt_stdio_output@@@2@@__crt_stdio_output@@ABE?AW4state@2@DW432@@Z 10029977 f i libucrt:output.obj
 0001:000289b4       ?find_next_state@?$output_processor@DV?$string_output_adapter@D@__crt_stdio_output@@V?$standard_base@DV?$string_output_adapter@D@__crt_stdio_output@@@2@@__crt_stdio_output@@ABE?AW4state@2@DW432@@Z 100299b4 f i libucrt:output.obj
 0001:000289ef       ?find_next_state@?$output_processor@_WV?$stream_output_adapter@_W@__crt_stdio_output@@V?$format_validation_base@_WV?$stream_output_adapter@_W@__crt_stdio_output@@@2@@__crt_stdio_output@@ABE?AW4state@2@_WW432@@Z 100299ef f i libucrt:output.obj
 0001:00028a2b       ?find_next_state@?$output_processor@_WV?$stream_output_adapter@_W@__crt_stdio_output@@V?$positional_parameter_base@_WV?$stream_output_adapter@_W@__crt_stdio_output@@@2@@__crt_stdio_output@@ABE?AW4state@2@_WW432@@Z 10029a2b f i libucrt:output.obj
 0001:00028a67       ?find_next_state@?$output_processor@_WV?$stream_output_adapter@_W@__crt_stdio_output@@V?$standard_base@_WV?$stream_output_adapter@_W@__crt_stdio_output@@@2@@__crt_stdio_output@@ABE?AW4state@2@_WW432@@Z 10029a67 f i libucrt:output.obj
 0001:00028aa1       ?find_next_state@?$output_processor@_WV?$string_output_adapter@_W@__crt_stdio_output@@V?$format_validation_base@_WV?$string_output_adapter@_W@__crt_stdio_output@@@2@@__crt_stdio_output@@ABE?AW4state@2@_WW432@@Z 10029aa1 f i libucrt:output.obj
 0001:00028add       ?find_next_state@?$output_processor@_WV?$string_output_adapter@_W@__crt_stdio_output@@V?$positional_parameter_base@_WV?$string_output_adapter@_W@__crt_stdio_output@@@2@@__crt_stdio_output@@ABE?AW4state@2@_WW432@@Z 10029add f i libucrt:output.obj
 0001:00028b19       ?find_next_state@?$output_processor@_WV?$string_output_adapter@_W@__crt_stdio_output@@V?$standard_base@_WV?$string_output_adapter@_W@__crt_stdio_output@@@2@@__crt_stdio_output@@ABE?AW4state@2@_WW432@@Z 10029b19 f i libucrt:output.obj
 0001:00028b53       ?force_decimal_point@__crt_stdio_output@@YAXPADQAU__crt_locale_pointers@@@Z 10029b53 f i libucrt:output.obj
 0001:00028baf       ?get@?$c_string_character_source@D@__crt_strtox@@QAEDXZ 10029baf f i libucrt:output.obj
 0001:00028bb7       ?get@?$c_string_character_source@_W@__crt_strtox@@QAE_WXZ 10029bb7 f i libucrt:output.obj
 0001:00028bc2       ?get_flags@__crt_stdio_stream@@QBEJXZ 10029bc2 f i libucrt:output.obj
 0001:00028bc9       ?get_parameter_type@?$positional_parameter_base@DV?$stream_output_adapter@D@__crt_stdio_output@@@__crt_stdio_output@@CA?AW4parameter_type@12@F@Z 10029bc9 f i libucrt:output.obj
 0001:00028bcd       ?get_parameter_type@?$positional_parameter_base@DV?$stream_output_adapter@D@__crt_stdio_output@@@__crt_stdio_output@@CA?AW4parameter_type@12@G@Z 10029bcd f i libucrt:output.obj
 0001:00028bd1       ?get_parameter_type@?$positional_parameter_base@DV?$stream_output_adapter@D@__crt_stdio_output@@@__crt_stdio_output@@CA?AW4parameter_type@12@H@Z 10029bd1 f i libucrt:output.obj
 0001:00028bd5       ?get_parameter_type@?$positional_parameter_base@DV?$stream_output_adapter@D@__crt_stdio_output@@@__crt_stdio_output@@CA?AW4parameter_type@12@I@Z 10029bd5 f i libucrt:output.obj
 0001:00028bd9       ?get_parameter_type@?$positional_parameter_base@DV?$stream_output_adapter@D@__crt_stdio_output@@@__crt_stdio_output@@CA?AW4parameter_type@12@U_CRT_DOUBLE@@@Z 10029bd9 f i libucrt:output.obj
 0001:00028bdd       ?get_parameter_type@?$positional_parameter_base@DV?$stream_output_adapter@D@__crt_stdio_output@@@__crt_stdio_output@@CA?AW4parameter_type@12@_J@Z 10029bdd f i libucrt:output.obj
 0001:00028be1       ?get_parameter_type@?$positional_parameter_base@DV?$stream_output_adapter@D@__crt_stdio_output@@@__crt_stdio_output@@CA?AW4parameter_type@12@_K@Z 10029be1 f i libucrt:output.obj
 0001:00028be5       ?get_parameter_type@?$positional_parameter_base@DV?$stream_output_adapter@D@__crt_stdio_output@@@__crt_stdio_output@@CA?AW4parameter_type@12@_W@Z 10029be5 f i libucrt:output.obj
 0001:00028be9       ?get_parameter_type@?$positional_parameter_base@DV?$string_output_adapter@D@__crt_stdio_output@@@__crt_stdio_output@@CA?AW4parameter_type@12@F@Z 10029be9 f i libucrt:output.obj
 0001:00028bed       ?get_parameter_type@?$positional_parameter_base@DV?$string_output_adapter@D@__crt_stdio_output@@@__crt_stdio_output@@CA?AW4parameter_type@12@G@Z 10029bed f i libucrt:output.obj
 0001:00028bf1       ?get_parameter_type@?$positional_parameter_base@DV?$string_output_adapter@D@__crt_stdio_output@@@__crt_stdio_output@@CA?AW4parameter_type@12@H@Z 10029bf1 f i libucrt:output.obj
 0001:00028bf5       ?get_parameter_type@?$positional_parameter_base@DV?$string_output_adapter@D@__crt_stdio_output@@@__crt_stdio_output@@CA?AW4parameter_type@12@I@Z 10029bf5 f i libucrt:output.obj
 0001:00028bf9       ?get_parameter_type@?$positional_parameter_base@DV?$string_output_adapter@D@__crt_stdio_output@@@__crt_stdio_output@@CA?AW4parameter_type@12@U_CRT_DOUBLE@@@Z 10029bf9 f i libucrt:output.obj
 0001:00028bfd       ?get_parameter_type@?$positional_parameter_base@DV?$string_output_adapter@D@__crt_stdio_output@@@__crt_stdio_output@@CA?AW4parameter_type@12@_J@Z 10029bfd f i libucrt:output.obj
 0001:00028c01       ?get_parameter_type@?$positional_parameter_base@DV?$string_output_adapter@D@__crt_stdio_output@@@__crt_stdio_output@@CA?AW4parameter_type@12@_K@Z 10029c01 f i libucrt:output.obj
 0001:00028c05       ?get_parameter_type@?$positional_parameter_base@DV?$string_output_adapter@D@__crt_stdio_output@@@__crt_stdio_output@@CA?AW4parameter_type@12@_W@Z 10029c05 f i libucrt:output.obj
 0001:00028c09       ?get_parameter_type@?$positional_parameter_base@_WV?$stream_output_adapter@_W@__crt_stdio_output@@@__crt_stdio_output@@CA?AW4parameter_type@12@F@Z 10029c09 f i libucrt:output.obj
 0001:00028c0d       ?get_parameter_type@?$positional_parameter_base@_WV?$stream_output_adapter@_W@__crt_stdio_output@@@__crt_stdio_output@@CA?AW4parameter_type@12@G@Z 10029c0d f i libucrt:output.obj
 0001:00028c11       ?get_parameter_type@?$positional_parameter_base@_WV?$stream_output_adapter@_W@__crt_stdio_output@@@__crt_stdio_output@@CA?AW4parameter_type@12@H@Z 10029c11 f i libucrt:output.obj
 0001:00028c15       ?get_parameter_type@?$positional_parameter_base@_WV?$stream_output_adapter@_W@__crt_stdio_output@@@__crt_stdio_output@@CA?AW4parameter_type@12@I@Z 10029c15 f i libucrt:output.obj
 0001:00028c19       ?get_parameter_type@?$positional_parameter_base@_WV?$stream_output_adapter@_W@__crt_stdio_output@@@__crt_stdio_output@@CA?AW4parameter_type@12@U_CRT_DOUBLE@@@Z 10029c19 f i libucrt:output.obj
 0001:00028c1d       ?get_parameter_type@?$positional_parameter_base@_WV?$stream_output_adapter@_W@__crt_stdio_output@@@__crt_stdio_output@@CA?AW4parameter_type@12@_J@Z 10029c1d f i libucrt:output.obj
 0001:00028c21       ?get_parameter_type@?$positional_parameter_base@_WV?$stream_output_adapter@_W@__crt_stdio_output@@@__crt_stdio_output@@CA?AW4parameter_type@12@_K@Z 10029c21 f i libucrt:output.obj
 0001:00028c25       ?get_parameter_type@?$positional_parameter_base@_WV?$stream_output_adapter@_W@__crt_stdio_output@@@__crt_stdio_output@@CA?AW4parameter_type@12@_W@Z 10029c25 f i libucrt:output.obj
 0001:00028c29       ?get_parameter_type@?$positional_parameter_base@_WV?$string_output_adapter@_W@__crt_stdio_output@@@__crt_stdio_output@@CA?AW4parameter_type@12@F@Z 10029c29 f i libucrt:output.obj
 0001:00028c2d       ?get_parameter_type@?$positional_parameter_base@_WV?$string_output_adapter@_W@__crt_stdio_output@@@__crt_stdio_output@@CA?AW4parameter_type@12@G@Z 10029c2d f i libucrt:output.obj
 0001:00028c31       ?get_parameter_type@?$positional_parameter_base@_WV?$string_output_adapter@_W@__crt_stdio_output@@@__crt_stdio_output@@CA?AW4parameter_type@12@H@Z 10029c31 f i libucrt:output.obj
 0001:00028c35       ?get_parameter_type@?$positional_parameter_base@_WV?$string_output_adapter@_W@__crt_stdio_output@@@__crt_stdio_output@@CA?AW4parameter_type@12@I@Z 10029c35 f i libucrt:output.obj
 0001:00028c39       ?get_parameter_type@?$positional_parameter_base@_WV?$string_output_adapter@_W@__crt_stdio_output@@@__crt_stdio_output@@CA?AW4parameter_type@12@U_CRT_DOUBLE@@@Z 10029c39 f i libucrt:output.obj
 0001:00028c3d       ?get_parameter_type@?$positional_parameter_base@_WV?$string_output_adapter@_W@__crt_stdio_output@@@__crt_stdio_output@@CA?AW4parameter_type@12@_J@Z 10029c3d f i libucrt:output.obj
 0001:00028c41       ?get_parameter_type@?$positional_parameter_base@_WV?$string_output_adapter@_W@__crt_stdio_output@@@__crt_stdio_output@@CA?AW4parameter_type@12@_K@Z 10029c41 f i libucrt:output.obj
 0001:00028c45       ?get_parameter_type@?$positional_parameter_base@_WV?$string_output_adapter@_W@__crt_stdio_output@@@__crt_stdio_output@@CA?AW4parameter_type@12@_W@Z 10029c45 f i libucrt:output.obj
 0001:00028c49       ?has_flag@?$output_processor@DV?$stream_output_adapter@D@__crt_stdio_output@@V?$format_validation_base@DV?$stream_output_adapter@D@__crt_stdio_output@@@2@@__crt_stdio_output@@ABE_NI@Z 10029c49 f i libucrt:output.obj
 0001:00028c5b       ?has_flag@?$output_processor@DV?$stream_output_adapter@D@__crt_stdio_output@@V?$positional_parameter_base@DV?$stream_output_adapter@D@__crt_stdio_output@@@2@@__crt_stdio_output@@ABE_NI@Z 10029c5b f i libucrt:output.obj
 0001:00028c6d       ?has_flag@?$output_processor@DV?$stream_output_adapter@D@__crt_stdio_output@@V?$standard_base@DV?$stream_output_adapter@D@__crt_stdio_output@@@2@@__crt_stdio_output@@ABE_NI@Z 10029c6d f i libucrt:output.obj
 0001:00028c7f       ?has_flag@?$output_processor@DV?$string_output_adapter@D@__crt_stdio_output@@V?$format_validation_base@DV?$string_output_adapter@D@__crt_stdio_output@@@2@@__crt_stdio_output@@ABE_NI@Z 10029c7f f i libucrt:output.obj
 0001:00028c91       ?has_flag@?$output_processor@DV?$string_output_adapter@D@__crt_stdio_output@@V?$positional_parameter_base@DV?$string_output_adapter@D@__crt_stdio_output@@@2@@__crt_stdio_output@@ABE_NI@Z 10029c91 f i libucrt:output.obj
 0001:00028ca3       ?has_flag@?$output_processor@DV?$string_output_adapter@D@__crt_stdio_output@@V?$standard_base@DV?$string_output_adapter@D@__crt_stdio_output@@@2@@__crt_stdio_output@@ABE_NI@Z 10029ca3 f i libucrt:output.obj
 0001:00028cb5       ?has_flag@?$output_processor@_WV?$stream_output_adapter@_W@__crt_stdio_output@@V?$format_validation_base@_WV?$stream_output_adapter@_W@__crt_stdio_output@@@2@@__crt_stdio_output@@ABE_NI@Z 10029cb5 f i libucrt:output.obj
 0001:00028cc7       ?has_flag@?$output_processor@_WV?$stream_output_adapter@_W@__crt_stdio_output@@V?$positional_parameter_base@_WV?$stream_output_adapter@_W@__crt_stdio_output@@@2@@__crt_stdio_output@@ABE_NI@Z 10029cc7 f i libucrt:output.obj
 0001:00028cd9       ?has_flag@?$output_processor@_WV?$stream_output_adapter@_W@__crt_stdio_output@@V?$standard_base@_WV?$stream_output_adapter@_W@__crt_stdio_output@@@2@@__crt_stdio_output@@ABE_NI@Z 10029cd9 f i libucrt:output.obj
 0001:00028ceb       ?has_flag@?$output_processor@_WV?$string_output_adapter@_W@__crt_stdio_output@@V?$format_validation_base@_WV?$string_output_adapter@_W@__crt_stdio_output@@@2@@__crt_stdio_output@@ABE_NI@Z 10029ceb f i libucrt:output.obj
 0001:00028cfd       ?has_flag@?$output_processor@_WV?$string_output_adapter@_W@__crt_stdio_output@@V?$positional_parameter_base@_WV?$string_output_adapter@_W@__crt_stdio_output@@@2@@__crt_stdio_output@@ABE_NI@Z 10029cfd f i libucrt:output.obj
 0001:00028d0f       ?has_flag@?$output_processor@_WV?$string_output_adapter@_W@__crt_stdio_output@@V?$standard_base@_WV?$string_output_adapter@_W@__crt_stdio_output@@@2@@__crt_stdio_output@@ABE_NI@Z 10029d0f f i libucrt:output.obj
 0001:00028d21       ?is_positional_parameter_reappearance_consistent@?$positional_parameter_base@DV?$stream_output_adapter@D@__crt_stdio_output@@@__crt_stdio_output@@AAE_NABUparameter_data@12@W4parameter_type@12@DW4length_modifier@2@@Z 10029d21 f i libucrt:output.obj
 0001:00028e3b       ?is_positional_parameter_reappearance_consistent@?$positional_parameter_base@DV?$string_output_adapter@D@__crt_stdio_output@@@__crt_stdio_output@@AAE_NABUparameter_data@12@W4parameter_type@12@DW4length_modifier@2@@Z 10029e3b f i libucrt:output.obj
 0001:00028f55       ?is_positional_parameter_reappearance_consistent@?$positional_parameter_base@_WV?$stream_output_adapter@_W@__crt_stdio_output@@@__crt_stdio_output@@AAE_NABUparameter_data@12@W4parameter_type@12@_WW4length_modifier@2@@Z 10029f55 f i libucrt:output.obj
 0001:00029070       ?is_positional_parameter_reappearance_consistent@?$positional_parameter_base@_WV?$string_output_adapter@_W@__crt_stdio_output@@@__crt_stdio_output@@AAE_NABUparameter_data@12@W4parameter_type@12@_WW4length_modifier@2@@Z 1002a070 f i libucrt:output.obj
 0001:0002918b       ?is_string_backed@__crt_stdio_stream@@QBE_NXZ 1002a18b f i libucrt:output.obj
 0001:00029197       ?maximum_signed_value@__crt_strtox@@YAJK@Z 1002a197 f i libucrt:output.obj
 0001:0002919d       ?minimum_signed_value@__crt_strtox@@YAJK@Z 1002a19d f i libucrt:output.obj
 0001:000291a3       ?narrow_null_string@?$output_processor@DV?$stream_output_adapter@D@__crt_stdio_output@@V?$format_validation_base@DV?$stream_output_adapter@D@__crt_stdio_output@@@2@@__crt_stdio_output@@CAPADXZ 1002a1a3 f i libucrt:output.obj
 0001:000291a9       ?narrow_null_string@?$output_processor@DV?$stream_output_adapter@D@__crt_stdio_output@@V?$positional_parameter_base@DV?$stream_output_adapter@D@__crt_stdio_output@@@2@@__crt_stdio_output@@CAPADXZ 1002a1a9 f i libucrt:output.obj
 0001:000291af       ?narrow_null_string@?$output_processor@DV?$stream_output_adapter@D@__crt_stdio_output@@V?$standard_base@DV?$stream_output_adapter@D@__crt_stdio_output@@@2@@__crt_stdio_output@@CAPADXZ 1002a1af f i libucrt:output.obj
 0001:000291b5       ?narrow_null_string@?$output_processor@DV?$string_output_adapter@D@__crt_stdio_output@@V?$format_validation_base@DV?$string_output_adapter@D@__crt_stdio_output@@@2@@__crt_stdio_output@@CAPADXZ 1002a1b5 f i libucrt:output.obj
 0001:000291bb       ?narrow_null_string@?$output_processor@DV?$string_output_adapter@D@__crt_stdio_output@@V?$positional_parameter_base@DV?$string_output_adapter@D@__crt_stdio_output@@@2@@__crt_stdio_output@@CAPADXZ 1002a1bb f i libucrt:output.obj
 0001:000291c1       ?narrow_null_string@?$output_processor@DV?$string_output_adapter@D@__crt_stdio_output@@V?$standard_base@DV?$string_output_adapter@D@__crt_stdio_output@@@2@@__crt_stdio_output@@CAPADXZ 1002a1c1 f i libucrt:output.obj
 0001:000291c7       ?narrow_null_string@?$output_processor@_WV?$stream_output_adapter@_W@__crt_stdio_output@@V?$format_validation_base@_WV?$stream_output_adapter@_W@__crt_stdio_output@@@2@@__crt_stdio_output@@CAPADXZ 1002a1c7 f i libucrt:output.obj
 0001:000291cd       ?narrow_null_string@?$output_processor@_WV?$stream_output_adapter@_W@__crt_stdio_output@@V?$positional_parameter_base@_WV?$stream_output_adapter@_W@__crt_stdio_output@@@2@@__crt_stdio_output@@CAPADXZ 1002a1cd f i libucrt:output.obj
 0001:000291d3       ?narrow_null_string@?$output_processor@_WV?$stream_output_adapter@_W@__crt_stdio_output@@V?$standard_base@_WV?$stream_output_adapter@_W@__crt_stdio_output@@@2@@__crt_stdio_output@@CAPADXZ 1002a1d3 f i libucrt:output.obj
 0001:000291d9       ?narrow_null_string@?$output_processor@_WV?$string_output_adapter@_W@__crt_stdio_output@@V?$format_validation_base@_WV?$string_output_adapter@_W@__crt_stdio_output@@@2@@__crt_stdio_output@@CAPADXZ 1002a1d9 f i libucrt:output.obj
 0001:000291df       ?narrow_null_string@?$output_processor@_WV?$string_output_adapter@_W@__crt_stdio_output@@V?$positional_parameter_base@_WV?$string_output_adapter@_W@__crt_stdio_output@@@2@@__crt_stdio_output@@CAPADXZ 1002a1df f i libucrt:output.obj
 0001:000291e5       ?narrow_null_string@?$output_processor@_WV?$string_output_adapter@_W@__crt_stdio_output@@V?$standard_base@_WV?$string_output_adapter@_W@__crt_stdio_output@@@2@@__crt_stdio_output@@CAPADXZ 1002a1e5 f i libucrt:output.obj
 0001:000291eb       ?parse_digit@__crt_strtox@@YAID@Z 1002a1eb f i libucrt:output.obj
 0001:00029225       ?parse_digit@__crt_strtox@@YAI_W@Z 1002a225 f i libucrt:output.obj
 0001:000293ed       ?parse_int_from_format_string@?$output_processor@DV?$stream_output_adapter@D@__crt_stdio_output@@V?$format_validation_base@DV?$stream_output_adapter@D@__crt_stdio_output@@@2@@__crt_stdio_output@@AAE_NQAH@Z 1002a3ed f i libucrt:output.obj
 0001:00029465       ?parse_int_from_format_string@?$output_processor@DV?$stream_output_adapter@D@__crt_stdio_output@@V?$positional_parameter_base@DV?$stream_output_adapter@D@__crt_stdio_output@@@2@@__crt_stdio_output@@AAE_NQAH@Z 1002a465 f i libucrt:output.obj
 0001:000294dd       ?parse_int_from_format_string@?$output_processor@DV?$stream_output_adapter@D@__crt_stdio_output@@V?$standard_base@DV?$stream_output_adapter@D@__crt_stdio_output@@@2@@__crt_stdio_output@@AAE_NQAH@Z 1002a4dd f i libucrt:output.obj
 0001:00029555       ?parse_int_from_format_string@?$output_processor@DV?$string_output_adapter@D@__crt_stdio_output@@V?$format_validation_base@DV?$string_output_adapter@D@__crt_stdio_output@@@2@@__crt_stdio_output@@AAE_NQAH@Z 1002a555 f i libucrt:output.obj
 0001:000295cd       ?parse_int_from_format_string@?$output_processor@DV?$string_output_adapter@D@__crt_stdio_output@@V?$positional_parameter_base@DV?$string_output_adapter@D@__crt_stdio_output@@@2@@__crt_stdio_output@@AAE_NQAH@Z 1002a5cd f i libucrt:output.obj
 0001:00029645       ?parse_int_from_format_string@?$output_processor@DV?$string_output_adapter@D@__crt_stdio_output@@V?$standard_base@DV?$string_output_adapter@D@__crt_stdio_output@@@2@@__crt_stdio_output@@AAE_NQAH@Z 1002a645 f i libucrt:output.obj
 0001:000296bd       ?parse_int_from_format_string@?$output_processor@_WV?$stream_output_adapter@_W@__crt_stdio_output@@V?$format_validation_base@_WV?$stream_output_adapter@_W@__crt_stdio_output@@@2@@__crt_stdio_output@@AAE_NQAH@Z 1002a6bd f i libucrt:output.obj
 0001:00029737       ?parse_int_from_format_string@?$output_processor@_WV?$stream_output_adapter@_W@__crt_stdio_output@@V?$positional_parameter_base@_WV?$stream_output_adapter@_W@__crt_stdio_output@@@2@@__crt_stdio_output@@AAE_NQAH@Z 1002a737 f i libucrt:output.obj
 0001:000297b1       ?parse_int_from_format_string@?$output_processor@_WV?$stream_output_adapter@_W@__crt_stdio_output@@V?$standard_base@_WV?$stream_output_adapter@_W@__crt_stdio_output@@@2@@__crt_stdio_output@@AAE_NQAH@Z 1002a7b1 f i libucrt:output.obj
 0001:0002982b       ?parse_int_from_format_string@?$output_processor@_WV?$string_output_adapter@_W@__crt_stdio_output@@V?$format_validation_base@_WV?$string_output_adapter@_W@__crt_stdio_output@@@2@@__crt_stdio_output@@AAE_NQAH@Z 1002a82b f i libucrt:output.obj
 0001:000298a5       ?parse_int_from_format_string@?$output_processor@_WV?$string_output_adapter@_W@__crt_stdio_output@@V?$positional_parameter_base@_WV?$string_output_adapter@_W@__crt_stdio_output@@@2@@__crt_stdio_output@@AAE_NQAH@Z 1002a8a5 f i libucrt:output.obj
 0001:0002991f       ?parse_int_from_format_string@?$output_processor@_WV?$string_output_adapter@_W@__crt_stdio_output@@V?$standard_base@_WV?$string_output_adapter@_W@__crt_stdio_output@@@2@@__crt_stdio_output@@AAE_NQAH@Z 1002a91f f i libucrt:output.obj
 0001:00029999       ?process@?$output_processor@DV?$stream_output_adapter@D@__crt_stdio_output@@V?$format_validation_base@DV?$stream_output_adapter@D@__crt_stdio_output@@@2@@__crt_stdio_output@@QAEHXZ 1002a999 f i libucrt:output.obj
 0001:00029c59       ?process@?$output_processor@DV?$stream_output_adapter@D@__crt_stdio_output@@V?$positional_parameter_base@DV?$stream_output_adapter@D@__crt_stdio_output@@@2@@__crt_stdio_output@@QAEHXZ 1002ac59 f i libucrt:output.obj
 0001:00029f2d       ?process@?$output_processor@DV?$stream_output_adapter@D@__crt_stdio_output@@V?$standard_base@DV?$stream_output_adapter@D@__crt_stdio_output@@@2@@__crt_stdio_output@@QAEHXZ 1002af2d f i libucrt:output.obj
 0001:0002a1dd       ?process@?$output_processor@DV?$string_output_adapter@D@__crt_stdio_output@@V?$format_validation_base@DV?$string_output_adapter@D@__crt_stdio_output@@@2@@__crt_stdio_output@@QAEHXZ 1002b1dd f i libucrt:output.obj
 0001:0002a4c1       ?process@?$output_processor@DV?$string_output_adapter@D@__crt_stdio_output@@V?$positional_parameter_base@DV?$string_output_adapter@D@__crt_stdio_output@@@2@@__crt_stdio_output@@QAEHXZ 1002b4c1 f i libucrt:output.obj
 0001:0002a7c1       ?process@?$output_processor@DV?$string_output_adapter@D@__crt_stdio_output@@V?$standard_base@DV?$string_output_adapter@D@__crt_stdio_output@@@2@@__crt_stdio_output@@QAEHXZ 1002b7c1 f i libucrt:output.obj
 0001:0002aa95       ?process@?$output_processor@_WV?$stream_output_adapter@_W@__crt_stdio_output@@V?$format_validation_base@_WV?$stream_output_adapter@_W@__crt_stdio_output@@@2@@__crt_stdio_output@@QAEHXZ 1002ba95 f i libucrt:output.obj
 0001:0002acb1       ?process@?$output_processor@_WV?$stream_output_adapter@_W@__crt_stdio_output@@V?$positional_parameter_base@_WV?$stream_output_adapter@_W@__crt_stdio_output@@@2@@__crt_stdio_output@@QAEHXZ 1002bcb1 f i libucrt:output.obj
 0001:0002af05       ?process@?$output_processor@_WV?$stream_output_adapter@_W@__crt_stdio_output@@V?$standard_base@_WV?$stream_output_adapter@_W@__crt_stdio_output@@@2@@__crt_stdio_output@@QAEHXZ 1002bf05 f i libucrt:output.obj
 0001:0002b115       ?process@?$output_processor@_WV?$string_output_adapter@_W@__crt_stdio_output@@V?$format_validation_base@_WV?$string_output_adapter@_W@__crt_stdio_output@@@2@@__crt_stdio_output@@QAEHXZ 1002c115 f i libucrt:output.obj
 0001:0002b355       ?process@?$output_processor@_WV?$string_output_adapter@_W@__crt_stdio_output@@V?$positional_parameter_base@_WV?$string_output_adapter@_W@__crt_stdio_output@@@2@@__crt_stdio_output@@QAEHXZ 1002c355 f i libucrt:output.obj
 0001:0002b5bd       ?process@?$output_processor@_WV?$string_output_adapter@_W@__crt_stdio_output@@V?$standard_base@_WV?$string_output_adapter@_W@__crt_stdio_output@@@2@@__crt_stdio_output@@QAEHXZ 1002c5bd f i libucrt:output.obj
 0001:0002b7f9       ?public_stream@__crt_stdio_stream@@QBEPAU_iobuf@@XZ 1002c7f9 f i libucrt:output.obj
 0001:0002b7fc       ?restore_state@?$c_string_character_source@D@__crt_strtox@@QAE_NQBD@Z 1002c7fc f i libucrt:output.obj
 0001:0002b80c       ?restore_state@?$c_string_character_source@_W@__crt_strtox@@QAE_NQB_W@Z 1002c80c f i libucrt:output.obj
 0001:0002b81c       ?save_state@?$c_string_character_source@D@__crt_strtox@@QBEPBDXZ 1002c81c f i libucrt:output.obj
 0001:0002b81f       ?save_state@?$c_string_character_source@_W@__crt_strtox@@QBEPB_WXZ 1002c81f f i libucrt:output.obj
 0001:0002b822       ?set_flag@?$output_processor@DV?$stream_output_adapter@D@__crt_stdio_output@@V?$format_validation_base@DV?$stream_output_adapter@D@__crt_stdio_output@@@2@@__crt_stdio_output@@AAEXI@Z 1002c822 f i libucrt:output.obj
 0001:0002b831       ?set_flag@?$output_processor@DV?$stream_output_adapter@D@__crt_stdio_output@@V?$positional_parameter_base@DV?$stream_output_adapter@D@__crt_stdio_output@@@2@@__crt_stdio_output@@AAEXI@Z 1002c831 f i libucrt:output.obj
 0001:0002b840       ?set_flag@?$output_processor@DV?$stream_output_adapter@D@__crt_stdio_output@@V?$standard_base@DV?$stream_output_adapter@D@__crt_stdio_output@@@2@@__crt_stdio_output@@AAEXI@Z 1002c840 f i libucrt:output.obj
 0001:0002b84f       ?set_flag@?$output_processor@DV?$string_output_adapter@D@__crt_stdio_output@@V?$format_validation_base@DV?$string_output_adapter@D@__crt_stdio_output@@@2@@__crt_stdio_output@@AAEXI@Z 1002c84f f i libucrt:output.obj
 0001:0002b85e       ?set_flag@?$output_processor@DV?$string_output_adapter@D@__crt_stdio_output@@V?$positional_parameter_base@DV?$string_output_adapter@D@__crt_stdio_output@@@2@@__crt_stdio_output@@AAEXI@Z 1002c85e f i libucrt:output.obj
 0001:0002b86d       ?set_flag@?$output_processor@DV?$string_output_adapter@D@__crt_stdio_output@@V?$standard_base@DV?$string_output_adapter@D@__crt_stdio_output@@@2@@__crt_stdio_output@@AAEXI@Z 1002c86d f i libucrt:output.obj
 0001:0002b87c       ?set_flag@?$output_processor@_WV?$stream_output_adapter@_W@__crt_stdio_output@@V?$format_validation_base@_WV?$stream_output_adapter@_W@__crt_stdio_output@@@2@@__crt_stdio_output@@AAEXI@Z 1002c87c f i libucrt:output.obj
 0001:0002b88b       ?set_flag@?$output_processor@_WV?$stream_output_adapter@_W@__crt_stdio_output@@V?$positional_parameter_base@_WV?$stream_output_adapter@_W@__crt_stdio_output@@@2@@__crt_stdio_output@@AAEXI@Z 1002c88b f i libucrt:output.obj
 0001:0002b89a       ?set_flag@?$output_processor@_WV?$stream_output_adapter@_W@__crt_stdio_output@@V?$standard_base@_WV?$stream_output_adapter@_W@__crt_stdio_output@@@2@@__crt_stdio_output@@AAEXI@Z 1002c89a f i libucrt:output.obj
 0001:0002b8a9       ?set_flag@?$output_processor@_WV?$string_output_adapter@_W@__crt_stdio_output@@V?$format_validation_base@_WV?$string_output_adapter@_W@__crt_stdio_output@@@2@@__crt_stdio_output@@AAEXI@Z 1002c8a9 f i libucrt:output.obj
 0001:0002b8b8       ?set_flag@?$output_processor@_WV?$string_output_adapter@_W@__crt_stdio_output@@V?$positional_parameter_base@_WV?$string_output_adapter@_W@__crt_stdio_output@@@2@@__crt_stdio_output@@AAEXI@Z 1002c8b8 f i libucrt:output.obj
 0001:0002b8c7       ?set_flag@?$output_processor@_WV?$string_output_adapter@_W@__crt_stdio_output@@V?$standard_base@_WV?$string_output_adapter@_W@__crt_stdio_output@@@2@@__crt_stdio_output@@AAEXI@Z 1002c8c7 f i libucrt:output.obj
 0001:0002b8d6       ?should_format@?$positional_parameter_base@DV?$stream_output_adapter@D@__crt_stdio_output@@@__crt_stdio_output@@IAE_NXZ 1002c8d6 f i libucrt:output.obj
 0001:0002b8ec       ?should_format@?$positional_parameter_base@DV?$string_output_adapter@D@__crt_stdio_output@@@__crt_stdio_output@@IAE_NXZ 1002c8ec f i libucrt:output.obj
 0001:0002b902       ?should_format@?$positional_parameter_base@_WV?$stream_output_adapter@_W@__crt_stdio_output@@@__crt_stdio_output@@IAE_NXZ 1002c902 f i libucrt:output.obj
 0001:0002b918       ?should_format@?$positional_parameter_base@_WV?$string_output_adapter@_W@__crt_stdio_output@@@__crt_stdio_output@@IAE_NXZ 1002c918 f i libucrt:output.obj
 0001:0002b92e       ?should_format@?$standard_base@DV?$stream_output_adapter@D@__crt_stdio_output@@@__crt_stdio_output@@IAE_NXZ 1002c92e f i libucrt:output.obj
 0001:0002b931       ?should_format@?$standard_base@DV?$string_output_adapter@D@__crt_stdio_output@@@__crt_stdio_output@@IAE_NXZ 1002c931 f i libucrt:output.obj
 0001:0002b934       ?should_format@?$standard_base@_WV?$stream_output_adapter@_W@__crt_stdio_output@@@__crt_stdio_output@@IAE_NXZ 1002c934 f i libucrt:output.obj
 0001:0002b937       ?should_format@?$standard_base@_WV?$string_output_adapter@_W@__crt_stdio_output@@@__crt_stdio_output@@IAE_NXZ 1002c937 f i libucrt:output.obj
 0001:0002b93a       ?should_skip_normal_state_processing@?$positional_parameter_base@DV?$stream_output_adapter@D@__crt_stdio_output@@@__crt_stdio_output@@IAE_NXZ 1002c93a f i libucrt:output.obj
 0001:0002b964       ?should_skip_normal_state_processing@?$positional_parameter_base@DV?$string_output_adapter@D@__crt_stdio_output@@@__crt_stdio_output@@IAE_NXZ 1002c964 f i libucrt:output.obj
 0001:0002b98e       ?should_skip_normal_state_processing@?$positional_parameter_base@_WV?$stream_output_adapter@_W@__crt_stdio_output@@@__crt_stdio_output@@IAE_NXZ 1002c98e f i libucrt:output.obj
 0001:0002b9b8       ?should_skip_normal_state_processing@?$positional_parameter_base@_WV?$string_output_adapter@_W@__crt_stdio_output@@@__crt_stdio_output@@IAE_NXZ 1002c9b8 f i libucrt:output.obj
 0001:0002b9e2       ?should_skip_normal_state_processing@?$standard_base@DV?$stream_output_adapter@D@__crt_stdio_output@@@__crt_stdio_output@@IAE_NXZ 1002c9e2 f i libucrt:output.obj
 0001:0002b9e5       ?should_skip_normal_state_processing@?$standard_base@DV?$string_output_adapter@D@__crt_stdio_output@@@__crt_stdio_output@@IAE_NXZ 1002c9e5 f i libucrt:output.obj
 0001:0002b9e8       ?should_skip_normal_state_processing@?$standard_base@_WV?$stream_output_adapter@_W@__crt_stdio_output@@@__crt_stdio_output@@IAE_NXZ 1002c9e8 f i libucrt:output.obj
 0001:0002b9eb       ?should_skip_normal_state_processing@?$standard_base@_WV?$string_output_adapter@_W@__crt_stdio_output@@@__crt_stdio_output@@IAE_NXZ 1002c9eb f i libucrt:output.obj
 0001:0002b9ee       ?should_skip_type_state_output@?$positional_parameter_base@DV?$stream_output_adapter@D@__crt_stdio_output@@@__crt_stdio_output@@IBE_NXZ 1002c9ee f i libucrt:output.obj
 0001:0002ba05       ?should_skip_type_state_output@?$positional_parameter_base@DV?$string_output_adapter@D@__crt_stdio_output@@@__crt_stdio_output@@IBE_NXZ 1002ca05 f i libucrt:output.obj
 0001:0002ba1c       ?should_skip_type_state_output@?$positional_parameter_base@_WV?$stream_output_adapter@_W@__crt_stdio_output@@@__crt_stdio_output@@IBE_NXZ 1002ca1c f i libucrt:output.obj
 0001:0002ba33       ?should_skip_type_state_output@?$positional_parameter_base@_WV?$string_output_adapter@_W@__crt_stdio_output@@@__crt_stdio_output@@IBE_NXZ 1002ca33 f i libucrt:output.obj
 0001:0002ba4a       ?should_skip_type_state_output@?$standard_base@DV?$stream_output_adapter@D@__crt_stdio_output@@@__crt_stdio_output@@IBE_NXZ 1002ca4a f i libucrt:output.obj
 0001:0002ba4d       ?should_skip_type_state_output@?$standard_base@DV?$string_output_adapter@D@__crt_stdio_output@@@__crt_stdio_output@@IBE_NXZ 1002ca4d f i libucrt:output.obj
 0001:0002ba50       ?should_skip_type_state_output@?$standard_base@_WV?$stream_output_adapter@_W@__crt_stdio_output@@@__crt_stdio_output@@IBE_NXZ 1002ca50 f i libucrt:output.obj
 0001:0002ba53       ?should_skip_type_state_output@?$standard_base@_WV?$string_output_adapter@_W@__crt_stdio_output@@@__crt_stdio_output@@IBE_NXZ 1002ca53 f i libucrt:output.obj
 0001:0002ba56       ?state_case_dot@?$output_processor@DV?$stream_output_adapter@D@__crt_stdio_output@@V?$format_validation_base@DV?$stream_output_adapter@D@__crt_stdio_output@@@2@@__crt_stdio_output@@AAE_NXZ 1002ca56 f i libucrt:output.obj
 0001:0002ba5d       ?state_case_dot@?$output_processor@DV?$stream_output_adapter@D@__crt_stdio_output@@V?$positional_parameter_base@DV?$stream_output_adapter@D@__crt_stdio_output@@@2@@__crt_stdio_output@@AAE_NXZ 1002ca5d f i libucrt:output.obj
 0001:0002ba64       ?state_case_dot@?$output_processor@DV?$stream_output_adapter@D@__crt_stdio_output@@V?$standard_base@DV?$stream_output_adapter@D@__crt_stdio_output@@@2@@__crt_stdio_output@@AAE_NXZ 1002ca64 f i libucrt:output.obj
 0001:0002ba6b       ?state_case_dot@?$output_processor@DV?$string_output_adapter@D@__crt_stdio_output@@V?$format_validation_base@DV?$string_output_adapter@D@__crt_stdio_output@@@2@@__crt_stdio_output@@AAE_NXZ 1002ca6b f i libucrt:output.obj
 0001:0002ba72       ?state_case_dot@?$output_processor@DV?$string_output_adapter@D@__crt_stdio_output@@V?$positional_parameter_base@DV?$string_output_adapter@D@__crt_stdio_output@@@2@@__crt_stdio_output@@AAE_NXZ 1002ca72 f i libucrt:output.obj
 0001:0002ba79       ?state_case_dot@?$output_processor@DV?$string_output_adapter@D@__crt_stdio_output@@V?$standard_base@DV?$string_output_adapter@D@__crt_stdio_output@@@2@@__crt_stdio_output@@AAE_NXZ 1002ca79 f i libucrt:output.obj
 0001:0002ba80       ?state_case_dot@?$output_processor@_WV?$stream_output_adapter@_W@__crt_stdio_output@@V?$format_validation_base@_WV?$stream_output_adapter@_W@__crt_stdio_output@@@2@@__crt_stdio_output@@AAE_NXZ 1002ca80 f i libucrt:output.obj
 0001:0002ba87       ?state_case_dot@?$output_processor@_WV?$stream_output_adapter@_W@__crt_stdio_output@@V?$positional_parameter_base@_WV?$stream_output_adapter@_W@__crt_stdio_output@@@2@@__crt_stdio_output@@AAE_NXZ 1002ca87 f i libucrt:output.obj
 0001:0002ba8e       ?state_case_dot@?$output_processor@_WV?$stream_output_adapter@_W@__crt_stdio_output@@V?$standard_base@_WV?$stream_output_adapter@_W@__crt_stdio_output@@@2@@__crt_stdio_output@@AAE_NXZ 1002ca8e f i libucrt:output.obj
 0001:0002ba95       ?state_case_dot@?$output_processor@_WV?$string_output_adapter@_W@__crt_stdio_output@@V?$format_validation_base@_WV?$string_output_adapter@_W@__crt_stdio_output@@@2@@__crt_stdio_output@@AAE_NXZ 1002ca95 f i libucrt:output.obj
 0001:0002ba9c       ?state_case_dot@?$output_processor@_WV?$string_output_adapter@_W@__crt_stdio_output@@V?$positional_parameter_base@_WV?$string_output_adapter@_W@__crt_stdio_output@@@2@@__crt_stdio_output@@AAE_NXZ 1002ca9c f i libucrt:output.obj
 0001:0002baa3       ?state_case_dot@?$output_processor@_WV?$string_output_adapter@_W@__crt_stdio_output@@V?$standard_base@_WV?$string_output_adapter@_W@__crt_stdio_output@@@2@@__crt_stdio_output@@AAE_NXZ 1002caa3 f i libucrt:output.obj
 0001:0002baaa       ?state_case_flag@?$output_processor@DV?$stream_output_adapter@D@__crt_stdio_output@@V?$format_validation_base@DV?$stream_output_adapter@D@__crt_stdio_output@@@2@@__crt_stdio_output@@AAE_NXZ 1002caaa f i libucrt:output.obj
 0001:0002bae7       ?state_case_flag@?$output_processor@DV?$stream_output_adapter@D@__crt_stdio_output@@V?$positional_parameter_base@DV?$stream_output_adapter@D@__crt_stdio_output@@@2@@__crt_stdio_output@@AAE_NXZ 1002cae7 f i libucrt:output.obj
 0001:0002bb24       ?state_case_flag@?$output_processor@DV?$stream_output_adapter@D@__crt_stdio_output@@V?$standard_base@DV?$stream_output_adapter@D@__crt_stdio_output@@@2@@__crt_stdio_output@@AAE_NXZ 1002cb24 f i libucrt:output.obj
 0001:0002bb61       ?state_case_flag@?$output_processor@DV?$string_output_adapter@D@__crt_stdio_output@@V?$format_validation_base@DV?$string_output_adapter@D@__crt_stdio_output@@@2@@__crt_stdio_output@@AAE_NXZ 1002cb61 f i libucrt:output.obj
 0001:0002bb9e       ?state_case_flag@?$output_processor@DV?$string_output_adapter@D@__crt_stdio_output@@V?$positional_parameter_base@DV?$string_output_adapter@D@__crt_stdio_output@@@2@@__crt_stdio_output@@AAE_NXZ 1002cb9e f i libucrt:output.obj
 0001:0002bbdb       ?state_case_flag@?$output_processor@DV?$string_output_adapter@D@__crt_stdio_output@@V?$standard_base@DV?$string_output_adapter@D@__crt_stdio_output@@@2@@__crt_stdio_output@@AAE_NXZ 1002cbdb f i libucrt:output.obj
 0001:0002bc18       ?state_case_flag@?$output_processor@_WV?$stream_output_adapter@_W@__crt_stdio_output@@V?$format_validation_base@_WV?$stream_output_adapter@_W@__crt_stdio_output@@@2@@__crt_stdio_output@@AAE_NXZ 1002cc18 f i libucrt:output.obj
 0001:0002bc55       ?state_case_flag@?$output_processor@_WV?$stream_output_adapter@_W@__crt_stdio_output@@V?$positional_parameter_base@_WV?$stream_output_adapter@_W@__crt_stdio_output@@@2@@__crt_stdio_output@@AAE_NXZ 1002cc55 f i libucrt:output.obj
 0001:0002bc92       ?state_case_flag@?$output_processor@_WV?$stream_output_adapter@_W@__crt_stdio_output@@V?$standard_base@_WV?$stream_output_adapter@_W@__crt_stdio_output@@@2@@__crt_stdio_output@@AAE_NXZ 1002cc92 f i libucrt:output.obj
 0001:0002bccf       ?state_case_flag@?$output_processor@_WV?$string_output_adapter@_W@__crt_stdio_output@@V?$format_validation_base@_WV?$string_output_adapter@_W@__crt_stdio_output@@@2@@__crt_stdio_output@@AAE_NXZ 1002cccf f i libucrt:output.obj
 0001:0002bd0c       ?state_case_flag@?$output_processor@_WV?$string_output_adapter@_W@__crt_stdio_output@@V?$positional_parameter_base@_WV?$string_output_adapter@_W@__crt_stdio_output@@@2@@__crt_stdio_output@@AAE_NXZ 1002cd0c f i libucrt:output.obj
 0001:0002bd49       ?state_case_flag@?$output_processor@_WV?$string_output_adapter@_W@__crt_stdio_output@@V?$standard_base@_WV?$string_output_adapter@_W@__crt_stdio_output@@@2@@__crt_stdio_output@@AAE_NXZ 1002cd49 f i libucrt:output.obj
 0001:0002bd86       ?state_case_normal@?$output_processor@DV?$stream_output_adapter@D@__crt_stdio_output@@V?$format_validation_base@DV?$stream_output_adapter@D@__crt_stdio_output@@@2@@__crt_stdio_output@@AAE_NXZ 1002cd86 f i libucrt:output.obj
 0001:0002be43       ?state_case_normal@?$output_processor@DV?$stream_output_adapter@D@__crt_stdio_output@@V?$positional_parameter_base@DV?$stream_output_adapter@D@__crt_stdio_output@@@2@@__crt_stdio_output@@AAE_NXZ 1002ce43 f i libucrt:output.obj
 0001:0002bf0b       ?state_case_normal@?$output_processor@DV?$stream_output_adapter@D@__crt_stdio_output@@V?$standard_base@DV?$stream_output_adapter@D@__crt_stdio_output@@@2@@__crt_stdio_output@@AAE_NXZ 1002cf0b f i libucrt:output.obj
 0001:0002bfc8       ?state_case_normal@?$output_processor@DV?$string_output_adapter@D@__crt_stdio_output@@V?$format_validation_base@DV?$string_output_adapter@D@__crt_stdio_output@@@2@@__crt_stdio_output@@AAE_NXZ 1002cfc8 f i libucrt:output.obj
 0001:0002c0c4       ?state_case_normal@?$output_processor@DV?$string_output_adapter@D@__crt_stdio_output@@V?$positional_parameter_base@DV?$string_output_adapter@D@__crt_stdio_output@@@2@@__crt_stdio_output@@AAE_NXZ 1002d0c4 f i libucrt:output.obj
 0001:0002c1cb       ?state_case_normal@?$output_processor@DV?$string_output_adapter@D@__crt_stdio_output@@V?$standard_base@DV?$string_output_adapter@D@__crt_stdio_output@@@2@@__crt_stdio_output@@AAE_NXZ 1002d1cb f i libucrt:output.obj
 0001:0002c2c7       ?state_case_normal@?$output_processor@_WV?$stream_output_adapter@_W@__crt_stdio_output@@V?$format_validation_base@_WV?$stream_output_adapter@_W@__crt_stdio_output@@@2@@__crt_stdio_output@@AAE_NXZ 1002d2c7 f i libucrt:output.obj
 0001:0002c2e5       ?state_case_normal@?$output_processor@_WV?$stream_output_adapter@_W@__crt_stdio_output@@V?$positional_parameter_base@_WV?$stream_output_adapter@_W@__crt_stdio_output@@@2@@__crt_stdio_output@@AAE_NXZ 1002d2e5 f i libucrt:output.obj
 0001:0002c312       ?state_case_normal@?$output_processor@_WV?$stream_output_adapter@_W@__crt_stdio_output@@V?$standard_base@_WV?$stream_output_adapter@_W@__crt_stdio_output@@@2@@__crt_stdio_output@@AAE_NXZ 1002d312 f i libucrt:output.obj
 0001:0002c330       ?state_case_normal@?$output_processor@_WV?$string_output_adapter@_W@__crt_stdio_output@@V?$format_validation_base@_WV?$string_output_adapter@_W@__crt_stdio_output@@@2@@__crt_stdio_output@@AAE_NXZ 1002d330 f i libucrt:output.obj
 0001:0002c378       ?state_case_normal@?$output_processor@_WV?$string_output_adapter@_W@__crt_stdio_output@@V?$positional_parameter_base@_WV?$string_output_adapter@_W@__crt_stdio_output@@@2@@__crt_stdio_output@@AAE_NXZ 1002d378 f i libucrt:output.obj
 0001:0002c3cb       ?state_case_normal@?$output_processor@_WV?$string_output_adapter@_W@__crt_stdio_output@@V?$standard_base@_WV?$string_output_adapter@_W@__crt_stdio_output@@@2@@__crt_stdio_output@@AAE_NXZ 1002d3cb f i libucrt:output.obj
 0001:0002c413       ?state_case_normal_common@?$output_processor@DV?$stream_output_adapter@D@__crt_stdio_output@@V?$format_validation_base@DV?$stream_output_adapter@D@__crt_stdio_output@@@2@@__crt_stdio_output@@AAE_NXZ 1002d413 f i libucrt:output.obj
 0001:0002c4ab       ?state_case_normal_common@?$output_processor@DV?$stream_output_adapter@D@__crt_stdio_output@@V?$positional_parameter_base@DV?$stream_output_adapter@D@__crt_stdio_output@@@2@@__crt_stdio_output@@AAE_NXZ 1002d4ab f i libucrt:output.obj
 0001:0002c543       ?state_case_normal_common@?$output_processor@DV?$stream_output_adapter@D@__crt_stdio_output@@V?$standard_base@DV?$stream_output_adapter@D@__crt_stdio_output@@@2@@__crt_stdio_output@@AAE_NXZ 1002d543 f i libucrt:output.obj
 0001:0002c5db       ?state_case_normal_common@?$output_processor@DV?$string_output_adapter@D@__crt_stdio_output@@V?$format_validation_base@DV?$string_output_adapter@D@__crt_stdio_output@@@2@@__crt_stdio_output@@AAE_NXZ 1002d5db f i libucrt:output.obj
 0001:0002c6bb       ?state_case_normal_common@?$output_processor@DV?$string_output_adapter@D@__crt_stdio_output@@V?$positional_parameter_base@DV?$string_output_adapter@D@__crt_stdio_output@@@2@@__crt_stdio_output@@AAE_NXZ 1002d6bb f i libucrt:output.obj
 0001:0002c79b       ?state_case_normal_common@?$output_processor@DV?$string_output_adapter@D@__crt_stdio_output@@V?$standard_base@DV?$string_output_adapter@D@__crt_stdio_output@@@2@@__crt_stdio_output@@AAE_NXZ 1002d79b f i libucrt:output.obj
 0001:0002c87b       ?state_case_normal_common@?$output_processor@_WV?$stream_output_adapter@_W@__crt_stdio_output@@V?$format_validation_base@_WV?$stream_output_adapter@_W@__crt_stdio_output@@@2@@__crt_stdio_output@@AAE_NXZ 1002d87b f i libucrt:output.obj
 0001:0002c899       ?state_case_normal_common@?$output_processor@_WV?$stream_output_adapter@_W@__crt_stdio_output@@V?$positional_parameter_base@_WV?$stream_output_adapter@_W@__crt_stdio_output@@@2@@__crt_stdio_output@@AAE_NXZ 1002d899 f i libucrt:output.obj
 0001:0002c8b7       ?state_case_normal_common@?$output_processor@_WV?$stream_output_adapter@_W@__crt_stdio_output@@V?$standard_base@_WV?$stream_output_adapter@_W@__crt_stdio_output@@@2@@__crt_stdio_output@@AAE_NXZ 1002d8b7 f i libucrt:output.obj
 0001:0002c8d5       ?state_case_normal_common@?$output_processor@_WV?$string_output_adapter@_W@__crt_stdio_output@@V?$format_validation_base@_WV?$string_output_adapter@_W@__crt_stdio_output@@@2@@__crt_stdio_output@@AAE_NXZ 1002d8d5 f i libucrt:output.obj
 0001:0002c91d       ?state_case_normal_common@?$output_processor@_WV?$string_output_adapter@_W@__crt_stdio_output@@V?$positional_parameter_base@_WV?$string_output_adapter@_W@__crt_stdio_output@@@2@@__crt_stdio_output@@AAE_NXZ 1002d91d f i libucrt:output.obj
 0001:0002c965       ?state_case_normal_common@?$output_processor@_WV?$string_output_adapter@_W@__crt_stdio_output@@V?$standard_base@_WV?$string_output_adapter@_W@__crt_stdio_output@@@2@@__crt_stdio_output@@AAE_NXZ 1002d965 f i libucrt:output.obj
 0001:0002c9ad       ?state_case_normal_tchar@?$output_processor@DV?$stream_output_adapter@D@__crt_stdio_output@@V?$format_validation_base@DV?$stream_output_adapter@D@__crt_stdio_output@@@2@@__crt_stdio_output@@AAE_ND@Z 1002d9ad f i libucrt:output.obj
 0001:0002ca34       ?state_case_normal_tchar@?$output_processor@DV?$stream_output_adapter@D@__crt_stdio_output@@V?$positional_parameter_base@DV?$stream_output_adapter@D@__crt_stdio_output@@@2@@__crt_stdio_output@@AAE_ND@Z 1002da34 f i libucrt:output.obj
 0001:0002cabb       ?state_case_normal_tchar@?$output_processor@DV?$stream_output_adapter@D@__crt_stdio_output@@V?$standard_base@DV?$stream_output_adapter@D@__crt_stdio_output@@@2@@__crt_stdio_output@@AAE_ND@Z 1002dabb f i libucrt:output.obj
 0001:0002cb42       ?state_case_normal_tchar@?$output_processor@DV?$string_output_adapter@D@__crt_stdio_output@@V?$format_validation_base@DV?$string_output_adapter@D@__crt_stdio_output@@@2@@__crt_stdio_output@@AAE_ND@Z 1002db42 f i libucrt:output.obj
 0001:0002cbed       ?state_case_normal_tchar@?$output_processor@DV?$string_output_adapter@D@__crt_stdio_output@@V?$positional_parameter_base@DV?$string_output_adapter@D@__crt_stdio_output@@@2@@__crt_stdio_output@@AAE_ND@Z 1002dbed f i libucrt:output.obj
 0001:0002cc98       ?state_case_normal_tchar@?$output_processor@DV?$string_output_adapter@D@__crt_stdio_output@@V?$standard_base@DV?$string_output_adapter@D@__crt_stdio_output@@@2@@__crt_stdio_output@@AAE_ND@Z 1002dc98 f i libucrt:output.obj
 0001:0002cd43       ?state_case_normal_tchar@?$output_processor@_WV?$stream_output_adapter@_W@__crt_stdio_output@@V?$format_validation_base@_WV?$stream_output_adapter@_W@__crt_stdio_output@@@2@@__crt_stdio_output@@AAE_N_W@Z 1002dd43 f i libucrt:output.obj
 0001:0002cd4c       ?state_case_normal_tchar@?$output_processor@_WV?$stream_output_adapter@_W@__crt_stdio_output@@V?$positional_parameter_base@_WV?$stream_output_adapter@_W@__crt_stdio_output@@@2@@__crt_stdio_output@@AAE_N_W@Z 1002dd4c f i libucrt:output.obj
 0001:0002cd55       ?state_case_normal_tchar@?$output_processor@_WV?$stream_output_adapter@_W@__crt_stdio_output@@V?$standard_base@_WV?$stream_output_adapter@_W@__crt_stdio_output@@@2@@__crt_stdio_output@@AAE_N_W@Z 1002dd55 f i libucrt:output.obj
 0001:0002cd5e       ?state_case_normal_tchar@?$output_processor@_WV?$string_output_adapter@_W@__crt_stdio_output@@V?$format_validation_base@_WV?$string_output_adapter@_W@__crt_stdio_output@@@2@@__crt_stdio_output@@AAE_N_W@Z 1002dd5e f i libucrt:output.obj
 0001:0002cd67       ?state_case_normal_tchar@?$output_processor@_WV?$string_output_adapter@_W@__crt_stdio_output@@V?$positional_parameter_base@_WV?$string_output_adapter@_W@__crt_stdio_output@@@2@@__crt_stdio_output@@AAE_N_W@Z 1002dd67 f i libucrt:output.obj
 0001:0002cd70       ?state_case_normal_tchar@?$output_processor@_WV?$string_output_adapter@_W@__crt_stdio_output@@V?$standard_base@_WV?$string_output_adapter@_W@__crt_stdio_output@@@2@@__crt_stdio_output@@AAE_N_W@Z 1002dd70 f i libucrt:output.obj
 0001:0002cd79       ?state_case_percent@?$output_processor@DV?$stream_output_adapter@D@__crt_stdio_output@@V?$format_validation_base@DV?$stream_output_adapter@D@__crt_stdio_output@@@2@@__crt_stdio_output@@AAE_NXZ 1002dd79 f i libucrt:output.obj
 0001:0002cd91       ?state_case_percent@?$output_processor@DV?$stream_output_adapter@D@__crt_stdio_output@@V?$positional_parameter_base@DV?$stream_output_adapter@D@__crt_stdio_output@@@2@@__crt_stdio_output@@AAE_NXZ 1002dd91 f i libucrt:output.obj
 0001:0002cda9       ?state_case_percent@?$output_processor@DV?$stream_output_adapter@D@__crt_stdio_output@@V?$standard_base@DV?$stream_output_adapter@D@__crt_stdio_output@@@2@@__crt_stdio_output@@AAE_NXZ 1002dda9 f i libucrt:output.obj
 0001:0002cdc1       ?state_case_percent@?$output_processor@DV?$string_output_adapter@D@__crt_stdio_output@@V?$format_validation_base@DV?$string_output_adapter@D@__crt_stdio_output@@@2@@__crt_stdio_output@@AAE_NXZ 1002ddc1 f i libucrt:output.obj
 0001:0002cdd9       ?state_case_percent@?$output_processor@DV?$string_output_adapter@D@__crt_stdio_output@@V?$positional_parameter_base@DV?$string_output_adapter@D@__crt_stdio_output@@@2@@__crt_stdio_output@@AAE_NXZ 1002ddd9 f i libucrt:output.obj
 0001:0002cdf1       ?state_case_percent@?$output_processor@DV?$string_output_adapter@D@__crt_stdio_output@@V?$standard_base@DV?$string_output_adapter@D@__crt_stdio_output@@@2@@__crt_stdio_output@@AAE_NXZ 1002ddf1 f i libucrt:output.obj
 0001:0002ce09       ?state_case_percent@?$output_processor@_WV?$stream_output_adapter@_W@__crt_stdio_output@@V?$format_validation_base@_WV?$stream_output_adapter@_W@__crt_stdio_output@@@2@@__crt_stdio_output@@AAE_NXZ 1002de09 f i libucrt:output.obj
 0001:0002ce21       ?state_case_percent@?$output_processor@_WV?$stream_output_adapter@_W@__crt_stdio_output@@V?$positional_parameter_base@_WV?$stream_output_adapter@_W@__crt_stdio_output@@@2@@__crt_stdio_output@@AAE_NXZ 1002de21 f i libucrt:output.obj
 0001:0002ce39       ?state_case_percent@?$output_processor@_WV?$stream_output_adapter@_W@__crt_stdio_output@@V?$standard_base@_WV?$stream_output_adapter@_W@__crt_stdio_output@@@2@@__crt_stdio_output@@AAE_NXZ 1002de39 f i libucrt:output.obj
 0001:0002ce51       ?state_case_percent@?$output_processor@_WV?$string_output_adapter@_W@__crt_stdio_output@@V?$format_validation_base@_WV?$string_output_adapter@_W@__crt_stdio_output@@@2@@__crt_stdio_output@@AAE_NXZ 1002de51 f i libucrt:output.obj
 0001:0002ce69       ?state_case_percent@?$output_processor@_WV?$string_output_adapter@_W@__crt_stdio_output@@V?$positional_parameter_base@_WV?$string_output_adapter@_W@__crt_stdio_output@@@2@@__crt_stdio_output@@AAE_NXZ 1002de69 f i libucrt:output.obj
 0001:0002ce81       ?state_case_percent@?$output_processor@_WV?$string_output_adapter@_W@__crt_stdio_output@@V?$standard_base@_WV?$string_output_adapter@_W@__crt_stdio_output@@@2@@__crt_stdio_output@@AAE_NXZ 1002de81 f i libucrt:output.obj
 0001:0002ce99       ?state_case_precision@?$output_processor@DV?$stream_output_adapter@D@__crt_stdio_output@@V?$format_validation_base@DV?$stream_output_adapter@D@__crt_stdio_output@@@2@@__crt_stdio_output@@AAE_NXZ 1002de99 f i libucrt:output.obj
 0001:0002cec5       ?state_case_precision@?$output_processor@DV?$stream_output_adapter@D@__crt_stdio_output@@V?$positional_parameter_base@DV?$stream_output_adapter@D@__crt_stdio_output@@@2@@__crt_stdio_output@@AAE_NXZ 1002dec5 f i libucrt:output.obj
 0001:0002ceff       ?state_case_precision@?$output_processor@DV?$stream_output_adapter@D@__crt_stdio_output@@V?$standard_base@DV?$stream_output_adapter@D@__crt_stdio_output@@@2@@__crt_stdio_output@@AAE_NXZ 1002deff f i libucrt:output.obj
 0001:0002cf2b       ?state_case_precision@?$output_processor@DV?$string_output_adapter@D@__crt_stdio_output@@V?$format_validation_base@DV?$string_output_adapter@D@__crt_stdio_output@@@2@@__crt_stdio_output@@AAE_NXZ 1002df2b f i libucrt:output.obj
 0001:0002cf57       ?state_case_precision@?$output_processor@DV?$string_output_adapter@D@__crt_stdio_output@@V?$positional_parameter_base@DV?$string_output_adapter@D@__crt_stdio_output@@@2@@__crt_stdio_output@@AAE_NXZ 1002df57 f i libucrt:output.obj
 0001:0002cf91       ?state_case_precision@?$output_processor@DV?$string_output_adapter@D@__crt_stdio_output@@V?$standard_base@DV?$string_output_adapter@D@__crt_stdio_output@@@2@@__crt_stdio_output@@AAE_NXZ 1002df91 f i libucrt:output.obj
 0001:0002cfbd       ?state_case_precision@?$output_processor@_WV?$stream_output_adapter@_W@__crt_stdio_output@@V?$format_validation_base@_WV?$stream_output_adapter@_W@__crt_stdio_output@@@2@@__crt_stdio_output@@AAE_NXZ 1002dfbd f i libucrt:output.obj
 0001:0002cfea       ?state_case_precision@?$output_processor@_WV?$stream_output_adapter@_W@__crt_stdio_output@@V?$positional_parameter_base@_WV?$stream_output_adapter@_W@__crt_stdio_output@@@2@@__crt_stdio_output@@AAE_NXZ 1002dfea f i libucrt:output.obj
 0001:0002d025       ?state_case_precision@?$output_processor@_WV?$stream_output_adapter@_W@__crt_stdio_output@@V?$standard_base@_WV?$stream_output_adapter@_W@__crt_stdio_output@@@2@@__crt_stdio_output@@AAE_NXZ 1002e025 f i libucrt:output.obj
 0001:0002d052       ?state_case_precision@?$output_processor@_WV?$string_output_adapter@_W@__crt_stdio_output@@V?$format_validation_base@_WV?$string_output_adapter@_W@__crt_stdio_output@@@2@@__crt_stdio_output@@AAE_NXZ 1002e052 f i libucrt:output.obj
 0001:0002d07f       ?state_case_precision@?$output_processor@_WV?$string_output_adapter@_W@__crt_stdio_output@@V?$positional_parameter_base@_WV?$string_output_adapter@_W@__crt_stdio_output@@@2@@__crt_stdio_output@@AAE_NXZ 1002e07f f i libucrt:output.obj
 0001:0002d0ba       ?state_case_precision@?$output_processor@_WV?$string_output_adapter@_W@__crt_stdio_output@@V?$standard_base@_WV?$string_output_adapter@_W@__crt_stdio_output@@@2@@__crt_stdio_output@@AAE_NXZ 1002e0ba f i libucrt:output.obj
 0001:0002d0e7       ?state_case_size@?$output_processor@DV?$stream_output_adapter@D@__crt_stdio_output@@V?$format_validation_base@DV?$stream_output_adapter@D@__crt_stdio_output@@@2@@__crt_stdio_output@@AAE_NXZ 1002e0e7 f i libucrt:output.obj
 0001:0002d240       ?state_case_size@?$output_processor@DV?$stream_output_adapter@D@__crt_stdio_output@@V?$positional_parameter_base@DV?$stream_output_adapter@D@__crt_stdio_output@@@2@@__crt_stdio_output@@AAE_NXZ 1002e240 f i libucrt:output.obj
 0001:0002d399       ?state_case_size@?$output_processor@DV?$stream_output_adapter@D@__crt_stdio_output@@V?$standard_base@DV?$stream_output_adapter@D@__crt_stdio_output@@@2@@__crt_stdio_output@@AAE_NXZ 1002e399 f i libucrt:output.obj
 0001:0002d4f2       ?state_case_size@?$output_processor@DV?$string_output_adapter@D@__crt_stdio_output@@V?$format_validation_base@DV?$string_output_adapter@D@__crt_stdio_output@@@2@@__crt_stdio_output@@AAE_NXZ 1002e4f2 f i libucrt:output.obj
 0001:0002d64b       ?state_case_size@?$output_processor@DV?$string_output_adapter@D@__crt_stdio_output@@V?$positional_parameter_base@DV?$string_output_adapter@D@__crt_stdio_output@@@2@@__crt_stdio_output@@AAE_NXZ 1002e64b f i libucrt:output.obj
 0001:0002d7a4       ?state_case_size@?$output_processor@DV?$string_output_adapter@D@__crt_stdio_output@@V?$standard_base@DV?$string_output_adapter@D@__crt_stdio_output@@@2@@__crt_stdio_output@@AAE_NXZ 1002e7a4 f i libucrt:output.obj
 0001:0002d8fd       ?state_case_size@?$output_processor@_WV?$stream_output_adapter@_W@__crt_stdio_output@@V?$format_validation_base@_WV?$stream_output_adapter@_W@__crt_stdio_output@@@2@@__crt_stdio_output@@AAE_NXZ 1002e8fd f i libucrt:output.obj
 0001:0002da87       ?state_case_size@?$output_processor@_WV?$stream_output_adapter@_W@__crt_stdio_output@@V?$positional_parameter_base@_WV?$stream_output_adapter@_W@__crt_stdio_output@@@2@@__crt_stdio_output@@AAE_NXZ 1002ea87 f i libucrt:output.obj
 0001:0002dc11       ?state_case_size@?$output_processor@_WV?$stream_output_adapter@_W@__crt_stdio_output@@V?$standard_base@_WV?$stream_output_adapter@_W@__crt_stdio_output@@@2@@__crt_stdio_output@@AAE_NXZ 1002ec11 f i libucrt:output.obj
 0001:0002dd9b       ?state_case_size@?$output_processor@_WV?$string_output_adapter@_W@__crt_stdio_output@@V?$format_validation_base@_WV?$string_output_adapter@_W@__crt_stdio_output@@@2@@__crt_stdio_output@@AAE_NXZ 1002ed9b f i libucrt:output.obj
 0001:0002df25       ?state_case_size@?$output_processor@_WV?$string_output_adapter@_W@__crt_stdio_output@@V?$positional_parameter_base@_WV?$string_output_adapter@_W@__crt_stdio_output@@@2@@__crt_stdio_output@@AAE_NXZ 1002ef25 f i libucrt:output.obj
 0001:0002e0af       ?state_case_size@?$output_processor@_WV?$string_output_adapter@_W@__crt_stdio_output@@V?$standard_base@_WV?$string_output_adapter@_W@__crt_stdio_output@@@2@@__crt_stdio_output@@AAE_NXZ 1002f0af f i libucrt:output.obj
 0001:0002e239       ?state_case_type@?$output_processor@DV?$stream_output_adapter@D@__crt_stdio_output@@V?$format_validation_base@DV?$stream_output_adapter@D@__crt_stdio_output@@@2@@__crt_stdio_output@@AAE_NXZ 1002f239 f i libucrt:output.obj
 0001:0002e57b       ?state_case_type@?$output_processor@DV?$stream_output_adapter@D@__crt_stdio_output@@V?$positional_parameter_base@DV?$stream_output_adapter@D@__crt_stdio_output@@@2@@__crt_stdio_output@@AAE_NXZ 1002f57b f i libucrt:output.obj
 0001:0002e8cc       ?state_case_type@?$output_processor@DV?$stream_output_adapter@D@__crt_stdio_output@@V?$standard_base@DV?$stream_output_adapter@D@__crt_stdio_output@@@2@@__crt_stdio_output@@AAE_NXZ 1002f8cc f i libucrt:output.obj
 0001:0002ec0e       ?state_case_type@?$output_processor@DV?$string_output_adapter@D@__crt_stdio_output@@V?$format_validation_base@DV?$string_output_adapter@D@__crt_stdio_output@@@2@@__crt_stdio_output@@AAE_NXZ 1002fc0e f i libucrt:output.obj
 0001:0002ef6d       ?state_case_type@?$output_processor@DV?$string_output_adapter@D@__crt_stdio_output@@V?$positional_parameter_base@DV?$string_output_adapter@D@__crt_stdio_output@@@2@@__crt_stdio_output@@AAE_NXZ 1002ff6d f i libucrt:output.obj
 0001:0002f2db       ?state_case_type@?$output_processor@DV?$string_output_adapter@D@__crt_stdio_output@@V?$standard_base@DV?$string_output_adapter@D@__crt_stdio_output@@@2@@__crt_stdio_output@@AAE_NXZ 100302db f i libucrt:output.obj
 0001:0002f63a       ?state_case_type@?$output_processor@_WV?$stream_output_adapter@_W@__crt_stdio_output@@V?$format_validation_base@_WV?$stream_output_adapter@_W@__crt_stdio_output@@@2@@__crt_stdio_output@@AAE_NXZ 1003063a f i libucrt:output.obj
 0001:0002f998       ?state_case_type@?$output_processor@_WV?$stream_output_adapter@_W@__crt_stdio_output@@V?$positional_parameter_base@_WV?$stream_output_adapter@_W@__crt_stdio_output@@@2@@__crt_stdio_output@@AAE_NXZ 10030998 f i libucrt:output.obj
 0001:0002fd05       ?state_case_type@?$output_processor@_WV?$stream_output_adapter@_W@__crt_stdio_output@@V?$standard_base@_WV?$stream_output_adapter@_W@__crt_stdio_output@@@2@@__crt_stdio_output@@AAE_NXZ 10030d05 f i libucrt:output.obj
 0001:00030063       ?state_case_type@?$output_processor@_WV?$string_output_adapter@_W@__crt_stdio_output@@V?$format_validation_base@_WV?$string_output_adapter@_W@__crt_stdio_output@@@2@@__crt_stdio_output@@AAE_NXZ 10031063 f i libucrt:output.obj
 0001:00030457       ?state_case_type@?$output_processor@_WV?$string_output_adapter@_W@__crt_stdio_output@@V?$positional_parameter_base@_WV?$string_output_adapter@_W@__crt_stdio_output@@@2@@__crt_stdio_output@@AAE_NXZ 10031457 f i libucrt:output.obj
 0001:0003085a       ?state_case_type@?$output_processor@_WV?$string_output_adapter@_W@__crt_stdio_output@@V?$standard_base@_WV?$string_output_adapter@_W@__crt_stdio_output@@@2@@__crt_stdio_output@@AAE_NXZ 1003185a f i libucrt:output.obj
 0001:00030c4e       ?state_case_width@?$output_processor@DV?$stream_output_adapter@D@__crt_stdio_output@@V?$format_validation_base@DV?$stream_output_adapter@D@__crt_stdio_output@@@2@@__crt_stdio_output@@AAE_NXZ 10031c4e f i libucrt:output.obj
 0001:00030c7f       ?state_case_width@?$output_processor@DV?$stream_output_adapter@D@__crt_stdio_output@@V?$positional_parameter_base@DV?$stream_output_adapter@D@__crt_stdio_output@@@2@@__crt_stdio_output@@AAE_NXZ 10031c7f f i libucrt:output.obj
 0001:00030cbf       ?state_case_width@?$output_processor@DV?$stream_output_adapter@D@__crt_stdio_output@@V?$standard_base@DV?$stream_output_adapter@D@__crt_stdio_output@@@2@@__crt_stdio_output@@AAE_NXZ 10031cbf f i libucrt:output.obj
 0001:00030cf0       ?state_case_width@?$output_processor@DV?$string_output_adapter@D@__crt_stdio_output@@V?$format_validation_base@DV?$string_output_adapter@D@__crt_stdio_output@@@2@@__crt_stdio_output@@AAE_NXZ 10031cf0 f i libucrt:output.obj
 0001:00030d21       ?state_case_width@?$output_processor@DV?$string_output_adapter@D@__crt_stdio_output@@V?$positional_parameter_base@DV?$string_output_adapter@D@__crt_stdio_output@@@2@@__crt_stdio_output@@AAE_NXZ 10031d21 f i libucrt:output.obj
 0001:00030d61       ?state_case_width@?$output_processor@DV?$string_output_adapter@D@__crt_stdio_output@@V?$standard_base@DV?$string_output_adapter@D@__crt_stdio_output@@@2@@__crt_stdio_output@@AAE_NXZ 10031d61 f i libucrt:output.obj
 0001:00030d92       ?state_case_width@?$output_processor@_WV?$stream_output_adapter@_W@__crt_stdio_output@@V?$format_validation_base@_WV?$stream_output_adapter@_W@__crt_stdio_output@@@2@@__crt_stdio_output@@AAE_NXZ 10031d92 f i libucrt:output.obj
 0001:00030dc4       ?state_case_width@?$output_processor@_WV?$stream_output_adapter@_W@__crt_stdio_output@@V?$positional_parameter_base@_WV?$stream_output_adapter@_W@__crt_stdio_output@@@2@@__crt_stdio_output@@AAE_NXZ 10031dc4 f i libucrt:output.obj
 0001:00030e05       ?state_case_width@?$output_processor@_WV?$stream_output_adapter@_W@__crt_stdio_output@@V?$standard_base@_WV?$stream_output_adapter@_W@__crt_stdio_output@@@2@@__crt_stdio_output@@AAE_NXZ 10031e05 f i libucrt:output.obj
 0001:00030e37       ?state_case_width@?$output_processor@_WV?$string_output_adapter@_W@__crt_stdio_output@@V?$format_validation_base@_WV?$string_output_adapter@_W@__crt_stdio_output@@@2@@__crt_stdio_output@@AAE_NXZ 10031e37 f i libucrt:output.obj
 0001:00030e69       ?state_case_width@?$output_processor@_WV?$string_output_adapter@_W@__crt_stdio_output@@V?$positional_parameter_base@_WV?$string_output_adapter@_W@__crt_stdio_output@@@2@@__crt_stdio_output@@AAE_NXZ 10031e69 f i libucrt:output.obj
 0001:00030eaa       ?state_case_width@?$output_processor@_WV?$string_output_adapter@_W@__crt_stdio_output@@V?$standard_base@_WV?$string_output_adapter@_W@__crt_stdio_output@@@2@@__crt_stdio_output@@AAE_NXZ 10031eaa f i libucrt:output.obj
 0001:00030edc       ?state_count@?$format_validation_base@DV?$stream_output_adapter@D@__crt_stdio_output@@@__crt_stdio_output@@KAIXZ 10031edc f i libucrt:output.obj
 0001:00030ee0       ?state_count@?$format_validation_base@DV?$string_output_adapter@D@__crt_stdio_output@@@__crt_stdio_output@@KAIXZ 10031ee0 f i libucrt:output.obj
 0001:00030ee4       ?state_count@?$format_validation_base@_WV?$stream_output_adapter@_W@__crt_stdio_output@@@__crt_stdio_output@@KAIXZ 10031ee4 f i libucrt:output.obj
 0001:00030ee8       ?state_count@?$format_validation_base@_WV?$string_output_adapter@_W@__crt_stdio_output@@@__crt_stdio_output@@KAIXZ 10031ee8 f i libucrt:output.obj
 0001:00030eec       ?state_count@?$standard_base@DV?$stream_output_adapter@D@__crt_stdio_output@@@__crt_stdio_output@@KAIXZ 10031eec f i libucrt:output.obj
 0001:00030ef0       ?state_count@?$standard_base@DV?$string_output_adapter@D@__crt_stdio_output@@@__crt_stdio_output@@KAIXZ 10031ef0 f i libucrt:output.obj
 0001:00030ef4       ?state_count@?$standard_base@_WV?$stream_output_adapter@_W@__crt_stdio_output@@@__crt_stdio_output@@KAIXZ 10031ef4 f i libucrt:output.obj
 0001:00030ef8       ?state_count@?$standard_base@_WV?$string_output_adapter@_W@__crt_stdio_output@@@__crt_stdio_output@@KAIXZ 10031ef8 f i libucrt:output.obj
 0001:00030efc       ?state_transition_table@?$format_validation_base@DV?$stream_output_adapter@D@__crt_stdio_output@@@__crt_stdio_output@@KAABV?$spectre_mitigated_lookup_table@Ustate_transition_pair@__crt_stdio_output@@$0IA@@2@XZ 10031efc f i libucrt:output.obj
 0001:00030f02       ?state_transition_table@?$format_validation_base@DV?$string_output_adapter@D@__crt_stdio_output@@@__crt_stdio_output@@KAABV?$spectre_mitigated_lookup_table@Ustate_transition_pair@__crt_stdio_output@@$0IA@@2@XZ 10031f02 f i libucrt:output.obj
 0001:00030f08       ?state_transition_table@?$format_validation_base@_WV?$stream_output_adapter@_W@__crt_stdio_output@@@__crt_stdio_output@@KAABV?$spectre_mitigated_lookup_table@Ustate_transition_pair@__crt_stdio_output@@$0IA@@2@XZ 10031f08 f i libucrt:output.obj
 0001:00030f0e       ?state_transition_table@?$format_validation_base@_WV?$string_output_adapter@_W@__crt_stdio_output@@@__crt_stdio_output@@KAABV?$spectre_mitigated_lookup_table@Ustate_transition_pair@__crt_stdio_output@@$0IA@@2@XZ 10031f0e f i libucrt:output.obj
 0001:00030f14       ?state_transition_table@?$standard_base@DV?$stream_output_adapter@D@__crt_stdio_output@@@__crt_stdio_output@@KAABV?$spectre_mitigated_lookup_table@Ustate_transition_pair@__crt_stdio_output@@$0IA@@2@XZ 10031f14 f i libucrt:output.obj
 0001:00030f1a       ?state_transition_table@?$standard_base@DV?$string_output_adapter@D@__crt_stdio_output@@@__crt_stdio_output@@KAABV?$spectre_mitigated_lookup_table@Ustate_transition_pair@__crt_stdio_output@@$0IA@@2@XZ 10031f1a f i libucrt:output.obj
 0001:00030f20       ?state_transition_table@?$standard_base@_WV?$stream_output_adapter@_W@__crt_stdio_output@@@__crt_stdio_output@@KAABV?$spectre_mitigated_lookup_table@Ustate_transition_pair@__crt_stdio_output@@$0IA@@2@XZ 10031f20 f i libucrt:output.obj
 0001:00030f26       ?state_transition_table@?$standard_base@_WV?$string_output_adapter@_W@__crt_stdio_output@@@__crt_stdio_output@@KAABV?$spectre_mitigated_lookup_table@Ustate_transition_pair@__crt_stdio_output@@$0IA@@2@XZ 10031f26 f i libucrt:output.obj
 0001:00030f2c       ?tchar_string@?$common_data@D@__crt_stdio_output@@IAEAAPADD@Z 10031f2c f i libucrt:output.obj
 0001:00030f32       ?tchar_string@?$common_data@D@__crt_stdio_output@@IAEAAPADXZ 10031f32 f i libucrt:output.obj
 0001:00030f36       ?tchar_string@?$common_data@_W@__crt_stdio_output@@IAEAAPA_WXZ 10031f36 f i libucrt:output.obj
 0001:00030f3a       ?tchar_string@?$common_data@_W@__crt_stdio_output@@IAEAAPA_W_W@Z 10031f3a f i libucrt:output.obj
 0001:00030f40       ?to_integer_size@__crt_stdio_output@@YAIW4length_modifier@1@@Z 10031f40 f i libucrt:output.obj
 0001:00030f94       ?type_case_X@?$output_processor@DV?$stream_output_adapter@D@__crt_stdio_output@@V?$format_validation_base@DV?$stream_output_adapter@D@__crt_stdio_output@@@2@@__crt_stdio_output@@AAE_NXZ 10031f94 f i libucrt:output.obj
 0001:00030f9c       ?type_case_X@?$output_processor@DV?$stream_output_adapter@D@__crt_stdio_output@@V?$positional_parameter_base@DV?$stream_output_adapter@D@__crt_stdio_output@@@2@@__crt_stdio_output@@AAE_NXZ 10031f9c f i libucrt:output.obj
 0001:00030fa4       ?type_case_X@?$output_processor@DV?$stream_output_adapter@D@__crt_stdio_output@@V?$standard_base@DV?$stream_output_adapter@D@__crt_stdio_output@@@2@@__crt_stdio_output@@AAE_NXZ 10031fa4 f i libucrt:output.obj
 0001:00030fac       ?type_case_X@?$output_processor@DV?$string_output_adapter@D@__crt_stdio_output@@V?$format_validation_base@DV?$string_output_adapter@D@__crt_stdio_output@@@2@@__crt_stdio_output@@AAE_NXZ 10031fac f i libucrt:output.obj
 0001:00030fb4       ?type_case_X@?$output_processor@DV?$string_output_adapter@D@__crt_stdio_output@@V?$positional_parameter_base@DV?$string_output_adapter@D@__crt_stdio_output@@@2@@__crt_stdio_output@@AAE_NXZ 10031fb4 f i libucrt:output.obj
 0001:00030fbc       ?type_case_X@?$output_processor@DV?$string_output_adapter@D@__crt_stdio_output@@V?$standard_base@DV?$string_output_adapter@D@__crt_stdio_output@@@2@@__crt_stdio_output@@AAE_NXZ 10031fbc f i libucrt:output.obj
 0001:00030fc4       ?type_case_X@?$output_processor@_WV?$stream_output_adapter@_W@__crt_stdio_output@@V?$format_validation_base@_WV?$stream_output_adapter@_W@__crt_stdio_output@@@2@@__crt_stdio_output@@AAE_NXZ 10031fc4 f i libucrt:output.obj
 0001:00030fcc       ?type_case_X@?$output_processor@_WV?$stream_output_adapter@_W@__crt_stdio_output@@V?$positional_parameter_base@_WV?$stream_output_adapter@_W@__crt_stdio_output@@@2@@__crt_stdio_output@@AAE_NXZ 10031fcc f i libucrt:output.obj
 0001:00030fd4       ?type_case_X@?$output_processor@_WV?$stream_output_adapter@_W@__crt_stdio_output@@V?$standard_base@_WV?$stream_output_adapter@_W@__crt_stdio_output@@@2@@__crt_stdio_output@@AAE_NXZ 10031fd4 f i libucrt:output.obj
 0001:00030fdc       ?type_case_X@?$output_processor@_WV?$string_output_adapter@_W@__crt_stdio_output@@V?$format_validation_base@_WV?$string_output_adapter@_W@__crt_stdio_output@@@2@@__crt_stdio_output@@AAE_NXZ 10031fdc f i libucrt:output.obj
 0001:00030fe4       ?type_case_X@?$output_processor@_WV?$string_output_adapter@_W@__crt_stdio_output@@V?$positional_parameter_base@_WV?$string_output_adapter@_W@__crt_stdio_output@@@2@@__crt_stdio_output@@AAE_NXZ 10031fe4 f i libucrt:output.obj
 0001:00030fec       ?type_case_X@?$output_processor@_WV?$string_output_adapter@_W@__crt_stdio_output@@V?$standard_base@_WV?$string_output_adapter@_W@__crt_stdio_output@@@2@@__crt_stdio_output@@AAE_NXZ 10031fec f i libucrt:output.obj
 0001:00030ff4       ?type_case_Z@?$output_processor@DV?$stream_output_adapter@D@__crt_stdio_output@@V?$format_validation_base@DV?$stream_output_adapter@D@__crt_stdio_output@@@2@@__crt_stdio_output@@AAE_NXZ 10031ff4 f i libucrt:output.obj
 0001:00031057       ?type_case_Z@?$output_processor@DV?$stream_output_adapter@D@__crt_stdio_output@@V?$positional_parameter_base@DV?$stream_output_adapter@D@__crt_stdio_output@@@2@@__crt_stdio_output@@AAE_NXZ 10032057 f i libucrt:output.obj
 0001:000310d1       ?type_case_Z@?$output_processor@DV?$stream_output_adapter@D@__crt_stdio_output@@V?$standard_base@DV?$stream_output_adapter@D@__crt_stdio_output@@@2@@__crt_stdio_output@@AAE_NXZ 100320d1 f i libucrt:output.obj
 0001:00031134       ?type_case_Z@?$output_processor@DV?$string_output_adapter@D@__crt_stdio_output@@V?$format_validation_base@DV?$string_output_adapter@D@__crt_stdio_output@@@2@@__crt_stdio_output@@AAE_NXZ 10032134 f i libucrt:output.obj
 0001:00031197       ?type_case_Z@?$output_processor@DV?$string_output_adapter@D@__crt_stdio_output@@V?$positional_parameter_base@DV?$string_output_adapter@D@__crt_stdio_output@@@2@@__crt_stdio_output@@AAE_NXZ 10032197 f i libucrt:output.obj
 0001:00031211       ?type_case_Z@?$output_processor@DV?$string_output_adapter@D@__crt_stdio_output@@V?$standard_base@DV?$string_output_adapter@D@__crt_stdio_output@@@2@@__crt_stdio_output@@AAE_NXZ 10032211 f i libucrt:output.obj
 0001:00031274       ?type_case_Z@?$output_processor@_WV?$stream_output_adapter@_W@__crt_stdio_output@@V?$format_validation_base@_WV?$stream_output_adapter@_W@__crt_stdio_output@@@2@@__crt_stdio_output@@AAE_NXZ 10032274 f i libucrt:output.obj
 0001:000312d7       ?type_case_Z@?$output_processor@_WV?$stream_output_adapter@_W@__crt_stdio_output@@V?$positional_parameter_base@_WV?$stream_output_adapter@_W@__crt_stdio_output@@@2@@__crt_stdio_output@@AAE_NXZ 100322d7 f i libucrt:output.obj
 0001:00031351       ?type_case_Z@?$output_processor@_WV?$stream_output_adapter@_W@__crt_stdio_output@@V?$standard_base@_WV?$stream_output_adapter@_W@__crt_stdio_output@@@2@@__crt_stdio_output@@AAE_NXZ 10032351 f i libucrt:output.obj
 0001:000313b4       ?type_case_Z@?$output_processor@_WV?$string_output_adapter@_W@__crt_stdio_output@@V?$format_validation_base@_WV?$string_output_adapter@_W@__crt_stdio_output@@@2@@__crt_stdio_output@@AAE_NXZ 100323b4 f i libucrt:output.obj
 0001:00031417       ?type_case_Z@?$output_processor@_WV?$string_output_adapter@_W@__crt_stdio_output@@V?$positional_parameter_base@_WV?$string_output_adapter@_W@__crt_stdio_output@@@2@@__crt_stdio_output@@AAE_NXZ 10032417 f i libucrt:output.obj
 0001:00031491       ?type_case_Z@?$output_processor@_WV?$string_output_adapter@_W@__crt_stdio_output@@V?$standard_base@_WV?$string_output_adapter@_W@__crt_stdio_output@@@2@@__crt_stdio_output@@AAE_NXZ 10032491 f i libucrt:output.obj
 0001:000314f4       ?type_case_a@?$output_processor@DV?$stream_output_adapter@D@__crt_stdio_output@@V?$format_validation_base@DV?$stream_output_adapter@D@__crt_stdio_output@@@2@@__crt_stdio_output@@AAE_NXZ 100324f4 f i libucrt:output.obj
 0001:00031685       ?type_case_a@?$output_processor@DV?$stream_output_adapter@D@__crt_stdio_output@@V?$positional_parameter_base@DV?$stream_output_adapter@D@__crt_stdio_output@@@2@@__crt_stdio_output@@AAE_NXZ 10032685 f i libucrt:output.obj
 0001:00031833       ?type_case_a@?$output_processor@DV?$stream_output_adapter@D@__crt_stdio_output@@V?$standard_base@DV?$stream_output_adapter@D@__crt_stdio_output@@@2@@__crt_stdio_output@@AAE_NXZ 10032833 f i libucrt:output.obj
 0001:000319c4       ?type_case_a@?$output_processor@DV?$string_output_adapter@D@__crt_stdio_output@@V?$format_validation_base@DV?$string_output_adapter@D@__crt_stdio_output@@@2@@__crt_stdio_output@@AAE_NXZ 100329c4 f i libucrt:output.obj
 0001:00031b55       ?type_case_a@?$output_processor@DV?$string_output_adapter@D@__crt_stdio_output@@V?$positional_parameter_base@DV?$string_output_adapter@D@__crt_stdio_output@@@2@@__crt_stdio_output@@AAE_NXZ 10032b55 f i libucrt:output.obj
 0001:00031d03       ?type_case_a@?$output_processor@DV?$string_output_adapter@D@__crt_stdio_output@@V?$standard_base@DV?$string_output_adapter@D@__crt_stdio_output@@@2@@__crt_stdio_output@@AAE_NXZ 10032d03 f i libucrt:output.obj
 0001:00031e94       ?type_case_a@?$output_processor@_WV?$stream_output_adapter@_W@__crt_stdio_output@@V?$format_validation_base@_WV?$stream_output_adapter@_W@__crt_stdio_output@@@2@@__crt_stdio_output@@AAE_NXZ 10032e94 f i libucrt:output.obj
 0001:0003203b       ?type_case_a@?$output_processor@_WV?$stream_output_adapter@_W@__crt_stdio_output@@V?$positional_parameter_base@_WV?$stream_output_adapter@_W@__crt_stdio_output@@@2@@__crt_stdio_output@@AAE_NXZ 1003303b f i libucrt:output.obj
 0001:000321ff       ?type_case_a@?$output_processor@_WV?$stream_output_adapter@_W@__crt_stdio_output@@V?$standard_base@_WV?$stream_output_adapter@_W@__crt_stdio_output@@@2@@__crt_stdio_output@@AAE_NXZ 100331ff f i libucrt:output.obj
 0001:000323a6       ?type_case_a@?$output_processor@_WV?$string_output_adapter@_W@__crt_stdio_output@@V?$format_validation_base@_WV?$string_output_adapter@_W@__crt_stdio_output@@@2@@__crt_stdio_output@@AAE_NXZ 100333a6 f i libucrt:output.obj
 0001:0003254d       ?type_case_a@?$output_processor@_WV?$string_output_adapter@_W@__crt_stdio_output@@V?$positional_parameter_base@_WV?$string_output_adapter@_W@__crt_stdio_output@@@2@@__crt_stdio_output@@AAE_NXZ 1003354d f i libucrt:output.obj
 0001:00032711       ?type_case_a@?$output_processor@_WV?$string_output_adapter@_W@__crt_stdio_output@@V?$standard_base@_WV?$string_output_adapter@_W@__crt_stdio_output@@@2@@__crt_stdio_output@@AAE_NXZ 10033711 f i libucrt:output.obj
 0001:000328b8       ?type_case_c@?$output_processor@DV?$stream_output_adapter@D@__crt_stdio_output@@V?$format_validation_base@DV?$stream_output_adapter@D@__crt_stdio_output@@@2@@__crt_stdio_output@@AAE_NXZ 100338b8 f i libucrt:output.obj
 0001:000328c0       ?type_case_c@?$output_processor@DV?$stream_output_adapter@D@__crt_stdio_output@@V?$positional_parameter_base@DV?$stream_output_adapter@D@__crt_stdio_output@@@2@@__crt_stdio_output@@AAE_NXZ 100338c0 f i libucrt:output.obj
 0001:000328c8       ?type_case_c@?$output_processor@DV?$stream_output_adapter@D@__crt_stdio_output@@V?$standard_base@DV?$stream_output_adapter@D@__crt_stdio_output@@@2@@__crt_stdio_output@@AAE_NXZ 100338c8 f i libucrt:output.obj
 0001:000328d0       ?type_case_c@?$output_processor@DV?$string_output_adapter@D@__crt_stdio_output@@V?$format_validation_base@DV?$string_output_adapter@D@__crt_stdio_output@@@2@@__crt_stdio_output@@AAE_NXZ 100338d0 f i libucrt:output.obj
 0001:000328d8       ?type_case_c@?$output_processor@DV?$string_output_adapter@D@__crt_stdio_output@@V?$positional_parameter_base@DV?$string_output_adapter@D@__crt_stdio_output@@@2@@__crt_stdio_output@@AAE_NXZ 100338d8 f i libucrt:output.obj
 0001:000328e0       ?type_case_c@?$output_processor@DV?$string_output_adapter@D@__crt_stdio_output@@V?$standard_base@DV?$string_output_adapter@D@__crt_stdio_output@@@2@@__crt_stdio_output@@AAE_NXZ 100338e0 f i libucrt:output.obj
 0001:000328e8       ?type_case_c@?$output_processor@_WV?$stream_output_adapter@_W@__crt_stdio_output@@V?$format_validation_base@_WV?$stream_output_adapter@_W@__crt_stdio_output@@@2@@__crt_stdio_output@@AAE_NXZ 100338e8 f i libucrt:output.obj
 0001:000328f0       ?type_case_c@?$output_processor@_WV?$stream_output_adapter@_W@__crt_stdio_output@@V?$positional_parameter_base@_WV?$stream_output_adapter@_W@__crt_stdio_output@@@2@@__crt_stdio_output@@AAE_NXZ 100338f0 f i libucrt:output.obj
 0001:000328f8       ?type_case_c@?$output_processor@_WV?$stream_output_adapter@_W@__crt_stdio_output@@V?$standard_base@_WV?$stream_output_adapter@_W@__crt_stdio_output@@@2@@__crt_stdio_output@@AAE_NXZ 100338f8 f i libucrt:output.obj
 0001:00032900       ?type_case_c@?$output_processor@_WV?$string_output_adapter@_W@__crt_stdio_output@@V?$format_validation_base@_WV?$string_output_adapter@_W@__crt_stdio_output@@@2@@__crt_stdio_output@@AAE_NXZ 10033900 f i libucrt:output.obj
 0001:00032908       ?type_case_c@?$output_processor@_WV?$string_output_adapter@_W@__crt_stdio_output@@V?$positional_parameter_base@_WV?$string_output_adapter@_W@__crt_stdio_output@@@2@@__crt_stdio_output@@AAE_NXZ 10033908 f i libucrt:output.obj
 0001:00032910       ?type_case_c@?$output_processor@_WV?$string_output_adapter@_W@__crt_stdio_output@@V?$standard_base@_WV?$string_output_adapter@_W@__crt_stdio_output@@@2@@__crt_stdio_output@@AAE_NXZ 10033910 f i libucrt:output.obj
 0001:00032918       ?type_case_c_tchar@?$output_processor@DV?$stream_output_adapter@D@__crt_stdio_output@@V?$format_validation_base@DV?$stream_output_adapter@D@__crt_stdio_output@@@2@@__crt_stdio_output@@AAE_ND@Z 10033918 f i libucrt:output.obj
 0001:000329ad       ?type_case_c_tchar@?$output_processor@DV?$stream_output_adapter@D@__crt_stdio_output@@V?$positional_parameter_base@DV?$stream_output_adapter@D@__crt_stdio_output@@@2@@__crt_stdio_output@@AAE_ND@Z 100339ad f i libucrt:output.obj
 0001:00032a6c       ?type_case_c_tchar@?$output_processor@DV?$stream_output_adapter@D@__crt_stdio_output@@V?$standard_base@DV?$stream_output_adapter@D@__crt_stdio_output@@@2@@__crt_stdio_output@@AAE_ND@Z 10033a6c f i libucrt:output.obj
 0001:00032b01       ?type_case_c_tchar@?$output_processor@DV?$string_output_adapter@D@__crt_stdio_output@@V?$format_validation_base@DV?$string_output_adapter@D@__crt_stdio_output@@@2@@__crt_stdio_output@@AAE_ND@Z 10033b01 f i libucrt:output.obj
 0001:00032b96       ?type_case_c_tchar@?$output_processor@DV?$string_output_adapter@D@__crt_stdio_output@@V?$positional_parameter_base@DV?$string_output_adapter@D@__crt_stdio_output@@@2@@__crt_stdio_output@@AAE_ND@Z 10033b96 f i libucrt:output.obj
 0001:00032c55       ?type_case_c_tchar@?$output_processor@DV?$string_output_adapter@D@__crt_stdio_output@@V?$standard_base@DV?$string_output_adapter@D@__crt_stdio_output@@@2@@__crt_stdio_output@@AAE_ND@Z 10033c55 f i libucrt:output.obj
 0001:00032cea       ?type_case_c_tchar@?$output_processor@_WV?$stream_output_adapter@_W@__crt_stdio_output@@V?$format_validation_base@_WV?$stream_output_adapter@_W@__crt_stdio_output@@@2@@__crt_stdio_output@@AAE_N_W@Z 10033cea f i libucrt:output.obj
 0001:00032d92       ?type_case_c_tchar@?$output_processor@_WV?$stream_output_adapter@_W@__crt_stdio_output@@V?$positional_parameter_base@_WV?$stream_output_adapter@_W@__crt_stdio_output@@@2@@__crt_stdio_output@@AAE_N_W@Z 10033d92 f i libucrt:output.obj
 0001:00032e5d       ?type_case_c_tchar@?$output_processor@_WV?$stream_output_adapter@_W@__crt_stdio_output@@V?$standard_base@_WV?$stream_output_adapter@_W@__crt_stdio_output@@@2@@__crt_stdio_output@@AAE_N_W@Z 10033e5d f i libucrt:output.obj
 0001:00032f05       ?type_case_c_tchar@?$output_processor@_WV?$string_output_adapter@_W@__crt_stdio_output@@V?$format_validation_base@_WV?$string_output_adapter@_W@__crt_stdio_output@@@2@@__crt_stdio_output@@AAE_N_W@Z 10033f05 f i libucrt:output.obj
 0001:00032fad       ?type_case_c_tchar@?$output_processor@_WV?$string_output_adapter@_W@__crt_stdio_output@@V?$positional_parameter_base@_WV?$string_output_adapter@_W@__crt_stdio_output@@@2@@__crt_stdio_output@@AAE_N_W@Z 10033fad f i libucrt:output.obj
 0001:00033078       ?type_case_c_tchar@?$output_processor@_WV?$string_output_adapter@_W@__crt_stdio_output@@V?$standard_base@_WV?$string_output_adapter@_W@__crt_stdio_output@@@2@@__crt_stdio_output@@AAE_N_W@Z 10034078 f i libucrt:output.obj
 0001:00033120       ?type_case_d@?$output_processor@DV?$stream_output_adapter@D@__crt_stdio_output@@V?$format_validation_base@DV?$stream_output_adapter@D@__crt_stdio_output@@@2@@__crt_stdio_output@@AAE_NXZ 10034120 f i libucrt:output.obj
 0001:0003312c       ?type_case_d@?$output_processor@DV?$stream_output_adapter@D@__crt_stdio_output@@V?$positional_parameter_base@DV?$stream_output_adapter@D@__crt_stdio_output@@@2@@__crt_stdio_output@@AAE_NXZ 1003412c f i libucrt:output.obj
 0001:00033138       ?type_case_d@?$output_processor@DV?$stream_output_adapter@D@__crt_stdio_output@@V?$standard_base@DV?$stream_output_adapter@D@__crt_stdio_output@@@2@@__crt_stdio_output@@AAE_NXZ 10034138 f i libucrt:output.obj
 0001:00033144       ?type_case_d@?$output_processor@DV?$string_output_adapter@D@__crt_stdio_output@@V?$format_validation_base@DV?$string_output_adapter@D@__crt_stdio_output@@@2@@__crt_stdio_output@@AAE_NXZ 10034144 f i libucrt:output.obj
 0001:00033150       ?type_case_d@?$output_processor@DV?$string_output_adapter@D@__crt_stdio_output@@V?$positional_parameter_base@DV?$string_output_adapter@D@__crt_stdio_output@@@2@@__crt_stdio_output@@AAE_NXZ 10034150 f i libucrt:output.obj
 0001:0003315c       ?type_case_d@?$output_processor@DV?$string_output_adapter@D@__crt_stdio_output@@V?$standard_base@DV?$string_output_adapter@D@__crt_stdio_output@@@2@@__crt_stdio_output@@AAE_NXZ 1003415c f i libucrt:output.obj
 0001:00033168       ?type_case_d@?$output_processor@_WV?$stream_output_adapter@_W@__crt_stdio_output@@V?$format_validation_base@_WV?$stream_output_adapter@_W@__crt_stdio_output@@@2@@__crt_stdio_output@@AAE_NXZ 10034168 f i libucrt:output.obj
 0001:00033174       ?type_case_d@?$output_processor@_WV?$stream_output_adapter@_W@__crt_stdio_output@@V?$positional_parameter_base@_WV?$stream_output_adapter@_W@__crt_stdio_output@@@2@@__crt_stdio_output@@AAE_NXZ 10034174 f i libucrt:output.obj
 0001:00033180       ?type_case_d@?$output_processor@_WV?$stream_output_adapter@_W@__crt_stdio_output@@V?$standard_base@_WV?$stream_output_adapter@_W@__crt_stdio_output@@@2@@__crt_stdio_output@@AAE_NXZ 10034180 f i libucrt:output.obj
 0001:0003318c       ?type_case_d@?$output_processor@_WV?$string_output_adapter@_W@__crt_stdio_output@@V?$format_validation_base@_WV?$string_output_adapter@_W@__crt_stdio_output@@@2@@__crt_stdio_output@@AAE_NXZ 1003418c f i libucrt:output.obj
 0001:00033198       ?type_case_d@?$output_processor@_WV?$string_output_adapter@_W@__crt_stdio_output@@V?$positional_parameter_base@_WV?$string_output_adapter@_W@__crt_stdio_output@@@2@@__crt_stdio_output@@AAE_NXZ 10034198 f i libucrt:output.obj
 0001:000331a4       ?type_case_d@?$output_processor@_WV?$string_output_adapter@_W@__crt_stdio_output@@V?$standard_base@_WV?$string_output_adapter@_W@__crt_stdio_output@@@2@@__crt_stdio_output@@AAE_NXZ 100341a4 f i libucrt:output.obj
 0001:000331b0       ?type_case_n@?$output_processor@DV?$stream_output_adapter@D@__crt_stdio_output@@V?$format_validation_base@DV?$stream_output_adapter@D@__crt_stdio_output@@@2@@__crt_stdio_output@@AAE_NXZ 100341b0 f i libucrt:output.obj
 0001:00033235       ?type_case_n@?$output_processor@DV?$stream_output_adapter@D@__crt_stdio_output@@V?$positional_parameter_base@DV?$stream_output_adapter@D@__crt_stdio_output@@@2@@__crt_stdio_output@@AAE_NXZ 10034235 f i libucrt:output.obj
 0001:000332e2       ?type_case_n@?$output_processor@DV?$stream_output_adapter@D@__crt_stdio_output@@V?$standard_base@DV?$stream_output_adapter@D@__crt_stdio_output@@@2@@__crt_stdio_output@@AAE_NXZ 100342e2 f i libucrt:output.obj
 0001:00033367       ?type_case_n@?$output_processor@DV?$string_output_adapter@D@__crt_stdio_output@@V?$format_validation_base@DV?$string_output_adapter@D@__crt_stdio_output@@@2@@__crt_stdio_output@@AAE_NXZ 10034367 f i libucrt:output.obj
 0001:000333ec       ?type_case_n@?$output_processor@DV?$string_output_adapter@D@__crt_stdio_output@@V?$positional_parameter_base@DV?$string_output_adapter@D@__crt_stdio_output@@@2@@__crt_stdio_output@@AAE_NXZ 100343ec f i libucrt:output.obj
 0001:00033499       ?type_case_n@?$output_processor@DV?$string_output_adapter@D@__crt_stdio_output@@V?$standard_base@DV?$string_output_adapter@D@__crt_stdio_output@@@2@@__crt_stdio_output@@AAE_NXZ 10034499 f i libucrt:output.obj
 0001:0003351e       ?type_case_n@?$output_processor@_WV?$stream_output_adapter@_W@__crt_stdio_output@@V?$format_validation_base@_WV?$stream_output_adapter@_W@__crt_stdio_output@@@2@@__crt_stdio_output@@AAE_NXZ 1003451e f i libucrt:output.obj
 0001:000335a3       ?type_case_n@?$output_processor@_WV?$stream_output_adapter@_W@__crt_stdio_output@@V?$positional_parameter_base@_WV?$stream_output_adapter@_W@__crt_stdio_output@@@2@@__crt_stdio_output@@AAE_NXZ 100345a3 f i libucrt:output.obj
 0001:00033650       ?type_case_n@?$output_processor@_WV?$stream_output_adapter@_W@__crt_stdio_output@@V?$standard_base@_WV?$stream_output_adapter@_W@__crt_stdio_output@@@2@@__crt_stdio_output@@AAE_NXZ 10034650 f i libucrt:output.obj
 0001:000336d5       ?type_case_n@?$output_processor@_WV?$string_output_adapter@_W@__crt_stdio_output@@V?$format_validation_base@_WV?$string_output_adapter@_W@__crt_stdio_output@@@2@@__crt_stdio_output@@AAE_NXZ 100346d5 f i libucrt:output.obj
 0001:0003375a       ?type_case_n@?$output_processor@_WV?$string_output_adapter@_W@__crt_stdio_output@@V?$positional_parameter_base@_WV?$string_output_adapter@_W@__crt_stdio_output@@@2@@__crt_stdio_output@@AAE_NXZ 1003475a f i libucrt:output.obj
 0001:00033807       ?type_case_n@?$output_processor@_WV?$string_output_adapter@_W@__crt_stdio_output@@V?$standard_base@_WV?$string_output_adapter@_W@__crt_stdio_output@@@2@@__crt_stdio_output@@AAE_NXZ 10034807 f i libucrt:output.obj
 0001:0003388c       ?type_case_o@?$output_processor@DV?$stream_output_adapter@D@__crt_stdio_output@@V?$format_validation_base@DV?$stream_output_adapter@D@__crt_stdio_output@@@2@@__crt_stdio_output@@AAE_NXZ 1003488c f i libucrt:output.obj
 0001:000338a9       ?type_case_o@?$output_processor@DV?$stream_output_adapter@D@__crt_stdio_output@@V?$positional_parameter_base@DV?$stream_output_adapter@D@__crt_stdio_output@@@2@@__crt_stdio_output@@AAE_NXZ 100348a9 f i libucrt:output.obj
 0001:000338c6       ?type_case_o@?$output_processor@DV?$stream_output_adapter@D@__crt_stdio_output@@V?$standard_base@DV?$stream_output_adapter@D@__crt_stdio_output@@@2@@__crt_stdio_output@@AAE_NXZ 100348c6 f i libucrt:output.obj
 0001:000338e3       ?type_case_o@?$output_processor@DV?$string_output_adapter@D@__crt_stdio_output@@V?$format_validation_base@DV?$string_output_adapter@D@__crt_stdio_output@@@2@@__crt_stdio_output@@AAE_NXZ 100348e3 f i libucrt:output.obj
 0001:00033900       ?type_case_o@?$output_processor@DV?$string_output_adapter@D@__crt_stdio_output@@V?$positional_parameter_base@DV?$string_output_adapter@D@__crt_stdio_output@@@2@@__crt_stdio_output@@AAE_NXZ 10034900 f i libucrt:output.obj
 0001:0003391d       ?type_case_o@?$output_processor@DV?$string_output_adapter@D@__crt_stdio_output@@V?$standard_base@DV?$string_output_adapter@D@__crt_stdio_output@@@2@@__crt_stdio_output@@AAE_NXZ 1003491d f i libucrt:output.obj
 0001:0003393a       ?type_case_o@?$output_processor@_WV?$stream_output_adapter@_W@__crt_stdio_output@@V?$format_validation_base@_WV?$stream_output_adapter@_W@__crt_stdio_output@@@2@@__crt_stdio_output@@AAE_NXZ 1003493a f i libucrt:output.obj
 0001:00033957       ?type_case_o@?$output_processor@_WV?$stream_output_adapter@_W@__crt_stdio_output@@V?$positional_parameter_base@_WV?$stream_output_adapter@_W@__crt_stdio_output@@@2@@__crt_stdio_output@@AAE_NXZ 10034957 f i libucrt:output.obj
 0001:00033974       ?type_case_o@?$output_processor@_WV?$stream_output_adapter@_W@__crt_stdio_output@@V?$standard_base@_WV?$stream_output_adapter@_W@__crt_stdio_output@@@2@@__crt_stdio_output@@AAE_NXZ 10034974 f i libucrt:output.obj
 0001:00033991       ?type_case_o@?$output_processor@_WV?$string_output_adapter@_W@__crt_stdio_output@@V?$format_validation_base@_WV?$string_output_adapter@_W@__crt_stdio_output@@@2@@__crt_stdio_output@@AAE_NXZ 10034991 f i libucrt:output.obj
 0001:000339ae       ?type_case_o@?$output_processor@_WV?$string_output_adapter@_W@__crt_stdio_output@@V?$positional_parameter_base@_WV?$string_output_adapter@_W@__crt_stdio_output@@@2@@__crt_stdio_output@@AAE_NXZ 100349ae f i libucrt:output.obj
 0001:000339cb       ?type_case_o@?$output_processor@_WV?$string_output_adapter@_W@__crt_stdio_output@@V?$standard_base@_WV?$string_output_adapter@_W@__crt_stdio_output@@@2@@__crt_stdio_output@@AAE_NXZ 100349cb f i libucrt:output.obj
 0001:000339e8       ?type_case_p@?$output_processor@DV?$stream_output_adapter@D@__crt_stdio_output@@V?$format_validation_base@DV?$stream_output_adapter@D@__crt_stdio_output@@@2@@__crt_stdio_output@@AAE_NXZ 100349e8 f i libucrt:output.obj
 0001:000339fe       ?type_case_p@?$output_processor@DV?$stream_output_adapter@D@__crt_stdio_output@@V?$positional_parameter_base@DV?$stream_output_adapter@D@__crt_stdio_output@@@2@@__crt_stdio_output@@AAE_NXZ 100349fe f i libucrt:output.obj
 0001:00033a14       ?type_case_p@?$output_processor@DV?$stream_output_adapter@D@__crt_stdio_output@@V?$standard_base@DV?$stream_output_adapter@D@__crt_stdio_output@@@2@@__crt_stdio_output@@AAE_NXZ 10034a14 f i libucrt:output.obj
 0001:00033a2a       ?type_case_p@?$output_processor@DV?$string_output_adapter@D@__crt_stdio_output@@V?$format_validation_base@DV?$string_output_adapter@D@__crt_stdio_output@@@2@@__crt_stdio_output@@AAE_NXZ 10034a2a f i libucrt:output.obj
 0001:00033a40       ?type_case_p@?$output_processor@DV?$string_output_adapter@D@__crt_stdio_output@@V?$positional_parameter_base@DV?$string_output_adapter@D@__crt_stdio_output@@@2@@__crt_stdio_output@@AAE_NXZ 10034a40 f i libucrt:output.obj
 0001:00033a56       ?type_case_p@?$output_processor@DV?$string_output_adapter@D@__crt_stdio_output@@V?$standard_base@DV?$string_output_adapter@D@__crt_stdio_output@@@2@@__crt_stdio_output@@AAE_NXZ 10034a56 f i libucrt:output.obj
 0001:00033a6c       ?type_case_p@?$output_processor@_WV?$stream_output_adapter@_W@__crt_stdio_output@@V?$format_validation_base@_WV?$stream_output_adapter@_W@__crt_stdio_output@@@2@@__crt_stdio_output@@AAE_NXZ 10034a6c f i libucrt:output.obj
 0001:00033a82       ?type_case_p@?$output_processor@_WV?$stream_output_adapter@_W@__crt_stdio_output@@V?$positional_parameter_base@_WV?$stream_output_adapter@_W@__crt_stdio_output@@@2@@__crt_stdio_output@@AAE_NXZ 10034a82 f i libucrt:output.obj
 0001:00033a98       ?type_case_p@?$output_processor@_WV?$stream_output_adapter@_W@__crt_stdio_output@@V?$standard_base@_WV?$stream_output_adapter@_W@__crt_stdio_output@@@2@@__crt_stdio_output@@AAE_NXZ 10034a98 f i libucrt:output.obj
 0001:00033aae       ?type_case_p@?$output_processor@_WV?$string_output_adapter@_W@__crt_stdio_output@@V?$format_validation_base@_WV?$string_output_adapter@_W@__crt_stdio_output@@@2@@__crt_stdio_output@@AAE_NXZ 10034aae f i libucrt:output.obj
 0001:00033ac4       ?type_case_p@?$output_processor@_WV?$string_output_adapter@_W@__crt_stdio_output@@V?$positional_parameter_base@_WV?$string_output_adapter@_W@__crt_stdio_output@@@2@@__crt_stdio_output@@AAE_NXZ 10034ac4 f i libucrt:output.obj
 0001:00033ada       ?type_case_p@?$output_processor@_WV?$string_output_adapter@_W@__crt_stdio_output@@V?$standard_base@_WV?$string_output_adapter@_W@__crt_stdio_output@@@2@@__crt_stdio_output@@AAE_NXZ 10034ada f i libucrt:output.obj
 0001:00033af0       ?type_case_s@?$output_processor@DV?$stream_output_adapter@D@__crt_stdio_output@@V?$format_validation_base@DV?$stream_output_adapter@D@__crt_stdio_output@@@2@@__crt_stdio_output@@AAE_NXZ 10034af0 f i libucrt:output.obj
 0001:00033b62       ?type_case_s@?$output_processor@DV?$stream_output_adapter@D@__crt_stdio_output@@V?$positional_parameter_base@DV?$stream_output_adapter@D@__crt_stdio_output@@@2@@__crt_stdio_output@@AAE_NXZ 10034b62 f i libucrt:output.obj
 0001:00033be0       ?type_case_s@?$output_processor@DV?$stream_output_adapter@D@__crt_stdio_output@@V?$standard_base@DV?$stream_output_adapter@D@__crt_stdio_output@@@2@@__crt_stdio_output@@AAE_NXZ 10034be0 f i libucrt:output.obj
 0001:00033c52       ?type_case_s@?$output_processor@DV?$string_output_adapter@D@__crt_stdio_output@@V?$format_validation_base@DV?$string_output_adapter@D@__crt_stdio_output@@@2@@__crt_stdio_output@@AAE_NXZ 10034c52 f i libucrt:output.obj
 0001:00033cc4       ?type_case_s@?$output_processor@DV?$string_output_adapter@D@__crt_stdio_output@@V?$positional_parameter_base@DV?$string_output_adapter@D@__crt_stdio_output@@@2@@__crt_stdio_output@@AAE_NXZ 10034cc4 f i libucrt:output.obj
 0001:00033d42       ?type_case_s@?$output_processor@DV?$string_output_adapter@D@__crt_stdio_output@@V?$standard_base@DV?$string_output_adapter@D@__crt_stdio_output@@@2@@__crt_stdio_output@@AAE_NXZ 10034d42 f i libucrt:output.obj
 0001:00033db4       ?type_case_s@?$output_processor@_WV?$stream_output_adapter@_W@__crt_stdio_output@@V?$format_validation_base@_WV?$stream_output_adapter@_W@__crt_stdio_output@@@2@@__crt_stdio_output@@AAE_NXZ 10034db4 f i libucrt:output.obj
 0001:00033e28       ?type_case_s@?$output_processor@_WV?$stream_output_adapter@_W@__crt_stdio_output@@V?$positional_parameter_base@_WV?$stream_output_adapter@_W@__crt_stdio_output@@@2@@__crt_stdio_output@@AAE_NXZ 10034e28 f i libucrt:output.obj
 0001:00033ea8       ?type_case_s@?$output_processor@_WV?$stream_output_adapter@_W@__crt_stdio_output@@V?$standard_base@_WV?$stream_output_adapter@_W@__crt_stdio_output@@@2@@__crt_stdio_output@@AAE_NXZ 10034ea8 f i libucrt:output.obj
 0001:00033f1c       ?type_case_s@?$output_processor@_WV?$string_output_adapter@_W@__crt_stdio_output@@V?$format_validation_base@_WV?$string_output_adapter@_W@__crt_stdio_output@@@2@@__crt_stdio_output@@AAE_NXZ 10034f1c f i libucrt:output.obj
 0001:00033f90       ?type_case_s@?$output_processor@_WV?$string_output_adapter@_W@__crt_stdio_output@@V?$positional_parameter_base@_WV?$string_output_adapter@_W@__crt_stdio_output@@@2@@__crt_stdio_output@@AAE_NXZ 10034f90 f i libucrt:output.obj
 0001:00034010       ?type_case_s@?$output_processor@_WV?$string_output_adapter@_W@__crt_stdio_output@@V?$standard_base@_WV?$string_output_adapter@_W@__crt_stdio_output@@@2@@__crt_stdio_output@@AAE_NXZ 10035010 f i libucrt:output.obj
 0001:00034084       ?type_case_s_compute_narrow_string_length@?$output_processor@DV?$stream_output_adapter@D@__crt_stdio_output@@V?$format_validation_base@DV?$stream_output_adapter@D@__crt_stdio_output@@@2@@__crt_stdio_output@@AAEHHD@Z 10035084 f i libucrt:output.obj
 0001:0003409a       ?type_case_s_compute_narrow_string_length@?$output_processor@DV?$stream_output_adapter@D@__crt_stdio_output@@V?$positional_parameter_base@DV?$stream_output_adapter@D@__crt_stdio_output@@@2@@__crt_stdio_output@@AAEHHD@Z 1003509a f i libucrt:output.obj
 0001:000340b0       ?type_case_s_compute_narrow_string_length@?$output_processor@DV?$stream_output_adapter@D@__crt_stdio_output@@V?$standard_base@DV?$stream_output_adapter@D@__crt_stdio_output@@@2@@__crt_stdio_output@@AAEHHD@Z 100350b0 f i libucrt:output.obj
 0001:000340c6       ?type_case_s_compute_narrow_string_length@?$output_processor@DV?$string_output_adapter@D@__crt_stdio_output@@V?$format_validation_base@DV?$string_output_adapter@D@__crt_stdio_output@@@2@@__crt_stdio_output@@AAEHHD@Z 100350c6 f i libucrt:output.obj
 0001:000340dc       ?type_case_s_compute_narrow_string_length@?$output_processor@DV?$string_output_adapter@D@__crt_stdio_output@@V?$positional_parameter_base@DV?$string_output_adapter@D@__crt_stdio_output@@@2@@__crt_stdio_output@@AAEHHD@Z 100350dc f i libucrt:output.obj
 0001:000340f2       ?type_case_s_compute_narrow_string_length@?$output_processor@DV?$string_output_adapter@D@__crt_stdio_output@@V?$standard_base@DV?$string_output_adapter@D@__crt_stdio_output@@@2@@__crt_stdio_output@@AAEHHD@Z 100350f2 f i libucrt:output.obj
 0001:00034108       ?type_case_s_compute_narrow_string_length@?$output_processor@_WV?$stream_output_adapter@_W@__crt_stdio_output@@V?$format_validation_base@_WV?$stream_output_adapter@_W@__crt_stdio_output@@@2@@__crt_stdio_output@@AAEHH_W@Z 10035108 f i libucrt:output.obj
 0001:0003415d       ?type_case_s_compute_narrow_string_length@?$output_processor@_WV?$stream_output_adapter@_W@__crt_stdio_output@@V?$positional_parameter_base@_WV?$stream_output_adapter@_W@__crt_stdio_output@@@2@@__crt_stdio_output@@AAEHH_W@Z 1003515d f i libucrt:output.obj
 0001:000341b2       ?type_case_s_compute_narrow_string_length@?$output_processor@_WV?$stream_output_adapter@_W@__crt_stdio_output@@V?$standard_base@_WV?$stream_output_adapter@_W@__crt_stdio_output@@@2@@__crt_stdio_output@@AAEHH_W@Z 100351b2 f i libucrt:output.obj
 0001:00034207       ?type_case_s_compute_narrow_string_length@?$output_processor@_WV?$string_output_adapter@_W@__crt_stdio_output@@V?$format_validation_base@_WV?$string_output_adapter@_W@__crt_stdio_output@@@2@@__crt_stdio_output@@AAEHH_W@Z 10035207 f i libucrt:output.obj
 0001:0003425c       ?type_case_s_compute_narrow_string_length@?$output_processor@_WV?$string_output_adapter@_W@__crt_stdio_output@@V?$positional_parameter_base@_WV?$string_output_adapter@_W@__crt_stdio_output@@@2@@__crt_stdio_output@@AAEHH_W@Z 1003525c f i libucrt:output.obj
 0001:000342b1       ?type_case_s_compute_narrow_string_length@?$output_processor@_WV?$string_output_adapter@_W@__crt_stdio_output@@V?$standard_base@_WV?$string_output_adapter@_W@__crt_stdio_output@@@2@@__crt_stdio_output@@AAEHH_W@Z 100352b1 f i libucrt:output.obj
 0001:00034306       ?type_case_u@?$output_processor@DV?$stream_output_adapter@D@__crt_stdio_output@@V?$format_validation_base@DV?$stream_output_adapter@D@__crt_stdio_output@@@2@@__crt_stdio_output@@AAE_NXZ 10035306 f i libucrt:output.obj
 0001:0003430e       ?type_case_u@?$output_processor@DV?$stream_output_adapter@D@__crt_stdio_output@@V?$positional_parameter_base@DV?$stream_output_adapter@D@__crt_stdio_output@@@2@@__crt_stdio_output@@AAE_NXZ 1003530e f i libucrt:output.obj
 0001:00034316       ?type_case_u@?$output_processor@DV?$stream_output_adapter@D@__crt_stdio_output@@V?$standard_base@DV?$stream_output_adapter@D@__crt_stdio_output@@@2@@__crt_stdio_output@@AAE_NXZ 10035316 f i libucrt:output.obj
 0001:0003431e       ?type_case_u@?$output_processor@DV?$string_output_adapter@D@__crt_stdio_output@@V?$format_validation_base@DV?$string_output_adapter@D@__crt_stdio_output@@@2@@__crt_stdio_output@@AAE_NXZ 1003531e f i libucrt:output.obj
 0001:00034326       ?type_case_u@?$output_processor@DV?$string_output_adapter@D@__crt_stdio_output@@V?$positional_parameter_base@DV?$string_output_adapter@D@__crt_stdio_output@@@2@@__crt_stdio_output@@AAE_NXZ 10035326 f i libucrt:output.obj
 0001:0003432e       ?type_case_u@?$output_processor@DV?$string_output_adapter@D@__crt_stdio_output@@V?$standard_base@DV?$string_output_adapter@D@__crt_stdio_output@@@2@@__crt_stdio_output@@AAE_NXZ 1003532e f i libucrt:output.obj
 0001:00034336       ?type_case_u@?$output_processor@_WV?$stream_output_adapter@_W@__crt_stdio_output@@V?$format_validation_base@_WV?$stream_output_adapter@_W@__crt_stdio_output@@@2@@__crt_stdio_output@@AAE_NXZ 10035336 f i libucrt:output.obj
 0001:0003433e       ?type_case_u@?$output_processor@_WV?$stream_output_adapter@_W@__crt_stdio_output@@V?$positional_parameter_base@_WV?$stream_output_adapter@_W@__crt_stdio_output@@@2@@__crt_stdio_output@@AAE_NXZ 1003533e f i libucrt:output.obj
 0001:00034346       ?type_case_u@?$output_processor@_WV?$stream_output_adapter@_W@__crt_stdio_output@@V?$standard_base@_WV?$stream_output_adapter@_W@__crt_stdio_output@@@2@@__crt_stdio_output@@AAE_NXZ 10035346 f i libucrt:output.obj
 0001:0003434e       ?type_case_u@?$output_processor@_WV?$string_output_adapter@_W@__crt_stdio_output@@V?$format_validation_base@_WV?$string_output_adapter@_W@__crt_stdio_output@@@2@@__crt_stdio_output@@AAE_NXZ 1003534e f i libucrt:output.obj
 0001:00034356       ?type_case_u@?$output_processor@_WV?$string_output_adapter@_W@__crt_stdio_output@@V?$positional_parameter_base@_WV?$string_output_adapter@_W@__crt_stdio_output@@@2@@__crt_stdio_output@@AAE_NXZ 10035356 f i libucrt:output.obj
 0001:0003435e       ?type_case_u@?$output_processor@_WV?$string_output_adapter@_W@__crt_stdio_output@@V?$standard_base@_WV?$string_output_adapter@_W@__crt_stdio_output@@@2@@__crt_stdio_output@@AAE_NXZ 1003535e f i libucrt:output.obj
 0001:00034366       ?type_case_x@?$output_processor@DV?$stream_output_adapter@D@__crt_stdio_output@@V?$format_validation_base@DV?$stream_output_adapter@D@__crt_stdio_output@@@2@@__crt_stdio_output@@AAE_NXZ 10035366 f i libucrt:output.obj
 0001:0003436e       ?type_case_x@?$output_processor@DV?$stream_output_adapter@D@__crt_stdio_output@@V?$positional_parameter_base@DV?$stream_output_adapter@D@__crt_stdio_output@@@2@@__crt_stdio_output@@AAE_NXZ 1003536e f i libucrt:output.obj
 0001:00034376       ?type_case_x@?$output_processor@DV?$stream_output_adapter@D@__crt_stdio_output@@V?$standard_base@DV?$stream_output_adapter@D@__crt_stdio_output@@@2@@__crt_stdio_output@@AAE_NXZ 10035376 f i libucrt:output.obj
 0001:0003437e       ?type_case_x@?$output_processor@DV?$string_output_adapter@D@__crt_stdio_output@@V?$format_validation_base@DV?$string_output_adapter@D@__crt_stdio_output@@@2@@__crt_stdio_output@@AAE_NXZ 1003537e f i libucrt:output.obj
 0001:00034386       ?type_case_x@?$output_processor@DV?$string_output_adapter@D@__crt_stdio_output@@V?$positional_parameter_base@DV?$string_output_adapter@D@__crt_stdio_output@@@2@@__crt_stdio_output@@AAE_NXZ 10035386 f i libucrt:output.obj
 0001:0003438e       ?type_case_x@?$output_processor@DV?$string_output_adapter@D@__crt_stdio_output@@V?$standard_base@DV?$string_output_adapter@D@__crt_stdio_output@@@2@@__crt_stdio_output@@AAE_NXZ 1003538e f i libucrt:output.obj
 0001:00034396       ?type_case_x@?$output_processor@_WV?$stream_output_adapter@_W@__crt_stdio_output@@V?$format_validation_base@_WV?$stream_output_adapter@_W@__crt_stdio_output@@@2@@__crt_stdio_output@@AAE_NXZ 10035396 f i libucrt:output.obj
 0001:0003439e       ?type_case_x@?$output_processor@_WV?$stream_output_adapter@_W@__crt_stdio_output@@V?$positional_parameter_base@_WV?$stream_output_adapter@_W@__crt_stdio_output@@@2@@__crt_stdio_output@@AAE_NXZ 1003539e f i libucrt:output.obj
 0001:000343a6       ?type_case_x@?$output_processor@_WV?$stream_output_adapter@_W@__crt_stdio_output@@V?$standard_base@_WV?$stream_output_adapter@_W@__crt_stdio_output@@@2@@__crt_stdio_output@@AAE_NXZ 100353a6 f i libucrt:output.obj
 0001:000343ae       ?type_case_x@?$output_processor@_WV?$string_output_adapter@_W@__crt_stdio_output@@V?$format_validation_base@_WV?$string_output_adapter@_W@__crt_stdio_output@@@2@@__crt_stdio_output@@AAE_NXZ 100353ae f i libucrt:output.obj
 0001:000343b6       ?type_case_x@?$output_processor@_WV?$string_output_adapter@_W@__crt_stdio_output@@V?$positional_parameter_base@_WV?$string_output_adapter@_W@__crt_stdio_output@@@2@@__crt_stdio_output@@AAE_NXZ 100353b6 f i libucrt:output.obj
 0001:000343be       ?type_case_x@?$output_processor@_WV?$string_output_adapter@_W@__crt_stdio_output@@V?$standard_base@_WV?$string_output_adapter@_W@__crt_stdio_output@@@2@@__crt_stdio_output@@AAE_NXZ 100353be f i libucrt:output.obj
 0001:000343c6       ?unget@?$c_string_character_source@D@__crt_strtox@@QAEXD@Z 100353c6 f i libucrt:output.obj
 0001:000343ef       ?unget@?$c_string_character_source@_W@__crt_strtox@@QAEX_W@Z 100353ef f i libucrt:output.obj
 0001:0003441d       ?unset_flag@?$output_processor@DV?$stream_output_adapter@D@__crt_stdio_output@@V?$format_validation_base@DV?$stream_output_adapter@D@__crt_stdio_output@@@2@@__crt_stdio_output@@AAEXI@Z 1003541d f i libucrt:output.obj
 0001:0003442e       ?unset_flag@?$output_processor@DV?$stream_output_adapter@D@__crt_stdio_output@@V?$positional_parameter_base@DV?$stream_output_adapter@D@__crt_stdio_output@@@2@@__crt_stdio_output@@AAEXI@Z 1003542e f i libucrt:output.obj
 0001:0003443f       ?unset_flag@?$output_processor@DV?$stream_output_adapter@D@__crt_stdio_output@@V?$standard_base@DV?$stream_output_adapter@D@__crt_stdio_output@@@2@@__crt_stdio_output@@AAEXI@Z 1003543f f i libucrt:output.obj
 0001:00034450       ?unset_flag@?$output_processor@DV?$string_output_adapter@D@__crt_stdio_output@@V?$format_validation_base@DV?$string_output_adapter@D@__crt_stdio_output@@@2@@__crt_stdio_output@@AAEXI@Z 10035450 f i libucrt:output.obj
 0001:00034461       ?unset_flag@?$output_processor@DV?$string_output_adapter@D@__crt_stdio_output@@V?$positional_parameter_base@DV?$string_output_adapter@D@__crt_stdio_output@@@2@@__crt_stdio_output@@AAEXI@Z 10035461 f i libucrt:output.obj
 0001:00034472       ?unset_flag@?$output_processor@DV?$string_output_adapter@D@__crt_stdio_output@@V?$standard_base@DV?$string_output_adapter@D@__crt_stdio_output@@@2@@__crt_stdio_output@@AAEXI@Z 10035472 f i libucrt:output.obj
 0001:00034483       ?unset_flag@?$output_processor@_WV?$stream_output_adapter@_W@__crt_stdio_output@@V?$format_validation_base@_WV?$stream_output_adapter@_W@__crt_stdio_output@@@2@@__crt_stdio_output@@AAEXI@Z 10035483 f i libucrt:output.obj
 0001:00034494       ?unset_flag@?$output_processor@_WV?$stream_output_adapter@_W@__crt_stdio_output@@V?$positional_parameter_base@_WV?$stream_output_adapter@_W@__crt_stdio_output@@@2@@__crt_stdio_output@@AAEXI@Z 10035494 f i libucrt:output.obj
 0001:000344a5       ?unset_flag@?$output_processor@_WV?$stream_output_adapter@_W@__crt_stdio_output@@V?$standard_base@_WV?$stream_output_adapter@_W@__crt_stdio_output@@@2@@__crt_stdio_output@@AAEXI@Z 100354a5 f i libucrt:output.obj
 0001:000344b6       ?unset_flag@?$output_processor@_WV?$string_output_adapter@_W@__crt_stdio_output@@V?$format_validation_base@_WV?$string_output_adapter@_W@__crt_stdio_output@@@2@@__crt_stdio_output@@AAEXI@Z 100354b6 f i libucrt:output.obj
 0001:000344c7       ?unset_flag@?$output_processor@_WV?$string_output_adapter@_W@__crt_stdio_output@@V?$positional_parameter_base@_WV?$string_output_adapter@_W@__crt_stdio_output@@@2@@__crt_stdio_output@@AAEXI@Z 100354c7 f i libucrt:output.obj
 0001:000344d8       ?unset_flag@?$output_processor@_WV?$string_output_adapter@_W@__crt_stdio_output@@V?$standard_base@_WV?$string_output_adapter@_W@__crt_stdio_output@@@2@@__crt_stdio_output@@AAEXI@Z 100354d8 f i libucrt:output.obj
 0001:000344e9       ?update_field_width@?$positional_parameter_base@DV?$stream_output_adapter@D@__crt_stdio_output@@@__crt_stdio_output@@IAE_NXZ 100354e9 f i libucrt:output.obj
 0001:000345be       ?update_field_width@?$positional_parameter_base@DV?$string_output_adapter@D@__crt_stdio_output@@@__crt_stdio_output@@IAE_NXZ 100355be f i libucrt:output.obj
 0001:00034693       ?update_field_width@?$positional_parameter_base@_WV?$stream_output_adapter@_W@__crt_stdio_output@@@__crt_stdio_output@@IAE_NXZ 10035693 f i libucrt:output.obj
 0001:00034769       ?update_field_width@?$positional_parameter_base@_WV?$string_output_adapter@_W@__crt_stdio_output@@@__crt_stdio_output@@IAE_NXZ 10035769 f i libucrt:output.obj
 0001:0003483f       ?update_field_width@?$standard_base@DV?$stream_output_adapter@D@__crt_stdio_output@@@__crt_stdio_output@@IAE_NXZ 1003583f f i libucrt:output.obj
 0001:00034850       ?update_field_width@?$standard_base@DV?$string_output_adapter@D@__crt_stdio_output@@@__crt_stdio_output@@IAE_NXZ 10035850 f i libucrt:output.obj
 0001:00034861       ?update_field_width@?$standard_base@_WV?$stream_output_adapter@_W@__crt_stdio_output@@@__crt_stdio_output@@IAE_NXZ 10035861 f i libucrt:output.obj
 0001:00034872       ?update_field_width@?$standard_base@_WV?$string_output_adapter@_W@__crt_stdio_output@@@__crt_stdio_output@@IAE_NXZ 10035872 f i libucrt:output.obj
 0001:00034883       ?update_precision@?$positional_parameter_base@DV?$stream_output_adapter@D@__crt_stdio_output@@@__crt_stdio_output@@IAE_NXZ 10035883 f i libucrt:output.obj
 0001:00034958       ?update_precision@?$positional_parameter_base@DV?$string_output_adapter@D@__crt_stdio_output@@@__crt_stdio_output@@IAE_NXZ 10035958 f i libucrt:output.obj
 0001:00034a2d       ?update_precision@?$positional_parameter_base@_WV?$stream_output_adapter@_W@__crt_stdio_output@@@__crt_stdio_output@@IAE_NXZ 10035a2d f i libucrt:output.obj
 0001:00034b03       ?update_precision@?$positional_parameter_base@_WV?$string_output_adapter@_W@__crt_stdio_output@@@__crt_stdio_output@@IAE_NXZ 10035b03 f i libucrt:output.obj
 0001:00034bd9       ?update_precision@?$standard_base@DV?$stream_output_adapter@D@__crt_stdio_output@@@__crt_stdio_output@@IAE_NXZ 10035bd9 f i libucrt:output.obj
 0001:00034bea       ?update_precision@?$standard_base@DV?$string_output_adapter@D@__crt_stdio_output@@@__crt_stdio_output@@IAE_NXZ 10035bea f i libucrt:output.obj
 0001:00034bfb       ?update_precision@?$standard_base@_WV?$stream_output_adapter@_W@__crt_stdio_output@@@__crt_stdio_output@@IAE_NXZ 10035bfb f i libucrt:output.obj
 0001:00034c0c       ?update_precision@?$standard_base@_WV?$string_output_adapter@_W@__crt_stdio_output@@@__crt_stdio_output@@IAE_NXZ 10035c0c f i libucrt:output.obj
 0001:00034c1d       ?valid@__crt_stdio_stream@@QBE_NXZ 10035c1d f i libucrt:output.obj
 0001:00034c24       ?validate@?$c_string_character_source@D@__crt_strtox@@QBE_NXZ 10035c24 f i libucrt:output.obj
 0001:00034c3f       ?validate@?$c_string_character_source@_W@__crt_strtox@@QBE_NXZ 10035c3f f i libucrt:output.obj
 0001:00034c5a       ?validate@?$stream_output_adapter@D@__crt_stdio_output@@QBE_NAAV__crt_cached_ptd_host@@@Z 10035c5a f i libucrt:output.obj
 0001:00034c92       ?validate@?$stream_output_adapter@_W@__crt_stdio_output@@QBE_NAAV__crt_cached_ptd_host@@@Z 10035c92 f i libucrt:output.obj
 0001:00034cc3       ?validate@?$string_output_adapter@D@__crt_stdio_output@@QBE_NAAV__crt_cached_ptd_host@@@Z 10035cc3 f i libucrt:output.obj
 0001:00034cf4       ?validate@?$string_output_adapter@_W@__crt_stdio_output@@QBE_NAAV__crt_cached_ptd_host@@@Z 10035cf4 f i libucrt:output.obj
 0001:00034d25       ?validate_and_store_parameter_data@?$positional_parameter_base@DV?$stream_output_adapter@D@__crt_stdio_output@@@__crt_stdio_output@@AAE_NAAUparameter_data@12@W4parameter_type@12@DW4length_modifier@2@@Z 10035d25 f i libucrt:output.obj
 0001:00034d87       ?validate_and_store_parameter_data@?$positional_parameter_base@DV?$string_output_adapter@D@__crt_stdio_output@@@__crt_stdio_output@@AAE_NAAUparameter_data@12@W4parameter_type@12@DW4length_modifier@2@@Z 10035d87 f i libucrt:output.obj
 0001:00034de9       ?validate_and_store_parameter_data@?$positional_parameter_base@_WV?$stream_output_adapter@_W@__crt_stdio_output@@@__crt_stdio_output@@AAE_NAAUparameter_data@12@W4parameter_type@12@_WW4length_modifier@2@@Z 10035de9 f i libucrt:output.obj
 0001:00034e4d       ?validate_and_store_parameter_data@?$positional_parameter_base@_WV?$string_output_adapter@_W@__crt_stdio_output@@@__crt_stdio_output@@AAE_NAAUparameter_data@12@W4parameter_type@12@_WW4length_modifier@2@@Z 10035e4d f i libucrt:output.obj
 0001:00034eb1       ?validate_and_update_state_at_beginning_of_format_character@?$positional_parameter_base@DV?$stream_output_adapter@D@__crt_stdio_output@@@__crt_stdio_output@@IAE_NXZ 10035eb1 f i libucrt:output.obj
 0001:00034fc8       ?validate_and_update_state_at_beginning_of_format_character@?$positional_parameter_base@DV?$string_output_adapter@D@__crt_stdio_output@@@__crt_stdio_output@@IAE_NXZ 10035fc8 f i libucrt:output.obj
 0001:000350df       ?validate_and_update_state_at_beginning_of_format_character@?$positional_parameter_base@_WV?$stream_output_adapter@_W@__crt_stdio_output@@@__crt_stdio_output@@IAE_NXZ 100360df f i libucrt:output.obj
 0001:00035203       ?validate_and_update_state_at_beginning_of_format_character@?$positional_parameter_base@_WV?$string_output_adapter@_W@__crt_stdio_output@@@__crt_stdio_output@@IAE_NXZ 10036203 f i libucrt:output.obj
 0001:00035327       ?validate_and_update_state_at_beginning_of_format_character@?$standard_base@DV?$stream_output_adapter@D@__crt_stdio_output@@@__crt_stdio_output@@IAE_NXZ 10036327 f i libucrt:output.obj
 0001:0003532a       ?validate_and_update_state_at_beginning_of_format_character@?$standard_base@DV?$string_output_adapter@D@__crt_stdio_output@@@__crt_stdio_output@@IAE_NXZ 1003632a f i libucrt:output.obj
 0001:0003532d       ?validate_and_update_state_at_beginning_of_format_character@?$standard_base@_WV?$stream_output_adapter@_W@__crt_stdio_output@@@__crt_stdio_output@@IAE_NXZ 1003632d f i libucrt:output.obj
 0001:00035330       ?validate_and_update_state_at_beginning_of_format_character@?$standard_base@_WV?$string_output_adapter@_W@__crt_stdio_output@@@__crt_stdio_output@@IAE_NXZ 10036330 f i libucrt:output.obj
 0001:00035333       ?validate_and_update_state_at_end_of_format_string@?$format_validation_base@DV?$stream_output_adapter@D@__crt_stdio_output@@@__crt_stdio_output@@IAE_NXZ 10036333 f i libucrt:output.obj
 0001:00035364       ?validate_and_update_state_at_end_of_format_string@?$format_validation_base@DV?$string_output_adapter@D@__crt_stdio_output@@@__crt_stdio_output@@IAE_NXZ 10036364 f i libucrt:output.obj
 0001:00035395       ?validate_and_update_state_at_end_of_format_string@?$format_validation_base@_WV?$stream_output_adapter@_W@__crt_stdio_output@@@__crt_stdio_output@@IAE_NXZ 10036395 f i libucrt:output.obj
 0001:000353c6       ?validate_and_update_state_at_end_of_format_string@?$format_validation_base@_WV?$string_output_adapter@_W@__crt_stdio_output@@@__crt_stdio_output@@IAE_NXZ 100363c6 f i libucrt:output.obj
 0001:000353f7       ?validate_and_update_state_at_end_of_format_string@?$positional_parameter_base@DV?$stream_output_adapter@D@__crt_stdio_output@@@__crt_stdio_output@@IAE_NXZ 100363f7 f i libucrt:output.obj
 0001:000354b1       ?validate_and_update_state_at_end_of_format_string@?$positional_parameter_base@DV?$string_output_adapter@D@__crt_stdio_output@@@__crt_stdio_output@@IAE_NXZ 100364b1 f i libucrt:output.obj
 0001:0003556b       ?validate_and_update_state_at_end_of_format_string@?$positional_parameter_base@_WV?$stream_output_adapter@_W@__crt_stdio_output@@@__crt_stdio_output@@IAE_NXZ 1003656b f i libucrt:output.obj
 0001:00035625       ?validate_and_update_state_at_end_of_format_string@?$positional_parameter_base@_WV?$string_output_adapter@_W@__crt_stdio_output@@@__crt_stdio_output@@IAE_NXZ 10036625 f i libucrt:output.obj
 0001:000356df       ?validate_and_update_state_at_end_of_format_string@?$standard_base@DV?$stream_output_adapter@D@__crt_stdio_output@@@__crt_stdio_output@@IBE_NXZ 100366df f i libucrt:output.obj
 0001:000356e2       ?validate_and_update_state_at_end_of_format_string@?$standard_base@DV?$string_output_adapter@D@__crt_stdio_output@@@__crt_stdio_output@@IBE_NXZ 100366e2 f i libucrt:output.obj
 0001:000356e5       ?validate_and_update_state_at_end_of_format_string@?$standard_base@_WV?$stream_output_adapter@_W@__crt_stdio_output@@@__crt_stdio_output@@IBE_NXZ 100366e5 f i libucrt:output.obj
 0001:000356e8       ?validate_and_update_state_at_end_of_format_string@?$standard_base@_WV?$string_output_adapter@_W@__crt_stdio_output@@@__crt_stdio_output@@IBE_NXZ 100366e8 f i libucrt:output.obj
 0001:000356eb       ?validate_state_for_type_case_a@?$positional_parameter_base@DV?$stream_output_adapter@D@__crt_stdio_output@@@__crt_stdio_output@@IAE_NXZ 100366eb f i libucrt:output.obj
 0001:0003574a       ?validate_state_for_type_case_a@?$positional_parameter_base@DV?$string_output_adapter@D@__crt_stdio_output@@@__crt_stdio_output@@IAE_NXZ 1003674a f i libucrt:output.obj
 0001:000357a9       ?validate_state_for_type_case_a@?$positional_parameter_base@_WV?$stream_output_adapter@_W@__crt_stdio_output@@@__crt_stdio_output@@IAE_NXZ 100367a9 f i libucrt:output.obj
 0001:00035808       ?validate_state_for_type_case_a@?$positional_parameter_base@_WV?$string_output_adapter@_W@__crt_stdio_output@@@__crt_stdio_output@@IAE_NXZ 10036808 f i libucrt:output.obj
 0001:00035867       ?validate_state_for_type_case_a@?$standard_base@DV?$stream_output_adapter@D@__crt_stdio_output@@@__crt_stdio_output@@IBE_NXZ 10036867 f i libucrt:output.obj
 0001:0003586a       ?validate_state_for_type_case_a@?$standard_base@DV?$string_output_adapter@D@__crt_stdio_output@@@__crt_stdio_output@@IBE_NXZ 1003686a f i libucrt:output.obj
 0001:0003586d       ?validate_state_for_type_case_a@?$standard_base@_WV?$stream_output_adapter@_W@__crt_stdio_output@@@__crt_stdio_output@@IBE_NXZ 1003686d f i libucrt:output.obj
 0001:00035870       ?validate_state_for_type_case_a@?$standard_base@_WV?$string_output_adapter@_W@__crt_stdio_output@@@__crt_stdio_output@@IBE_NXZ 10036870 f i libucrt:output.obj
 0001:00035873       ?validate_stream_is_ansi_if_required@?$__acrt_stdio_char_traits@D@@SA_NQAU_iobuf@@@Z 10036873 f i libucrt:output.obj
 0001:000358fa       ?validate_stream_is_ansi_if_required@?$__acrt_stdio_char_traits@_W@@SA_NQAU_iobuf@@@Z 100368fa f i libucrt:output.obj
 0001:000358fd       ?wide_character_to_digit@__crt_strtox@@YAH_W@Z 100368fd f i libucrt:output.obj
 0001:00035a9e       ?wide_null_string@?$output_processor@DV?$stream_output_adapter@D@__crt_stdio_output@@V?$format_validation_base@DV?$stream_output_adapter@D@__crt_stdio_output@@@2@@__crt_stdio_output@@CAPA_WXZ 10036a9e f i libucrt:output.obj
 0001:00035aa4       ?wide_null_string@?$output_processor@DV?$stream_output_adapter@D@__crt_stdio_output@@V?$positional_parameter_base@DV?$stream_output_adapter@D@__crt_stdio_output@@@2@@__crt_stdio_output@@CAPA_WXZ 10036aa4 f i libucrt:output.obj
 0001:00035aaa       ?wide_null_string@?$output_processor@DV?$stream_output_adapter@D@__crt_stdio_output@@V?$standard_base@DV?$stream_output_adapter@D@__crt_stdio_output@@@2@@__crt_stdio_output@@CAPA_WXZ 10036aaa f i libucrt:output.obj
 0001:00035ab0       ?wide_null_string@?$output_processor@DV?$string_output_adapter@D@__crt_stdio_output@@V?$format_validation_base@DV?$string_output_adapter@D@__crt_stdio_output@@@2@@__crt_stdio_output@@CAPA_WXZ 10036ab0 f i libucrt:output.obj
 0001:00035ab6       ?wide_null_string@?$output_processor@DV?$string_output_adapter@D@__crt_stdio_output@@V?$positional_parameter_base@DV?$string_output_adapter@D@__crt_stdio_output@@@2@@__crt_stdio_output@@CAPA_WXZ 10036ab6 f i libucrt:output.obj
 0001:00035abc       ?wide_null_string@?$output_processor@DV?$string_output_adapter@D@__crt_stdio_output@@V?$standard_base@DV?$string_output_adapter@D@__crt_stdio_output@@@2@@__crt_stdio_output@@CAPA_WXZ 10036abc f i libucrt:output.obj
 0001:00035ac2       ?wide_null_string@?$output_processor@_WV?$stream_output_adapter@_W@__crt_stdio_output@@V?$format_validation_base@_WV?$stream_output_adapter@_W@__crt_stdio_output@@@2@@__crt_stdio_output@@CAPA_WXZ 10036ac2 f i libucrt:output.obj
 0001:00035ac8       ?wide_null_string@?$output_processor@_WV?$stream_output_adapter@_W@__crt_stdio_output@@V?$positional_parameter_base@_WV?$stream_output_adapter@_W@__crt_stdio_output@@@2@@__crt_stdio_output@@CAPA_WXZ 10036ac8 f i libucrt:output.obj
 0001:00035ace       ?wide_null_string@?$output_processor@_WV?$stream_output_adapter@_W@__crt_stdio_output@@V?$standard_base@_WV?$stream_output_adapter@_W@__crt_stdio_output@@@2@@__crt_stdio_output@@CAPA_WXZ 10036ace f i libucrt:output.obj
 0001:00035ad4       ?wide_null_string@?$output_processor@_WV?$string_output_adapter@_W@__crt_stdio_output@@V?$format_validation_base@_WV?$string_output_adapter@_W@__crt_stdio_output@@@2@@__crt_stdio_output@@CAPA_WXZ 10036ad4 f i libucrt:output.obj
 0001:00035ada       ?wide_null_string@?$output_processor@_WV?$string_output_adapter@_W@__crt_stdio_output@@V?$positional_parameter_base@_WV?$string_output_adapter@_W@__crt_stdio_output@@@2@@__crt_stdio_output@@CAPA_WXZ 10036ada f i libucrt:output.obj
 0001:00035ae0       ?wide_null_string@?$output_processor@_WV?$string_output_adapter@_W@__crt_stdio_output@@V?$standard_base@_WV?$string_output_adapter@_W@__crt_stdio_output@@@2@@__crt_stdio_output@@CAPA_WXZ 10036ae0 f i libucrt:output.obj
 0001:00035ae6       ?write_character@?$output_adapter_common@DV?$stream_output_adapter@D@__crt_stdio_output@@@__crt_stdio_output@@QBEXDQAHAAV__crt_cached_ptd_host@@@Z 10036ae6 f i libucrt:output.obj
 0001:00035b08       ?write_character@?$output_adapter_common@_WV?$stream_output_adapter@_W@__crt_stdio_output@@@__crt_stdio_output@@QBEX_WQAHAAV__crt_cached_ptd_host@@@Z 10036b08 f i libucrt:output.obj
 0001:00035b2a       ?write_character@?$string_output_adapter@D@__crt_stdio_output@@QBE_NDQAHAAV__crt_cached_ptd_host@@@Z 10036b2a f i libucrt:output.obj
 0001:00035b6c       ?write_character@?$string_output_adapter@_W@__crt_stdio_output@@QBE_N_WQAHAAV__crt_cached_ptd_host@@@Z 10036b6c f i libucrt:output.obj
 0001:00035bb1       ?write_character_without_count_update@?$stream_output_adapter@D@__crt_stdio_output@@QBE_NDAAV__crt_cached_ptd_host@@@Z 10036bb1 f i libucrt:output.obj
 0001:00035beb       ?write_character_without_count_update@?$stream_output_adapter@_W@__crt_stdio_output@@QBE_N_WAAV__crt_cached_ptd_host@@@Z 10036beb f i libucrt:output.obj
 0001:00035c28       ?write_stored_string_tchar@?$output_processor@DV?$stream_output_adapter@D@__crt_stdio_output@@V?$format_validation_base@DV?$stream_output_adapter@D@__crt_stdio_output@@@2@@__crt_stdio_output@@AAE_ND@Z 10036c28 f i libucrt:output.obj
 0001:00035cd3       ?write_stored_string_tchar@?$output_processor@DV?$stream_output_adapter@D@__crt_stdio_output@@V?$positional_parameter_base@DV?$stream_output_adapter@D@__crt_stdio_output@@@2@@__crt_stdio_output@@AAE_ND@Z 10036cd3 f i libucrt:output.obj
 0001:00035d7e       ?write_stored_string_tchar@?$output_processor@DV?$stream_output_adapter@D@__crt_stdio_output@@V?$standard_base@DV?$stream_output_adapter@D@__crt_stdio_output@@@2@@__crt_stdio_output@@AAE_ND@Z 10036d7e f i libucrt:output.obj
 0001:00035e29       ?write_stored_string_tchar@?$output_processor@DV?$string_output_adapter@D@__crt_stdio_output@@V?$format_validation_base@DV?$string_output_adapter@D@__crt_stdio_output@@@2@@__crt_stdio_output@@AAE_ND@Z 10036e29 f i libucrt:output.obj
 0001:00035ed4       ?write_stored_string_tchar@?$output_processor@DV?$string_output_adapter@D@__crt_stdio_output@@V?$positional_parameter_base@DV?$string_output_adapter@D@__crt_stdio_output@@@2@@__crt_stdio_output@@AAE_ND@Z 10036ed4 f i libucrt:output.obj
 0001:00035f7f       ?write_stored_string_tchar@?$output_processor@DV?$string_output_adapter@D@__crt_stdio_output@@V?$standard_base@DV?$string_output_adapter@D@__crt_stdio_output@@@2@@__crt_stdio_output@@AAE_ND@Z 10036f7f f i libucrt:output.obj
 0001:0003602a       ?write_stored_string_tchar@?$output_processor@_WV?$stream_output_adapter@_W@__crt_stdio_output@@V?$format_validation_base@_WV?$stream_output_adapter@_W@__crt_stdio_output@@@2@@__crt_stdio_output@@AAE_N_W@Z 1003702a f i libucrt:output.obj
 0001:000360d7       ?write_stored_string_tchar@?$output_processor@_WV?$stream_output_adapter@_W@__crt_stdio_output@@V?$positional_parameter_base@_WV?$stream_output_adapter@_W@__crt_stdio_output@@@2@@__crt_stdio_output@@AAE_N_W@Z 100370d7 f i libucrt:output.obj
 0001:00036184       ?write_stored_string_tchar@?$output_processor@_WV?$stream_output_adapter@_W@__crt_stdio_output@@V?$standard_base@_WV?$stream_output_adapter@_W@__crt_stdio_output@@@2@@__crt_stdio_output@@AAE_N_W@Z 10037184 f i libucrt:output.obj
 0001:00036231       ?write_stored_string_tchar@?$output_processor@_WV?$string_output_adapter@_W@__crt_stdio_output@@V?$format_validation_base@_WV?$string_output_adapter@_W@__crt_stdio_output@@@2@@__crt_stdio_output@@AAE_N_W@Z 10037231 f i libucrt:output.obj
 0001:0003630e       ?write_stored_string_tchar@?$output_processor@_WV?$string_output_adapter@_W@__crt_stdio_output@@V?$positional_parameter_base@_WV?$string_output_adapter@_W@__crt_stdio_output@@@2@@__crt_stdio_output@@AAE_N_W@Z 1003730e f i libucrt:output.obj
 0001:000363eb       ?write_stored_string_tchar@?$output_processor@_WV?$string_output_adapter@_W@__crt_stdio_output@@V?$standard_base@_WV?$string_output_adapter@_W@__crt_stdio_output@@@2@@__crt_stdio_output@@AAE_N_W@Z 100373eb f i libucrt:output.obj
 0001:000364c8       ?write_string@?$stream_output_adapter@D@__crt_stdio_output@@QBEXQBDHQAHAAV__crt_cached_ptd_host@@@Z 100374c8 f i libucrt:output.obj
 0001:000364f4       ?write_string@?$stream_output_adapter@_W@__crt_stdio_output@@QBEXQB_WHQAHAAV__crt_cached_ptd_host@@@Z 100374f4 f i libucrt:output.obj
 0001:00036520       ?write_string@?$string_output_adapter@D@__crt_stdio_output@@QBEXQBDHQAHAAV__crt_cached_ptd_host@@@Z 10037520 f i libucrt:output.obj
 0001:00036587       ?write_string@?$string_output_adapter@_W@__crt_stdio_output@@QBEXQB_WHQAHAAV__crt_cached_ptd_host@@@Z 10037587 f i libucrt:output.obj
 0001:000365f8       ?write_string_impl@?$output_adapter_common@DV?$stream_output_adapter@D@__crt_stdio_output@@@__crt_stdio_output@@IBEXQBDHQAHAAV__crt_cached_ptd_host@@@Z 100375f8 f i libucrt:output.obj
 0001:00036677       ?write_string_impl@?$output_adapter_common@_WV?$stream_output_adapter@_W@__crt_stdio_output@@@__crt_stdio_output@@IBEXQB_WHQAHAAV__crt_cached_ptd_host@@@Z 10037677 f i libucrt:output.obj
 0001:000366f9       ___acrt_isleadbyte_l_noupdate 100376f9 f i libucrt:output.obj
 0001:00036717       ___acrt_locale_get_ctype_array_value 10037717 f i libucrt:output.obj
 0001:00036739       ___ascii_iswalpha          10037739 f i libucrt:output.obj
 0001:0003675c       ___ascii_toupper           1003775c f i libucrt:output.obj
 0001:00036773       ___ascii_towupper          10037773 f i libucrt:output.obj
 0001:0003678a       ___stdio_common_vfprintf   1003778a f   libucrt:output.obj
 0001:0003682e       ___stdio_common_vfprintf_p 1003782e f   libucrt:output.obj
 0001:000368d2       ___stdio_common_vfprintf_s 100378d2 f   libucrt:output.obj
 0001:00036976       ___stdio_common_vfwprintf  10037976 f   libucrt:output.obj
 0001:00036a1a       ___stdio_common_vfwprintf_p 10037a1a f   libucrt:output.obj
 0001:00036abe       ___stdio_common_vfwprintf_s 10037abe f   libucrt:output.obj
 0001:00036b62       ___stdio_common_vsnprintf_s 10037b62 f   libucrt:output.obj
 0001:00036ba6       ___stdio_common_vsnwprintf_s 10037ba6 f   libucrt:output.obj
 0001:00036bea       ___stdio_common_vsprintf   10037bea f   libucrt:output.obj
 0001:00036c2b       ___stdio_common_vsprintf_p 10037c2b f   libucrt:output.obj
 0001:00036c6c       ___stdio_common_vsprintf_s 10037c6c f   libucrt:output.obj
 0001:00036cad       ___stdio_common_vswprintf  10037cad f   libucrt:output.obj
 0001:00036cee       ___stdio_common_vswprintf_p 10037cee f   libucrt:output.obj
 0001:00036d2f       ___stdio_common_vswprintf_s 10037d2f f   libucrt:output.obj
 0001:00036d70       __ctype_fast_check_internal 10037d70 f i libucrt:output.obj
 0001:00036d8a       __isdigit_fast_internal    10037d8a f i libucrt:output.obj
 0001:00036da4       __tolower_fast_internal    10037da4 f i libucrt:output.obj
 0001:00036dbd       _free                      10037dbd f   libucrt:free.obj
 0001:00036dd8       _malloc                    10037dd8 f   libucrt:malloc.obj
 0001:00037321       __read                     10038321 f   libucrt:read.obj
 0001:0003743a       __read_nolock              1003843a f   libucrt:read.obj
 0001:000377c5       __utf8_no_of_trailbytes    100387c5 f i libucrt:read.obj
 0001:00037983       __close                    10038983 f   libucrt:close.obj
 0001:000379b3       __close_internal           100389b3 f   libucrt:close.obj
 0001:00037a56       __close_nolock             10038a56 f   libucrt:close.obj
 0001:00037a86       __close_nolock_internal    10038a86 f   libucrt:close.obj
 0001:00037b26       ___acrt_errno_from_os_error 10038b26 f   libucrt:errno.obj
 0001:00037b69       ___acrt_errno_map_os_error 10038b69 f   libucrt:errno.obj
 0001:00037b8c       ___acrt_errno_map_os_error_ptd 10038b8c f   libucrt:errno.obj
 0001:00037bb0       ___doserrno                10038bb0 f   libucrt:errno.obj
 0001:00037bc3       __errno                    10038bc3 f   libucrt:errno.obj
 0001:00037bd6       __get_doserrno             10038bd6 f   libucrt:errno.obj
 0001:00037bfb       __get_errno                10038bfb f   libucrt:errno.obj
 0001:00037c20       __set_doserrno             10038c20 f   libucrt:errno.obj
 0001:00037c41       __set_errno                10038c41 f   libucrt:errno.obj
 0001:00037c62       ??$?R_W@__crt_internal_free_policy@@QBEXQB_W@Z 10038c62 f i libucrt:strerror.obj
 0001:00037e2a       ??0?$__crt_unique_heap_ptr@_WU__crt_internal_free_policy@@@@QAE@QA_W@Z 10038e2a f i libucrt:strerror.obj
 0001:00037e3a       ??1?$__crt_unique_heap_ptr@_WU__crt_internal_free_policy@@@@QAE@XZ 10038e3a f i libucrt:strerror.obj
 0001:00037e84       ?detach@?$__crt_unique_heap_ptr@DU__crt_internal_free_policy@@@@QAEPADXZ 10038e84 f i libucrt:strerror.obj
 0001:00037e8a       ?detach@?$__crt_unique_heap_ptr@_WU__crt_internal_free_policy@@@@QAEPA_WXZ 10038e8a f i libucrt:strerror.obj
 0001:00037eb6       ?release@?$__crt_unique_heap_ptr@_WU__crt_internal_free_policy@@@@QAEXXZ 10038eb6 f i libucrt:strerror.obj
 0001:00037ec8       __get_sys_err_msg          10038ec8 f i libucrt:strerror.obj
 0001:00037f20       __invoke_watson_if_oneof   10038f20 f i libucrt:strerror.obj
 0001:00037f4d       __wcserror                 10038f4d f   libucrt:strerror.obj
 0001:00037f58       __wcserror_s               10038f58 f   libucrt:strerror.obj
 0001:00037fc4       _strerror                  10038fc4 f   libucrt:strerror.obj
 0001:00037fcf       _strerror_s                10038fcf f   libucrt:strerror.obj
 0001:00038829       __isleadbyte_fast_internal 10039829 f i libucrt:write.obj
 0001:00038847       __write                    10039847 f   libucrt:write.obj
 0001:0003887e       __write_internal           1003987e f   libucrt:write.obj
 0001:0003898f       __write_nolock             1003998f f   libucrt:write.obj
 0001:000392cb       ?ctrl_z@__crt_stdio_stream@@QBE_NXZ 1003a2cb f i libucrt:ftell.obj
 0001:000392d7       ?has_all_of@__crt_stdio_stream@@QBE_NJ@Z 1003a2d7 f i libucrt:ftell.obj
 0001:000392ef       ?has_any_of@__crt_stdio_stream@@QBE_NJ@Z 1003a2ef f i libucrt:ftell.obj
 0001:00039304       ?has_big_buffer@__crt_stdio_stream@@QBE_NXZ 1003a304 f i libucrt:ftell.obj
 0001:00039310       ?has_crt_buffer@__crt_stdio_stream@@QBE_NXZ 1003a310 f i libucrt:ftell.obj
 0001:0003931c       ?has_setvbuf_buffer@__crt_stdio_stream@@QBE_NXZ 1003a31c f i libucrt:ftell.obj
 0001:00039328       __ftell_nolock             1003a328 f   libucrt:ftell.obj
 0001:00039358       __ftelli64                 1003a358 f   libucrt:ftell.obj
 0001:0003938e       __ftelli64_nolock          1003a38e f   libucrt:ftell.obj
 0001:000393c4       __ftelli64_nolock_internal 1003a3c4 f   libucrt:ftell.obj
 0001:000393cf       _ftell                     1003a3cf f   libucrt:ftell.obj
 0001:000393ff       ?eof@__crt_stdio_stream@@QBE_NXZ 1003a3ff f i libucrt:feoferr.obj
 0001:0003940b       ?error@__crt_stdio_stream@@QBE_NXZ 1003a40b f i libucrt:feoferr.obj
 0001:00039417       _feof                      1003a417 f   libucrt:feoferr.obj
 0001:00039443       _ferror                    1003a443 f   libucrt:feoferr.obj
 0001:0003966a       ??$open_file@ABQBDABQBDABHPAU_iobuf@@@?$__crt_char_traits@D@@SAPAU_iobuf@@ABQBD0ABH$$QAPAU1@@Z 1003a66a f i libucrt:fopen.obj
 0001:0003968d       ??$open_file@ABQB_WABQB_WABHPAU_iobuf@@@?$__crt_char_traits@_W@@SAPAU_iobuf@@ABQB_W0ABH$$QAPAU1@@Z 1003a68d f i libucrt:fopen.obj
 0001:000396b0       ?unlock@__crt_stdio_stream@@QBEXXZ 1003a6b0 f i libucrt:fopen.obj
 0001:000396b9       __fsopen                   1003a6b9 f   libucrt:fopen.obj
 0001:000396c4       __wfopen                   1003a6c4 f   libucrt:fopen.obj
 0001:000396db       __wfopen_s                 1003a6db f   libucrt:fopen.obj
 0001:00039722       __wfsopen                  1003a722 f   libucrt:fopen.obj
 0001:0003972d       _fopen                     1003a72d f   libucrt:fopen.obj
 0001:00039744       _fopen_s                   1003a744 f   libucrt:fopen.obj
 0001:000398b0       ?is_in_use@__crt_stdio_stream@@QBE_NXZ 1003a8b0 f i libucrt:fclose.obj
 0001:000398bc       __fclose_nolock            1003a8bc f   libucrt:fclose.obj
 0001:000398ec       _fclose                    1003a8ec f   libucrt:fclose.obj
 0001:0003991c       ?LongLongSub@@YAJ_J0PA_J@Z 1003a91c f i libucrt:fseek.obj
 0001:00039996       ?__acrt_stdio_reset_buffer@@YAXV__crt_stdio_stream@@@Z 1003a996 f i libucrt:fseek.obj
 0001:00039c1b       ?has_any_buffer@__crt_stdio_stream@@QBE_NXZ 1003ac1b f i libucrt:fseek.obj
 0001:00039c2a       ?lowio_handle@__crt_stdio_stream@@QBEHXZ 1003ac2a f i libucrt:fseek.obj
 0001:00039c31       ?unset_flags@__crt_stdio_stream@@QBE_NJ@Z 1003ac31 f i libucrt:fseek.obj
 0001:00039c5a       __fseek_nolock             1003ac5a f   libucrt:fseek.obj
 0001:00039c94       __fseeki64                 1003ac94 f   libucrt:fseek.obj
 0001:00039cce       __fseeki64_nolock          1003acce f   libucrt:fseek.obj
 0001:00039d08       _fseek                     1003ad08 f   libucrt:fseek.obj
 0001:00039e6d       ?set_flags@__crt_stdio_stream@@QBE_NJ@Z 1003ae6d f i libucrt:fwrite.obj
 0001:00039e91       __fwrite_internal          1003ae91 f   libucrt:fwrite.obj
 0001:00039f08       __fwrite_nolock            1003af08 f   libucrt:fwrite.obj
 0001:00039f42       __fwrite_nolock_internal   1003af42 f   libucrt:fwrite.obj
 0001:0003a0e9       _fwrite                    1003b0e9 f   libucrt:fwrite.obj
 0001:0003a123       __fread_nolock             1003b123 f   libucrt:fread.obj
 0001:0003a140       __fread_nolock_s           1003b140 f   libucrt:fread.obj
 0001:0003a319       _fread                     1003b319 f   libucrt:fread.obj
 0001:0003a336       _fread_s                   1003b336 f   libucrt:fread.obj
 0001:0003a454       _rand                      1003b454 f   libucrt:rand.obj
 0001:0003a475       _srand                     1003b475 f   libucrt:rand.obj
 0001:0003a796       __time32                   1003b796 f   libucrt:time.obj
 0001:0003a7f5       __time64                   1003b7f5 f   libucrt:time.obj
 0001:0003a85d       __timespec32_get           1003b85d f   libucrt:time.obj
 0001:0003a868       __timespec64_get           1003b868 f   libucrt:time.obj
 0001:0003a873       __initterm                 1003b873 f   libucrt:initterm.obj
 0001:0003a89e       __initterm_e               1003b89e f   libucrt:initterm.obj
 0001:0003a8f0       __seh_filter_dll           1003b8f0 f   libucrt:exception_filter.obj
 0001:0003a910       __seh_filter_exe           1003b910 f   libucrt:exception_filter.obj
 0001:0003aa56       ??$?B$$A6GXPAXK0@Z@__crt_fast_encoded_nullptr_t@@QBEP6GXPAXK0@ZXZ 1003ba56 f i libucrt:exit.obj
 0001:0003aafe       ??$__crt_fast_decode_pointer@P6GXPAXK0@Z@@YAP6GXPAXK0@ZQ6GX0K0@Z@Z 1003bafe f i libucrt:exit.obj
 0001:0003ab19       ??$__crt_fast_encode_pointer@P6GXPAXK0@Z@@YAP6GXPAXK0@ZQ6GX0K0@Z@Z 1003bb19 f i libucrt:exit.obj
 0001:0003ab38       ??$__crt_get_proc_address@P6GXI@Z@@YAP6GXI@ZQAUHINSTANCE__@@QBD@Z 1003bb38 f i libucrt:exit.obj
 0001:0003ab8b       ??0?$__crt_unique_handle_t@U__crt_hmodule_traits@@@@QAE@QAUHINSTANCE__@@@Z 1003bb8b f i libucrt:exit.obj
 0001:0003ab9b       ??1?$__crt_unique_handle_t@U__crt_hmodule_traits@@@@QAE@XZ 1003bb9b f i libucrt:exit.obj
 0001:0003acac       ?__acrt_select_exit_lock@@YA?AW4__acrt_lock_id@@XZ 1003bcac f i libucrt:exit.obj
 0001:0003acb0       ?__crt_fast_encode_pointer@@YA?AU__crt_fast_encoded_nullptr_t@@$$T@Z 1003bcb0 f i libucrt:exit.obj
 0001:0003acbb       ?__crt_rotate_pointer_value@@YAIIH@Z 1003bcbb f i libucrt:exit.obj
 0001:0003acdd       ?close@?$__crt_unique_handle_t@U__crt_hmodule_traits@@@@QAEXXZ 1003bcdd f i libucrt:exit.obj
 0001:0003acf4       ?close@__crt_hmodule_traits@@SA_NPAUHINSTANCE__@@@Z 1003bcf4 f i libucrt:exit.obj
 0001:0003add1       ?get@?$__crt_unique_handle_t@U__crt_hmodule_traits@@@@QBEPAUHINSTANCE__@@XZ 1003bdd1 f i libucrt:exit.obj
 0001:0003add4       ?get_address_of@?$__crt_unique_handle_t@U__crt_hmodule_traits@@@@QAEPAPAUHINSTANCE__@@XZ 1003bdd4 f i libucrt:exit.obj
 0001:0003add7       ?get_invalid_value@__crt_hmodule_traits@@SAPAUHINSTANCE__@@XZ 1003bdd7 f i libucrt:exit.obj
 0001:0003aeb7       __Exit                     1003beb7 f   libucrt:exit.obj
 0001:0003aecd       ___acrt_initialize_thread_local_exit_callback 1003becd f   libucrt:exit.obj
 0001:0003aedc       __c_exit                   1003bedc f   libucrt:exit.obj
 0001:0003aeeb       __cexit                    1003beeb f   libucrt:exit.obj
 0001:0003aefa       __exit                     1003befa f   libucrt:exit.obj
 0001:0003af10       __is_c_termination_complete 1003bf10 f   libucrt:exit.obj
 0001:0003af17       __register_thread_local_exe_atexit_callback 1003bf17 f   libucrt:exit.obj
 0001:0003af3d       _exit                      1003bf3d f   libucrt:exit.obj
 0001:0003af53       _quick_exit                1003bf53 f   libucrt:exit.obj
 0001:0003af69       ??$?RE@__crt_internal_free_policy@@QBEXQBE@Z 1003bf69 f i libucrt:argv_parsing.obj
 0001:0003af7b       ??$?RPAD@__crt_internal_free_policy@@QBEXQBQAD@Z 1003bf7b f i libucrt:argv_parsing.obj
 0001:0003af8d       ??$?RPA_W@__crt_internal_free_policy@@QBEXQBQA_W@Z 1003bf8d f i libucrt:argv_parsing.obj
 0001:0003b212       ??$get_module_file_name@$$TAAY0BAF@DH@?$__crt_char_traits@D@@SAK$$QA$$TAAY0BAF@D$$QAH@Z 1003c212 f i libucrt:argv_parsing.obj
 0001:0003b22e       ??$get_module_file_name@$$TAAY0BAF@_WH@?$__crt_char_traits@_W@@SAK$$QA$$TAAY0BAF@_W$$QAH@Z 1003c22e f i libucrt:argv_parsing.obj
 0001:0003b55d       ??$set_program_name@PAD@?$__crt_char_traits@D@@SAX$$QAPAD@Z 1003c55d f i libucrt:argv_parsing.obj
 0001:0003b56e       ??$set_program_name@PA_W@?$__crt_char_traits@_W@@SAX$$QAPA_W@Z 1003c56e f i libucrt:argv_parsing.obj
 0001:0003b59f       ??0?$__crt_unique_heap_ptr@EU__crt_internal_free_policy@@@@QAE@QAE@Z 1003c59f f i libucrt:argv_parsing.obj
 0001:0003b5af       ??0?$__crt_unique_heap_ptr@PADU__crt_internal_free_policy@@@@QAE@QAPAD@Z 1003c5af f i libucrt:argv_parsing.obj
 0001:0003b5bf       ??0?$__crt_unique_heap_ptr@PA_WU__crt_internal_free_policy@@@@QAE@QAPA_W@Z 1003c5bf f i libucrt:argv_parsing.obj
 0001:0003b5cf       ??1?$__crt_unique_heap_ptr@EU__crt_internal_free_policy@@@@QAE@XZ 1003c5cf f i libucrt:argv_parsing.obj
 0001:0003b5e1       ??1?$__crt_unique_heap_ptr@PADU__crt_internal_free_policy@@@@QAE@XZ 1003c5e1 f i libucrt:argv_parsing.obj
 0001:0003b5f3       ??1?$__crt_unique_heap_ptr@PA_WU__crt_internal_free_policy@@@@QAE@XZ 1003c5f3 f i libucrt:argv_parsing.obj
 0001:0003b605       ??B?$__crt_unique_heap_ptr@EU__crt_internal_free_policy@@@@QBE_NXZ 1003c605 f i libucrt:argv_parsing.obj
 0001:0003b638       ?detach@?$__crt_unique_heap_ptr@EU__crt_internal_free_policy@@@@QAEPAEXZ 1003c638 f i libucrt:argv_parsing.obj
 0001:0003b63e       ?detach@?$__crt_unique_heap_ptr@PADU__crt_internal_free_policy@@@@QAEPAPADXZ 1003c63e f i libucrt:argv_parsing.obj
 0001:0003b644       ?detach@?$__crt_unique_heap_ptr@PA_WU__crt_internal_free_policy@@@@QAEPAPA_WXZ 1003c644 f i libucrt:argv_parsing.obj
 0001:0003b668       ?get@?$__crt_unique_heap_ptr@EU__crt_internal_free_policy@@@@QBEPAEXZ 1003c668 f i libucrt:argv_parsing.obj
 0001:0003b66b       ?get@?$__crt_unique_heap_ptr@PADU__crt_internal_free_policy@@@@QBEPAPADXZ 1003c66b f i libucrt:argv_parsing.obj
 0001:0003b66e       ?get@?$__crt_unique_heap_ptr@PA_WU__crt_internal_free_policy@@@@QBEPAPA_WXZ 1003c66e f i libucrt:argv_parsing.obj
 0001:0003b671       ?get_address_of@?$__crt_unique_heap_ptr@PADU__crt_internal_free_policy@@@@QAEPAPAPADXZ 1003c671 f i libucrt:argv_parsing.obj
 0001:0003b674       ?get_address_of@?$__crt_unique_heap_ptr@PA_WU__crt_internal_free_policy@@@@QAEPAPAPA_WXZ 1003c674 f i libucrt:argv_parsing.obj
 0001:0003b68f       ?is_valid@?$__crt_unique_heap_ptr@EU__crt_internal_free_policy@@@@QBE_NXZ 1003c68f f i libucrt:argv_parsing.obj
 0001:0003b696       ?release@?$__crt_unique_heap_ptr@EU__crt_internal_free_policy@@@@QAEXXZ 1003c696 f i libucrt:argv_parsing.obj
 0001:0003b6a8       ?release@?$__crt_unique_heap_ptr@PADU__crt_internal_free_policy@@@@QAEXXZ 1003c6a8 f i libucrt:argv_parsing.obj
 0001:0003b6ba       ?release@?$__crt_unique_heap_ptr@PA_WU__crt_internal_free_policy@@@@QAEXXZ 1003c6ba f i libucrt:argv_parsing.obj
 0001:0003b6e6       ___acrt_allocate_buffer_for_argv 1003c6e6 f   libucrt:argv_parsing.obj
 0001:0003b735       __configure_narrow_argv    1003c735 f   libucrt:argv_parsing.obj
 0001:0003b740       __configure_wide_argv      1003c740 f   libucrt:argv_parsing.obj
 0001:0003b74b       __set_pgmptr               1003c74b f i libucrt:argv_parsing.obj
 0001:0003b75a       __set_wpgmptr              1003c75a f i libucrt:argv_parsing.obj
 0001:0003bb73       ??$get_environment_from_os@$$V@?$__crt_char_traits@D@@SAPADXZ 1003cb73 f i libucrt:environment_initialization.obj
 0001:0003bb78       ??$get_environment_from_os@$$V@?$__crt_char_traits@_W@@SAPA_WXZ 1003cb78 f i libucrt:environment_initialization.obj
 0001:0003bc81       ??$set_variable_in_environment_nolock@PADH@?$__crt_char_traits@D@@SAH$$QAPAD$$QAH@Z 1003cc81 f i libucrt:environment_initialization.obj
 0001:0003bc99       ??$set_variable_in_environment_nolock@PA_WH@?$__crt_char_traits@_W@@SAH$$QAPA_W$$QAH@Z 1003cc99 f i libucrt:environment_initialization.obj
 0001:0003bcb1       ??$tcscpy_s@PADABIAAPAD@?$__crt_char_traits@D@@SAH$$QAPADABIAAPAD@Z 1003ccb1 f i libucrt:environment_initialization.obj
 0001:0003bccf       ??$tcscpy_s@PA_WABIAAPA_W@?$__crt_char_traits@_W@@SAH$$QAPA_WABIAAPA_W@Z 1003cccf f i libucrt:environment_initialization.obj
 0001:0003bced       ??$tcslen@AAPAD@?$__crt_char_traits@D@@SAIAAPAD@Z 1003cced f i libucrt:environment_initialization.obj
 0001:0003bd05       ??$tcslen@AAPA_W@?$__crt_char_traits@_W@@SAIAAPA_W@Z 1003cd05 f i libucrt:environment_initialization.obj
 0001:0003bd23       ??$uninitialize@A6AXAAPAPAD@_E@?$dual_state_global@PAPAD@__crt_state_management@@QAEXA6AXAAPAPAD@_E@Z 1003cd23 f i libucrt:environment_initialization.obj
 0001:0003bd7b       ??$uninitialize@A6AXAAPAPA_W@_E@?$dual_state_global@PAPA_W@__crt_state_management@@QAEXA6AXAAPAPA_W@_E@Z 1003cd7b f i libucrt:environment_initialization.obj
 0001:0003be09       ??B?$__crt_unique_heap_ptr@PADU__crt_internal_free_policy@@@@QBE_NXZ 1003ce09 f i libucrt:environment_initialization.obj
 0001:0003be10       ??B?$__crt_unique_heap_ptr@PA_WU__crt_internal_free_policy@@@@QBE_NXZ 1003ce10 f i libucrt:environment_initialization.obj
 0001:0003be17       ??B?$__crt_unique_heap_ptr@_WU__crt_internal_free_policy@@@@QBE_NXZ 1003ce17 f i libucrt:environment_initialization.obj
 0001:0003be1e       ?__crt_compute_required_transform_buffer_count@@YAIIQBD@Z 1003ce1e f i libucrt:environment_initialization.obj
 0001:0003be3a       ?__crt_compute_required_transform_buffer_count@@YAIIQB_W@Z 1003ce3a f i libucrt:environment_initialization.obj
 0001:0003be58       ?__crt_transform_string@@YAIIQBDQA_WI@Z 1003ce58 f i libucrt:environment_initialization.obj
 0001:0003be77       ?__crt_transform_string@@YAIIQB_WQADI@Z 1003ce77 f i libucrt:environment_initialization.obj
 0001:0003be99       ?get@?$__crt_unique_heap_ptr@_WU__crt_internal_free_policy@@@@QBEPA_WXZ 1003ce99 f i libucrt:environment_initialization.obj
 0001:0003be9c       ?get_current_state_index@__crt_state_management@@YAIXZ 1003ce9c f i libucrt:environment_initialization.obj
 0001:0003bec3       ?initialize@?$dual_state_global@PAPAD@__crt_state_management@@QAEXQAPAD@Z 1003cec3 f i libucrt:environment_initialization.obj
 0001:0003bedf       ?initialize@?$dual_state_global@PAPA_W@__crt_state_management@@QAEXQAPA_W@Z 1003cedf f i libucrt:environment_initialization.obj
 0001:0003befb       ?is_valid@?$__crt_unique_heap_ptr@PADU__crt_internal_free_policy@@@@QBE_NXZ 1003cefb f i libucrt:environment_initialization.obj
 0001:0003bf02       ?is_valid@?$__crt_unique_heap_ptr@PA_WU__crt_internal_free_policy@@@@QBE_NXZ 1003cf02 f i libucrt:environment_initialization.obj
 0001:0003bf09       ?is_valid@?$__crt_unique_heap_ptr@_WU__crt_internal_free_policy@@@@QBE_NXZ 1003cf09 f i libucrt:environment_initialization.obj
 0001:0003bf18       ?value@?$dual_state_global@PAPAD@__crt_state_management@@QAEAAPAPADXZ 1003cf18 f i libucrt:environment_initialization.obj
 0001:0003bf1b       ?value@?$dual_state_global@PAPA_W@__crt_state_management@@QAEAAPAPA_WXZ 1003cf1b f i libucrt:environment_initialization.obj
 0001:0003bf1e       ___dcrt_get_or_create_narrow_environment_nolock 1003cf1e f   libucrt:environment_initialization.obj
 0001:0003bf23       ___dcrt_get_or_create_wide_environment_nolock 1003cf23 f   libucrt:environment_initialization.obj
 0001:0003bf28       ___dcrt_uninitialize_environments_nolock 1003cf28 f   libucrt:environment_initialization.obj
 0001:0003bf79       ___p__environ              1003cf79 f   libucrt:environment_initialization.obj
 0001:0003bf7f       ___p__wenviron             1003cf7f f   libucrt:environment_initialization.obj
 0001:0003bf85       __get_initial_narrow_environment 1003cf85 f   libucrt:environment_initialization.obj
 0001:0003bf99       __get_initial_wide_environment 1003cf99 f   libucrt:environment_initialization.obj
 0001:0003bfad       __initialize_narrow_environment 1003cfad f   libucrt:environment_initialization.obj
 0001:0003bfb2       __initialize_wide_environment 1003cfb2 f   libucrt:environment_initialization.obj
 0001:0003bfb7       ??$?B$$A6AXXZ@__crt_fast_encoded_nullptr_t@@QBEP6AXXZXZ 1003cfb7 f i libucrt:onexit.obj
 0001:0003bfbd       ??$?BP6AXXZ@__crt_fast_encoded_nullptr_t@@QBEPAP6AXXZXZ 1003cfbd f i libucrt:onexit.obj
 0001:0003bfc3       ??$?RP6AXXZ@__crt_internal_free_policy@@QBEXQBQ6AXXZ@Z 1003cfc3 f i libucrt:onexit.obj
 0001:0003c106       ??$__crt_fast_decode_pointer@P6AXXZ@@YAP6AXXZQ6AXXZ@Z 1003d106 f i libucrt:onexit.obj
 0001:0003c121       ??$__crt_fast_decode_pointer@PAP6AXXZ@@YAPAP6AXXZQAP6AXXZ@Z 1003d121 f i libucrt:onexit.obj
 0001:0003c13c       ??$__crt_fast_encode_pointer@P6AHXZ@@YAP6AHXZQ6AHXZ@Z 1003d13c f i libucrt:onexit.obj
 0001:0003c15b       ??$__crt_fast_encode_pointer@P6AXXZ@@YAP6AXXZQ6AXXZ@Z 1003d15b f i libucrt:onexit.obj
 0001:0003c17a       ??$__crt_fast_encode_pointer@PAP6AXXZ@@YAPAP6AXXZQAP6AXXZ@Z 1003d17a f i libucrt:onexit.obj
 0001:0003c207       ??0?$__crt_unique_heap_ptr@P6AXXZU__crt_internal_free_policy@@@@QAE@QAP6AXXZ@Z 1003d207 f i libucrt:onexit.obj
 0001:0003c217       ??1?$__crt_unique_heap_ptr@P6AXXZU__crt_internal_free_policy@@@@QAE@XZ 1003d217 f i libucrt:onexit.obj
 0001:0003c229       ??1scoped_global_state_reset@__crt_state_management@@QAE@XZ 1003d229 f i libucrt:onexit.obj
 0001:0003c42c       ?detach@?$__crt_unique_heap_ptr@P6AXXZU__crt_internal_free_policy@@@@QAEPAP6AXXZXZ 1003d42c f i libucrt:onexit.obj
 0001:0003c432       ?release@?$__crt_unique_heap_ptr@P6AXXZU__crt_internal_free_policy@@@@QAEXXZ 1003d432 f i libucrt:onexit.obj
 0001:0003c444       __crt_at_quick_exit        1003d444 f   libucrt:onexit.obj
 0001:0003c45a       __crt_atexit               1003d45a f   libucrt:onexit.obj
 0001:0003c470       __execute_onexit_table     1003d470 f   libucrt:onexit.obj
 0001:0003c4ae       __initialize_onexit_table  1003d4ae f   libucrt:onexit.obj
 0001:0003c4d7       __register_onexit_function 1003d4d7 f   libucrt:onexit.obj
 0001:0003c5e6       ??$?BX@__crt_fast_encoded_nullptr_t@@QBEPAXXZ 1003d5e6 f i libucrt:initialization.obj
 0001:0003c5ec       ??$__crt_fast_encode_pointer@PAX@@YAPAXQAX@Z 1003d5ec f i libucrt:initialization.obj
 0001:0003c65d       ?__acrt_stdio_is_initialized@@YA_NXZ 1003d65d f i libucrt:initialization.obj
 0001:0003c668       ?initialize@?$dual_state_global@PAU__crt_locale_data@@@__crt_state_management@@QAEXQAU__crt_locale_data@@@Z 1003d668 f i libucrt:initialization.obj
 0001:0003c684       ___acrt_initialize         1003d684 f   libucrt:initialization.obj
 0001:0003c696       ___acrt_thread_attach      1003d696 f   libucrt:initialization.obj
 0001:0003c6a1       ___acrt_thread_detach      1003d6a1 f   libucrt:initialization.obj
 0001:0003c6a9       ___acrt_uninitialize       1003d6a9 f   libucrt:initialization.obj
 0001:0003c6d9       ___acrt_uninitialize_critical 1003d6d9 f   libucrt:initialization.obj
 0001:0003c701       __get_terminate            1003d701 f   libucrt:terminate.obj
 0001:0003c713       _set_terminate             1003d713 f   libucrt:terminate.obj
 0001:0003c733       _terminate                 1003d733 f   libucrt:terminate.obj
 0001:0003c7c9       _strcpy_s                  1003d7c9 f   libucrt:strcpy_s.obj
 0001:0003c823       __set_abort_behavior       1003d823 f   libucrt:abort.obj
 0001:0003c844       _abort                     1003d844 f   libucrt:abort.obj
 0001:0003c888       ??$is_overflow_condition@_K@__crt_strtox@@YA_NI_K@Z 1003d888 f i libucrt:atox.obj
 0001:0003c8c9       ??$make_c_string_character_source@D$$T@__crt_strtox@@YA?AV?$c_string_character_source@D@0@QBD$$T@Z 1003d8c9 f i libucrt:atox.obj
 0001:0003c8e4       ??$make_c_string_character_source@_W$$T@__crt_strtox@@YA?AV?$c_string_character_source@_W@0@QB_W$$T@Z 1003d8e4 f i libucrt:atox.obj
 0001:0003c8ff       ??$parse_integer@KV?$c_string_character_source@D@__crt_strtox@@$00@__crt_strtox@@YAKAAV__crt_cached_ptd_host@@V?$c_string_character_source@D@0@H_N@Z 1003d8ff f i libucrt:atox.obj
 0001:0003cb46       ??$parse_integer@KV?$c_string_character_source@_W@__crt_strtox@@$00@__crt_strtox@@YAKAAV__crt_cached_ptd_host@@V?$c_string_character_source@_W@0@H_N@Z 1003db46 f i libucrt:atox.obj
 0001:0003d154       ??$parse_integer@_KV?$c_string_character_source@D@__crt_strtox@@$00@__crt_strtox@@YA_KAAV__crt_cached_ptd_host@@V?$c_string_character_source@D@0@H_N@Z 1003e154 f i libucrt:atox.obj
 0001:0003d41c       ??$parse_integer@_KV?$c_string_character_source@_W@__crt_strtox@@$00@__crt_strtox@@YA_KAAV__crt_cached_ptd_host@@V?$c_string_character_source@_W@0@H_N@Z 1003e41c f i libucrt:atox.obj
 0001:0003daa2       ??$parse_integer_from_string@JD$$T@__crt_strtox@@YAJQBD$$THQAU__crt_locale_pointers@@@Z 1003eaa2 f i libucrt:atox.obj
 0001:0003dae9       ??$parse_integer_from_string@J_W$$T@__crt_strtox@@YAJQB_W$$THQAU__crt_locale_pointers@@@Z 1003eae9 f i libucrt:atox.obj
 0001:0003db30       ??$parse_integer_from_string@_JD$$T@__crt_strtox@@YA_JQBD$$THQAU__crt_locale_pointers@@@Z 1003eb30 f i libucrt:atox.obj
 0001:0003db7d       ??$parse_integer_from_string@_J_W$$T@__crt_strtox@@YA_JQB_W$$THQAU__crt_locale_pointers@@@Z 1003eb7d f i libucrt:atox.obj
 0001:0003dbca       ?is_space@__crt_strtox@@YA_NDQAU__crt_locale_pointers@@@Z 1003ebca f i libucrt:atox.obj
 0001:0003dbe8       ?is_space@__crt_strtox@@YA_N_WPAU__crt_locale_pointers@@@Z 1003ebe8 f i libucrt:atox.obj
 0001:0003dc00       ?maximum_signed_value@__crt_strtox@@YA_J_K@Z 1003ec00 f i libucrt:atox.obj
 0001:0003dc09       ?minimum_signed_value@__crt_strtox@@YA_J_K@Z 1003ec09 f i libucrt:atox.obj
 0001:0003dc11       ___acrt_get_locale_data_prefix 1003ec11 f i libucrt:atox.obj
 0001:0003dc1d       __atoi64                   1003ec1d f   libucrt:atox.obj
 0001:0003dc62       __atoi64_l                 1003ec62 f   libucrt:atox.obj
 0001:0003dca8       __atoi_l                   1003eca8 f   libucrt:atox.obj
 0001:0003dce8       __atol_l                   1003ece8 f   libucrt:atox.obj
 0001:0003dd28       __atoll_l                  1003ed28 f   libucrt:atox.obj
 0001:0003dd6e       __chvalidchk_l             1003ed6e f i libucrt:atox.obj
 0001:0003dd96       __ischartype_l             1003ed96 f i libucrt:atox.obj
 0001:0003dded       __wtoi                     1003eded f   libucrt:atox.obj
 0001:0003de2c       __wtoi64                   1003ee2c f   libucrt:atox.obj
 0001:0003de71       __wtoi64_l                 1003ee71 f   libucrt:atox.obj
 0001:0003deb7       __wtoi_l                   1003eeb7 f   libucrt:atox.obj
 0001:0003def7       __wtol                     1003eef7 f   libucrt:atox.obj
 0001:0003df36       __wtol_l                   1003ef36 f   libucrt:atox.obj
 0001:0003df76       __wtoll                    1003ef76 f   libucrt:atox.obj
 0001:0003dfbb       __wtoll_l                  1003efbb f   libucrt:atox.obj
 0001:0003e001       _atoi                      1003f001 f   libucrt:atox.obj
 0001:0003e040       _atol                      1003f040 f   libucrt:atox.obj
 0001:0003e07f       _atoll                     1003f07f f   libucrt:atox.obj
 0001:0003e0d0       _strncmp                   1003f0d0 f   libucrt:strncmp.obj
 0001:0003e148       _calloc                    1003f148 f   libucrt:calloc.obj
 0001:0003e153       _wcsncmp                   1003f153 f   libucrt:wcsncmp.obj
 0001:0003e18d       ??$?RU__crt_lowio_handle_data@@@__crt_internal_free_policy@@QBEXQBU__crt_lowio_handle_data@@@Z 1003f18d f i libucrt:osfinfo.obj
 0001:0003e19f       ??0?$__crt_unique_heap_ptr@U__crt_lowio_handle_data@@U__crt_internal_free_policy@@@@QAE@QAU__crt_lowio_handle_data@@@Z 1003f19f f i libucrt:osfinfo.obj
 0001:0003e1af       ??1?$__crt_unique_heap_ptr@U__crt_lowio_handle_data@@U__crt_internal_free_policy@@@@QAE@XZ 1003f1af f i libucrt:osfinfo.obj
 0001:0003e1c1       ??B?$__crt_unique_heap_ptr@U__crt_lowio_handle_data@@U__crt_internal_free_policy@@@@QBE_NXZ 1003f1c1 f i libucrt:osfinfo.obj
 0001:0003e1c8       ?detach@?$__crt_unique_heap_ptr@U__crt_lowio_handle_data@@U__crt_internal_free_policy@@@@QAEPAU__crt_lowio_handle_data@@XZ 1003f1c8 f i libucrt:osfinfo.obj
 0001:0003e1ce       ?get@?$__crt_unique_heap_ptr@U__crt_lowio_handle_data@@U__crt_internal_free_policy@@@@QBEPAU__crt_lowio_handle_data@@XZ 1003f1ce f i libucrt:osfinfo.obj
 0001:0003e1d1       ?is_valid@?$__crt_unique_heap_ptr@U__crt_lowio_handle_data@@U__crt_internal_free_policy@@@@QBE_NXZ 1003f1d1 f i libucrt:osfinfo.obj
 0001:0003e1d8       ?release@?$__crt_unique_heap_ptr@U__crt_lowio_handle_data@@U__crt_internal_free_policy@@@@QAEXXZ 1003f1d8 f i libucrt:osfinfo.obj
 0001:0003e1ea       ___acrt_lowio_create_handle_array 1003f1ea f   libucrt:osfinfo.obj
 0001:0003e265       ___acrt_lowio_destroy_handle_array 1003f265 f   libucrt:osfinfo.obj
 0001:0003e29a       ___acrt_lowio_ensure_fh_exists 1003f29a f   libucrt:osfinfo.obj
 0001:0003e338       ___acrt_lowio_lock_fh      1003f338 f   libucrt:osfinfo.obj
 0001:0003e35b       ___acrt_lowio_set_os_handle 1003f35b f   libucrt:osfinfo.obj
 0001:0003e3ed       ___acrt_lowio_unlock_fh    1003f3ed f   libucrt:osfinfo.obj
 0001:0003e410       __alloc_osfhnd             1003f410 f   libucrt:osfinfo.obj
 0001:0003e523       __free_osfhnd              1003f523 f   libucrt:osfinfo.obj
 0001:0003e5b4       __get_osfhandle            1003f5b4 f   libucrt:osfinfo.obj
 0001:0003e61e       __open_osfhandle           1003f61e f   libucrt:osfinfo.obj
 0001:0003e74e       ??$__crt_fast_decode_pointer@P6AXPB_W00II@Z@@YAP6AXPB_W00II@ZQ6AX000II@Z@Z 1003f74e f i libucrt:invalid_parameter.obj
 0001:0003e769       ??$__crt_fast_encode_pointer@P6AXPB_W00II@Z@@YAP6AXPB_W00II@ZQ6AX000II@Z@Z 1003f769 f i libucrt:invalid_parameter.obj
 0001:0003e788       ??$initialize_from_array@$$BY00Q6AXPB_W00II@Z@?$dual_state_global@P6AXPB_W00II@Z@__crt_state_management@@QAAXAAY00Q6AXPB_W00II@Z@Z 1003f788 f i libucrt:invalid_parameter.obj
 0001:0003e799       ?check_synchronize_global_state_index@__crt_cached_ptd_host@@AAEIXZ 1003f799 f i libucrt:invalid_parameter.obj
 0001:0003e7c2       ?dangerous_get_state_array@?$dual_state_global@P6AXPB_W00II@Z@__crt_state_management@@QAEPAP6AXPB_W00II@ZXZ 1003f7c2 f i libucrt:invalid_parameter.obj
 0001:0003e7c5       ?get_current_global_state_index@__crt_cached_ptd_host@@QAEIXZ 1003f7c5 f i libucrt:invalid_parameter.obj
 0001:0003e7ca       ?get_raw_ptd_noexit@__crt_cached_ptd_host@@QAEPAU__acrt_ptd@@XZ 1003f7ca f i libucrt:invalid_parameter.obj
 0001:0003e7d5       ?try_synchronize_per_thread_data@__crt_cached_ptd_host@@AAEPAU__acrt_ptd@@XZ 1003f7d5 f i libucrt:invalid_parameter.obj
 0001:0003e7e0       ?value@?$dual_state_global@P6AXPB_W00II@Z@__crt_state_management@@QAEAAP6AXPB_W00II@ZAAV__crt_cached_ptd_host@@@Z 1003f7e0 f i libucrt:invalid_parameter.obj
 0001:0003e7f8       ?value@?$dual_state_global@P6AXPB_W00II@Z@__crt_state_management@@QAEAAP6AXPB_W00II@ZXZ 1003f7f8 f i libucrt:invalid_parameter.obj
 0001:0003e7fb       ___acrt_call_reportfault   1003f7fb f   libucrt:invalid_parameter.obj
 0001:0003e934       ___acrt_initialize_invalid_parameter_handler 1003f934 f   libucrt:invalid_parameter.obj
 0001:0003e943       __get_invalid_parameter_handler 1003f943 f   libucrt:invalid_parameter.obj
 0001:0003e95a       __get_thread_local_invalid_parameter_handler 1003f95a f   libucrt:invalid_parameter.obj
 0001:0003e96b       __invalid_parameter        1003f96b f   libucrt:invalid_parameter.obj
 0001:0003e9a2       __invalid_parameter_internal 1003f9a2 f   libucrt:invalid_parameter.obj
 0001:0003ea1f       __invalid_parameter_noinfo 1003fa1f f   libucrt:invalid_parameter.obj
 0001:0003ea2f       __invalid_parameter_noinfo_noreturn 1003fa2f f   libucrt:invalid_parameter.obj
 0001:0003ea4c       __invoke_watson            1003fa4c f   libucrt:invalid_parameter.obj
 0001:0003ea80       __set_invalid_parameter_handler 1003fa80 f   libucrt:invalid_parameter.obj
 0001:0003eab0       __set_thread_local_invalid_parameter_handler 1003fab0 f   libucrt:invalid_parameter.obj
 0001:0003eacd       ??$?RU__acrt_ptd@@@__crt_internal_free_policy@@QBEXQBU__acrt_ptd@@@Z 1003facd f i libucrt:per_thread_data.obj
 0001:0003edb9       ??0?$__crt_unique_heap_ptr@U__acrt_ptd@@U__crt_internal_free_policy@@@@QAE@QAU__acrt_ptd@@@Z 1003fdb9 f i libucrt:per_thread_data.obj
 0001:0003edc9       ??1?$__crt_unique_heap_ptr@U__acrt_ptd@@U__crt_internal_free_policy@@@@QAE@XZ 1003fdc9 f i libucrt:per_thread_data.obj
 0001:0003eddb       ??B?$__crt_unique_heap_ptr@U__acrt_ptd@@U__crt_internal_free_policy@@@@QBE_NXZ 1003fddb f i libucrt:per_thread_data.obj
 0001:0003ef29       ?dangerous_get_state_array@?$dual_state_global@PAU__crt_locale_data@@@__crt_state_management@@QAEPAPAU__crt_locale_data@@XZ 1003ff29 f i libucrt:per_thread_data.obj
 0001:0003f01f       ?detach@?$__crt_unique_heap_ptr@U__acrt_ptd@@U__crt_internal_free_policy@@@@QAEPAU__acrt_ptd@@XZ 1004001f f i libucrt:per_thread_data.obj
 0001:0003f025       ?get@?$__crt_unique_heap_ptr@U__acrt_ptd@@U__crt_internal_free_policy@@@@QBEPAU__acrt_ptd@@XZ 10040025 f i libucrt:per_thread_data.obj
 0001:0003f20a       ?is_valid@?$__crt_unique_heap_ptr@U__acrt_ptd@@U__crt_internal_free_policy@@@@QBE_NXZ 1004020a f i libucrt:per_thread_data.obj
 0001:0003f211       ?release@?$__crt_unique_heap_ptr@U__acrt_ptd@@U__crt_internal_free_policy@@@@QAEXXZ 10040211 f i libucrt:per_thread_data.obj
 0001:0003f282       ?value@?$dual_state_global@PAU__crt_locale_data@@@__crt_state_management@@QAEAAPAU__crt_locale_data@@XZ 10040282 f i libucrt:per_thread_data.obj
 0001:0003f285       ___acrt_freeptd            10040285 f   libucrt:per_thread_data.obj
 0001:0003f2b1       ___acrt_getptd             100402b1 f   libucrt:per_thread_data.obj
 0001:0003f36c       ___acrt_getptd_head        1004036c f   libucrt:per_thread_data.obj
 0001:0003f402       ___acrt_getptd_noexit      10040402 f   libucrt:per_thread_data.obj
 0001:0003f4b3       ___acrt_getptd_noexit_explicit 100404b3 f   libucrt:per_thread_data.obj
 0001:0003f556       ___acrt_initialize_ptd     10040556 f   libucrt:per_thread_data.obj
 0001:0003f582       ___acrt_uninitialize_ptd   10040582 f   libucrt:per_thread_data.obj
 0001:0003f59c       ___threadhandle            1004059c f   libucrt:per_thread_data.obj
 0001:0003f5a2       ___threadid                100405a2 f   libucrt:per_thread_data.obj
 0001:0003f5ab       ??$?RU__crt_locale_data@@@__crt_internal_free_policy@@QBEXQBU__crt_locale_data@@@Z 100405ab f i libucrt:wsetlocale.obj
 0001:0003f5bd       ??$?RU__crt_locale_pointers@@@__crt_internal_free_policy@@QBEXQBU__crt_locale_pointers@@@Z 100405bd f i libucrt:wsetlocale.obj
 0001:0003f5cf       ??$?RU__crt_multibyte_data@@@__crt_internal_free_policy@@QBEXQBU__crt_multibyte_data@@@Z 100405cf f i libucrt:wsetlocale.obj
 0001:0003f978       ??0?$__crt_unique_heap_ptr@U__crt_locale_data@@U__crt_internal_free_policy@@@@QAE@QAU__crt_locale_data@@@Z 10040978 f i libucrt:wsetlocale.obj
 0001:0003f988       ??0?$__crt_unique_heap_ptr@U__crt_locale_pointers@@U__crt_internal_free_policy@@@@QAE@QAU__crt_locale_pointers@@@Z 10040988 f i libucrt:wsetlocale.obj
 0001:0003f998       ??0?$__crt_unique_heap_ptr@U__crt_multibyte_data@@U__crt_internal_free_policy@@@@QAE@QAU__crt_multibyte_data@@@Z 10040998 f i libucrt:wsetlocale.obj
 0001:0003f9a8       ??0_expandlocale_locale_name_cache@@QAE@QA_WIQAU__crt_qualified_locale_data@@@Z 100409a8 f i libucrt:wsetlocale.obj
 0001:0003f9f2       ??1?$__crt_unique_heap_ptr@U__crt_locale_data@@U__crt_internal_free_policy@@@@QAE@XZ 100409f2 f i libucrt:wsetlocale.obj
 0001:0003fa04       ??1?$__crt_unique_heap_ptr@U__crt_locale_pointers@@U__crt_internal_free_policy@@@@QAE@XZ 10040a04 f i libucrt:wsetlocale.obj
 0001:0003fa16       ??1?$__crt_unique_heap_ptr@U__crt_multibyte_data@@U__crt_internal_free_policy@@@@QAE@XZ 10040a16 f i libucrt:wsetlocale.obj
 0001:0003fa28       ??1_expandlocale_locale_name_cache@@QAE@XZ 10040a28 f i libucrt:wsetlocale.obj
 0001:0003fa58       ??B?$__crt_unique_heap_ptr@U__crt_locale_data@@U__crt_internal_free_policy@@@@QBE_NXZ 10040a58 f i libucrt:wsetlocale.obj
 0001:0003fa5f       ??B?$__crt_unique_heap_ptr@U__crt_locale_pointers@@U__crt_internal_free_policy@@@@QBE_NXZ 10040a5f f i libucrt:wsetlocale.obj
 0001:0003fa66       ??B?$__crt_unique_heap_ptr@U__crt_multibyte_data@@U__crt_internal_free_policy@@@@QBE_NXZ 10040a66 f i libucrt:wsetlocale.obj
 0001:0003fc86       ?commit_locale_name@_expandlocale_locale_name_cache@@QAEXQB_WI@Z 10040c86 f i libucrt:wsetlocale.obj
 0001:0003fcca       ?commit_locale_name_cache_already_updated@_expandlocale_locale_name_cache@@QAEXQB_WI@Z 10040cca f i libucrt:wsetlocale.obj
 0001:0003fcff       ?detach@?$__crt_unique_heap_ptr@U__crt_locale_data@@U__crt_internal_free_policy@@@@QAEPAU__crt_locale_data@@XZ 10040cff f i libucrt:wsetlocale.obj
 0001:0003fd05       ?detach@?$__crt_unique_heap_ptr@U__crt_locale_pointers@@U__crt_internal_free_policy@@@@QAEPAU__crt_locale_pointers@@XZ 10040d05 f i libucrt:wsetlocale.obj
 0001:0003fd0b       ?detach@?$__crt_unique_heap_ptr@U__crt_multibyte_data@@U__crt_internal_free_policy@@@@QAEPAU__crt_multibyte_data@@XZ 10040d0b f i libucrt:wsetlocale.obj
 0001:0003fd11       ?get@?$__crt_unique_heap_ptr@U__crt_locale_data@@U__crt_internal_free_policy@@@@QBEPAU__crt_locale_data@@XZ 10040d11 f i libucrt:wsetlocale.obj
 0001:0003fd14       ?get@?$__crt_unique_heap_ptr@U__crt_locale_pointers@@U__crt_internal_free_policy@@@@QBEPAU__crt_locale_pointers@@XZ 10040d14 f i libucrt:wsetlocale.obj
 0001:0003fd17       ?get@?$__crt_unique_heap_ptr@U__crt_multibyte_data@@U__crt_internal_free_policy@@@@QBEPAU__crt_multibyte_data@@XZ 10040d17 f i libucrt:wsetlocale.obj
 0001:0003fd1a       ?is_valid@?$__crt_unique_heap_ptr@U__crt_locale_data@@U__crt_internal_free_policy@@@@QBE_NXZ 10040d1a f i libucrt:wsetlocale.obj
 0001:0003fd21       ?is_valid@?$__crt_unique_heap_ptr@U__crt_locale_pointers@@U__crt_internal_free_policy@@@@QBE_NXZ 10040d21 f i libucrt:wsetlocale.obj
 0001:0003fd28       ?is_valid@?$__crt_unique_heap_ptr@U__crt_multibyte_data@@U__crt_internal_free_policy@@@@QBE_NXZ 10040d28 f i libucrt:wsetlocale.obj
 0001:0003fd2f       ?release@?$__crt_unique_heap_ptr@U__crt_locale_data@@U__crt_internal_free_policy@@@@QAEXXZ 10040d2f f i libucrt:wsetlocale.obj
 0001:0003fd41       ?release@?$__crt_unique_heap_ptr@U__crt_locale_pointers@@U__crt_internal_free_policy@@@@QAEXXZ 10040d41 f i libucrt:wsetlocale.obj
 0001:0003fd53       ?release@?$__crt_unique_heap_ptr@U__crt_multibyte_data@@U__crt_internal_free_policy@@@@QAEXXZ 10040d53 f i libucrt:wsetlocale.obj
 0001:0003fd65       ___acrt_copy_locale_name   10040d65 f   libucrt:wsetlocale.obj
 0001:0003fdc5       ___acrt_set_locale_changed 10040dc5 f   libucrt:wsetlocale.obj
 0001:0003fdd0       ___acrt_uninitialize_locale 10040dd0 f   libucrt:wsetlocale.obj
 0001:0003fdf7       ___ascii_tolower           10040df7 f i libucrt:wsetlocale.obj
 0001:0003fe0e       ___ascii_towlower          10040e0e f i libucrt:wsetlocale.obj
 0001:0003fe25       ___lc_lctowcs              10040e25 f   libucrt:wsetlocale.obj
 0001:0003fe95       ___lc_wcstolc              10040e95 f   libucrt:wsetlocale.obj
 0001:0003ffd2       __configthreadlocale       10040fd2 f   libucrt:wsetlocale.obj
 0001:00040063       __create_locale            10041063 f   libucrt:wsetlocale.obj
 0001:0004048d       __free_locale              1004148d f   libucrt:wsetlocale.obj
 0001:0004054f       __get_current_locale       1004154f f   libucrt:wsetlocale.obj
 0001:000405ea       __wcreate_locale           100415ea f   libucrt:wsetlocale.obj
 0001:000406f1       __wcscats                  100416f1 f   libucrt:wsetlocale.obj
 0001:00040732       __wsetlocale               10041732 f   libucrt:wsetlocale.obj
 0001:000414b0       ___p___mb_cur_max          100424b0 f   libucrt:nlsdata.obj
 0001:0004165d       ___acrt_initialize_lowio   1004265d f   libucrt:ioinit.obj
 0001:000416bd       ___acrt_uninitialize_lowio 100426bd f   libucrt:ioinit.obj
 0001:000416ef       __free_base                100426ef f   libucrt:free_base.obj
 0001:00041729       __malloc_base              10042729 f   libucrt:malloc_base.obj
 0001:00041777       ??$__crt_interlocked_read@H@@YAHPDH@Z 10042777 f i libucrt:setmode.obj
 0001:00041784       ?value@?$dual_state_global@H@__crt_state_management@@QAEAAHXZ 10042784 f i libucrt:setmode.obj
 0001:00041787       __get_fmode                10042787 f   libucrt:setmode.obj
 0001:000417b4       __set_fmode                100427b4 f   libucrt:setmode.obj
 0001:000417f1       __setmode                  100427f1 f   libucrt:setmode.obj
 0001:00041911       __setmode_nolock           10042911 f   libucrt:setmode.obj
 0001:00041a78       ___acrt_MultiByteToWideChar 10042a78 f   libucrt:multibytetowidechar.obj
 0001:00041aaf       ??$?B$$A6GHPA_WKJ@Z@__crt_fast_encoded_nullptr_t@@QBEP6GHPA_WKJ@ZXZ 10042aaf f i libucrt:winapi_thunks.obj
 0001:00041b57       ??$__crt_fast_decode_pointer@P6GHPA_WKJ@Z@@YAP6GHPA_WKJ@ZQ6GH0KJ@Z@Z 10042b57 f i libucrt:winapi_thunks.obj
 0001:00041b72       ??$__crt_fast_decode_pointer@PAX@@YAPAXQAX@Z 10042b72 f i libucrt:winapi_thunks.obj
 0001:00041b8d       ??$__crt_fast_encode_pointer@P6GHPA_WKJ@Z@@YAP6GHPA_WKJ@ZQ6GH0KJ@Z@Z 10042b8d f i libucrt:winapi_thunks.obj
 0001:0004223d       _GetCurrentThreadEffectiveToken 1004323d f i libucrt:winapi_thunks.obj
 0001:00042241       ___acrt_AppPolicyGetProcessTerminationMethodInternal@4 10043241 f   libucrt:winapi_thunks.obj
 0001:00042281       ___acrt_AppPolicyGetShowDeveloperDiagnosticInternal@4 10043281 f   libucrt:winapi_thunks.obj
 0001:000422c1       ___acrt_AppPolicyGetThreadInitializationTypeInternal@4 100432c1 f   libucrt:winapi_thunks.obj
 0001:00042301       ___acrt_AppPolicyGetWindowingModelInternal@4 10043301 f   libucrt:winapi_thunks.obj
 0001:00042341       ___acrt_AreFileApisANSI@0  10043341 f   libucrt:winapi_thunks.obj
 0001:00042360       ___acrt_CompareStringEx@36 10043360 f   libucrt:winapi_thunks.obj
 0001:000423bd       ___acrt_EnumSystemLocalesEx@16 100433bd f   libucrt:winapi_thunks.obj
 0001:00042411       ___acrt_FlsAlloc@4         10043411 f   libucrt:winapi_thunks.obj
 0001:00042450       ___acrt_FlsFree@4          10043450 f   libucrt:winapi_thunks.obj
 0001:0004248f       ___acrt_FlsGetValue@4      1004348f f   libucrt:winapi_thunks.obj
 0001:000424ce       ___acrt_FlsSetValue@8      100434ce f   libucrt:winapi_thunks.obj
 0001:00042510       ___acrt_GetDateFormatEx@28 10043510 f   libucrt:winapi_thunks.obj
 0001:00042567       ___acrt_GetEnabledXStateFeatures@0 10043567 f   libucrt:winapi_thunks.obj
 0001:0004259b       ___acrt_GetLocaleInfoEx@16 1004359b f   libucrt:winapi_thunks.obj
 0001:000425da       ___acrt_GetSystemTimePreciseAsFileTime@4 100435da f   libucrt:winapi_thunks.obj
 0001:00042619       ___acrt_GetTempPath2W@8    10043619 f   libucrt:winapi_thunks.obj
 0001:0004265b       ___acrt_GetTimeFormatEx@24 1004365b f   libucrt:winapi_thunks.obj
 0001:000426a0       ___acrt_GetUserDefaultLocaleName@8 100436a0 f   libucrt:winapi_thunks.obj
 0001:000426dc       ___acrt_GetXStateFeaturesMask@8 100436dc f   libucrt:winapi_thunks.obj
 0001:0004271c       ___acrt_InitializeCriticalSectionEx@12 1004371c f   libucrt:winapi_thunks.obj
 0001:00042767       ___acrt_IsValidLocaleName@4 10043767 f   libucrt:winapi_thunks.obj
 0001:0004279f       ___acrt_LCIDToLocaleName@16 1004379f f   libucrt:winapi_thunks.obj
 0001:000427de       ___acrt_LCMapStringEx@36   100437de f   libucrt:winapi_thunks.obj
 0001:0004283b       ___acrt_LocaleNameToLCID@8 1004383b f   libucrt:winapi_thunks.obj
 0001:0004286c       ___acrt_LocateXStateFeature@12 1004386c f   libucrt:winapi_thunks.obj
 0001:0004289b       ___acrt_MessageBoxA@16     1004389b f   libucrt:winapi_thunks.obj
 0001:000428cd       ___acrt_MessageBoxW@16     100438cd f   libucrt:winapi_thunks.obj
 0001:000428ff       ___acrt_RoInitialize@4     100438ff f   libucrt:winapi_thunks.obj
 0001:0004293a       ___acrt_RoUninitialize@0   1004393a f   libucrt:winapi_thunks.obj
 0001:00042968       ___acrt_RtlGenRandom@8     10043968 f   libucrt:winapi_thunks.obj
 0001:000429a8       ___acrt_SetThreadStackGuarantee@4 100439a8 f   libucrt:winapi_thunks.obj
 0001:000429e3       ___acrt_can_show_message_box 100439e3 f   libucrt:winapi_thunks.obj
 0001:00042a0a       ___acrt_can_use_vista_locale_apis 10043a0a f   libucrt:winapi_thunks.obj
 0001:00042a15       ___acrt_can_use_xstate_apis 10043a15 f   libucrt:winapi_thunks.obj
 0001:00042a20       ___acrt_eagerly_load_locale_apis 10043a20 f   libucrt:winapi_thunks.obj
 0001:00042a57       ___acrt_get_parent_window  10043a57 f   libucrt:winapi_thunks.obj
 0001:00042abf       ___acrt_initialize_winapi_thunks 10043abf f   libucrt:winapi_thunks.obj
 0001:00042ad3       ___acrt_is_interactive     10043ad3 f   libucrt:winapi_thunks.obj
 0001:00042b73       ___acrt_uninitialize_winapi_thunks 10043b73 f   libucrt:winapi_thunks.obj
 0001:00042ba9       ?value@?$dual_state_global@PAU__crt_multibyte_data@@@__crt_state_management@@QAEAAPAU__crt_multibyte_data@@XZ 10043ba9 f i libucrt:locale_update.obj
 0001:00042bac       ?value_explicit@?$dual_state_global@PAU__crt_locale_data@@@__crt_state_management@@QAEAAPAU__crt_locale_data@@I@Z 10043bac f i libucrt:locale_update.obj
 0001:00042bbb       ?value_explicit@?$dual_state_global@PAU__crt_multibyte_data@@@__crt_state_management@@QAEAAPAU__crt_multibyte_data@@I@Z 10043bbb f i libucrt:locale_update.obj
 0001:00042bca       ___acrt_should_sync_with_global_locale 10043bca f i libucrt:locale_update.obj
 0001:00042be6       ___acrt_update_locale_info 10043be6 f   libucrt:locale_update.obj
 0001:00042c13       ___acrt_update_locale_info_explicit 10043c13 f   libucrt:locale_update.obj
 0001:00042c44       ___acrt_update_multibyte_info 10043c44 f   libucrt:locale_update.obj
 0001:00042c71       ___acrt_update_multibyte_info_explicit 10043c71 f   libucrt:locale_update.obj
 0001:00042d9e       ??0__crt_seek_guard@@QAE@H_J@Z 10043d9e f i libucrt:chsize.obj
 0001:00042deb       ??1__crt_seek_guard@@QAE@XZ 10043deb f i libucrt:chsize.obj
 0001:00042f0b       ?check@?$cached@K@__crt_cached_ptd_host@@QBE_NK@Z 10043f0b f i libucrt:chsize.obj
 0001:00042f27       __chsize                   10043f27 f   libucrt:chsize.obj
 0001:00042f43       __chsize_nolock            10043f43 f   libucrt:chsize.obj
 0001:00042f7a       __chsize_nolock_internal   10043f7a f   libucrt:chsize.obj
 0001:00043111       __chsize_s                 10044111 f   libucrt:chsize.obj
 0001:00043148       __umask                    10044148 f   libucrt:umask.obj
 0001:0004316b       __umask_s                  1004416b f   libucrt:umask.obj
 0001:00043236       ___acrt_WideCharToMultiByte 10044236 f   libucrt:widechartomultibyte.obj
 0001:000432a2       ?__wcsrtombs_utf8@__crt_mbstring@@YAIPADPAPB_WIPAU_Mbstatet@@AAV__crt_cached_ptd_host@@@Z 100442a2 f   libucrt:wcrtomb.obj
 0001:00043736       _wcrtomb                   10044736 f   libucrt:wcrtomb.obj
 0001:00043765       _wcrtomb_s                 10044765 f   libucrt:wcrtomb.obj
 0001:00043801       _wcsrtombs                 10044801 f   libucrt:wcrtomb.obj
 0001:0004383b       _wcsrtombs_s               1004483b f   libucrt:wcrtomb.obj
 0001:000438f3       _wctob                     100448f3 f   libucrt:wcrtomb.obj
 0001:00044166       ??1?$__crt_simd_cleanup_guard@$00@@QAE@XZ 10045166 f i libucrt:strnlen.obj
 0001:0004416a       ??1?$__crt_simd_cleanup_guard@$0A@@@QAE@XZ 1004516a f i libucrt:strnlen.obj
 0001:0004416d       ?compare_equals@?$__crt_simd_traits@$00E@@SA?AT__m256i@@T2@0@Z 1004516d f i libucrt:strnlen.obj
 0001:00044172       ?compare_equals@?$__crt_simd_traits@$00G@@SA?AT__m256i@@T2@0@Z 10045172 f i libucrt:strnlen.obj
 0001:00044177       ?compare_equals@?$__crt_simd_traits@$0A@E@@SA?AT__m128i@@T2@0@Z 10045177 f i libucrt:strnlen.obj
 0001:0004417c       ?compare_equals@?$__crt_simd_traits@$0A@G@@SA?AT__m128i@@T2@0@Z 1004517c f i libucrt:strnlen.obj
 0001:00044181       ?compute_byte_mask@?$__crt_simd_pack_traits@$00@@SAHT__m256i@@@Z 10045181 f i libucrt:strnlen.obj
 0001:00044186       ?compute_byte_mask@?$__crt_simd_pack_traits@$0A@@@SAHT__m128i@@@Z 10045186 f i libucrt:strnlen.obj
 0001:0004418b       ?get_zero_pack@?$__crt_simd_pack_traits@$00@@SA?AT__m256i@@XZ 1004518b f i libucrt:strnlen.obj
 0001:00044190       ?get_zero_pack@?$__crt_simd_pack_traits@$0A@@@SA?AT__m128i@@XZ 10045190 f i libucrt:strnlen.obj
 0001:00044194       _strnlen                   10045194 f   libucrt:strnlen.obj
 0001:000442b6       _wcslen                    100452b6 f   libucrt:strnlen.obj
 0001:000443de       _wcsnlen                   100453de f   libucrt:strnlen.obj
 0001:0004458e       ?__acrt_fp_classify@@YA?AW4__acrt_fp_class@@ABN@Z 1004558e f i libucrt:cvt.obj
 0001:000445f0       ?__acrt_fp_is_negative@@YA_NABN@Z 100455f0 f i libucrt:cvt.obj
 0001:00044f7f       ?strrchr@@YAPADQADH@Z      10045f7f f i libucrt:cvt.obj
 0001:00044f8a       ___acrt_fp_format          10045f8a f   libucrt:cvt.obj
 0001:0004510b       __wctomb_internal          1004610b f   libucrt:wctomb.obj
 0001:00045275       __wctomb_l                 10046275 f   libucrt:wctomb.obj
 0001:000452d0       __wctomb_s_l               100462d0 f   libucrt:wctomb.obj
 0001:0004530b       _wctomb                    1004630b f   libucrt:wctomb.obj
 0001:00045357       _wctomb_s                  10046357 f   libucrt:wctomb.obj
 0001:00045391       __mbtowc_internal          10046391 f   libucrt:mbtowc.obj
 0001:000454c4       __mbtowc_l                 100464c4 f   libucrt:mbtowc.obj
 0001:000454fc       _mbtowc                    100464fc f   libucrt:mbtowc.obj
 0001:00045533       __fileno                   10046533 f   libucrt:fileno.obj
 0001:0004555a       ??$?RPAU__crt_stdio_stream_data@@@__crt_internal_free_policy@@QBEXQBQAU__crt_stdio_stream_data@@@Z 1004655a f i libucrt:_file.obj
 0001:0004556c       ??0?$__crt_unique_heap_ptr@PAU__crt_stdio_stream_data@@U__crt_internal_free_policy@@@@QAE@QAPAU__crt_stdio_stream_data@@@Z 1004656c f i libucrt:_file.obj
 0001:0004557c       ??1?$__crt_unique_heap_ptr@PAU__crt_stdio_stream_data@@U__crt_internal_free_policy@@@@QAE@XZ 1004657c f i libucrt:_file.obj
 0001:0004558e       ?detach@?$__crt_unique_heap_ptr@PAU__crt_stdio_stream_data@@U__crt_internal_free_policy@@@@QAEPAPAU__crt_stdio_stream_data@@XZ 1004658e f i libucrt:_file.obj
 0001:00045594       ?release@?$__crt_unique_heap_ptr@PAU__crt_stdio_stream_data@@U__crt_internal_free_policy@@@@QAEXXZ 10046594 f i libucrt:_file.obj
 0001:000455a6       ___acrt_initialize_stdio   100465a6 f   libucrt:_file.obj
 0001:0004566e       ___acrt_iob_func           1004666e f   libucrt:_file.obj
 0001:0004567e       ___acrt_uninitialize_stdio 1004667e f   libucrt:_file.obj
 0001:000456ca       __get_stream_buffer_pointers 100466ca f   libucrt:_file.obj
 0001:00045710       __lock_file                10046710 f   libucrt:_file.obj
 0001:00045724       __unlock_file              10046724 f   libucrt:_file.obj
 0001:00045738       __get_printf_count_output  10046738 f   libucrt:printf_count_output.obj
 0001:0004574d       __set_printf_count_output  1004674d f   libucrt:printf_count_output.obj
 0001:0004583b       __fputwc_nolock            1004683b f   libucrt:fputwc.obj
 0001:00045871       __fputwc_nolock_internal   10046871 f   libucrt:fputwc.obj
 0001:000459a9       __fputwchar                100469a9 f   libucrt:fputwc.obj
 0001:000459c3       __putwc_nolock             100469c3 f   libucrt:fputwc.obj
 0001:000459ce       _fputwc                    100469ce f   libucrt:fputwc.obj
 0001:00045a04       _putwc                     10046a04 f   libucrt:fputwc.obj
 0001:00045a0f       _putwchar                  10046a0f f   libucrt:fputwc.obj
 0001:00045b4e       __fputc_nolock             10046b4e f   libucrt:fputc.obj
 0001:00045b82       __fputc_nolock_internal    10046b82 f   libucrt:fputc.obj
 0001:00045baf       __fputchar                 10046baf f   libucrt:fputc.obj
 0001:00045bc9       __putc_nolock              10046bc9 f   libucrt:fputc.obj
 0001:00045bd4       _fputc                     10046bd4 f   libucrt:fputc.obj
 0001:00045c08       _putc                      10046c08 f   libucrt:fputc.obj
 0001:00045c13       _putchar                   10046c13 f   libucrt:fputc.obj
 0001:00045c1e       ?has_temporary_buffer@__crt_stdio_stream@@QBE_NXZ 10046c1e f i libucrt:_sftbuf.obj
 0001:00045c2a       ___acrt_should_use_temporary_buffer 10046c2a f   libucrt:_sftbuf.obj
 0001:00045c68       ___acrt_stdio_begin_temporary_buffering_nolock 10046c68 f   libucrt:_sftbuf.obj
 0001:00045d13       ___acrt_stdio_end_temporary_buffering_nolock 10046d13 f   libucrt:_sftbuf.obj
 0001:00045d51       __isatty                   10046d51 f   libucrt:isatty.obj
 0001:00045da7       __calloc_base              10046da7 f   libucrt:calloc_base.obj
 0001:00045e04       ___sys_errlist             10046e04 f   libucrt:syserr.obj
 0001:00045e0a       ___sys_nerr                10046e0a f   libucrt:syserr.obj
 0001:000460b3       __mbstowcs_l               100470b3 f   libucrt:mbstowcs.obj
 0001:000460eb       __mbstowcs_s_l             100470eb f   libucrt:mbstowcs.obj
 0001:00046129       _mbstowcs                  10047129 f   libucrt:mbstowcs.obj
 0001:00046160       _mbstowcs_s                10047160 f   libucrt:mbstowcs.obj
 0001:00046254       _strncpy_s                 10047254 f   libucrt:strncpy_s.obj
 0001:0004628b       ?__mbrtowc_utf8@__crt_mbstring@@YAIPA_WPBDIPAU_Mbstatet@@AAV__crt_cached_ptd_host@@@Z 1004728b f   libucrt:mbrtowc.obj
 0001:000462ce       ?__mbsrtowcs_utf8@__crt_mbstring@@YAIPA_WPAPBDIPAU_Mbstatet@@AAV__crt_cached_ptd_host@@@Z 100472ce f   libucrt:mbrtowc.obj
 0001:00046808       _btowc                     10047808 f   libucrt:mbrtowc.obj
 0001:00046879       _mbrlen                    10047879 f   libucrt:mbrtowc.obj
 0001:000468c1       _mbrtowc                   100478c1 f   libucrt:mbrtowc.obj
 0001:00046928       _mbsrtowcs                 10047928 f   libucrt:mbrtowc.obj
 0001:00046962       _mbsrtowcs_s               10047962 f   libucrt:mbrtowc.obj
 0001:00046a83       __putwch                   10047a83 f   libucrt:putwch.obj
 0001:00046ab0       __putwch_nolock            10047ab0 f   libucrt:putwch.obj
 0001:00046ae2       __putwch_nolock_internal   10047ae2 f   libucrt:putwch.obj
 0001:00046af2       ??$?RU__crt_stdio_stream_data@@@__crt_internal_free_policy@@QBEXQBU__crt_stdio_stream_data@@@Z 10047af2 f i libucrt:stream.obj
 0001:00046b04       ??0?$__crt_unique_heap_ptr@U__crt_stdio_stream_data@@U__crt_internal_free_policy@@@@QAE@QAU__crt_stdio_stream_data@@@Z 10047b04 f i libucrt:stream.obj
 0001:00046b14       ??0__crt_stdio_stream@@QAE@QAU__crt_stdio_stream_data@@@Z 10047b14 f i libucrt:stream.obj
 0001:00046b24       ??0__crt_stdio_stream@@QAE@XZ 10047b24 f i libucrt:stream.obj
 0001:00046b2a       ??1?$__crt_unique_heap_ptr@U__crt_stdio_stream_data@@U__crt_internal_free_policy@@@@QAE@XZ 10047b2a f i libucrt:stream.obj
 0001:00046b3c       ?__acrt_stdio_allocate_stream@@YA?AV__crt_stdio_stream@@XZ 10047b3c f   libucrt:stream.obj
 0001:00046ba5       ?__acrt_stdio_free_stream@@YAXV__crt_stdio_stream@@@Z 10047ba5 f   libucrt:stream.obj
 0001:00046be0       ?deallocate@__crt_stdio_stream@@QAEXXZ 10047be0 f i libucrt:stream.obj
 0001:00046bea       ?detach@?$__crt_unique_heap_ptr@U__crt_stdio_stream_data@@U__crt_internal_free_policy@@@@QAEPAU__crt_stdio_stream_data@@XZ 10047bea f i libucrt:stream.obj
 0001:00046cb2       ?lock@__crt_stdio_stream@@QBEXXZ 10047cb2 f i libucrt:stream.obj
 0001:00046cbb       ?release@?$__crt_unique_heap_ptr@U__crt_stdio_stream_data@@U__crt_internal_free_policy@@@@QAEXXZ 10047cbb f i libucrt:stream.obj
 0001:00046ccd       ?try_allocate@__crt_stdio_stream@@QAE_NXZ 10047ccd f i libucrt:stream.obj
 0001:00046ced       ??$__acrt_stdio_parse_mode@D@@YA?AU__acrt_stdio_stream_mode@@QBD@Z 10047ced f i libucrt:openfile.obj
 0001:00046f17       ??$__acrt_stdio_parse_mode@_W@@YA?AU__acrt_stdio_stream_mode@@QB_W@Z 10047f17 f i libucrt:openfile.obj
 0001:00047288       ??$tcsncmp@AAPBDAAY02$$CBDI@?$__crt_char_traits@D@@SAHAAPBDAAY02$$CBD$$QAI@Z 10048288 f i libucrt:openfile.obj
 0001:000472a4       ??$tcsncmp@AAPB_WAAY02$$CB_WI@?$__crt_char_traits@_W@@SAHAAPB_WAAY02$$CB_W$$QAI@Z 100482a4 f i libucrt:openfile.obj
 0001:000472c0       ??$tcsnicmp@AAPBDAAY04$$CBDI@?$__crt_char_traits@D@@SAHAAPBDAAY04$$CBD$$QAI@Z 100482c0 f i libucrt:openfile.obj
 0001:000472dc       ??$tcsnicmp@AAPBDAAY06$$CBDI@?$__crt_char_traits@D@@SAHAAPBDAAY06$$CBD$$QAI@Z 100482dc f i libucrt:openfile.obj
 0001:000472f8       ??$tcsnicmp@AAPBDAAY07$$CBDI@?$__crt_char_traits@D@@SAHAAPBDAAY07$$CBD$$QAI@Z 100482f8 f i libucrt:openfile.obj
 0001:00047314       ??$tcsnicmp@AAPB_WAAY04$$CB_WI@?$__crt_char_traits@_W@@SAHAAPB_WAAY04$$CB_W$$QAI@Z 10048314 f i libucrt:openfile.obj
 0001:00047330       ??$tcsnicmp@AAPB_WAAY06$$CB_WI@?$__crt_char_traits@_W@@SAHAAPB_WAAY06$$CB_W$$QAI@Z 10048330 f i libucrt:openfile.obj
 0001:0004734c       ??$tcsnicmp@AAPB_WAAY07$$CB_WI@?$__crt_char_traits@_W@@SAHAAPB_WAAY07$$CB_W$$QAI@Z 1004834c f i libucrt:openfile.obj
 0001:00047368       ??$tsopen_s@PAHABQBDABHABHH@?$__crt_char_traits@D@@SAH$$QAPAHABQBDABH2$$QAH@Z 10048368 f i libucrt:openfile.obj
 0001:00047390       ??$tsopen_s@PAHABQB_WABHABHH@?$__crt_char_traits@_W@@SAH$$QAPAHABQB_WABH2$$QAH@Z 10048390 f i libucrt:openfile.obj
 0001:000473b8       ?__acrt_stdio_parse_mode_D@@YA_NAAU__acrt_stdio_stream_mode@@@Z 100483b8 f i libucrt:openfile.obj
 0001:000473d3       ?__acrt_stdio_parse_mode_N@@YA_NAAU__acrt_stdio_stream_mode@@@Z 100483d3 f i libucrt:openfile.obj
 0001:000473e5       ?__acrt_stdio_parse_mode_R@@YA_NAAU__acrt_stdio_stream_mode@@AA_N@Z 100483e5 f i libucrt:openfile.obj
 0001:00047403       ?__acrt_stdio_parse_mode_S@@YA_NAAU__acrt_stdio_stream_mode@@AA_N@Z 10048403 f i libucrt:openfile.obj
 0001:00047421       ?__acrt_stdio_parse_mode_T@@YA_NAAU__acrt_stdio_stream_mode@@@Z 10048421 f i libucrt:openfile.obj
 0001:00047440       ?__acrt_stdio_parse_mode_b@@YA_NAAU__acrt_stdio_stream_mode@@@Z 10048440 f i libucrt:openfile.obj
 0001:00047460       ?__acrt_stdio_parse_mode_c@@YA_NAAU__acrt_stdio_stream_mode@@AA_N@Z 10048460 f i libucrt:openfile.obj
 0001:00047482       ?__acrt_stdio_parse_mode_n@@YA_NAAU__acrt_stdio_stream_mode@@AA_N@Z 10048482 f i libucrt:openfile.obj
 0001:000474a4       ?__acrt_stdio_parse_mode_plus@@YA_NAAU__acrt_stdio_stream_mode@@AA_N@Z 100484a4 f i libucrt:openfile.obj
 0001:000474da       ?__acrt_stdio_parse_mode_t@@YA_NAAU__acrt_stdio_stream_mode@@@Z 100484da f i libucrt:openfile.obj
 0001:000474fa       ?__acrt_stdio_parse_mode_x@@YA_NAAU__acrt_stdio_stream_mode@@@Z 100484fa f i libucrt:openfile.obj
 0001:0004751a       __openfile                 1004851a f   libucrt:openfile.obj
 0001:00047525       __wopenfile                10048525 f   libucrt:openfile.obj
 0001:00047530       ___acrt_stdio_free_buffer_nolock 10048530 f   libucrt:_freebuf.obj
 0001:00047a49       ___acrt_stdio_flush_nolock 10048a49 f   libucrt:fflush.obj
 0001:00047ab2       __fflush_nolock            10048ab2 f   libucrt:fflush.obj
 0001:00047b17       __flushall                 10048b17 f   libucrt:fflush.obj
 0001:00047b20       _fflush                    10048b20 f   libucrt:fflush.obj
 0001:00047f8e       ___acrt_stdio_flush_and_write_narrow_nolock 10048f8e f   libucrt:_flsbuf.obj
 0001:00047f99       ___acrt_stdio_flush_and_write_wide_nolock 10048f99 f   libucrt:_flsbuf.obj
 0001:000483bd       ___acrt_stdio_refill_and_read_narrow_nolock 100493bd f   libucrt:_filbuf.obj
 0001:000483c8       ___acrt_stdio_refill_and_read_wide_nolock 100493c8 f   libucrt:_filbuf.obj
 0001:000483d3       ___acrt_initialize_locks   100493d3 f   libucrt:locks.obj
 0001:00048414       ___acrt_lock               10049414 f   libucrt:locks.obj
 0001:0004842b       ___acrt_uninitialize_locks 1004942b f   libucrt:locks.obj
 0001:0004845c       ___acrt_unlock             1004945c f   libucrt:locks.obj
 0001:00048473       __lock_locales             10049473 f   libucrt:locks.obj
 0001:00048481       __unlock_locales           10049481 f   libucrt:locks.obj
 0001:0004848a       ___acrt_app_verifier_enabled 1004948a f   libucrt:peb_access.obj
 0001:0004849c       ___acrt_is_secure_process  1004949c f   libucrt:peb_access.obj
 0001:00048648       ___acrt_get_begin_thread_init_policy 10049648 f   libucrt:win_policies.obj
 0001:00048682       ___acrt_get_developer_information_policy 10049682 f   libucrt:win_policies.obj
 0001:000486c0       ___acrt_get_process_end_policy 100496c0 f   libucrt:win_policies.obj
 0001:000486e7       ___acrt_get_windowing_model_policy 100496e7 f   libucrt:win_policies.obj
 0001:00048772       ??$__acrt_convert_wcs_mbs_cp@_WDV<lambda_28bda7af82a03b66c1cb3803a755f95d>@@U__crt_win32_buffer_internal_dynamic_resizing@@@@YAHQB_WAAV?$__crt_win32_buffer@DU__crt_win32_buffer_internal_dynamic_resizing@@@@ABV<lambda_28bda7af82a03b66c1cb3803a755f95d>@@I@Z 10049772 f i libucrt:argv_wildcards.obj
 0001:00048838       ??$__acrt_wcs_to_mbs_cp@U__crt_win32_buffer_internal_dynamic_resizing@@@@YAHQB_WAAV?$__crt_win32_buffer@DU__crt_win32_buffer_internal_dynamic_resizing@@@@I@Z 10049838 f i libucrt:argv_wildcards.obj
 0001:000490ea       ??$tcslen@ABQBD@?$__crt_char_traits@D@@SAIABQBD@Z 1004a0ea f i libucrt:argv_wildcards.obj
 0001:00049102       ??$tcslen@ABQB_W@?$__crt_char_traits@_W@@SAIABQB_W@Z 1004a102 f i libucrt:argv_wildcards.obj
 0001:00049120       ??$tcsncpy_s@AAPADIAAPADABI@?$__crt_char_traits@D@@SAHAAPAD$$QAI0ABI@Z 1004a120 f i libucrt:argv_wildcards.obj
 0001:00049143       ??$tcsncpy_s@AAPA_WIAAPA_WABI@?$__crt_char_traits@_W@@SAHAAPA_W$$QAI0ABI@Z 1004a143 f i libucrt:argv_wildcards.obj
 0001:00049166       ??$tcsncpy_s@PADABIABQBDABI@?$__crt_char_traits@D@@SAH$$QAPADABIABQBD1@Z 1004a166 f i libucrt:argv_wildcards.obj
 0001:00049189       ??$tcsncpy_s@PADIABQBDABI@?$__crt_char_traits@D@@SAH$$QAPAD$$QAIABQBDABI@Z 1004a189 f i libucrt:argv_wildcards.obj
 0001:000491ac       ??$tcsncpy_s@PA_WABIABQB_WABI@?$__crt_char_traits@_W@@SAH$$QAPA_WABIABQB_W1@Z 1004a1ac f i libucrt:argv_wildcards.obj
 0001:000491cf       ??$tcsncpy_s@PA_WIABQB_WABI@?$__crt_char_traits@_W@@SAH$$QAPA_W$$QAIABQB_WABI@Z 1004a1cf f i libucrt:argv_wildcards.obj
 0001:000491f2       ??$tcspbrk@AAPADAAY02$$CBD@?$__crt_char_traits@D@@SAPADAAPADAAY02$$CBD@Z 1004a1f2 f i libucrt:argv_wildcards.obj
 0001:00049208       ??$tcspbrk@AAPA_WAAY02$$CB_W@?$__crt_char_traits@_W@@SAPA_WAAPA_WAAY02$$CB_W@Z 1004a208 f i libucrt:argv_wildcards.obj
 0001:0004921e       ??0?$__crt_unique_handle_t@U__crt_findfile_traits@@@@QAE@QAX@Z 1004a21e f i libucrt:argv_wildcards.obj
 0001:0004922e       ??0?$__crt_win32_buffer@DU__crt_win32_buffer_internal_dynamic_resizing@@@@QAE@XZ 1004a22e f i libucrt:argv_wildcards.obj
 0001:0004925e       ??1?$__crt_unique_handle_t@U__crt_findfile_traits@@@@QAE@XZ 1004a25e f i libucrt:argv_wildcards.obj
 0001:00049275       ??1?$__crt_win32_buffer@DU__crt_win32_buffer_internal_dynamic_resizing@@@@QAE@XZ 1004a275 f i libucrt:argv_wildcards.obj
 0001:000492d0       ??R<lambda_28bda7af82a03b66c1cb3803a755f95d>@@QBE@IQB_WQADI@Z 1004a2d0 f i libucrt:argv_wildcards.obj
 0001:0004936a       ?_deallocate@?$__crt_win32_buffer@DU__crt_win32_buffer_internal_dynamic_resizing@@@@AAEXXZ 1004a36a f i libucrt:argv_wildcards.obj
 0001:00049384       ?allocate@?$__crt_win32_buffer@DU__crt_win32_buffer_internal_dynamic_resizing@@@@QAEHI@Z 1004a384 f i libucrt:argv_wildcards.obj
 0001:00049430       ?capacity@?$__crt_win32_buffer@DU__crt_win32_buffer_internal_dynamic_resizing@@@@QBEIXZ 1004a430 f i libucrt:argv_wildcards.obj
 0001:00049434       ?close@?$__crt_unique_handle_t@U__crt_findfile_traits@@@@QAEXXZ 1004a434 f i libucrt:argv_wildcards.obj
 0001:0004944b       ?close@__crt_findfile_traits@@SA_NPAX@Z 1004a44b f i libucrt:argv_wildcards.obj
 0001:00049460       ?data@?$__crt_win32_buffer@DU__crt_win32_buffer_internal_dynamic_resizing@@@@QAEPADXZ 1004a460 f i libucrt:argv_wildcards.obj
 0001:00049464       ?debug_info@?$__crt_win32_buffer@DU__crt_win32_buffer_internal_dynamic_resizing@@@@QBEABV__crt_win32_buffer_empty_debug_info@@XZ 1004a464 f i libucrt:argv_wildcards.obj
 0001:0004957d       ?get@?$__crt_unique_handle_t@U__crt_findfile_traits@@@@QBEPAXXZ 1004a57d f i libucrt:argv_wildcards.obj
 0001:000495b3       ?get_invalid_value@__crt_findfile_traits@@SAPAXXZ 1004a5b3 f i libucrt:argv_wildcards.obj
 0001:00049602       ?set_to_nullptr@?$__crt_win32_buffer@DU__crt_win32_buffer_internal_dynamic_resizing@@@@QAEXXZ 1004a602 f i libucrt:argv_wildcards.obj
 0001:00049619       ?size@?$__crt_win32_buffer@DU__crt_win32_buffer_internal_dynamic_resizing@@@@QAEXI@Z 1004a619 f i libucrt:argv_wildcards.obj
 0001:0004963a       ?strpbrk@@YAPADQADQBD@Z    1004a63a f i libucrt:argv_wildcards.obj
 0001:00049645       ?wcspbrk@@YAPA_WPA_WPB_W@Z 1004a645 f i libucrt:argv_wildcards.obj
 0001:00049650       ___acrt_expand_narrow_argv_wildcards 1004a650 f   libucrt:argv_wildcards.obj
 0001:0004965b       ___acrt_expand_wide_argv_wildcards 1004a65b f   libucrt:argv_wildcards.obj
 0001:00049666       ??$__acrt_convert_wcs_mbs_cp@_WDV<lambda_0fec1a7b3f42a53036604e18c2d5e07e>@@U__crt_win32_buffer_no_resizing@@@@YAHQB_WAAV?$__crt_win32_buffer@DU__crt_win32_buffer_no_resizing@@@@ABV<lambda_0fec1a7b3f42a53036604e18c2d5e07e>@@I@Z 1004a666 f i libucrt:getmodulefilenamea.obj
 0001:00049728       ??$__acrt_wcs_to_mbs_cp@U__crt_win32_buffer_no_resizing@@@@YAHQB_WAAV?$__crt_win32_buffer@DU__crt_win32_buffer_no_resizing@@@@I@Z 1004a728 f i libucrt:getmodulefilenamea.obj
 0001:00049745       ??0?$__crt_win32_buffer@DU__crt_win32_buffer_no_resizing@@@@QAE@QADI@Z 1004a745 f i libucrt:getmodulefilenamea.obj
 0001:00049769       ??1?$__crt_win32_buffer@DU__crt_win32_buffer_no_resizing@@@@QAE@XZ 1004a769 f i libucrt:getmodulefilenamea.obj
 0001:00049774       ??R<lambda_0fec1a7b3f42a53036604e18c2d5e07e>@@QBE@IQB_WQADI@Z 1004a774 f i libucrt:getmodulefilenamea.obj
 0001:00049798       ?_deallocate@?$__crt_win32_buffer@DU__crt_win32_buffer_no_resizing@@@@AAEXXZ 1004a798 f i libucrt:getmodulefilenamea.obj
 0001:000497a3       ?allocate@?$__crt_win32_buffer@DU__crt_win32_buffer_no_resizing@@@@QAEHI@Z 1004a7a3 f i libucrt:getmodulefilenamea.obj
 0001:000497ca       ?allocate@__crt_win32_buffer_no_resizing@@SAHQAPAXIABV__crt_win32_buffer_empty_debug_info@@@Z 1004a7ca f i libucrt:getmodulefilenamea.obj
 0001:000497d7       ?capacity@?$__crt_win32_buffer@DU__crt_win32_buffer_no_resizing@@@@QBEIXZ 1004a7d7 f i libucrt:getmodulefilenamea.obj
 0001:000497db       ?data@?$__crt_win32_buffer@DU__crt_win32_buffer_no_resizing@@@@QAEPADXZ 1004a7db f i libucrt:getmodulefilenamea.obj
 0001:000497df       ?deallocate@__crt_win32_buffer_no_resizing@@SAXQAXABV__crt_win32_buffer_empty_debug_info@@@Z 1004a7df f i libucrt:getmodulefilenamea.obj
 0001:000497e2       ?debug_info@?$__crt_win32_buffer@DU__crt_win32_buffer_no_resizing@@@@QBEABV__crt_win32_buffer_empty_debug_info@@XZ 1004a7e2 f i libucrt:getmodulefilenamea.obj
 0001:000497e5       ?set_to_nullptr@?$__crt_win32_buffer@DU__crt_win32_buffer_no_resizing@@@@QAEXXZ 1004a7e5 f i libucrt:getmodulefilenamea.obj
 0001:000497f9       ?size@?$__crt_win32_buffer@DU__crt_win32_buffer_no_resizing@@@@QAEXI@Z 1004a7f9 f i libucrt:getmodulefilenamea.obj
 0001:00049808       ?size@?$__crt_win32_buffer@DU__crt_win32_buffer_no_resizing@@@@QBEIXZ 1004a808 f i libucrt:getmodulefilenamea.obj
 0001:0004980c       ___acrt_GetModuleFileNameA 1004a80c f   libucrt:getmodulefilenamea.obj
 0001:00049920       ??$initialize_from_array@$$BY10BAA@E@?$dual_state_global@PAE@__crt_state_management@@QAAXAAY10BAA@E@Z 1004a920 f i libucrt:mbctype.obj
 0001:0004992f       ??$initialize_from_array@$$BY10BAB@E@?$dual_state_global@PAE@__crt_state_management@@QAAXAAY10BAB@E@Z 1004a92f f i libucrt:mbctype.obj
 0001:00049a4b       ?dangerous_get_state_array@?$dual_state_global@PAE@__crt_state_management@@QAEPAPAEXZ 1004aa4b f i libucrt:mbctype.obj
 0001:00049a4e       ?dangerous_get_state_array@?$dual_state_global@PAU__crt_multibyte_data@@@__crt_state_management@@QAEPAPAU__crt_multibyte_data@@XZ 1004aa4e f i libucrt:mbctype.obj
 0001:00049ac2       ?initialize@?$dual_state_global@PAU__crt_multibyte_data@@@__crt_state_management@@QAEXQAU__crt_multibyte_data@@@Z 1004aac2 f i libucrt:mbctype.obj
 0001:00049edb       ?value@?$dual_state_global@PAE@__crt_state_management@@QAEAAPAEXZ 1004aedb f i libucrt:mbctype.obj
 0001:00049ede       ___acrt_initialize_multibyte 1004aede f   libucrt:mbctype.obj
 0001:00049f26       ___acrt_update_thread_multibyte_data 1004af26 f   libucrt:mbctype.obj
 0001:00049f39       ___p__mbcasemap            1004af39 f   libucrt:mbctype.obj
 0001:00049f3f       ___p__mbctype              1004af3f f   libucrt:mbctype.obj
 0001:00049f45       __getmbcp                  1004af45 f   libucrt:mbctype.obj
 0001:00049f79       __setmbcp                  1004af79 f   libucrt:mbctype.obj
 0001:00049f98       __setmbcp_nolock           1004af98 f   libucrt:mbctype.obj
 0001:0004a26e       __ismbbalnum               1004b26e f   libucrt:ismbbyte.obj
 0001:0004a289       __ismbbalnum_l             1004b289 f   libucrt:ismbbyte.obj
 0001:0004a2a5       __ismbbalpha               1004b2a5 f   libucrt:ismbbyte.obj
 0001:0004a2c0       __ismbbalpha_l             1004b2c0 f   libucrt:ismbbyte.obj
 0001:0004a2dc       __ismbbblank               1004b2dc f   libucrt:ismbbyte.obj
 0001:0004a2ff       __ismbbblank_l             1004b2ff f   libucrt:ismbbyte.obj
 0001:0004a323       __ismbbgraph               1004b323 f   libucrt:ismbbyte.obj
 0001:0004a33e       __ismbbgraph_l             1004b33e f   libucrt:ismbbyte.obj
 0001:0004a35a       __ismbbkalnum              1004b35a f   libucrt:ismbbyte.obj
 0001:0004a372       __ismbbkalnum_l            1004b372 f   libucrt:ismbbyte.obj
 0001:0004a38b       __ismbbkana                1004b38b f   libucrt:ismbbyte.obj
 0001:0004a39e       __ismbbkana_l              1004b39e f   libucrt:ismbbyte.obj
 0001:0004a3ed       __ismbbkprint              1004b3ed f   libucrt:ismbbyte.obj
 0001:0004a405       __ismbbkprint_l            1004b405 f   libucrt:ismbbyte.obj
 0001:0004a41e       __ismbbkpunct              1004b41e f   libucrt:ismbbyte.obj
 0001:0004a436       __ismbbkpunct_l            1004b436 f   libucrt:ismbbyte.obj
 0001:0004a44f       __ismbblead                1004b44f f   libucrt:ismbbyte.obj
 0001:0004a467       __ismbblead_l              1004b467 f   libucrt:ismbbyte.obj
 0001:0004a480       __ismbbprint               1004b480 f   libucrt:ismbbyte.obj
 0001:0004a49b       __ismbbprint_l             1004b49b f   libucrt:ismbbyte.obj
 0001:0004a4b7       __ismbbpunct               1004b4b7 f   libucrt:ismbbyte.obj
 0001:0004a4cf       __ismbbpunct_l             1004b4cf f   libucrt:ismbbyte.obj
 0001:0004a4e8       __ismbbtrail               1004b4e8 f   libucrt:ismbbyte.obj
 0001:0004a500       __ismbbtrail_l             1004b500 f   libucrt:ismbbyte.obj
 0001:0004a519       ___acrt_initialize_command_line 1004b519 f   libucrt:argv_data.obj
 0001:0004a532       ___acrt_uninitialize_command_line 1004b532 f   libucrt:argv_data.obj
 0001:0004a535       ___p___argc                1004b535 f   libucrt:argv_data.obj
 0001:0004a53b       ___p___argv                1004b53b f   libucrt:argv_data.obj
 0001:0004a541       ___p___wargv               1004b541 f   libucrt:argv_data.obj
 0001:0004a547       ___p__acmdln               1004b547 f   libucrt:argv_data.obj
 0001:0004a54d       ___p__pgmptr               1004b54d f   libucrt:argv_data.obj
 0001:0004a553       ___p__wcmdln               1004b553 f   libucrt:argv_data.obj
 0001:0004a559       ___p__wpgmptr              1004b559 f   libucrt:argv_data.obj
 0001:0004a55f       __get_pgmptr               1004b55f f   libucrt:argv_data.obj
 0001:0004a590       __get_wpgmptr              1004b590 f   libucrt:argv_data.obj
 0001:0004a625       _wcscpy_s                  1004b625 f   libucrt:wcscpy_s.obj
 0001:0004a724       ___dcrt_get_narrow_environment_from_os 1004b724 f   libucrt:get_environment_from_os.obj
 0001:0004a7c4       ___dcrt_get_wide_environment_from_os 1004b7c4 f   libucrt:get_environment_from_os.obj
 0001:0004af4c       ??$get_or_create_environment_nolock@$$V@?$__crt_char_traits@D@@SAPAPADXZ 1004bf4c f i libucrt:setenv.obj
 0001:0004af51       ??$get_or_create_environment_nolock@$$V@?$__crt_char_traits@_W@@SAPAPA_WXZ 1004bf51 f i libucrt:setenv.obj
 0001:0004af56       ??$set_environment_variable@ABQADQAD@?$__crt_char_traits@D@@SAHABQAD$$QBQAD@Z 1004bf56 f i libucrt:setenv.obj
 0001:0004af6e       ??$set_environment_variable@ABQA_WQA_W@?$__crt_char_traits@_W@@SAHABQA_W$$QBQA_W@Z 1004bf6e f i libucrt:setenv.obj
 0001:0004af85       ??$tcschr@ABQADD@?$__crt_char_traits@D@@SAPADABQAD$$QAD@Z 1004bf85 f i libucrt:setenv.obj
 0001:0004af9f       ??$tcschr@ABQA_WD@?$__crt_char_traits@_W@@SAPA_WABQA_W$$QAD@Z 1004bf9f f i libucrt:setenv.obj
 0001:0004afbd       ??$tcscpy_s@AAPADABIAAPAD@?$__crt_char_traits@D@@SAHAAPADABI0@Z 1004bfbd f i libucrt:setenv.obj
 0001:0004afdb       ??$tcscpy_s@AAPA_WABIAAPA_W@?$__crt_char_traits@_W@@SAHAAPA_WABI0@Z 1004bfdb f i libucrt:setenv.obj
 0001:0004aff9       ??$tcscpy_s@ABQADABIABQAD@?$__crt_char_traits@D@@SAHABQADABI0@Z 1004bff9 f i libucrt:setenv.obj
 0001:0004b017       ??$tcscpy_s@ABQA_WABIABQA_W@?$__crt_char_traits@_W@@SAHABQA_WABI0@Z 1004c017 f i libucrt:setenv.obj
 0001:0004b035       ??$tcslen@ABQAD@?$__crt_char_traits@D@@SAIABQAD@Z 1004c035 f i libucrt:setenv.obj
 0001:0004b04d       ??$tcslen@ABQA_W@?$__crt_char_traits@_W@@SAIABQA_W@Z 1004c04d f i libucrt:setenv.obj
 0001:0004b06b       ??$tcsnicoll@ABQBDAAPADABI@?$__crt_char_traits@D@@SAHABQBDAAPADABI@Z 1004c06b f i libucrt:setenv.obj
 0001:0004b089       ??$tcsnicoll@ABQB_WAAPA_WABI@?$__crt_char_traits@_W@@SAHABQB_WAAPA_WABI@Z 1004c089 f i libucrt:setenv.obj
 0001:0004b0cb       ?strchr@@YAPADQADH@Z       1004c0cb f i libucrt:setenv.obj
 0001:0004b0d6       ?wcschr@@YAPA_WPA_W_W@Z    1004c0d6 f i libucrt:setenv.obj
 0001:0004b0e1       ___dcrt_set_variable_in_narrow_environment_nolock 1004c0e1 f   libucrt:setenv.obj
 0001:0004b0ec       ___dcrt_set_variable_in_wide_environment_nolock 1004c0ec f   libucrt:setenv.obj
 0001:0004b0f7       __recalloc                 1004c0f7 f   libucrt:recalloc.obj
 0001:0004b102       __recalloc_base            1004c102 f   libucrt:recalloc.obj
 0001:0004b16f       ___acrt_getheap            1004c16f f   libucrt:heap_handle.obj
 0001:0004b175       ___acrt_initialize_heap    1004c175 f   libucrt:heap_handle.obj
 0001:0004b186       ___acrt_uninitialize_heap  1004c186 f   libucrt:heap_handle.obj
 0001:0004b190       __get_heap_handle          1004c190 f   libucrt:heap_handle.obj
 0001:0004b196       ___acrt_execute_initializers 1004c196 f   libucrt:shared_initialization.obj
 0001:0004b1fe       ___acrt_execute_uninitializers 1004c1fe f   libucrt:shared_initialization.obj
 0001:0004b22f       ??$?B$$A6AHI@Z@__crt_fast_encoded_nullptr_t@@QBEP6AHI@ZXZ 1004c22f f i libucrt:new_handler.obj
 0001:0004b235       ??$__crt_fast_decode_pointer@P6AHI@Z@@YAP6AHI@ZQ6AHI@Z@Z 1004c235 f i libucrt:new_handler.obj
 0001:0004b250       ??$__crt_fast_encode_pointer@P6AHI@Z@@YAP6AHI@ZQ6AHI@Z@Z 1004c250 f i libucrt:new_handler.obj
 0001:0004b26f       ?_set_new_handler@@YAP6AHI@ZH@Z 1004c26f f   libucrt:new_handler.obj
 0001:0004b27c       ?initialize@?$dual_state_global@P6AHI@Z@__crt_state_management@@QAEXQ6AHI@Z@Z 1004c27c f i libucrt:new_handler.obj
 0001:0004b298       ?value@?$dual_state_global@P6AHI@Z@__crt_state_management@@QAEAAP6AHI@ZXZ 1004c298 f i libucrt:new_handler.obj
 0001:0004b29b       ___acrt_initialize_new_handler 1004c29b f   libucrt:new_handler.obj
 0001:0004b2aa       __callnewh                 1004c2aa f   libucrt:new_handler.obj
 0001:0004b2d6       __query_new_handler        1004c2d6 f   libucrt:new_handler.obj
 0001:0004b32d       __set_new_handler          1004c32d f   libucrt:new_handler.obj
 0001:0004b392       ??$?B$$A6AXH@Z@__crt_fast_encoded_nullptr_t@@QBEP6AXH@ZXZ 1004c392 f i libucrt:signal.obj
 0001:0004b426       ??$__crt_fast_decode_pointer@P6AXH@Z@@YAP6AXH@ZQ6AXH@Z@Z 1004c426 f i libucrt:signal.obj
 0001:0004b441       ??$__crt_fast_encode_pointer@P6AXH@Z@@YAP6AXH@ZQ6AXH@Z@Z 1004c441 f i libucrt:signal.obj
 0001:0004b59d       ?initialize@?$dual_state_global@P6AXH@Z@__crt_state_management@@QAEXQ6AXH@Z@Z 1004c59d f i libucrt:signal.obj
 0001:0004b647       ?value@?$dual_state_global@P6AXH@Z@__crt_state_management@@QAEAAP6AXH@ZXZ 1004c647 f i libucrt:signal.obj
 0001:0004b64a       ___acrt_get_sigabrt_handler 1004c64a f   libucrt:signal.obj
 0001:0004b671       ___acrt_initialize_signal_handlers 1004c671 f   libucrt:signal.obj
 0001:0004b68f       ___fpecode                 1004c68f f   libucrt:signal.obj
 0001:0004b698       ___pxcptinfoptrs           1004c698 f   libucrt:signal.obj
 0001:0004b6a1       _raise                     1004c6a1 f   libucrt:signal.obj
 0001:0004b893       _signal                    1004c893 f   libucrt:signal.obj
 0001:0004ba57       ??$__crt_fast_decode_pointer@P6AHPAU_exception@@@Z@@YAP6AHPAU_exception@@@ZQ6AH0@Z@Z 1004ca57 f i libucrt:matherr.obj
 0001:0004ba72       ??$__crt_fast_encode_pointer@P6AHPAU_exception@@@Z@@YAP6AHPAU_exception@@@ZQ6AH0@Z@Z 1004ca72 f i libucrt:matherr.obj
 0001:0004ba91       ?initialize@?$dual_state_global@P6AHPAU_exception@@@Z@__crt_state_management@@QAEXQ6AHPAU_exception@@@Z@Z 1004ca91 f i libucrt:matherr.obj
 0001:0004baad       ?value@?$dual_state_global@P6AHPAU_exception@@@Z@__crt_state_management@@QAEAAP6AHPAU_exception@@@ZXZ 1004caad f i libucrt:matherr.obj
 0001:0004bab0       ___acrt_has_user_matherr   1004cab0 f   libucrt:matherr.obj
 0001:0004bacd       ___acrt_initialize_user_matherr 1004cacd f   libucrt:matherr.obj
 0001:0004badc       ___acrt_invoke_user_matherr 1004cadc f   libucrt:matherr.obj
 0001:0004bb12       ___setusermatherr          1004cb12 f   libucrt:matherr.obj
 0001:0004bb27       ___pctype_func             1004cb27 f   libucrt:ctype.obj
 0001:0004bb4b       ___pwctype_func            1004cb4b f   libucrt:ctype.obj
 0001:0004bb51       __iswctype_l               1004cb51 f   libucrt:iswctype.obj
 0001:0004bb65       _iswctype                  1004cb65 f   libucrt:iswctype.obj
 0001:0004bbce       __isctype                  1004cbce f   libucrt:isctype.obj
 0001:0004bc01       __isctype_l                1004cc01 f   libucrt:isctype.obj
 0001:0004bd6c       ___acrt_report_runtime_error 1004cd6c f   libucrt:report_runtime_error.obj
 0001:0004be81       __query_app_type           1004ce81 f   libucrt:report_runtime_error.obj
 0001:0004be87       __set_app_type             1004ce87 f   libucrt:report_runtime_error.obj
 0001:0004be96       ___acrt_add_locale_ref     1004ce96 f   libucrt:locale_refcounting.obj
 0001:0004bf13       ___acrt_free_locale        1004cf13 f   libucrt:locale_refcounting.obj
 0001:0004c05b       ___acrt_locale_add_lc_time_reference 1004d05b f   libucrt:locale_refcounting.obj
 0001:0004c084       ___acrt_locale_free_lc_time_if_unreferenced 1004d084 f   libucrt:locale_refcounting.obj
 0001:0004c0b5       ___acrt_locale_release_lc_time_reference 1004d0b5 f   libucrt:locale_refcounting.obj
 0001:0004c0de       ___acrt_release_locale_ref 1004d0de f   libucrt:locale_refcounting.obj
 0001:0004c15f       ___acrt_update_thread_locale_data 1004d15f f   libucrt:locale_refcounting.obj
 0001:0004c1e0       __updatetlocinfoEx_nolock  1004d1e0 f   libucrt:locale_refcounting.obj
 0001:0004c230       ??$?RG@__crt_internal_free_policy@@QBEXQBG@Z 1004d230 f i libucrt:initctype.obj
 0001:0004c242       ??$?RJ@__crt_internal_free_policy@@QBEXQBJ@Z 1004d242 f i libucrt:initctype.obj
 0001:0004c254       ??0?$__crt_unique_heap_ptr@GU__crt_internal_free_policy@@@@QAE@QAG@Z 1004d254 f i libucrt:initctype.obj
 0001:0004c264       ??0?$__crt_unique_heap_ptr@JU__crt_internal_free_policy@@@@QAE@QAJ@Z 1004d264 f i libucrt:initctype.obj
 0001:0004c274       ??1?$__crt_unique_heap_ptr@GU__crt_internal_free_policy@@@@QAE@XZ 1004d274 f i libucrt:initctype.obj
 0001:0004c286       ??1?$__crt_unique_heap_ptr@JU__crt_internal_free_policy@@@@QAE@XZ 1004d286 f i libucrt:initctype.obj
 0001:0004c298       ?detach@?$__crt_unique_heap_ptr@GU__crt_internal_free_policy@@@@QAEPAGXZ 1004d298 f i libucrt:initctype.obj
 0001:0004c29e       ?detach@?$__crt_unique_heap_ptr@JU__crt_internal_free_policy@@@@QAEPAJXZ 1004d29e f i libucrt:initctype.obj
 0001:0004c2a4       ?release@?$__crt_unique_heap_ptr@GU__crt_internal_free_policy@@@@QAEXXZ 1004d2a4 f i libucrt:initctype.obj
 0001:0004c2b6       ?release@?$__crt_unique_heap_ptr@JU__crt_internal_free_policy@@@@QAEXXZ 1004d2b6 f i libucrt:initctype.obj
 0001:0004c2c8       ____lc_codepage_func       1004d2c8 f   libucrt:initctype.obj
 0001:0004c2ed       ____lc_collate_cp_func     1004d2ed f   libucrt:initctype.obj
 0001:0004c312       ____lc_locale_name_func    1004d312 f   libucrt:initctype.obj
 0001:0004c339       ____mb_cur_max_func        1004d339 f   libucrt:initctype.obj
 0001:0004c35e       ____mb_cur_max_l_func      1004d35e f   libucrt:initctype.obj
 0001:0004c377       ___acrt_locale_initialize_ctype 1004d377 f   libucrt:initctype.obj
 0001:0004c7d4       ??$?RUlconv@@@__crt_internal_free_policy@@QBEXQBUlconv@@@Z 1004d7d4 f i libucrt:initmon.obj
 0001:0004c7e6       ??0?$__crt_unique_heap_ptr@Ulconv@@U__crt_internal_free_policy@@@@QAE@QAUlconv@@@Z 1004d7e6 f i libucrt:initmon.obj
 0001:0004c7f6       ??1?$__crt_unique_heap_ptr@Ulconv@@U__crt_internal_free_policy@@@@QAE@XZ 1004d7f6 f i libucrt:initmon.obj
 0001:0004c808       ?detach@?$__crt_unique_heap_ptr@Ulconv@@U__crt_internal_free_policy@@@@QAEPAUlconv@@XZ 1004d808 f i libucrt:initmon.obj
 0001:0004c80e       ?release@?$__crt_unique_heap_ptr@Ulconv@@U__crt_internal_free_policy@@@@QAEXXZ 1004d80e f i libucrt:initmon.obj
 0001:0004c820       ___acrt_locale_free_monetary 1004d820 f   libucrt:initmon.obj
 0001:0004c91e       ___acrt_locale_initialize_monetary 1004d91e f   libucrt:initmon.obj
 0001:0004ccb6       ___acrt_locale_free_numeric 1004dcb6 f   libucrt:initnum.obj
 0001:0004cd1f       ___acrt_locale_initialize_numeric 1004dd1f f   libucrt:initnum.obj
 0001:0004cf73       ??$?RU__crt_lc_time_data@@@__crt_internal_free_policy@@QBEXQBU__crt_lc_time_data@@@Z 1004df73 f i libucrt:inittime.obj
 0001:0004cff7       ??0?$__crt_unique_heap_ptr@U__crt_lc_time_data@@U__crt_internal_free_policy@@@@QAE@QAU__crt_lc_time_data@@@Z 1004dff7 f i libucrt:inittime.obj
 0001:0004d007       ??1?$__crt_unique_heap_ptr@U__crt_lc_time_data@@U__crt_internal_free_policy@@@@QAE@XZ 1004e007 f i libucrt:inittime.obj
 0001:0004d019       ??B?$__crt_unique_heap_ptr@U__crt_lc_time_data@@U__crt_internal_free_policy@@@@QBE_NXZ 1004e019 f i libucrt:inittime.obj
 0001:0004d020       ?detach@?$__crt_unique_heap_ptr@U__crt_lc_time_data@@U__crt_internal_free_policy@@@@QAEPAU__crt_lc_time_data@@XZ 1004e020 f i libucrt:inittime.obj
 0001:0004d04b       ?get@?$__crt_unique_heap_ptr@U__crt_lc_time_data@@U__crt_internal_free_policy@@@@QBEPAU__crt_lc_time_data@@XZ 1004e04b f i libucrt:inittime.obj
 0001:0004d336       ?is_valid@?$__crt_unique_heap_ptr@U__crt_lc_time_data@@U__crt_internal_free_policy@@@@QBE_NXZ 1004e336 f i libucrt:inittime.obj
 0001:0004d33d       ?release@?$__crt_unique_heap_ptr@U__crt_lc_time_data@@U__crt_internal_free_policy@@@@QAEXXZ 1004e33d f i libucrt:inittime.obj
 0001:0004d34f       ___acrt_locale_free_time   1004e34f f   libucrt:inittime.obj
 0001:0004d433       ___acrt_locale_initialize_time 1004e433 f   libucrt:inittime.obj
 0001:0004d51e       _wcscat_s                  1004e51e f   libucrt:wcscat_s.obj
 0001:0004d675       _wcsncat_s                 1004e675 f   libucrt:wcsncat_s.obj
 0001:0004d74e       _wcsncpy_s                 1004e74e f   libucrt:wcsncpy_s.obj
 0001:0004d759       _wcscspn                   1004e759 f   libucrt:wcscspn.obj
 0001:0004d7b2       _wcspbrk                   1004e7b2 f   libucrt:wcspbrk.obj
 0001:0004d800       ??0?$__crt_scoped_stack_ptr@_W@@QAE@U?$__crt_scoped_stack_ptr_tag@_W@@@Z 1004e800 f i libucrt:getstringtypea.obj
 0001:0004d810       ??0?$__crt_scoped_stack_ptr_tag@_W@@QAE@QA_W@Z 1004e810 f i libucrt:getstringtypea.obj
 0001:0004d820       ??1?$__crt_scoped_stack_ptr@_W@@QAE@XZ 1004e820 f i libucrt:getstringtypea.obj
 0001:0004d829       ?get@?$__crt_scoped_stack_ptr@_W@@QBEPA_WXZ 1004e829 f i libucrt:getstringtypea.obj
 0001:0004d82c       __MallocaComputeSize       1004e82c f i libucrt:getstringtypea.obj
 0001:0004d83f       __MarkAllocaS              1004e83f f i libucrt:getstringtypea.obj
 0001:0004d855       ___acrt_GetStringTypeA     1004e855 f   libucrt:getstringtypea.obj
 0001:0004d956       __freea_crt                1004e956 f i libucrt:getstringtypea.obj
 0001:0004e0b6       ___acrt_get_qualified_locale 1004f0b6 f   libucrt:get_qualified_locale.obj
 0001:0004ea49       ___acrt_get_qualified_locale_downlevel 1004fa49 f   libucrt:getqloc_downlevel.obj
 0001:0004ec39       _localeconv                1004fc39 f   libucrt:localeconv.obj
 0001:0004ec61       ?value@?$dual_state_global@J@__crt_state_management@@QAEAAJXZ 1004fc61 f i libucrt:new_mode.obj
 0001:0004ec64       __query_new_mode           1004fc64 f   libucrt:new_mode.obj
 0001:0004ec6b       __set_new_mode             1004fc6b f   libucrt:new_mode.obj
 0001:0004ec9a       ?dangerous_get_state_array@?$dual_state_global@H@__crt_state_management@@QAEPAHXZ 1004fc9a f i libucrt:txtmode.obj
 0001:0004ec9d       ___acrt_initialize_fmode   1004fc9d f   libucrt:txtmode.obj
 0001:0004ecb3       ___p__fmode                1004fcb3 f   libucrt:txtmode.obj
 0001:0004ed40       ___acrt_DownlevelLCIDToLocaleName 1004fd40 f   libucrt:lcidtoname_downlevel.obj
 0001:0004ede3       ___acrt_DownlevelLocaleNameToLCID 1004fde3 f   libucrt:lcidtoname_downlevel.obj
 0001:0004ee0f       ?__c16rtomb_utf8@__crt_mbstring@@YAIPAD_SPAU_Mbstatet@@AAV__crt_cached_ptd_host@@@Z 1004fe0f f   libucrt:c16rtomb.obj
 0001:0004ef30       _c16rtomb                  1004ff30 f   libucrt:c16rtomb.obj
 0001:0004ef67       ?__c32rtomb_utf8@__crt_mbstring@@YAIPAD_UPAU_Mbstatet@@AAV__crt_cached_ptd_host@@@Z 1004ff67 f   libucrt:c32rtomb.obj
 0001:0004f017       _c32rtomb                  10050017 f   libucrt:c32rtomb.obj
 0001:0004f0ff       ___acrt_fp_strflt_to_string 100500ff f   libucrt:_fptostr.obj
 0001:000504c0       ??0big_integer@__crt_strtox@@QAE@ABU01@@Z 100514c0 f i libucrt:cfout.obj
 0001:00050500       ??0big_integer@__crt_strtox@@QAE@XZ 10051500 f i libucrt:cfout.obj
 0001:00050590       ??4big_integer@__crt_strtox@@QAEAAU01@ABU01@@Z 10051590 f i libucrt:cfout.obj
 0001:000505d0       ??8__crt_strtox@@YA_NABUbig_integer@0@0@Z 100515d0 f i libucrt:cfout.obj
 0001:00050610       ??9__crt_strtox@@YA_NABUbig_integer@0@0@Z 10051610 f i libucrt:cfout.obj
 0001:00050650       ?add_carry@__crt_strtox@@YAIAAIII@Z 10051650 f i libucrt:cfout.obj
 0001:00050670       ?add_multiply_carry@__crt_strtox@@YAIAAIIII@Z 10051670 f i libucrt:cfout.obj
 0001:000506a0       ?bit_scan_reverse@__crt_strtox@@YAII@Z 100516a0 f i libucrt:cfout.obj
 0001:000506c0       ?count_sequential_high_zeroes@__crt_strtox@@YAII@Z 100516c0 f i libucrt:cfout.obj
 0001:000506e0       ?divide@__crt_strtox@@YA_KAAUbig_integer@1@ABU21@@Z 100516e0 f i libucrt:cfout.obj
 0001:00050b90       ?is_zero@__crt_strtox@@YA_NABUbig_integer@1@@Z 10051b90 f i libucrt:cfout.obj
 0001:00050ba0       ?make_big_integer@__crt_strtox@@YA?AUbig_integer@1@_K@Z 10051ba0 f i libucrt:cfout.obj
 0001:00050bc0       ?make_big_integer_power_of_two@__crt_strtox@@YA?AUbig_integer@1@I@Z 10051bc0 f i libucrt:cfout.obj
 0001:00050c10       ?multiply@__crt_strtox@@YA_NAAUbig_integer@1@ABU21@@Z 10051c10 f i libucrt:cfout.obj
 0001:00050f70       ?multiply@__crt_strtox@@YA_NAAUbig_integer@1@I@Z 10051f70 f i libucrt:cfout.obj
 0001:00051040       ?multiply_64_32@__crt_strtox@@YA_K_KI@Z 10052040 f i libucrt:cfout.obj
 0001:00051060       ?multiply_by_power_of_ten@__crt_strtox@@YA_NAAUbig_integer@1@I@Z 10052060 f i libucrt:cfout.obj
 0001:000515f0       ?multiply_core@__crt_strtox@@YAIQAIII@Z 100525f0 f i libucrt:cfout.obj
 0001:00051630       ?shift_left@__crt_strtox@@YA_NAAUbig_integer@1@I@Z 10052630 f i libucrt:cfout.obj
 0001:0005175f       ___acrt_fltout             1005275f f   libucrt:cfout.obj
 0001:00052dc8       ___fpe_flt_rounds          10053dc8 f   libucrt:fegetround.obj
 0001:00052dfc       _fegetround                10053dfc f   libucrt:fegetround.obj
 0001:00052e09       __fcloseall                10053e09 f   libucrt:closeall.obj
 0001:00052eb4       ?__mbrtoc32_utf8@__crt_mbstring@@YAIPA_UPBDIPAU_Mbstatet@@AAV__crt_cached_ptd_host@@@Z 10053eb4 f   libucrt:mbrtoc32.obj
 0001:00053065       _mbrtoc32                  10054065 f   libucrt:mbrtoc32.obj
 0001:0005314f       ___dcrt_lowio_ensure_console_output_initialized 1005414f f   libucrt:initcon.obj
 0001:0005316e       ___dcrt_terminate_console_output 1005416e f   libucrt:initcon.obj
 0001:00053185       ___dcrt_write_console      10054185 f   libucrt:initcon.obj
 0001:000531da       ___ascii_wcsnicmp          100541da f   libucrt:wcsnicmp.obj
 0001:00053229       __towlower_fast_internal   10054229 f i libucrt:wcsnicmp.obj
 0001:00053254       __towlower_internal        10054254 f i libucrt:wcsnicmp.obj
 0001:00053293       __wcsnicmp                 10054293 f   libucrt:wcsnicmp.obj
 0001:000532df       __wcsnicmp_l               100542df f   libucrt:wcsnicmp.obj
 0001:000533b2       __strnicmp                 100543b2 f   libucrt:strnicmp.obj
 0001:0005341f       __strnicmp_l               1005441f f   libucrt:strnicmp.obj
 0001:000534ea       ___p__commode              100544ea f   libucrt:ncommode.obj
 0001:00053653       __commit                   10054653 f   libucrt:commit.obj
 0001:000536d0       ___acrt_stdio_allocate_buffer_nolock 100546d0 f   libucrt:_getbuf.obj
 0001:000537f0       _qsort                     100547f0 f   libucrt:qsort.obj
 0001:00053ce0       _strpbrk                   10054ce0 f   libucrt:strpbrk.obj
 0001:00053d20       __mbsdec                   10054d20 f   libucrt:mbsdec.obj
 0001:00053d37       __mbsdec_l                 10054d37 f   libucrt:mbsdec.obj
 0001:00053dc4       ??B?$__crt_scoped_stack_ptr@_W@@QBE_NXZ 10054dc4 f i libucrt:lcmapstringa.obj
 0001:00053fba       ___acrt_LCMapStringA       10054fba f   libucrt:lcmapstringa.obj
 0001:00054012       __wcsnicoll                10055012 f   libucrt:wcsnicol.obj
 0001:0005407f       __wcsnicoll_l              1005507f f   libucrt:wcsnicol.obj
 0001:0005413f       __strnicoll                1005513f f   libucrt:strnicol.obj
 0001:00054168       __strnicoll_l              10055168 f   libucrt:strnicol.obj
 0001:00054230       ___acrt_SetEnvironmentVariableA 10055230 f   libucrt:setenvironmentvariablea.obj
 0001:000542c5       __msize                    100552c5 f   libucrt:msize.obj
 0001:000542d0       __msize_base               100552d0 f   libucrt:msize.obj
 0001:00054303       __realloc_base             10055303 f   libucrt:realloc_base.obj
 0001:0005436c       ___acrt_GetStringTypeW     1005536c f   libucrt:getstringtypew.obj
 0001:00054385       __set_error_mode           10055385 f   libucrt:set_error_mode.obj
 0001:000544c7       ??$message_box@$$TABQBDABQBDK@?$__crt_char_traits@D@@SAH$$QA$$TABQBD1$$QAK@Z 100554c7 f i libucrt:crtmbox.obj
 0001:000544e7       ??$message_box@$$TABQB_WABQB_WK@?$__crt_char_traits@_W@@SAH$$QA$$TABQB_W1$$QAK@Z 100554e7 f i libucrt:crtmbox.obj
 0001:00054507       ??$message_box@PAUHWND__@@ABQBDABQBDABI@?$__crt_char_traits@D@@SAH$$QAPAUHWND__@@ABQBD1ABI@Z 10055507 f i libucrt:crtmbox.obj
 0001:00054527       ??$message_box@PAUHWND__@@ABQB_WABQB_WABI@?$__crt_char_traits@_W@@SAH$$QAPAUHWND__@@ABQB_W1ABI@Z 10055527 f i libucrt:crtmbox.obj
 0001:00054547       ??$output_debug_string@ABQBD@?$__crt_char_traits@D@@SAXABQBD@Z 10055547 f i libucrt:crtmbox.obj
 0001:00054558       ??$output_debug_string@ABQB_W@?$__crt_char_traits@_W@@SAXABQB_W@Z 10055558 f i libucrt:crtmbox.obj
 0001:0005456a       ___acrt_show_narrow_message_box 1005556a f   libucrt:crtmbox.obj
 0001:00054575       ___acrt_show_wide_message_box 10055575 f   libucrt:crtmbox.obj
 0001:0005465f       ___acrt_GetLocaleInfoA     1005565f f   libucrt:getlocaleinfoa.obj
 0001:00054d11       __i64toa                   10055d11 f   libucrt:xtoa.obj
 0001:00054d52       __i64toa_s                 10055d52 f   libucrt:xtoa.obj
 0001:00054d91       __i64tow                   10055d91 f   libucrt:xtoa.obj
 0001:00054dd2       __i64tow_s                 10055dd2 f   libucrt:xtoa.obj
 0001:00054e11       __itoa                     10055e11 f   libucrt:xtoa.obj
 0001:00054e46       __itoa_s                   10055e46 f   libucrt:xtoa.obj
 0001:00054e79       __itow                     10055e79 f   libucrt:xtoa.obj
 0001:00054eae       __itow_s                   10055eae f   libucrt:xtoa.obj
 0001:00054ee1       __ltoa                     10055ee1 f   libucrt:xtoa.obj
 0001:00054f16       __ltoa_s                   10055f16 f   libucrt:xtoa.obj
 0001:00054f49       __ltow                     10055f49 f   libucrt:xtoa.obj
 0001:00054f7e       __ltow_s                   10055f7e f   libucrt:xtoa.obj
 0001:00054fb1       __ui64toa                  10055fb1 f   libucrt:xtoa.obj
 0001:00054fd3       __ui64toa_s                10055fd3 f   libucrt:xtoa.obj
 0001:00054ff3       __ui64tow                  10055ff3 f   libucrt:xtoa.obj
 0001:00055015       __ui64tow_s                10056015 f   libucrt:xtoa.obj
 0001:00055035       __ultoa                    10056035 f   libucrt:xtoa.obj
 0001:00055054       __ultoa_s                  10056054 f   libucrt:xtoa.obj
 0001:00055071       __ultow                    10056071 f   libucrt:xtoa.obj
 0001:00055090       __ultow_s                  10056090 f   libucrt:xtoa.obj
 0001:000550ad       ___ascii_wcsicmp           100560ad f   libucrt:wcsicmp.obj
 0001:000550ea       __wcsicmp                  100560ea f   libucrt:wcsicmp.obj
 0001:00055133       __wcsicmp_l                10056133 f   libucrt:wcsicmp.obj
 0001:000551eb       ?reset_and_return@__crt_mbstring@@YAIIPAU_Mbstatet@@@Z 100561eb f   libucrt:common_utf8.obj
 0001:000551ff       ?return_illegal_sequence@__crt_mbstring@@YAIPAU_Mbstatet@@AAV__crt_cached_ptd_host@@@Z 100561ff f   libucrt:common_utf8.obj
 0001:00055221       __controlfp_s              10056221 f   libucrt:contrlfp.obj
 0001:00055280       _fegetenv                  10056280 f   libucrt:fegetenv.obj
 0001:0005529d       _fesetenv                  1005629d f   libucrt:fesetenv.obj
 0001:000552e9       _feholdexcept              100562e9 f   libucrt:feholdexcept.obj
 0001:00055340       __CIlog10                  10056340 f   libucrt:log10_impl.obj
 0001:0005537b       __CIlog10_default          1005637b f   libucrt:log10_impl.obj
 0001:0005538f       __log10_default            1005638f     libucrt:log10_impl.obj
 0001:00055450       _ceil                      10056450 f   libucrt:ceil_pentium4.obj
 0001:00055490       __ceil_pentium4            10056490 f   libucrt:ceil_pentium4.obj
 0001:0005556d       ??$__acrt_fenv_shift_bits@W4__acrt_fenv_abstract_control@@@@YA?AW4__acrt_fenv_abstract_control@@W40@0I@Z 1005656d f i libucrt:_fenvutils.obj
 0001:0005557f       ??$__acrt_fenv_shift_bits@W4__acrt_fenv_abstract_status@@@@YA?AW4__acrt_fenv_abstract_status@@W40@0I@Z 1005657f f i libucrt:_fenvutils.obj
 0001:00055591       ??$__acrt_fenv_translate_bit@W4__acrt_fenv_abstract_control@@W4__acrt_fenv_machine_sse_control@@@@YA?AW4__acrt_fenv_abstract_control@@W4__acrt_fenv_machine_sse_control@@0W40@1@Z 10056591 f i libucrt:_fenvutils.obj
 0001:000555a9       ??$__acrt_fenv_translate_bit@W4__acrt_fenv_abstract_control@@W4__acrt_fenv_machine_x87_control@@@@YA?AW4__acrt_fenv_abstract_control@@W4__acrt_fenv_machine_x87_control@@0W40@1@Z 100565a9 f i libucrt:_fenvutils.obj
 0001:000555c1       ??$__acrt_fenv_translate_bit@W4__acrt_fenv_abstract_status@@W4__acrt_fenv_machine_sse_status@@@@YA?AW4__acrt_fenv_abstract_status@@W4__acrt_fenv_machine_sse_status@@0W40@1@Z 100565c1 f i libucrt:_fenvutils.obj
 0001:000555d6       ??$__acrt_fenv_translate_bit@W4__acrt_fenv_abstract_status@@W4__acrt_fenv_machine_x87_status@@@@YA?AW4__acrt_fenv_abstract_status@@W4__acrt_fenv_machine_x87_status@@0W40@1@Z 100565d6 f i libucrt:_fenvutils.obj
 0001:000555eb       ??$__acrt_fenv_translate_bit@W4__acrt_fenv_machine_sse_control@@W4__acrt_fenv_abstract_control@@@@YA?AW4__acrt_fenv_machine_sse_control@@W4__acrt_fenv_abstract_control@@0W40@1@Z 100565eb f i libucrt:_fenvutils.obj
 0001:00055602       ??$__acrt_fenv_translate_bit@W4__acrt_fenv_machine_sse_status@@W4__acrt_fenv_abstract_status@@@@YA?AW4__acrt_fenv_machine_sse_status@@W4__acrt_fenv_abstract_status@@0W40@1@Z 10056602 f i libucrt:_fenvutils.obj
 0001:00055617       ??$__acrt_fenv_translate_bit@W4__acrt_fenv_machine_x87_control@@W4__acrt_fenv_abstract_control@@@@YA?AW4__acrt_fenv_machine_x87_control@@W4__acrt_fenv_abstract_control@@0W40@1@Z 10056617 f i libucrt:_fenvutils.obj
 0001:0005562e       ??$__acrt_fenv_translate_bit@W4__acrt_fenv_machine_x87_status@@W4__acrt_fenv_abstract_status@@@@YA?AW4__acrt_fenv_machine_x87_status@@W4__acrt_fenv_abstract_status@@0W40@1@Z 1005662e f i libucrt:_fenvutils.obj
 0001:00055643       ??$__acrt_fenv_unshift_bits@W4__acrt_fenv_abstract_control@@@@YA?AW4__acrt_fenv_abstract_control@@W40@0I@Z 10056643 f i libucrt:_fenvutils.obj
 0001:00055655       ??$__acrt_fenv_unshift_bits@W4__acrt_fenv_abstract_status@@@@YA?AW4__acrt_fenv_abstract_status@@W40@0I@Z 10056655 f i libucrt:_fenvutils.obj
 0001:00055a4a       ??I@YA?AW4__acrt_fenv_abstract_control@@W40@0@Z 10056a4a f i libucrt:_fenvutils.obj
 0001:00055a57       ??I@YA?AW4__acrt_fenv_abstract_status@@W40@0@Z 10056a57 f i libucrt:_fenvutils.obj
 0001:00055a64       ??I@YA?AW4__acrt_fenv_machine_sse_control@@W40@0@Z 10056a64 f i libucrt:_fenvutils.obj
 0001:00055a71       ??I@YA?AW4__acrt_fenv_machine_sse_status@@W40@0@Z 10056a71 f i libucrt:_fenvutils.obj
 0001:00055a7e       ??I@YA?AW4__acrt_fenv_machine_x87_control@@W40@0@Z 10056a7e f i libucrt:_fenvutils.obj
 0001:00055a8b       ??I@YA?AW4__acrt_fenv_machine_x87_status@@W40@0@Z 10056a8b f i libucrt:_fenvutils.obj
 0001:00055a98       ??U@YA?AW4__acrt_fenv_abstract_control@@W40@0@Z 10056a98 f i libucrt:_fenvutils.obj
 0001:00055aa5       ??U@YA?AW4__acrt_fenv_abstract_status@@W40@0@Z 10056aa5 f i libucrt:_fenvutils.obj
 0001:00055ab2       ??U@YA?AW4__acrt_fenv_machine_sse_control@@W40@0@Z 10056ab2 f i libucrt:_fenvutils.obj
 0001:00055abf       ??U@YA?AW4__acrt_fenv_machine_x87_control@@W40@0@Z 10056abf f i libucrt:_fenvutils.obj
 0001:00055acc       ??_5@YAAAW4__acrt_fenv_abstract_control@@AAW40@W40@@Z 10056acc f i libucrt:_fenvutils.obj
 0001:00055adb       ??_5@YAAAW4__acrt_fenv_abstract_status@@AAW40@W40@@Z 10056adb f i libucrt:_fenvutils.obj
 0001:00055aea       ??_5@YAAAW4__acrt_fenv_machine_sse_control@@AAW40@W40@@Z 10056aea f i libucrt:_fenvutils.obj
 0001:00055afb       ??_5@YAAAW4__acrt_fenv_machine_sse_status@@AAW40@W40@@Z 10056afb f i libucrt:_fenvutils.obj
 0001:00055b0a       ??_5@YAAAW4__acrt_fenv_machine_x87_control@@AAW40@W40@@Z 10056b0a f i libucrt:_fenvutils.obj
 0001:00055b1b       ??_5@YAAAW4__acrt_fenv_machine_x87_status@@AAW40@W40@@Z 10056b1b f i libucrt:_fenvutils.obj
 0001:00055b2a       ?__acrt_fenv_shift_abstract_sse_control@@YA?AW4__acrt_fenv_abstract_control@@W41@@Z 10056b2a f i libucrt:_fenvutils.obj
 0001:00055b47       ?__acrt_fenv_shift_abstract_sse_status@@YA?AW4__acrt_fenv_abstract_status@@W41@@Z 10056b47 f i libucrt:_fenvutils.obj
 0001:00055b57       ?__acrt_fenv_shift_abstract_x87_control@@YA?AW4__acrt_fenv_abstract_control@@W41@@Z 10056b57 f i libucrt:_fenvutils.obj
 0001:00055b74       ?__acrt_fenv_shift_abstract_x87_status@@YA?AW4__acrt_fenv_abstract_status@@W41@@Z 10056b74 f i libucrt:_fenvutils.obj
 0001:00055b84       ?__acrt_fenv_unshift_abstract_sse_control@@YA?AW4__acrt_fenv_abstract_control@@W41@@Z 10056b84 f i libucrt:_fenvutils.obj
 0001:00055ba3       ?__acrt_fenv_unshift_abstract_sse_status@@YA?AW4__acrt_fenv_abstract_status@@W41@@Z 10056ba3 f i libucrt:_fenvutils.obj
 0001:00055bb3       ?__acrt_fenv_unshift_abstract_x87_control@@YA?AW4__acrt_fenv_abstract_control@@W41@@Z 10056bb3 f i libucrt:_fenvutils.obj
 0001:00055bd2       ?__acrt_fenv_unshift_abstract_x87_status@@YA?AW4__acrt_fenv_abstract_status@@W41@@Z 10056bd2 f i libucrt:_fenvutils.obj
 0001:000560e5       ___acrt_fenv_expand_round_control 100570e5 f   libucrt:_fenvutils.obj
 0001:0005611b       ___acrt_fenv_get_common_round_control 1005711b f   libucrt:_fenvutils.obj
 0001:0005613d       ___acrt_fenv_get_control   1005713d f   libucrt:_fenvutils.obj
 0001:000561bd       ___acrt_fenv_get_fp_status_word_from_exception_mask 100571bd f   libucrt:_fenvutils.obj
 0001:000561d7       ___acrt_fenv_get_status    100571d7 f   libucrt:_fenvutils.obj
 0001:00056281       ___acrt_fenv_set_control   10057281 f   libucrt:_fenvutils.obj
 0001:000562fc       ___acrt_fenv_set_status    100572fc f   libucrt:_fenvutils.obj
 0001:000563f8       __towlower_l               100573f8 f   libucrt:towlower.obj
 0001:000564cc       _towlower                  100574cc f   libucrt:towlower.obj
 0001:000564e0       ___ascii_strnicmp          100574e0 f   libucrt:_strnicm.obj
 0001:00056541       ___strncnt                 10057541 f   libucrt:strncnt.obj
 0001:0005655d       ___acrt_CompareStringW     1005755d f   libucrt:comparestringw.obj
 0001:00056861       ___acrt_CompareStringA     10057861 f   libucrt:comparestringa.obj
 0001:000568a7       ___acrt_OutputDebugStringA@4 100578a7 f   libucrt:outputdebugstringa.obj
 0001:00056a59       ___control87_2             10057a59 f   libucrt:ieee87.obj
 0001:00056ef1       ___fpreset_sse2            10057ef1 f   libucrt:ieee87.obj
 0001:000570c7       __clearfp                  100580c7 f   libucrt:ieee87.obj
 0001:000571a5       __control87                100581a5 f   libucrt:ieee87.obj
 0001:000574a6       __controlfp                100584a6 f   libucrt:ieee87.obj
 0001:000574c0       __fpreset                  100584c0 f   libucrt:ieee87.obj
 0001:00057596       __set_controlfp            10058596 f   libucrt:ieee87.obj
 0001:00057609       __statusfp                 10058609 f   libucrt:ieee87.obj
 0001:000576a4       __statusfp2                100586a4 f   libucrt:ieee87.obj
 0001:00057707       ___acrt_initialize_sse2    10058707 f   libucrt:mathfcns.obj
 0001:00057717       __set_SSE2_enable          10058717 f   libucrt:mathfcns.obj
 0001:00057740       __CIlog10_pentium4         10058740 f   libucrt:log10_pentium4.obj
 0001:00057758       __log10_pentium4           10058758     libucrt:log10_pentium4.obj
 0001:000579f0       __fFEXP                    100589f0 f   libucrt:87tran.obj
 0001:00057a47       __rtinfpopse               10058a47     libucrt:87tran.obj
 0001:00057a49       __rtinfnpopse              10058a49     libucrt:87tran.obj
 0001:00057a59       __fFLN                     10058a59     libucrt:87tran.obj
 0001:00057b0e       __rtinfpop                 10058b0e     libucrt:87tran.obj
 0001:00057b10       __rtinfnpop                10058b10     libucrt:87tran.obj
 0001:00057b20       __rtforexpinf              10058b20 f   libucrt:87tran.obj
 0001:00057b2d       __ffexpm1                  10058b2d     libucrt:87tran.obj
 0001:00057be0       __trandisp1                10058be0 f   libucrt:87disp.obj
 0001:00057c55       __trandisp2                10058c55 f   libucrt:87disp.obj
 0001:00057cef       __rttospopde               10058cef     libucrt:87disp.obj
 0001:00057cf4       __rttospop                 10058cf4     libucrt:87disp.obj
 0001:00057d00       __rtnospop                 10058d00 f   libucrt:87disp.obj
 0001:00057d10       __rttosnpop                10058d10 f   libucrt:87disp.obj
 0001:00057d11       __rtnospopde               10058d11     libucrt:87disp.obj
 0001:00057d18       __rtzeropop                10058d18     libucrt:87disp.obj
 0001:00057d1a       __rtzeronpop               10058d1a     libucrt:87disp.obj
 0001:00057d20       __rtzerospop               10058d20 f   libucrt:87disp.obj
 0001:00057d2d       __rtonepop                 10058d2d     libucrt:87disp.obj
 0001:00057d30       __rtonenpop                10058d30 f   libucrt:87disp.obj
 0001:00057d40       __tosnan1                  10058d40 f   libucrt:87disp.obj
 0001:00057d70       __nosnan2                  10058d70 f   libucrt:87disp.obj
 0001:00057d80       __tosnan2                  10058d80 f   libucrt:87disp.obj
 0001:00057db0       __nan2                     10058db0 f   libucrt:87disp.obj
 0001:00057df0       __rtindfpop                10058df0 f   libucrt:87disp.obj
 0001:00057df2       __rtindfnpop               10058df2     libucrt:87disp.obj
 0001:00057e03       __rttosnpopde              10058e03     libucrt:87disp.obj
 0001:00057e10       __rtatan2inf               10058e10 f   libucrt:87disp.obj
 0001:00057e2d       __rtchsifneg               10058e2d     libucrt:87disp.obj
 0001:00057e34       ___setfflag                10058e34 f   libucrt:fp_flags.obj
 0001:00057e50       __twoToTOS                 10058e50 f   libucrt:common.obj
 0001:00057e65       __load_CW                  10058e65 f   libucrt:common.obj
 0001:00057e7c       __convertTOStoQNaN         10058e7c f   libucrt:common.obj
 0001:00057e95       __fload_withFB             10058e95 f   libucrt:common.obj
 0001:00057ed8       __checkTOS_withFB          10058ed8 f   libucrt:common.obj
 0001:00057eee       __fast_exit                10058eee f   libucrt:common.obj
 0001:00057efb       __math_exit                10058efb f   libucrt:common.obj
 0001:00057f25       __check_overflow_exit      10058f25 f   libucrt:common.obj
 0001:00057f39       __check_range_exit         10058f39 f   libucrt:common.obj
 0001:00057fe0       __startTwoArgErrorHandling 10058fe0 f   libucrt:genexcep.obj
 0001:00057ff7       __startOneArgErrorHandling 10058ff7 f   libucrt:genexcep.obj
 0001:00058033       ___libm_error_support      10059033 f   libucrt:libm_error.obj
 0001:00058227       ___libm_setusermatherr     10059227 f   libucrt:libm_error.obj
 0001:0005824e       __ceil_default             1005924e f   libucrt:ceil.obj
 0001:0005830c       ___acrt_LCMapStringW       1005930c f   libucrt:lcmapstringw.obj
 0001:0005834a       ___clrfp_sse2              1005934a f   libucrt:fpctrl.obj
 0001:0005837c       ___ctrlfp_sse2             1005937c f   libucrt:fpctrl.obj
 0001:000583b7       ___fclrf_sse2              100593b7 f   libucrt:fpctrl.obj
 0001:000583d4       ___get_fpsr_sse2           100593d4 f   libucrt:fpctrl.obj
 0001:000583f0       ___set_fpsr_sse2           100593f0 f   libucrt:fpctrl.obj
 0001:00058470       ___set_statfp_sse2         10059470 f   libucrt:fpctrl.obj
 0001:0005848b       ___statfp_sse2             1005948b f   libucrt:fpctrl.obj
 0001:000584a0       __clrfp                    100594a0 f   libucrt:fpctrl.obj
 0001:000584b1       __ctrlfp                   100594b1 f   libucrt:fpctrl.obj
 0001:000584db       __set_statfp               100594db f   libucrt:fpctrl.obj
 0001:00058534       __statfp                   10059534 f   libucrt:fpctrl.obj
 0001:00058544       __d_inttype                10059544 f   libucrt:powhlp.obj
 0001:000585ac       __powhlp                   100595ac f   libucrt:powhlp.obj
 0001:000586d7       __87except                 100596d7 f   libucrt:87except.obj
 0001:000587e7       __frnd                     100597e7 f   libucrt:frnd.obj
 0001:000587fb       ?should_round_up@__crt_strtox@@YA_N_N000@Z 100597fb f i libucrt:fpexcept.obj
 0001:00058848       __errcode                  10059848 f   libucrt:fpexcept.obj
 0001:0005887c       __except1                  1005987c f   libucrt:fpexcept.obj
 0001:0005894a       __except2                  1005994a f   libucrt:fpexcept.obj
 0001:00058a52       __handle_exc               10059a52 f   libucrt:fpexcept.obj
 0001:00058cd2       __handle_qnan2             10059cd2 f   libucrt:fpexcept.obj
 0001:00058cdf       __raise_exc                10059cdf f   libucrt:fpexcept.obj
 0001:00058d02       __raise_exc_ex             10059d02 f   libucrt:fpexcept.obj
 0001:00058ff3       __raise_excf               10059ff3 f   libucrt:fpexcept.obj
 0001:00059016       __set_errno_from_matherr   1005a016 f   libucrt:fpexcept.obj
 0001:00059047       __umatherr                 1005a047 f   libucrt:fpexcept.obj
 0001:000590e7       __add_exp                  1005a0e7 f   libucrt:util.obj
 0001:00059116       __decomp                   1005a116 f   libucrt:util.obj
 0001:000591e8       __get_exp                  1005a1e8 f   libucrt:util.obj
 0001:00059200       __set_bexp                 1005a200 f   libucrt:util.obj
 0001:00059227       __set_exp                  1005a227 f   libucrt:util.obj
 0001:00059254       __sptype                   1005a254 f   libucrt:util.obj
 0001:000592b7       __chgsign                  1005a2b7 f   libucrt:ieeemisc.obj
 0001:000592df       __chgsignf                 1005a2df f   libucrt:ieeemisc.obj
 0001:00059300       __copysign                 1005a300 f   libucrt:ieeemisc.obj
 0001:00059323       __copysignf                1005a323 f   libucrt:ieeemisc.obj
 0001:0005933f       __finite                   1005a33f f   libucrt:ieeemisc.obj
 0001:00059359       __fpclass                  1005a359 f   libucrt:ieeemisc.obj
 0001:000593fd       __isnan                    1005a3fd f   libucrt:ieeemisc.obj
 0001:00059434       __logb                     1005a434 f   libucrt:ieeemisc.obj
 0001:00059504       __nextafter                1005a504 f   libucrt:ieeemisc.obj
 0001:00059523       __scalb                    1005a523 f   libucrt:ieeemisc.obj
 0001:0005953d       _ldexp                     1005a53d f   libucrt:ldexp.obj
 0001:00059730       _nextafter                 1005a730 f   libucrt:nextafter.obj
 0001:0005974f       _nexttoward                1005a74f f   libucrt:nexttoward.obj
 0001:0005993a       __d_int                    1005a93a f   libucrt:_test.obj
 0001:00059a40       __dtest                    1005aa40 f   libucrt:_test.obj
 0001:00059aa4       __fd_int                   1005aaa4 f   libucrt:_test.obj
 0001:00059b71       __fdtest                   1005ab71 f   libucrt:_test.obj
 0001:00059bbf       __fperrraise               1005abbf f   libucrt:_test.obj
 0001:00059be0       __ld_int                   1005abe0 f   libucrt:_test.obj
 0001:00059beb       __ldtest                   1005abeb f   libucrt:_test.obj
 0001:00059bf6       __dclass                   1005abf6 f   libucrt:nan.obj
 0001:00059c07       __dpcomp                   1005ac07 f   libucrt:nan.obj
 0001:00059c5d       __dsign                    1005ac5d f   libucrt:nan.obj
 0001:00059c6d       _nan                       1005ac6d f   libucrt:nan.obj
 0001:00059c74       __ldclass                  1005ac74 f   libucrt:nanl.obj
 0001:00059c85       __ldpcomp                  1005ac85 f   libucrt:nanl.obj
 0001:00059cdb       __ldsign                   1005acdb f   libucrt:nanl.obj
 0001:00059ceb       _nanl                      1005aceb f   libucrt:nanl.obj
 0001:00059cf2       ??_4@YAAAW4__acrt_fenv_abstract_status@@AAW40@W40@@Z 1005acf2 f i libucrt:fegetexceptflag.obj
 0001:00059d01       _fegetexceptflag           1005ad01 f   libucrt:fegetexceptflag.obj
 0001:00059d32       ??S@YA?AW4__acrt_fenv_abstract_status@@W40@@Z 1005ad32 f i libucrt:fesetexceptflag.obj
 0001:00059d3e       _fesetexceptflag           1005ad3e f   libucrt:fesetexceptflag.obj
 0001:00059da0       _fetestexcept              1005ada0 f   libucrt:fetestexcept.obj
 0001:00059dc0       _QueryPerformanceCounter@4 1005adc0 f   kernel32:KERNEL32.dll
 0001:00059dc6       _GetCurrentProcessId@0     1005adc6 f   kernel32:KERNEL32.dll
 0001:00059dcc       _GetCurrentThreadId@0      1005adcc f   kernel32:KERNEL32.dll
 0001:00059dd2       _GetSystemTimeAsFileTime@4 1005add2 f   kernel32:KERNEL32.dll
 0001:00059dd8       _InitializeSListHead@4     1005add8 f   kernel32:KERNEL32.dll
 0001:00059dde       _IsDebuggerPresent@0       1005adde f   kernel32:KERNEL32.dll
 0001:00059de4       _UnhandledExceptionFilter@4 1005ade4 f   kernel32:KERNEL32.dll
 0001:00059dea       _SetUnhandledExceptionFilter@4 1005adea f   kernel32:KERNEL32.dll
 0001:00059df0       _GetStartupInfoW@4         1005adf0 f   kernel32:KERNEL32.dll
 0001:00059df6       _IsProcessorFeaturePresent@4 1005adf6 f   kernel32:KERNEL32.dll
 0001:00059dfc       _GetModuleHandleW@4        1005adfc f   kernel32:KERNEL32.dll
 0001:00059e02       _GetCurrentProcess@0       1005ae02 f   kernel32:KERNEL32.dll
 0001:00059e08       _TerminateProcess@8        1005ae08 f   kernel32:KERNEL32.dll
 0001:00059e0e       _InterlockedPushEntrySList@8 1005ae0e f   kernel32:KERNEL32.dll
 0001:00059e14       _InterlockedFlushSList@4   1005ae14 f   kernel32:KERNEL32.dll
 0001:00059e1a       _RtlUnwind@16              1005ae1a f   kernel32:KERNEL32.dll
 0001:00059e20       _SetLastError@4            1005ae20 f   kernel32:KERNEL32.dll
 0001:00059e26       _EnterCriticalSection@4    1005ae26 f   kernel32:KERNEL32.dll
 0001:00059e2c       _LeaveCriticalSection@4    1005ae2c f   kernel32:KERNEL32.dll
 0001:00059e32       _DeleteCriticalSection@4   1005ae32 f   kernel32:KERNEL32.dll
 0001:00059e38       _InitializeCriticalSectionAndSpinCount@8 1005ae38 f   kernel32:KERNEL32.dll
 0001:00059e3e       _TlsAlloc@0                1005ae3e f   kernel32:KERNEL32.dll
 0001:00059e44       _TlsGetValue@4             1005ae44 f   kernel32:KERNEL32.dll
 0001:00059e4a       _TlsSetValue@8             1005ae4a f   kernel32:KERNEL32.dll
 0001:00059e50       _TlsFree@4                 1005ae50 f   kernel32:KERNEL32.dll
 0001:00059e56       _FreeLibrary@4             1005ae56 f   kernel32:KERNEL32.dll
 0001:00059e5c       _GetProcAddress@8          1005ae5c f   kernel32:KERNEL32.dll
 0001:00059e62       _LoadLibraryExW@12         1005ae62 f   kernel32:KERNEL32.dll
 0001:00059e68       _EncodePointer@4           1005ae68 f   kernel32:KERNEL32.dll
 0001:00059e6e       _RaiseException@16         1005ae6e f   kernel32:KERNEL32.dll
 0001:00059e74       _SetFilePointerEx@20       1005ae74 f   kernel32:KERNEL32.dll
 0001:00059e7a       _GetFileType@4             1005ae7a f   kernel32:KERNEL32.dll
 0001:00059e80       _GetConsoleMode@8          1005ae80 f   kernel32:KERNEL32.dll
 0001:00059e86       _ReadConsoleW@20           1005ae86 f   kernel32:KERNEL32.dll
 0001:00059e8c       _GetConsoleOutputCP@0      1005ae8c f   kernel32:KERNEL32.dll
 0001:00059e92       _ExitProcess@4             1005ae92 f   kernel32:KERNEL32.dll
 0001:00059e98       _GetModuleHandleExW@12     1005ae98 f   kernel32:KERNEL32.dll
 0001:00059e9e       _GetModuleFileNameW@12     1005ae9e f   kernel32:KERNEL32.dll
 0001:00059ea4       _SetStdHandle@8            1005aea4 f   kernel32:KERNEL32.dll
 0001:00059eaa       _GetCurrentThread@0        1005aeaa f   kernel32:KERNEL32.dll
 0001:00059eb0       _GetStdHandle@4            1005aeb0 f   kernel32:KERNEL32.dll
 0001:00059eb6       _HeapFree@12               1005aeb6 f   kernel32:KERNEL32.dll
 0001:00059ebc       _HeapAlloc@12              1005aebc f   kernel32:KERNEL32.dll
 0001:00059ec2       _MultiByteToWideChar@24    1005aec2 f   kernel32:KERNEL32.dll
 0001:00059ec8       _GetTempPathW@8            1005aec8 f   kernel32:KERNEL32.dll
 0001:00059ece       _GetDateFormatW@24         1005aece f   kernel32:KERNEL32.dll
 0001:00059ed4       _GetTimeFormatW@24         1005aed4 f   kernel32:KERNEL32.dll
 0001:00059eda       _CompareStringW@24         1005aeda f   kernel32:KERNEL32.dll
 0001:00059ee0       _LCMapStringW@24           1005aee0 f   kernel32:KERNEL32.dll
 0001:00059ee6       _GetLocaleInfoW@16         1005aee6 f   kernel32:KERNEL32.dll
 0001:00059eec       _IsValidLocale@8           1005aeec f   kernel32:KERNEL32.dll
 0001:00059ef2       _GetUserDefaultLCID@0      1005aef2 f   kernel32:KERNEL32.dll
 0001:00059ef8       _EnumSystemLocalesW@8      1005aef8 f   kernel32:KERNEL32.dll
 0001:00059efe       _SetEndOfFile@4            1005aefe f   kernel32:KERNEL32.dll
 0001:00059f04       _WideCharToMultiByte@32    1005af04 f   kernel32:KERNEL32.dll
 0001:00059f0a       _GetFileSizeEx@8           1005af0a f   kernel32:KERNEL32.dll
 0001:00059f10       _FindClose@4               1005af10 f   kernel32:KERNEL32.dll
 0001:00059f16       _FindFirstFileExW@24       1005af16 f   kernel32:KERNEL32.dll
 0001:00059f1c       _FindNextFileW@8           1005af1c f   kernel32:KERNEL32.dll
 0001:00059f22       _IsValidCodePage@4         1005af22 f   kernel32:KERNEL32.dll
 0001:00059f28       _GetACP@0                  1005af28 f   kernel32:KERNEL32.dll
 0001:00059f2e       _GetOEMCP@0                1005af2e f   kernel32:KERNEL32.dll
 0001:00059f34       _GetCPInfo@8               1005af34 f   kernel32:KERNEL32.dll
 0001:00059f3a       _GetCommandLineA@0         1005af3a f   kernel32:KERNEL32.dll
 0001:00059f40       _GetCommandLineW@0         1005af40 f   kernel32:KERNEL32.dll
 0001:00059f46       _GetEnvironmentStringsW@0  1005af46 f   kernel32:KERNEL32.dll
 0001:00059f4c       _FreeEnvironmentStringsW@4 1005af4c f   kernel32:KERNEL32.dll
 0001:00059f52       _SetEnvironmentVariableW@8 1005af52 f   kernel32:KERNEL32.dll
 0001:00059f58       _GetProcessHeap@0          1005af58 f   kernel32:KERNEL32.dll
 0001:00059f5e       _SetConsoleCtrlHandler@8   1005af5e f   kernel32:KERNEL32.dll
 0001:00059f64       _GetStringTypeW@16         1005af64 f   kernel32:KERNEL32.dll
 0001:00059f6a       _WriteConsoleW@20          1005af6a f   kernel32:KERNEL32.dll
 0001:00059f70       _FlushFileBuffers@4        1005af70 f   kernel32:KERNEL32.dll
 0001:00059f76       _HeapSize@12               1005af76 f   kernel32:KERNEL32.dll
 0001:00059f7c       _HeapReAlloc@16            1005af7c f   kernel32:KERNEL32.dll
 0001:00059f82       _OutputDebugStringW@4      1005af82 f   kernel32:KERNEL32.dll
 0001:00059f88       _DecodePointer@4           1005af88 f   kernel32:KERNEL32.dll
 0001:00059f90       __FindPESection            1005af90 f   LIBCMT:pesect.obj
 0001:00059fe0       __IsNonwritableInCurrentImage 1005afe0 f   LIBCMT:pesect.obj
 0001:0005a0a0       __ValidateImageBase        1005b0a0 f   LIBCMT:pesect.obj
 0001:0005a0d1       ??1type_info@@UAE@XZ       1005b0d1 f   LIBCMT:std_type_info_static.obj
 0001:0005a0d8       ??_Etype_info@@UAEPAXI@Z   1005b0d8 f i LIBCMT:std_type_info_static.obj
 0001:0005a0d8       ??_Gtype_info@@UAEPAXI@Z   1005b0d8 f i LIBCMT:std_type_info_static.obj
 0001:0005a0fb       __EH_epilog3               1005b0fb f   LIBCMT:ehprolg3.obj
 0001:0005a10f       __EH_epilog3_GS            1005b10f f   LIBCMT:ehprolg3.obj
 0001:0005a11e       __EH_epilog3_catch_GS      1005b11e f   LIBCMT:ehprolg3.obj
 0001:0005a12d       __EH_prolog3               1005b12d f   LIBCMT:ehprolg3.obj
 0001:0005a160       __EH_prolog3_GS            1005b160 f   LIBCMT:ehprolg3.obj
 0001:0005a196       __EH_prolog3_catch         1005b196 f   LIBCMT:ehprolg3.obj
 0001:0005a1cc       __EH_prolog3_catch_GS      1005b1cc f   LIBCMT:ehprolg3.obj
 0001:0005a210       __aulldvrm                 1005b210 f   LIBCMT:ulldvrm.obj
 0001:0005a2a5       ??3@YAXPAXI@Z              1005b2a5 f   LIBCMT:delete_scalar_size.obj
 0001:0005a2b3       __except_handler4_noexcept 1005b2b3 f   LIBCMT:chandler4_noexcept.obj
 0001:0005a300       __aulldiv                  1005b300 f   LIBCMT:ulldiv.obj
 0001:0005a370       __aullrem                  1005b370 f   LIBCMT:ullrem.obj
 0001:0005a3f0       __alloca_probe             1005b3f0 f   LIBCMT:chkstk.obj
 0001:0005a3f0       __chkstk                   1005b3f0 f   LIBCMT:chkstk.obj
 0001:0005a420       __alldiv                   1005b420 f   LIBCMT:lldiv.obj
 0001:0005a4d0       __allrem                   1005b4d0 f   LIBCMT:llrem.obj
 0001:0005a590       __allmul                   1005b590 f   LIBCMT:llmul.obj
 0001:0005a5d0       __allshl                   1005b5d0 f   LIBCMT:llshl.obj
 0001:0005a5f0       __aullshr                  1005b5f0 f   LIBCMT:ullshr.obj
 0001:0005a610       __alloca_probe_16          1005b610 f   LIBCMT:alloca16.obj
 0001:0005a626       __alloca_probe_8           1005b626     LIBCMT:alloca16.obj
 0001:0005a640       __ftol2_sse_excpt          1005b640 f   LIBCMT:ftol2.obj
 0001:0005a650       __ftol2_sse                1005b650 f   LIBCMT:ftol2.obj
 0001:0005a660       __ftoi2                    1005b660 f   LIBCMT:ftol2.obj
 0001:0005a6e0       __ftoui2                   1005b6e0 f   LIBCMT:ftol2.obj
 0001:0005a790       __ftol2                    1005b790 f   LIBCMT:ftol2.obj
 0001:0005a840       __ftoul2                   1005b840 f   LIBCMT:ftol2.obj
 0001:0005a900       __ftoul2_legacy            1005b900 f   LIBCMT:ftol2.obj
 0001:0005a916       __initialize_default_precision 1005b916 f   LIBCMT:default_precision.obj
 0001:0005a937       ??3@YAXPAX@Z               1005b937 f   LIBCMT:delete_scalar.obj
 0001:0005aa59       _memcmp                    1005ba59 f   libvcruntime:memcmp.obj
 0001:0005d6c0       _strrchr                   1005e6c0 f   libvcruntime:strrchr.obj
 0001:0005d800       _strchr                    1005e800 f   libvcruntime:strchr.obj
 0001:0005d86e       ___from_strstr_to_strchr   1005e86e     libvcruntime:strchr.obj
 0001:0005d92b       _wcschr                    1005e92b f   libvcruntime:wcschr.obj
 0001:0005d9db       __filter_x86_sse2_floating_point_exception 1005e9db f   LIBCMT:x86_exception_filter.obj
 0001:0005d9db       __filter_x86_sse2_floating_point_exception_default 1005e9db f   LIBCMT:x86_exception_filter.obj
 0001:0005da60       _memchr                    1005ea60 f   libvcruntime:memchr.obj
 0002:00000000       __imp__ReadFile@20         1005f000     kernel32:KERNEL32.dll
 0002:00000004       __imp__WriteFile@20        1005f004     kernel32:KERNEL32.dll
 0002:00000008       __imp__SetFilePointer@16   1005f008     kernel32:KERNEL32.dll
 0002:0000000c       __imp__CreateFileW@28      1005f00c     kernel32:KERNEL32.dll
 0002:00000010       __imp__GetLastError@0      1005f010     kernel32:KERNEL32.dll
 0002:00000014       __imp__CreateFileA@28      1005f014     kernel32:KERNEL32.dll
 0002:00000018       __imp__CloseHandle@4       1005f018     kernel32:KERNEL32.dll
 0002:0000001c       __imp__OutputDebugStringW@4 1005f01c     kernel32:KERNEL32.dll
 0002:00000020       __imp__QueryPerformanceCounter@4 1005f020     kernel32:KERNEL32.dll
 0002:00000024       __imp__GetCurrentProcessId@0 1005f024     kernel32:KERNEL32.dll
 0002:00000028       __imp__GetCurrentThreadId@0 1005f028     kernel32:KERNEL32.dll
 0002:0000002c       __imp__GetSystemTimeAsFileTime@4 1005f02c     kernel32:KERNEL32.dll
 0002:00000030       __imp__InitializeSListHead@4 1005f030     kernel32:KERNEL32.dll
 0002:00000034       __imp__IsDebuggerPresent@0 1005f034     kernel32:KERNEL32.dll
 0002:00000038       __imp__UnhandledExceptionFilter@4 1005f038     kernel32:KERNEL32.dll
 0002:0000003c       __imp__SetUnhandledExceptionFilter@4 1005f03c     kernel32:KERNEL32.dll
 0002:00000040       __imp__GetStartupInfoW@4   1005f040     kernel32:KERNEL32.dll
 0002:00000044       __imp__IsProcessorFeaturePresent@4 1005f044     kernel32:KERNEL32.dll
 0002:00000048       __imp__GetModuleHandleW@4  1005f048     kernel32:KERNEL32.dll
 0002:0000004c       __imp__GetCurrentProcess@0 1005f04c     kernel32:KERNEL32.dll
 0002:00000050       __imp__TerminateProcess@8  1005f050     kernel32:KERNEL32.dll
 0002:00000054       __imp__InterlockedPushEntrySList@8 1005f054     kernel32:KERNEL32.dll
 0002:00000058       __imp__InterlockedFlushSList@4 1005f058     kernel32:KERNEL32.dll
 0002:0000005c       __imp__RtlUnwind@16        1005f05c     kernel32:KERNEL32.dll
 0002:00000060       __imp__SetLastError@4      1005f060     kernel32:KERNEL32.dll
 0002:00000064       __imp__EnterCriticalSection@4 1005f064     kernel32:KERNEL32.dll
 0002:00000068       __imp__LeaveCriticalSection@4 1005f068     kernel32:KERNEL32.dll
 0002:0000006c       __imp__DeleteCriticalSection@4 1005f06c     kernel32:KERNEL32.dll
 0002:00000070       __imp__InitializeCriticalSectionAndSpinCount@8 1005f070     kernel32:KERNEL32.dll
 0002:00000074       __imp__TlsAlloc@0          1005f074     kernel32:KERNEL32.dll
 0002:00000078       __imp__TlsGetValue@4       1005f078     kernel32:KERNEL32.dll
 0002:0000007c       __imp__TlsSetValue@8       1005f07c     kernel32:KERNEL32.dll
 0002:00000080       __imp__TlsFree@4           1005f080     kernel32:KERNEL32.dll
 0002:00000084       __imp__FreeLibrary@4       1005f084     kernel32:KERNEL32.dll
 0002:00000088       __imp__GetProcAddress@8    1005f088     kernel32:KERNEL32.dll
 0002:0000008c       __imp__LoadLibraryExW@12   1005f08c     kernel32:KERNEL32.dll
 0002:00000090       __imp__EncodePointer@4     1005f090     kernel32:KERNEL32.dll
 0002:00000094       __imp__RaiseException@16   1005f094     kernel32:KERNEL32.dll
 0002:00000098       __imp__SetFilePointerEx@20 1005f098     kernel32:KERNEL32.dll
 0002:0000009c       __imp__GetFileType@4       1005f09c     kernel32:KERNEL32.dll
 0002:000000a0       __imp__GetConsoleMode@8    1005f0a0     kernel32:KERNEL32.dll
 0002:000000a4       __imp__ReadConsoleW@20     1005f0a4     kernel32:KERNEL32.dll
 0002:000000a8       __imp__GetConsoleOutputCP@0 1005f0a8     kernel32:KERNEL32.dll
 0002:000000ac       __imp__ExitProcess@4       1005f0ac     kernel32:KERNEL32.dll
 0002:000000b0       __imp__GetModuleHandleExW@12 1005f0b0     kernel32:KERNEL32.dll
 0002:000000b4       __imp__GetModuleFileNameW@12 1005f0b4     kernel32:KERNEL32.dll
 0002:000000b8       __imp__SetStdHandle@8      1005f0b8     kernel32:KERNEL32.dll
 0002:000000bc       __imp__GetCurrentThread@0  1005f0bc     kernel32:KERNEL32.dll
 0002:000000c0       __imp__GetStdHandle@4      1005f0c0     kernel32:KERNEL32.dll
 0002:000000c4       __imp__HeapFree@12         1005f0c4     kernel32:KERNEL32.dll
 0002:000000c8       __imp__HeapAlloc@12        1005f0c8     kernel32:KERNEL32.dll
 0002:000000cc       __imp__MultiByteToWideChar@24 1005f0cc     kernel32:KERNEL32.dll
 0002:000000d0       __imp__GetTempPathW@8      1005f0d0     kernel32:KERNEL32.dll
 0002:000000d4       __imp__GetDateFormatW@24   1005f0d4     kernel32:KERNEL32.dll
 0002:000000d8       __imp__GetTimeFormatW@24   1005f0d8     kernel32:KERNEL32.dll
 0002:000000dc       __imp__CompareStringW@24   1005f0dc     kernel32:KERNEL32.dll
 0002:000000e0       __imp__LCMapStringW@24     1005f0e0     kernel32:KERNEL32.dll
 0002:000000e4       __imp__GetLocaleInfoW@16   1005f0e4     kernel32:KERNEL32.dll
 0002:000000e8       __imp__IsValidLocale@8     1005f0e8     kernel32:KERNEL32.dll
 0002:000000ec       __imp__GetUserDefaultLCID@0 1005f0ec     kernel32:KERNEL32.dll
 0002:000000f0       __imp__EnumSystemLocalesW@8 1005f0f0     kernel32:KERNEL32.dll
 0002:000000f4       __imp__SetEndOfFile@4      1005f0f4     kernel32:KERNEL32.dll
 0002:000000f8       __imp__WideCharToMultiByte@32 1005f0f8     kernel32:KERNEL32.dll
 0002:000000fc       __imp__GetFileSizeEx@8     1005f0fc     kernel32:KERNEL32.dll
 0002:00000100       __imp__FindClose@4         1005f100     kernel32:KERNEL32.dll
 0002:00000104       __imp__FindFirstFileExW@24 1005f104     kernel32:KERNEL32.dll
 0002:00000108       __imp__FindNextFileW@8     1005f108     kernel32:KERNEL32.dll
 0002:0000010c       __imp__IsValidCodePage@4   1005f10c     kernel32:KERNEL32.dll
 0002:00000110       __imp__GetACP@0            1005f110     kernel32:KERNEL32.dll
 0002:00000114       __imp__GetOEMCP@0          1005f114     kernel32:KERNEL32.dll
 0002:00000118       __imp__GetCPInfo@8         1005f118     kernel32:KERNEL32.dll
 0002:0000011c       __imp__GetCommandLineA@0   1005f11c     kernel32:KERNEL32.dll
 0002:00000120       __imp__GetCommandLineW@0   1005f120     kernel32:KERNEL32.dll
 0002:00000124       __imp__GetEnvironmentStringsW@0 1005f124     kernel32:KERNEL32.dll
 0002:00000128       __imp__FreeEnvironmentStringsW@4 1005f128     kernel32:KERNEL32.dll
 0002:0000012c       __imp__SetEnvironmentVariableW@8 1005f12c     kernel32:KERNEL32.dll
 0002:00000130       __imp__GetProcessHeap@0    1005f130     kernel32:KERNEL32.dll
 0002:00000134       __imp__SetConsoleCtrlHandler@8 1005f134     kernel32:KERNEL32.dll
 0002:00000138       __imp__GetStringTypeW@16   1005f138     kernel32:KERNEL32.dll
 0002:0000013c       __imp__WriteConsoleW@20    1005f13c     kernel32:KERNEL32.dll
 0002:00000140       __imp__FlushFileBuffers@4  1005f140     kernel32:KERNEL32.dll
 0002:00000144       __imp__HeapSize@12         1005f144     kernel32:KERNEL32.dll
 0002:00000148       __imp__HeapReAlloc@16      1005f148     kernel32:KERNEL32.dll
 0002:0000014c       __imp__DecodePointer@4     1005f14c     kernel32:KERNEL32.dll
 0002:00000150       \177KERNEL32_NULL_THUNK_DATA 1005f150     kernel32:KERNEL32.dll
 0002:00000154       ___guard_check_icall_fptr  1005f154     LIBCMT:guard_support.obj
 0002:00000158       ___guard_xfg_check_icall_fptr 1005f158     LIBCMT:guard_support.obj
 0002:0000015c       ___castguard_check_failure_os_handled_fptr 1005f15c     LIBCMT:guard_support.obj
 0002:00000160       ___xc_a                    1005f160     LIBCMT:initializers.obj
 0002:00000164       ___xc_z                    1005f164     LIBCMT:initializers.obj
 0002:00000168       ___xi_a                    1005f168     LIBCMT:initializers.obj
 0002:0000016c       ___acrt_stdio_initializer  1005f16c     libucrt:stdio_initializer.obj
 0002:00000170       ___acrt_multibyte_initializer 1005f170     libucrt:multibyte_initializer.obj
 0002:00000174       ___acrt_fmode_initializer  1005f174     libucrt:fmode_initializer.obj
 0002:00000178       ___acrt_tran_sse2_initializer 1005f178     libucrt:sse2_initializer.obj
 0002:0000017c       ___xi_z                    1005f17c     LIBCMT:initializers.obj
 0002:00000180       ___xp_a                    1005f180     LIBCMT:initializers.obj
 0002:00000184       ___acrt_locale_terminator  1005f184     libucrt:locale_initializer.obj
 0002:00000188       ___dcrt_console_output_terminator 1005f188     libucrt:console_output_initializer.obj
 0002:0000018c       ___acrt_stdio_terminator   1005f18c     libucrt:stdio_initializer.obj
 0002:00000190       ___xp_z                    1005f190     LIBCMT:initializers.obj
 0002:00000194       ___xt_a                    1005f194     LIBCMT:initializers.obj
 0002:00000198       ___xt_z                    1005f198     LIBCMT:initializers.obj
 0002:000001a0       __pDefaultRawDllMain       1005f1a0     LIBCMT:dll_dllmain.obj
 0002:000001a0       __pRawDllMain              1005f1a0     LIBCMT:dll_dllmain.obj
 0002:000001ac       __pDestructExceptionObject 1005f1ac     libvcruntime:ehhelpers.obj
 0002:00000538       ??_C@_08EHJDFFNH@__based?$CI@ 1005f538     libvcruntime:undname.obj
 0002:00000544       ??_C@_07KOLFKCDI@__cdecl@  1005f544     libvcruntime:undname.obj
 0002:0000054c       ??_C@_08GHMPAG@__pascal@   1005f54c     libvcruntime:undname.obj
 0002:00000558       ??_C@_09IFJBGAPI@__stdcall@ 1005f558     libvcruntime:undname.obj
 0002:00000564       ??_C@_0L@NPHFGOKO@__thiscall@ 1005f564     libvcruntime:undname.obj
 0002:00000570       ??_C@_0L@JMKHOMEK@__fastcall@ 1005f570     libvcruntime:undname.obj
 0002:0000057c       ??_C@_0N@BCKKPABJ@__vectorcall@ 1005f57c     libvcruntime:undname.obj
 0002:0000058c       ??_C@_09HIJEGCPM@__clrcall@ 1005f58c     libvcruntime:undname.obj
 0002:00000598       ??_C@_06GHPCKEAG@__eabi@   1005f598     libvcruntime:undname.obj
 0002:000005a0       ??_C@_09IOPIDJLG@__swift_1@ 1005f5a0     libvcruntime:undname.obj
 0002:000005ac       ??_C@_09KFNFGKHF@__swift_2@ 1005f5ac     libvcruntime:undname.obj
 0002:000005b8       ??_C@_09LMMOFLDE@__swift_3@ 1005f5b8     libvcruntime:undname.obj
 0002:000005c4       ??_C@_07JOMMBBKO@__ptr64@  1005f5c4     libvcruntime:undname.obj
 0002:000005cc       ??_C@_0L@PILCLIHE@__restrict@ 1005f5cc     libvcruntime:undname.obj
 0002:000005d8       ??_C@_0M@GFIIJFMG@__unaligned@ 1005f5d8     libvcruntime:undname.obj
 0002:000005e4       ??_C@_09DHDLOLLB@restrict?$CI@ 1005f5e4     libvcruntime:undname.obj
 0002:000005f0       ??_C@_04NIHEBCM@?5new@     1005f5f0     libvcruntime:undname.obj
 0002:000005f8       ??_C@_07FPCDHGMM@?5delete@ 1005f5f8     libvcruntime:undname.obj
 0002:00000600       ??_C@_01NEMOKFLO@?$DN@     1005f600     libvcruntime:undname.obj
 0002:00000604       ??_C@_02GPIOPFAK@?$DO?$DO@ 1005f604     libvcruntime:undname.obj
 0002:00000608       ??_C@_02FODMEDOG@?$DM?$DM@ 1005f608     libvcruntime:undname.obj
 0002:0000060c       ??_C@_01DCLJPIOD@?$CB@     1005f60c     libvcruntime:undname.obj
 0002:00000610       ??_C@_02EGOFBIJA@?$DN?$DN@ 1005f610     libvcruntime:undname.obj
 0002:00000614       ??_C@_02FDNJECIE@?$CB?$DN@ 1005f614     libvcruntime:undname.obj
 0002:00000618       ??_C@_02GPECMEKF@?$FL?$FN@ 1005f618     libvcruntime:undname.obj
 0002:0000061c       ??_C@_08LHJFAFGD@operator@ 1005f61c     libvcruntime:undname.obj
 0002:00000628       ??_C@_02HBOOOICD@?9?$DO@   1005f628     libvcruntime:undname.obj
 0002:0000062c       ??_C@_01NBENCBCI@?$CK@     1005f62c     libvcruntime:undname.obj
 0002:00000630       ??_C@_02ECNGHCIF@?$CL?$CL@ 1005f630     libvcruntime:undname.obj
 0002:00000634       ??_C@_02BAABKJLB@?9?9@     1005f634     libvcruntime:undname.obj
 0002:00000638       ??_C@_01MIFGBAGJ@?$CL@     1005f638     libvcruntime:undname.obj
 0002:0000063c       ??_C@_01HNPIGOCE@?$CG@     1005f63c     libvcruntime:undname.obj
 0002:00000640       ??_C@_03MNHNFDLC@?9?$DO?$CK@ 1005f640     libvcruntime:undname.obj
 0002:00000644       ??_C@_01KMDKNFGN@?1@       1005f644     libvcruntime:undname.obj
 0002:00000648       ??_C@_01FGNFDNOH@?$CF@     1005f648     libvcruntime:undname.obj
 0002:0000064c       ??_C@_01MNNFJEPP@?$DM@     1005f64c     libvcruntime:undname.obj
 0002:00000650       ??_C@_02EHCHHCKH@?$DM?$DN@ 1005f650     libvcruntime:undname.obj
 0002:00000654       ??_C@_01PPODPGHN@?$DO@     1005f654     libvcruntime:undname.obj
 0002:00000658       ??_C@_02EEKDKGMJ@?$DO?$DN@ 1005f658     libvcruntime:undname.obj
 0002:0000065c       ??_C@_01IHBHIGKO@?0@       1005f65c     libvcruntime:undname.obj
 0002:00000660       ??_C@_02HCKGKOFO@?$CI?$CJ@ 1005f660     libvcruntime:undname.obj
 0002:00000664       ??_C@_01PJKLJHI@?$HO@      1005f664     libvcruntime:undname.obj
 0002:00000668       ??_C@_01JKBOJNNK@?$FO@     1005f668     libvcruntime:undname.obj
 0002:0000066c       ??_C@_01DNKMNLPK@?$HM@     1005f66c     libvcruntime:undname.obj
 0002:00000670       ??_C@_02PPKAJPJL@?$CG?$CG@ 1005f670     libvcruntime:undname.obj
 0002:00000674       ??_C@_02NONPIBCD@?$HM?$HM@ 1005f674     libvcruntime:undname.obj
 0002:00000678       ??_C@_02FPIMKNGF@?$CK?$DN@ 1005f678     libvcruntime:undname.obj
 0002:0000067c       ??_C@_02FOEOMHFC@?$CL?$DN@ 1005f67c     libvcruntime:undname.obj
 0002:00000680       ??_C@_02FKMDLLOA@?9?$DN@   1005f680     libvcruntime:undname.obj
 0002:00000684       ??_C@_02FJEHGPIO@?1?$DN@   1005f684     libvcruntime:undname.obj
 0002:00000688       ??_C@_02FENAOKFI@?$CF?$DN@ 1005f688     libvcruntime:undname.obj
 0002:0000068c       ??_C@_03IKFCCPFF@?$DO?$DO?$DN@ 1005f68c     libvcruntime:undname.obj
 0002:00000690       ??_C@_03CDNPDDLA@?$DM?$DM?$DN@ 1005f690     libvcruntime:undname.obj
 0002:00000694       ??_C@_02FGJGFEAB@?$CG?$DN@ 1005f694     libvcruntime:undname.obj
 0002:00000698       ??_C@_02DHLNPPGH@?$HM?$DN@ 1005f698     libvcruntime:undname.obj
 0002:0000069c       ??_C@_02MHEGNOJ@?$FO?$DN@  1005f69c     libvcruntime:undname.obj
 0002:000006a0       ??_C@_09IFPLHPGF@?$GAvftable?8@ 1005f6a0     libvcruntime:undname.obj
 0002:000006ac       ??_C@_09BLBHBJP@?$GAvbtable?8@ 1005f6ac     libvcruntime:undname.obj
 0002:000006b8       ??_C@_07FEEIOKP@?$GAvcall?8@ 1005f6b8     libvcruntime:undname.obj
 0002:000006c0       ??_C@_08LLFFHHDJ@?$GAtypeof?8@ 1005f6c0     libvcruntime:undname.obj
 0002:000006cc       ??_C@_0BF@KDPPACIK@?$GAlocal?5static?5guard?8@ 1005f6cc     libvcruntime:undname.obj
 0002:000006e4       ??_C@_08OBABFOLI@?$GAstring?8@ 1005f6e4     libvcruntime:undname.obj
 0002:000006f0       ??_C@_0BD@JDLKDPAB@?$GAvbase?5destructor?8@ 1005f6f0     libvcruntime:undname.obj
 0002:00000704       ??_C@_0BN@DEGPLNFK@?$GAvector?5deleting?5destructor?8@ 1005f704     libvcruntime:undname.obj
 0002:00000724       ??_C@_0BO@OBMKPJIG@?$GAdefault?5constructor?5closure?8@ 1005f724     libvcruntime:undname.obj
 0002:00000744       ??_C@_0BN@IMDCHIKM@?$GAscalar?5deleting?5destructor?8@ 1005f744     libvcruntime:undname.obj
 0002:00000764       ??_C@_0BO@PFGOCPJJ@?$GAvector?5constructor?5iterator?8@ 1005f764     libvcruntime:undname.obj
 0002:00000784       ??_C@_0BN@LFPFMEDL@?$GAvector?5destructor?5iterator?8@ 1005f784     libvcruntime:undname.obj
 0002:000007a4       ??_C@_0CE@IKBNEHA@?$GAvector?5vbase?5constructor?5itera@ 1005f7a4     libvcruntime:undname.obj
 0002:000007c8       ??_C@_0BL@NILFHHPC@?$GAvirtual?5displacement?5map?8@ 1005f7c8     libvcruntime:undname.obj
 0002:000007e4       ??_C@_0CB@JONCMFFK@?$GAeh?5vector?5constructor?5iterator@ 1005f7e4     libvcruntime:undname.obj
 0002:00000808       ??_C@_0CA@GCEOPDGL@?$GAeh?5vector?5destructor?5iterator?8@ 1005f808     libvcruntime:undname.obj
 0002:00000828       ??_C@_0CH@OOJPLCPH@?$GAeh?5vector?5vbase?5constructor?5it@ 1005f828     libvcruntime:undname.obj
 0002:00000850       ??_C@_0BL@LLKPOHJI@?$GAcopy?5constructor?5closure?8@ 1005f850     libvcruntime:undname.obj
 0002:0000086c       ??_C@_0BA@KBCDOMBN@?$GAudt?5returning?8@ 1005f86c     libvcruntime:undname.obj
 0002:0000087c       ??_C@_03KLGMFNMG@?$GAEH@   1005f87c     libvcruntime:undname.obj
 0002:00000880       ??_C@_05KHLCHHI@?$GARTTI@  1005f880     libvcruntime:undname.obj
 0002:00000888       ??_C@_0BA@KKLDJDLB@?$GAlocal?5vftable?8@ 1005f888     libvcruntime:undname.obj
 0002:00000898       ??_C@_0CE@IIHCMGGL@?$GAlocal?5vftable?5constructor?5clos@ 1005f898     libvcruntime:undname.obj
 0002:000008bc       ??_C@_06FHBGPFGH@?5new?$FL?$FN@ 1005f8bc     libvcruntime:undname.obj
 0002:000008c4       ??_C@_09LBNFPBCA@?5delete?$FL?$FN@ 1005f8c4     libvcruntime:undname.obj
 0002:000008d0       ??_C@_0P@HJKNJFNN@?$GAomni?5callsig?8@ 1005f8d0     libvcruntime:undname.obj
 0002:000008e0       ??_C@_0BL@CNOONJFP@?$GAplacement?5delete?5closure?8@ 1005f8e0     libvcruntime:undname.obj
 0002:000008fc       ??_C@_0BN@CKNJLHMB@?$GAplacement?5delete?$FL?$FN?5closure?8@ 1005f8fc     libvcruntime:undname.obj
 0002:0000091c       ??_C@_0CG@CFDHKGGD@?$GAmanaged?5vector?5constructor?5ite@ 1005f91c     libvcruntime:undname.obj
 0002:00000944       ??_C@_0CF@IMGKMJNO@?$GAmanaged?5vector?5destructor?5iter@ 1005f944     libvcruntime:undname.obj
 0002:0000096c       ??_C@_0CG@HLDDJMAG@?$GAeh?5vector?5copy?5constructor?5ite@ 1005f96c     libvcruntime:undname.obj
 0002:00000994       ??_C@_0CM@FCBBDIGB@?$GAeh?5vector?5vbase?5copy?5construct@ 1005f994     libvcruntime:undname.obj
 0002:000009c0       ??_C@_0BL@CLIPGLGB@?$GAdynamic?5initializer?5for?5?8@ 1005f9c0     libvcruntime:undname.obj
 0002:000009dc       ??_C@_0CB@PDBIFEP@?$GAdynamic?5atexit?5destructor?5for?5@ 1005f9dc     libvcruntime:undname.obj
 0002:00000a00       ??_C@_0CD@CGAJBKEJ@?$GAvector?5copy?5constructor?5iterat@ 1005fa00     libvcruntime:undname.obj
 0002:00000a24       ??_C@_0CJ@GJELGAMM@?$GAvector?5vbase?5copy?5constructor?5@ 1005fa24     libvcruntime:undname.obj
 0002:00000a50       ??_C@_0CL@FGIJHLCE@?$GAmanaged?5vector?5copy?5constructo@ 1005fa50     libvcruntime:undname.obj
 0002:00000a7c       ??_C@_0BM@PMGGMLDN@?$GAlocal?5static?5thread?5guard?8@ 1005fa7c     libvcruntime:undname.obj
 0002:00000a98       ??_C@_0N@BDNMDMOL@operator?5?$CC?$CC?5@ 1005fa98     libvcruntime:undname.obj
 0002:00000aa8       ??_C@_0BC@GGEBGALA@operator?5co_await@ 1005faa8     libvcruntime:undname.obj
 0002:00000abc       ??_C@_0M@GAAIMMOH@operator?$DM?$DN?$DO@ 1005fabc     libvcruntime:undname.obj
 0002:00000ac8       ??_C@_0BC@DAFEJGAK@?5Type?5Descriptor?8@ 1005fac8     libvcruntime:undname.obj
 0002:00000adc       ??_C@_0BM@LDKODKLH@?5Base?5Class?5Descriptor?5at?5?$CI@ 1005fadc     libvcruntime:undname.obj
 0002:00000af8       ??_C@_0BD@LGICGFMM@?5Base?5Class?5Array?8@ 1005faf8     libvcruntime:undname.obj
 0002:00000b0c       ??_C@_0BN@MECKDCOJ@?5Class?5Hierarchy?5Descriptor?8@ 1005fb0c     libvcruntime:undname.obj
 0002:00000b2c       ??_C@_0BK@CFCOFLF@?5Complete?5Object?5Locator?8@ 1005fb2c     libvcruntime:undname.obj
 0002:00000b48       ??_C@_0BG@JNJLAMPM@?$GAanonymous?5namespace?8@ 1005fb48     libvcruntime:undname.obj
 0002:00000b60       ??_C@_04HEJADOOB@CV?3?5@   1005fb60     libvcruntime:undname.obj
 0002:00000b68       ??_C@_02MOLJINC@?3?3@      1005fb68     libvcruntime:undname.obj
 0002:00000b6c       ??_C@_0BE@JAEOCHPE@template?9parameter?9@ 1005fb6c     libvcruntime:undname.obj
 0002:00000b80       ??_C@_0BF@LNLGBBNL@?$GAtemplate?9parameter?9@ 1005fb80     libvcruntime:undname.obj
 0002:00000b98       ??_C@_0O@KHGCOMHP@generic?9type?9@ 1005fb98     libvcruntime:undname.obj
 0002:00000ba8       ??_C@_0P@ODDENDLM@?$GAgeneric?9type?9@ 1005fba8     libvcruntime:undname.obj
 0002:00000bb8       ??_C@_02OHHJMEON@?8?8@     1005fbb8     libvcruntime:undname.obj
 0002:00000bbc       ??_C@_0BN@IBLMMFAP@?$GAnon?9type?9template?9parameter@ 1005fbbc     libvcruntime:undname.obj
 0002:00000bdc       ??_C@_03DLDNIBIK@?$CFlf@   1005fbdc     libvcruntime:undname.obj
 0002:00000be0       ??_C@_04OFALKAJ@?$DP?$DP_C@ 1005fbe0     libvcruntime:undname.obj
 0002:00000be8       ??_C@_03KHICJKCI@?4?4?4@   1005fbe8     libvcruntime:undname.obj
 0002:00000bec       ??_C@_04HIBGFPH@NULL@      1005fbec     libvcruntime:undname.obj
 0002:00000bf4       ??_C@_02DPKJAMEF@?$CFd@    1005fbf4     libvcruntime:undname.obj
 0002:00000bf8       ??_C@_0BK@IHCCFNEL@?$GAtemplate?9type?9parameter?9@ 1005fbf8     libvcruntime:undname.obj
 0002:00000c14       ??_C@_0BK@OFCNNNKO@?$GAgeneric?9class?9parameter?9@ 1005fc14     libvcruntime:undname.obj
 0002:00000c30       ??_C@_0BL@NGJBLFIL@?$GAgeneric?9method?9parameter?9@ 1005fc30     libvcruntime:undname.obj
 0002:00000c4c       ??_C@_07OHNGEDJK@nullptr@  1005fc4c     libvcruntime:undname.obj
 0002:00000c54       ??_C@_06COJIGPIB@lambda@   1005fc54     libvcruntime:undname.obj
 0002:00000c5c       ??_C@_04GKJNKENE@void@     1005fc5c     libvcruntime:undname.obj
 0002:00000c64       ??_C@_0BE@EODMJLIF@?$GAtemplate?9parameter@ 1005fc64     libvcruntime:undname.obj
 0002:00000c78       ??_C@_03OPGICMGF@?$HN?8?5@ 1005fc78     libvcruntime:undname.obj
 0002:00000c7c       ??_C@_02IGFCGPIL@?$HN?8@   1005fc7c     libvcruntime:undname.obj
 0002:00000c80       ??_C@_0N@CBHHHENL@?$GAvtordispex?$HL@ 1005fc80     libvcruntime:undname.obj
 0002:00000c90       ??_C@_0L@GHPFDFH@?$GAvtordisp?$HL@ 1005fc90     libvcruntime:undname.obj
 0002:00000c9c       ??_C@_0L@HNGCOGAE@?$GAadjustor?$HL@ 1005fc9c     libvcruntime:undname.obj
 0002:00000ca8       ??_C@_0CB@KJDOOODE@?$GAlocal?5static?5destructor?5helper@ 1005fca8     libvcruntime:undname.obj
 0002:00000ccc       ??_C@_0DB@ILEFOCIJ@?$GAtemplate?5static?5data?5member?5co@ 1005fccc     libvcruntime:undname.obj
 0002:00000d00       ??_C@_0DA@HGFJFBBE@?$GAtemplate?5static?5data?5member?5de@ 1005fd00     libvcruntime:undname.obj
 0002:00000d30       ??_C@_07PGOEDBHP@static?5@ 1005fd30     libvcruntime:undname.obj
 0002:00000d38       ??_C@_08NIEOINHE@virtual?5@ 1005fd38     libvcruntime:undname.obj
 0002:00000d44       ??_C@_09LAPHOOG@private?3?5@ 1005fd44     libvcruntime:undname.obj
 0002:00000d50       ??_C@_0M@GAIFPFIP@protected?3?5@ 1005fd50     libvcruntime:undname.obj
 0002:00000d5c       ??_C@_08GPDDCMKI@public?3?5@ 1005fd5c     libvcruntime:undname.obj
 0002:00000d68       ??_C@_08KJLFOPNE@?$FLthunk?$FN?3@ 1005fd68     libvcruntime:undname.obj
 0002:00000d74       ??_C@_0M@DHNBOJMP@extern?5?$CCC?$CC?5@ 1005fd74     libvcruntime:undname.obj
 0002:00000d80       ??_C@_02KCKGHPCA@?$CJ?5@   1005fd80     libvcruntime:undname.obj
 0002:00000d84       ??_C@_05CIHEBHNO@char?5@   1005fd84     libvcruntime:undname.obj
 0002:00000d8c       ??_C@_06EHJMALKF@short?5@  1005fd8c     libvcruntime:undname.obj
 0002:00000d94       ??_C@_04LAHKHJMA@int?5@    1005fd94     libvcruntime:undname.obj
 0002:00000d9c       ??_C@_05CJIMAING@long?5@   1005fd9c     libvcruntime:undname.obj
 0002:00000da4       ??_C@_09EBBEKKIH@unsigned?5@ 1005fda4     libvcruntime:undname.obj
 0002:00000db0       ??_C@_05BEFAKPML@void?5@   1005fdb0     libvcruntime:undname.obj
 0002:00000db8       ??_C@_09GAIEOBLP@volatile?5@ 1005fdb8     libvcruntime:undname.obj
 0002:00000dc4       ??_C@_08PABEKFH@volatile@  1005fdc4     libvcruntime:undname.obj
 0002:00000dd0       ??_C@_0BA@LKIJLKPP@std?3?3nullptr_t?5@ 1005fdd0     libvcruntime:undname.obj
 0002:00000de0       ??_C@_0P@GCOCNKDM@std?3?3nullptr_t@ 1005fde0     libvcruntime:undname.obj
 0002:00000df0       ??_C@_0L@EGPHHEKN@?$DMellipsis?$DO@ 1005fdf0     libvcruntime:undname.obj
 0002:00000dfc       ??_C@_04EENFHACM@?0?4?4?4@ 1005fdfc     libvcruntime:undname.obj
 0002:00000e04       ??_C@_0M@ELJOJFFH@?0?$DMellipsis?$DO@ 1005fe04     libvcruntime:undname.obj
 0002:00000e10       ??_C@_09DNHFEOJI@?5noexcept@ 1005fe10     libvcruntime:undname.obj
 0002:00000e1c       ??_C@_03PBJBJNON@cpu@      1005fe1c     libvcruntime:undname.obj
 0002:00000e20       ??_C@_03DCBBJBAA@amp@      1005fe20     libvcruntime:undname.obj
 0002:00000e24       ??_C@_02KEGNLNML@?0?5@     1005fe24     libvcruntime:undname.obj
 0002:00000e28       ??_C@_04ENMBGAPA@char@     1005fe28     libvcruntime:undname.obj
 0002:00000e30       ??_C@_05BFKKPKCG@short@    1005fe30     libvcruntime:undname.obj
 0002:00000e38       ??_C@_03JBIPMCLC@int@      1005fe38     libvcruntime:undname.obj
 0002:00000e3c       ??_C@_04GOKPGOLB@long@     1005fe3c     libvcruntime:undname.obj
 0002:00000e44       ??_C@_05KNFBNCOH@float@    1005fe44     libvcruntime:undname.obj
 0002:00000e4c       ??_C@_06BNJCAIGJ@double@   1005fe4c     libvcruntime:undname.obj
 0002:00000e54       ??_C@_04DDKJGDCM@bool@     1005fe54     libvcruntime:undname.obj
 0002:00000e5c       ??_C@_06EBGKOKIG@__int8@   1005fe5c     libvcruntime:undname.obj
 0002:00000e64       ??_C@_07ICFHOGAF@__int16@  1005fe64     libvcruntime:undname.obj
 0002:00000e6c       ??_C@_07OFLPPHGP@__int32@  1005fe6c     libvcruntime:undname.obj
 0002:00000e74       ??_C@_07LFCOJCAC@__int64@  1005fe74     libvcruntime:undname.obj
 0002:00000e7c       ??_C@_08GAHOLHEO@__int128@ 1005fe7c     libvcruntime:undname.obj
 0002:00000e88       ??_C@_09EEKGDCPH@?$DMunknown?$DO@ 1005fe88     libvcruntime:undname.obj
 0002:00000e94       ??_C@_07CFHGOPCN@char8_t@  1005fe94     libvcruntime:undname.obj
 0002:00000e9c       ??_C@_08HBIPOFJB@char16_t@ 1005fe9c     libvcruntime:undname.obj
 0002:00000ea8       ??_C@_08IECNCBKG@char32_t@ 1005fea8     libvcruntime:undname.obj
 0002:00000eb4       ??_C@_07CLGGIAMF@wchar_t@  1005feb4     libvcruntime:undname.obj
 0002:00000ebc       ??_C@_04HAPDLBFF@auto@     1005febc     libvcruntime:undname.obj
 0002:00000ec4       ??_C@_0P@LHCGKIGK@decltype?$CIauto?$CJ@ 1005fec4     libvcruntime:undname.obj
 0002:00000ed4       ??_C@_05PCNBGHCF@this?5@   1005fed4     libvcruntime:undname.obj
 0002:00000edc       ??_C@_06GCICPBLB@__w64?5@  1005fedc     libvcruntime:undname.obj
 0002:00000ee4       ??_C@_07NFANNNEC@UNKNOWN@  1005fee4     libvcruntime:undname.obj
 0002:00000eec       ??_C@_07EDHNAJHC@signed?5@ 1005feec     libvcruntime:undname.obj
 0002:00000ef4       ??_C@_05BNCCCJPP@const@    1005fef4     libvcruntime:undname.obj
 0002:00000efc       ??_C@_09EFNPDFFP@?5volatile@ 1005fefc     libvcruntime:undname.obj
 0002:00000f08       ??_C@_0P@GCIFDJCJ@?$GAunknown?5ecsu?8@ 1005ff08     libvcruntime:undname.obj
 0002:00000f18       ??_C@_06MOJHIBMG@union?5@  1005ff18     libvcruntime:undname.obj
 0002:00000f20       ??_C@_07DIBCDNGL@struct?5@ 1005ff20     libvcruntime:undname.obj
 0002:00000f28       ??_C@_06LJBABKPM@class?5@  1005ff28     libvcruntime:undname.obj
 0002:00000f30       ??_C@_08KOFANOFK@coclass?5@ 1005ff30     libvcruntime:undname.obj
 0002:00000f3c       ??_C@_0N@DLIEFKNA@cointerface?5@ 1005ff3c     libvcruntime:undname.obj
 0002:00000f4c       ??_C@_05LJGMCFOG@enum?5@   1005ff4c     libvcruntime:undname.obj
 0002:00000f54       ??_C@_06LIJLOJAG@const?5@  1005ff54     libvcruntime:undname.obj
 0002:00000f5c       ??_C@_02KJPKDIBN@?$CG?5@   1005ff5c     libvcruntime:undname.obj
 0002:00000f60       ??_C@_03PCKGMOPB@?$CG?$CG?5@ 1005ff60     libvcruntime:undname.obj
 0002:00000f64       ??_C@_0M@EALIELKG@cli?3?3array?$DM@ 1005ff64     libvcruntime:undname.obj
 0002:00000f70       ??_C@_0O@GKABPPIF@cli?3?3pin_ptr?$DM@ 1005ff70     libvcruntime:undname.obj
 0002:00000f80       ??_C@_02GOGNNPBN@?$CJ?$FL@ 1005ff80     libvcruntime:undname.obj
 0002:00000f84       ??_C@_06EEGAIFAK@?$HLflat?$HN@ 1005ff84     libvcruntime:undname.obj
 0002:00000f8c       ??_C@_05JIBOFOHK@?$HLfor?5@ 1005ff8c     libvcruntime:undname.obj
 0002:00000f94       ??_C@_02MDINNEEG@s?5@      1005ff94     libvcruntime:undname.obj
 0002:00000f9c       ??_7DNameNode@@6B@         1005ff9c     libvcruntime:undname.obj
 0002:00000fb0       ??_7charNode@@6B@          1005ffb0     libvcruntime:undname.obj
 0002:00000fc4       ??_7pcharNode@@6B@         1005ffc4     libvcruntime:undname.obj
 0002:00000fd8       ??_7pDNameNode@@6B@        1005ffd8     libvcruntime:undname.obj
 0002:00000fec       ??_7DNameStatusNode@@6B@   1005ffec     libvcruntime:undname.obj
 0002:00001000       ??_7pairNode@@6B@          10060000     libvcruntime:undname.obj
 0002:00001110       ??_C@_04OKOHEJBO@?5?$DP?$DP?5@ 10060110     libvcruntime:undname.obj
 0002:00001118       ?nodes@?1??make@DNameStatusNode@@SAPBV2@W4DNameStatus@@@Z@4QBV2@B 10060118     libvcruntime:undname.obj
 0002:00001154       ??_C@_1DM@KHCHBNEB@?$AAa?$AAp?$AAi?$AA?9?$AAm?$AAs?$AA?9?$AAw?$AAi?$AAn?$AA?9?$AAc?$AAo?$AAr?$AAe@ 10060154     libvcruntime:winapi_downlevel.obj
 0002:00001190       ??_C@_1DK@LPPGFMPP@?$AAa?$AAp?$AAi?$AA?9?$AAm?$AAs?$AA?9?$AAw?$AAi?$AAn?$AA?9?$AAc?$AAo?$AAr?$AAe@ 10060190     libvcruntime:winapi_downlevel.obj
 0002:000011cc       ??_C@_1BC@GDMECMAK@?$AAk?$AAe?$AAr?$AAn?$AAe?$AAl?$AA3?$AA2@ 100601cc     libvcruntime:winapi_downlevel.obj
 0002:000011e0       ??_C@_1BA@PFFKHIOG@?$AAa?$AAp?$AAi?$AA?9?$AAm?$AAs?$AA?9@ 100601e0     libvcruntime:winapi_downlevel.obj
 0002:000011f8       ??_C@_08KNHFBNJ@FlsAlloc@  100601f8     libvcruntime:winapi_downlevel.obj
 0002:0000120c       ??_C@_07PEJMOBNF@FlsFree@  1006020c     libvcruntime:winapi_downlevel.obj
 0002:0000121c       ??_C@_0M@GDNOONDI@FlsGetValue@ 1006021c     libvcruntime:winapi_downlevel.obj
 0002:00001230       ??_C@_0M@JCPCPOEF@FlsSetValue@ 10060230     libvcruntime:winapi_downlevel.obj
 0002:00001244       ??_C@_0BM@HCFOFFN@InitializeCriticalSectionEx@ 10060244     libvcruntime:winapi_downlevel.obj
 0002:00001264       ??_7exception@std@@6B@     10060264     libvcruntime:frame.obj
 0002:0000126c       ??_C@_0BC@EOODALEL@Unknown?5exception@ 1006026c     libvcruntime:frame.obj
 0002:00001284       ??_7bad_exception@std@@6B@ 10060284     libvcruntime:frame.obj
 0002:0000128c       ??_C@_0O@DPKOEFFH@bad?5exception@ 1006028c     libvcruntime:frame.obj
 0002:0000129c       __Fenv1                    1006029c     libucrt:output.obj
 0002:000012a8       ?standard_lookup_table_spectre@__crt_stdio_output@@3V?$spectre_mitigated_lookup_table@Ustate_transition_pair@__crt_stdio_output@@$0IA@@1@B 100602a8     libucrt:output.obj
 0002:000013a8       ?format_validation_lookup_table_spectre@__crt_stdio_output@@3V?$spectre_mitigated_lookup_table@Ustate_transition_pair@__crt_stdio_output@@$0IA@@1@B 100603a8     libucrt:output.obj
 0002:000014a8       ??_C@_1O@CEDCILHN@?$AA?$CI?$AAn?$AAu?$AAl?$AAl?$AA?$CJ@ 100604a8     libucrt:output.obj
 0002:000014b8       ??_C@_06OJHGLDPL@?$CInull?$CJ@ 100604b8     libucrt:output.obj
 0002:00001628       ??_C@_0EA@FCLIIPNN@Visual?5C?$CL?$CL?5CRT?3?5Not?5enough?5memo@ 10060628     libucrt:strerror.obj
 0002:00001668       ??_C@_1IA@JENHHBGD@?$AAV?$AAi?$AAs?$AAu?$AAa?$AAl?$AA?5?$AAC?$AA?$CL?$AA?$CL?$AA?5?$AAC?$AAR?$AAT?$AA?3@ 10060668     libucrt:strerror.obj
 0002:000016e8       ___acrt_exception_action_table 100606e8     libucrt:exception_filter.obj
 0002:00001778       ___acrt_signal_action_table_count 10060778     libucrt:exception_filter.obj
 0002:0000177c       ___acrt_signal_action_table_size 1006077c     libucrt:exception_filter.obj
 0002:00001780       ___acrt_signal_action_first_fpe_index 10060780     libucrt:exception_filter.obj
 0002:00001784       ___acrt_signal_action_fpe_count 10060784     libucrt:exception_filter.obj
 0002:00001788       ??_C@_1BI@BGOHAHKC@?$AAm?$AAs?$AAc?$AAo?$AAr?$AAe?$AAe?$AA?4?$AAd?$AAl?$AAl@ 10060788     libucrt:exit.obj
 0002:000017a0       ??_C@_0P@MIGLKIOC@CorExitProcess@ 100607a0     libucrt:exit.obj
 0002:000018b0       ___lc_category             100608b0     libucrt:wsetlocale.obj
 0002:000018f8       ??_C@_1O@GIFLHMA@?$AAL?$AAC?$AA_?$AAA?$AAL?$AAL@ 100608f8     libucrt:wsetlocale.obj
 0002:00001908       ??_C@_1BG@PPOMIBNJ@?$AAL?$AAC?$AA_?$AAC?$AAO?$AAL?$AAL?$AAA?$AAT?$AAE@ 10060908     libucrt:wsetlocale.obj
 0002:00001920       ??_C@_1BC@FFJGAPJM@?$AAL?$AAC?$AA_?$AAC?$AAT?$AAY?$AAP?$AAE@ 10060920     libucrt:wsetlocale.obj
 0002:00001934       ??_C@_1BI@PCKFNJFB@?$AAL?$AAC?$AA_?$AAM?$AAO?$AAN?$AAE?$AAT?$AAA?$AAR?$AAY@ 10060934     libucrt:wsetlocale.obj
 0002:0000194c       ??_C@_1BG@ENIEDKID@?$AAL?$AAC?$AA_?$AAN?$AAU?$AAM?$AAE?$AAR?$AAI?$AAC@ 1006094c     libucrt:wsetlocale.obj
 0002:00001964       ??_C@_1BA@HAAOMIIG@?$AAL?$AAC?$AA_?$AAT?$AAI?$AAM?$AAE@ 10060964     libucrt:wsetlocale.obj
 0002:00001974       ??_C@_15NBPDDFIP@?$AA?$DN?$AA?$DL@ 10060974     libucrt:wsetlocale.obj
 0002:0000197c       ??_C@_13PJJBFPED@?$AA?$DL@ 1006097c     libucrt:wsetlocale.obj
 0002:00001980       ??_C@_13NMPKAAJP@?$AA?$DN@ 10060980     libucrt:wsetlocale.obj
 0002:00001984       ??_C@_13IMODFHAA@?$AA?9@   10060984     libucrt:wsetlocale.obj
 0002:00001988       ??_C@_17EFJLDFDO@?$AA?9?$AA_?$AA?4@ 10060988     libucrt:wsetlocale.obj
 0002:00001990       ??_C@_13FHBKNHDA@?$AAC@    10060990     libucrt:wsetlocale.obj
 0002:00001994       ??_C@_17MBJJLFDM@?$AA_?$AA?4?$AA?0@ 10060994     libucrt:wsetlocale.obj
 0002:0000199c       ??_C@_13ENNFDPBH@?$AA_@    1006099c     libucrt:wsetlocale.obj
 0002:000019a0       ??_C@_13JOFGPIOO@?$AA?4@   100609a0     libucrt:wsetlocale.obj
 0002:000019a8       ___lc_time_c               100609a8     libucrt:nlsdata.obj
 0002:00001b0c       ??_C@_03KOEHGMDN@Sun@      10060b0c     libucrt:nlsdata.obj
 0002:00001b10       ??_C@_03PDAGKDH@Mon@       10060b10     libucrt:nlsdata.obj
 0002:00001b14       ??_C@_03NAGEINEP@Tue@      10060b14     libucrt:nlsdata.obj
 0002:00001b18       ??_C@_03MHOMLAJA@Wed@      10060b18     libucrt:nlsdata.obj
 0002:00001b1c       ??_C@_03IOFIKPDN@Thu@      10060b1c     libucrt:nlsdata.obj
 0002:00001b20       ??_C@_03IDIOELNC@Fri@      10060b20     libucrt:nlsdata.obj
 0002:00001b24       ??_C@_03FEFJNEK@Sat@       10060b24     libucrt:nlsdata.obj
 0002:00001b28       ??_C@_06OOPIFAJ@Sunday@    10060b28     libucrt:nlsdata.obj
 0002:00001b30       ??_C@_06JLEDEDGH@Monday@   10060b30     libucrt:nlsdata.obj
 0002:00001b38       ??_C@_07BAAGCFCM@Tuesday@  10060b38     libucrt:nlsdata.obj
 0002:00001b40       ??_C@_09DLIGFAKA@Wednesday@ 10060b40     libucrt:nlsdata.obj
 0002:00001b4c       ??_C@_08HACCIKIA@Thursday@ 10060b4c     libucrt:nlsdata.obj
 0002:00001b58       ??_C@_06JECMNKMI@Friday@   10060b58     libucrt:nlsdata.obj
 0002:00001b60       ??_C@_08INBOOONO@Saturday@ 10060b60     libucrt:nlsdata.obj
 0002:00001b6c       ??_C@_03JIHJHPIE@Jan@      10060b6c     libucrt:nlsdata.obj
 0002:00001b70       ??_C@_03HJBDCHOM@Feb@      10060b70     libucrt:nlsdata.obj
 0002:00001b74       ??_C@_03ODNJBKGA@Mar@      10060b74     libucrt:nlsdata.obj
 0002:00001b78       ??_C@_03LEOLGMJP@Apr@      10060b78     libucrt:nlsdata.obj
 0002:00001b7c       ??_C@_03CNMDKL@May@        10060b7c     libucrt:nlsdata.obj
 0002:00001b80       ??_C@_03IDFGHECI@Jun@      10060b80     libucrt:nlsdata.obj
 0002:00001b84       ??_C@_03LBGABGKK@Jul@      10060b84     libucrt:nlsdata.obj
 0002:00001b88       ??_C@_03IFJFEIGA@Aug@      10060b88     libucrt:nlsdata.obj
 0002:00001b8c       ??_C@_03GGCAPAJC@Sep@      10060b8c     libucrt:nlsdata.obj
 0002:00001b90       ??_C@_03BMAOKBAD@Oct@      10060b90     libucrt:nlsdata.obj
 0002:00001b94       ??_C@_03JPJOFNIA@Nov@      10060b94     libucrt:nlsdata.obj
 0002:00001b98       ??_C@_03MKABNOCG@Dec@      10060b98     libucrt:nlsdata.obj
 0002:00001b9c       ??_C@_07CGJPFGJA@January@  10060b9c     libucrt:nlsdata.obj
 0002:00001ba4       ??_C@_08GNJGEPFN@February@ 10060ba4     libucrt:nlsdata.obj
 0002:00001bb0       ??_C@_05HPCKOFNC@March@    10060bb0     libucrt:nlsdata.obj
 0002:00001bb8       ??_C@_05DMJDNLEJ@April@    10060bb8     libucrt:nlsdata.obj
 0002:00001bc0       ??_C@_04CNLMGBGM@June@     10060bc0     libucrt:nlsdata.obj
 0002:00001bc8       ??_C@_04MIEPOIFP@July@     10060bc8     libucrt:nlsdata.obj
 0002:00001bd0       ??_C@_06LBBHFDDG@August@   10060bd0     libucrt:nlsdata.obj
 0002:00001bd8       ??_C@_09BHHEALKD@September@ 10060bd8     libucrt:nlsdata.obj
 0002:00001be4       ??_C@_07JJNFCEND@October@  10060be4     libucrt:nlsdata.obj
 0002:00001bec       ??_C@_08HCHEGEOA@November@ 10060bec     libucrt:nlsdata.obj
 0002:00001bf8       ??_C@_08EDHMEBNP@December@ 10060bf8     libucrt:nlsdata.obj
 0002:00001c04       ??_C@_02DEDBPAFC@AM@       10060c04     libucrt:nlsdata.obj
 0002:00001c08       ??_C@_02CJNFDJBF@PM@       10060c08     libucrt:nlsdata.obj
 0002:00001c0c       ??_C@_08BPBNCDIB@MM?1dd?1yy@ 10060c0c     libucrt:nlsdata.obj
 0002:00001c18       ??_C@_0BE@CKGJFCPC@dddd?0?5MMMM?5dd?0?5yyyy@ 10060c18     libucrt:nlsdata.obj
 0002:00001c2c       ??_C@_08JCCMCCIL@HH?3mm?3ss@ 10060c2c     libucrt:nlsdata.obj
 0002:00001c38       ??_C@_17MBGCMIPB@?$AAS?$AAu?$AAn@ 10060c38     libucrt:nlsdata.obj
 0002:00001c40       ??_C@_17KBOMKBF@?$AAM?$AAo?$AAn@ 10060c40     libucrt:nlsdata.obj
 0002:00001c48       ??_C@_17BMKGEGOJ@?$AAT?$AAu?$AAe@ 10060c48     libucrt:nlsdata.obj
 0002:00001c50       ??_C@_17CJEDCEPE@?$AAW?$AAe?$AAd@ 10060c50     libucrt:nlsdata.obj
 0002:00001c58       ??_C@_17PDPHAADD@?$AAT?$AAh?$AAu@ 10060c58     libucrt:nlsdata.obj
 0002:00001c60       ??_C@_17HFOLPPLP@?$AAF?$AAr?$AAi@ 10060c60     libucrt:nlsdata.obj
 0002:00001c68       ??_C@_17GGIBDPIH@?$AAS?$AAa?$AAt@ 10060c68     libucrt:nlsdata.obj
 0002:00001c70       ??_C@_1O@IHNHDHPB@?$AAS?$AAu?$AAn?$AAd?$AAa?$AAy@ 10060c70     libucrt:nlsdata.obj
 0002:00001c80       ??_C@_1O@MMNBFLIA@?$AAM?$AAo?$AAn?$AAd?$AAa?$AAy@ 10060c80     libucrt:nlsdata.obj
 0002:00001c90       ??_C@_1BA@ENFBFFEK@?$AAT?$AAu?$AAe?$AAs?$AAd?$AAa?$AAy@ 10060c90     libucrt:nlsdata.obj
 0002:00001ca0       ??_C@_1BE@EBOGMDOH@?$AAW?$AAe?$AAd?$AAn?$AAe?$AAs?$AAd?$AAa?$AAy@ 10060ca0     libucrt:nlsdata.obj
 0002:00001cb4       ??_C@_1BC@HHMNLIHE@?$AAT?$AAh?$AAu?$AAr?$AAs?$AAd?$AAa?$AAy@ 10060cb4     libucrt:nlsdata.obj
 0002:00001cc8       ??_C@_1O@PDICJHAG@?$AAF?$AAr?$AAi?$AAd?$AAa?$AAy@ 10060cc8     libucrt:nlsdata.obj
 0002:00001cd8       ??_C@_1BC@ENMNNPAJ@?$AAS?$AAa?$AAt?$AAu?$AAr?$AAd?$AAa?$AAy@ 10060cd8     libucrt:nlsdata.obj
 0002:00001cec       ??_C@_17DKNBKCHM@?$AAJ?$AAa?$AAn@ 10060cec     libucrt:nlsdata.obj
 0002:00001cf4       ??_C@_17LMDJEKJN@?$AAF?$AAe?$AAb@ 10060cf4     libucrt:nlsdata.obj
 0002:00001cfc       ??_C@_17CKNLEDEC@?$AAM?$AAa?$AAr@ 10060cfc     libucrt:nlsdata.obj
 0002:00001d04       ??_C@_17LFPOIHDD@?$AAA?$AAp?$AAr@ 10060d04     libucrt:nlsdata.obj
 0002:00001d0c       ??_C@_17PNNKMEED@?$AAM?$AAa?$AAy@ 10060d0c     libucrt:nlsdata.obj
 0002:00001d14       ??_C@_17KCJGOCPB@?$AAJ?$AAu?$AAn@ 10060d14     libucrt:nlsdata.obj
 0002:00001d1c       ??_C@_17IJPCKHK@?$AAJ?$AAu?$AAl@ 10060d1c     libucrt:nlsdata.obj
 0002:00001d24       ??_C@_17ICPELBCN@?$AAA?$AAu?$AAg@ 10060d24     libucrt:nlsdata.obj
 0002:00001d2c       ??_C@_17HCHCOKMG@?$AAS?$AAe?$AAp@ 10060d2c     libucrt:nlsdata.obj
 0002:00001d34       ??_C@_17FNLKOI@?$AAO?$AAc?$AAt@ 10060d34     libucrt:nlsdata.obj
 0002:00001d3c       ??_C@_17BBDMLCIG@?$AAN?$AAo?$AAv@ 10060d3c     libucrt:nlsdata.obj
 0002:00001d44       ??_C@_17EGKACKIF@?$AAD?$AAe?$AAc@ 10060d44     libucrt:nlsdata.obj
 0002:00001d4c       ??_C@_1BA@EFMEIEBA@?$AAJ?$AAa?$AAn?$AAu?$AAa?$AAr?$AAy@ 10060d4c     libucrt:nlsdata.obj
 0002:00001d5c       ??_C@_1BC@JGDDFFAM@?$AAF?$AAe?$AAb?$AAr?$AAu?$AAa?$AAr?$AAy@ 10060d5c     libucrt:nlsdata.obj
 0002:00001d70       ??_C@_1M@IKEENEDF@?$AAM?$AAa?$AAr?$AAc?$AAh@ 10060d70     libucrt:nlsdata.obj
 0002:00001d7c       ??_C@_1M@GJNLMHFD@?$AAA?$AAp?$AAr?$AAi?$AAl@ 10060d7c     libucrt:nlsdata.obj
 0002:00001d88       ??_C@_19EPFLPGAP@?$AAJ?$AAu?$AAn?$AAe@ 10060d88     libucrt:nlsdata.obj
 0002:00001d94       ??_C@_19BIFMLPCD@?$AAJ?$AAu?$AAl?$AAy@ 10060d94     libucrt:nlsdata.obj
 0002:00001da0       ??_C@_1O@PAHLKOAC@?$AAA?$AAu?$AAg?$AAu?$AAs?$AAt@ 10060da0     libucrt:nlsdata.obj
 0002:00001db0       ??_C@_1BE@DKAAMBJL@?$AAS?$AAe?$AAp?$AAt?$AAe?$AAm?$AAb?$AAe?$AAr@ 10060db0     libucrt:nlsdata.obj
 0002:00001dc4       ??_C@_1BA@EPANDLNG@?$AAO?$AAc?$AAt?$AAo?$AAb?$AAe?$AAr@ 10060dc4     libucrt:nlsdata.obj
 0002:00001dd4       ??_C@_1BC@BGLIFPF@?$AAN?$AAo?$AAv?$AAe?$AAm?$AAb?$AAe?$AAr@ 10060dd4     libucrt:nlsdata.obj
 0002:00001de8       ??_C@_1BC@FEMKIFH@?$AAD?$AAe?$AAc?$AAe?$AAm?$AAb?$AAe?$AAr@ 10060de8     libucrt:nlsdata.obj
 0002:00001dfc       ??_C@_15ODEHAHHF@?$AAA?$AAM@ 10060dfc     libucrt:nlsdata.obj
 0002:00001e04       ??_C@_15CLMNNGEL@?$AAP?$AAM@ 10060e04     libucrt:nlsdata.obj
 0002:00001e0c       ??_C@_1BC@IEBCMHCM@?$AAM?$AAM?$AA?1?$AAd?$AAd?$AA?1?$AAy?$AAy@ 10060e0c     libucrt:nlsdata.obj
 0002:00001e20       ??_C@_1CI@KNAKOEBC@?$AAd?$AAd?$AAd?$AAd?$AA?0?$AA?5?$AAM?$AAM?$AAM?$AAM?$AA?5?$AAd?$AAd?$AA?0?$AA?5@ 10060e20     libucrt:nlsdata.obj
 0002:00001e48       ??_C@_1BC@GDGBMEMK@?$AAH?$AAH?$AA?3?$AAm?$AAm?$AA?3?$AAs?$AAs@ 10060e48     libucrt:nlsdata.obj
 0002:00001e5c       ??_C@_1M@BMHNFIME@?$AAe?$AAn?$AA?9?$AAU?$AAS@ 10060e5c     libucrt:nlsdata.obj
 0002:00001e68       _RtlNtPathSeperatorString  10060e68     libucrt:winapi_thunks.obj
 0002:00001e70       ??_C@_13FPGAJAPJ@?$AA?2@   10060e70     libucrt:winapi_thunks.obj
 0002:00001e74       _RtlDosPathSeperatorsString 10060e74     libucrt:winapi_thunks.obj
 0002:00001e7c       ??_C@_15MNCACJLI@?$AA?2?$AA?1@ 10060e7c     libucrt:winapi_thunks.obj
 0002:00001e84       _RtlAlternateDosPathSeperatorString 10060e84     libucrt:winapi_thunks.obj
 0002:00001e8c       ??_C@_13CGOKJPIL@?$AA?1@   10060e8c     libucrt:winapi_thunks.obj
 0002:00001ee8       ??_C@_1EA@JGEFHKEI@?$AAa?$AAp?$AAi?$AA?9?$AAm?$AAs?$AA?9?$AAw?$AAi?$AAn?$AA?9?$AAc?$AAo?$AAr?$AAe@ 10060ee8     libucrt:winapi_thunks.obj
 0002:00001f28       ??_C@_1DI@KMEPCBPN@?$AAa?$AAp?$AAi?$AA?9?$AAm?$AAs?$AA?9?$AAw?$AAi?$AAn?$AA?9?$AAc?$AAo?$AAr?$AAe@ 10060f28     libucrt:winapi_thunks.obj
 0002:00001f60       ??_C@_1DI@IJCEHOCB@?$AAa?$AAp?$AAi?$AA?9?$AAm?$AAs?$AA?9?$AAw?$AAi?$AAn?$AA?9?$AAc?$AAo?$AAr?$AAe@ 10060f60     libucrt:winapi_thunks.obj
 0002:00001f98       ??_C@_1EI@MPIAOHOC@?$AAa?$AAp?$AAi?$AA?9?$AAm?$AAs?$AA?9?$AAw?$AAi?$AAn?$AA?9?$AAc?$AAo?$AAr?$AAe@ 10060f98     libucrt:winapi_thunks.obj
 0002:00001fe0       ??_C@_1FK@FPHCKFIE@?$AAa?$AAp?$AAi?$AA?9?$AAm?$AAs?$AA?9?$AAw?$AAi?$AAn?$AA?9?$AAc?$AAo?$AAr?$AAe@ 10060fe0     libucrt:winapi_thunks.obj
 0002:00002040       ??_C@_1EM@DILCGIIO@?$AAa?$AAp?$AAi?$AA?9?$AAm?$AAs?$AA?9?$AAw?$AAi?$AAn?$AA?9?$AAc?$AAo?$AAr?$AAe@ 10061040     libucrt:winapi_thunks.obj
 0002:0000208c       ??_C@_1DM@LNCGDDPN@?$AAa?$AAp?$AAi?$AA?9?$AAm?$AAs?$AA?9?$AAw?$AAi?$AAn?$AA?9?$AAc?$AAo?$AAr?$AAe@ 1006108c     libucrt:winapi_thunks.obj
 0002:000020c8       ??_C@_1DO@FPAPJEMD@?$AAa?$AAp?$AAi?$AA?9?$AAm?$AAs?$AA?9?$AAw?$AAi?$AAn?$AA?9?$AAc?$AAo?$AAr?$AAe@ 100610c8     libucrt:winapi_thunks.obj
 0002:00002108       ??_C@_1DK@NDHNAHIO@?$AAa?$AAp?$AAi?$AA?9?$AAm?$AAs?$AA?9?$AAw?$AAi?$AAn?$AA?9?$AAc?$AAo?$AAr?$AAe@ 10061108     libucrt:winapi_thunks.obj
 0002:00002144       ??_C@_1DM@KGHDGBCM@?$AAa?$AAp?$AAi?$AA?9?$AAm?$AAs?$AA?9?$AAw?$AAi?$AAn?$AA?9?$AAc?$AAo?$AAr?$AAe@ 10061144     libucrt:winapi_thunks.obj
 0002:00002180       ??_C@_1EO@IJIOEFOH@?$AAa?$AAp?$AAi?$AA?9?$AAm?$AAs?$AA?9?$AAw?$AAi?$AAn?$AA?9?$AAr?$AAt?$AAc?$AAo@ 10061180     libucrt:winapi_thunks.obj
 0002:000021d0       ??_C@_1FG@HHGEKANL@?$AAa?$AAp?$AAi?$AA?9?$AAm?$AAs?$AA?9?$AAw?$AAi?$AAn?$AA?9?$AAs?$AAe?$AAc?$AAu@ 100611d0     libucrt:winapi_thunks.obj
 0002:00002228       ??_C@_1EG@DBIOJECG@?$AAe?$AAx?$AAt?$AA?9?$AAm?$AAs?$AA?9?$AAw?$AAi?$AAn?$AA?9?$AAn?$AAt?$AAu?$AAs@ 10061228     libucrt:winapi_thunks.obj
 0002:00002270       ??_C@_1EO@FIHMJCLF@?$AAe?$AAx?$AAt?$AA?9?$AAm?$AAs?$AA?9?$AAw?$AAi?$AAn?$AA?9?$AAn?$AAt?$AAu?$AAs@ 10061270     libucrt:winapi_thunks.obj
 0002:000022c0       ??_C@_1BC@DNHGCMLG@?$AAa?$AAd?$AAv?$AAa?$AAp?$AAi?$AA3?$AA2@ 100612c0     libucrt:winapi_thunks.obj
 0002:000022d4       ??_C@_1BG@CJPGBMEF@?$AAk?$AAe?$AAr?$AAn?$AAe?$AAl?$AAb?$AAa?$AAs?$AAe@ 100612d4     libucrt:winapi_thunks.obj
 0002:000022ec       ??_C@_1M@OAIMIKLP@?$AAn?$AAt?$AAd?$AAl?$AAl@ 100612ec     libucrt:winapi_thunks.obj
 0002:000022f8       ??_C@_1EG@DPGNFKGC@?$AAa?$AAp?$AAi?$AA?9?$AAm?$AAs?$AA?9?$AAw?$AAi?$AAn?$AA?9?$AAa?$AAp?$AAp?$AAm@ 100612f8     libucrt:winapi_thunks.obj
 0002:00002340       ??_C@_1O@BCCLBEOE@?$AAu?$AAs?$AAe?$AAr?$AA3?$AA2@ 10061340     libucrt:winapi_thunks.obj
 0002:00002350       ??_C@_1DM@BPJLHKCE@?$AAa?$AAp?$AAi?$AA?9?$AAm?$AAs?$AA?9?$AAw?$AAi?$AAn?$AA?9?$AAc?$AAo?$AAr?$AAe@ 10061350     libucrt:winapi_thunks.obj
 0002:0000238c       ??_C@_1BA@IAIFMGEF@?$AAe?$AAx?$AAt?$AA?9?$AAm?$AAs?$AA?9@ 1006138c     libucrt:winapi_thunks.obj
 0002:000023a0       ??_C@_0BA@FHFNEAED@AreFileApisANSI@ 100613a0     libucrt:winapi_thunks.obj
 0002:000023b8       ??_C@_0BA@IHGNDAEB@CompareStringEx@ 100613b8     libucrt:winapi_thunks.obj
 0002:000023d0       ??_C@_0BE@LJANKFHF@EnumSystemLocalesEx@ 100613d0     libucrt:winapi_thunks.obj
 0002:000023ec       ??_C@_0BA@HNOPNCHB@GetActiveWindow@ 100613ec     libucrt:winapi_thunks.obj
 0002:00002404       ??_C@_0BA@EPCJIIPD@GetDateFormatEx@ 10061404     libucrt:winapi_thunks.obj
 0002:0000241c       ??_C@_0O@NNMIPI@GetTempPath2W@ 1006141c     libucrt:winapi_thunks.obj
 0002:00002434       ??_C@_0BJ@DIBIJBHA@GetEnabledXStateFeatures@ 10061434     libucrt:winapi_thunks.obj
 0002:00002458       ??_C@_0BD@HHGDFDBJ@GetLastActivePopup@ 10061458     libucrt:winapi_thunks.obj
 0002:00002474       ??_C@_0BA@ONOKGCMP@GetLocaleInfoEx@ 10061474     libucrt:winapi_thunks.obj
 0002:0000248c       ??_C@_0BI@DFKBFLJE@GetProcessWindowStation@ 1006148c     libucrt:winapi_thunks.obj
 0002:000024a8       ??_C@_0BP@FPNJPEJC@GetSystemTimePreciseAsFileTime@ 100614a8     libucrt:winapi_thunks.obj
 0002:000024d0       ??_C@_0BA@CIJJKCJJ@GetTimeFormatEx@ 100614d0     libucrt:winapi_thunks.obj
 0002:000024e8       ??_C@_0BJ@PBCCBIPI@GetUserDefaultLocaleName@ 100614e8     libucrt:winapi_thunks.obj
 0002:0000250c       ??_C@_0BK@DEKFELLI@GetUserObjectInformationW@ 1006150c     libucrt:winapi_thunks.obj
 0002:00002530       ??_C@_0BG@IKLDMBLM@GetXStateFeaturesMask@ 10061530     libucrt:winapi_thunks.obj
 0002:00002558       ??_C@_0BC@CELBKLLA@IsValidLocaleName@ 10061558     libucrt:winapi_thunks.obj
 0002:00002574       ??_C@_0O@KKBNKAPF@LCMapStringEx@ 10061574     libucrt:winapi_thunks.obj
 0002:0000258c       ??_C@_0BB@CDHDDLLP@LCIDToLocaleName@ 1006158c     libucrt:winapi_thunks.obj
 0002:000025a8       ??_C@_0BB@HBDEELFH@LocaleNameToLCID@ 100615a8     libucrt:winapi_thunks.obj
 0002:000025c4       ??_C@_0BE@KINNKFDA@LocateXStateFeature@ 100615c4     libucrt:winapi_thunks.obj
 0002:000025e0       ??_C@_0M@CHKKJDAI@MessageBoxA@ 100615e0     libucrt:winapi_thunks.obj
 0002:000025f4       ??_C@_0M@DLDCCGNP@MessageBoxW@ 100615f4     libucrt:winapi_thunks.obj
 0002:00002604       ??_C@_0N@PPOMPGGK@RoInitialize@ 10061604     libucrt:winapi_thunks.obj
 0002:00002618       ??_C@_0P@LLFHBIJD@RoUninitialize@ 10061618     libucrt:winapi_thunks.obj
 0002:0000262c       ??_C@_0CF@OJOFEIGO@AppPolicyGetProcessTerminationM@ 1006162c     libucrt:winapi_thunks.obj
 0002:00002658       ??_C@_0CF@NNDFDCOC@AppPolicyGetThreadInitializatio@ 10061658     libucrt:winapi_thunks.obj
 0002:00002684       ??_C@_0CE@OICFMIKE@AppPolicyGetShowDeveloperDiagno@ 10061684     libucrt:winapi_thunks.obj
 0002:000026ac       ??_C@_0BL@ODDJNEDA@AppPolicyGetWindowingModel@ 100616ac     libucrt:winapi_thunks.obj
 0002:000026d0       ??_C@_0BI@BKLFFAPO@SetThreadStackGuarantee@ 100616d0     libucrt:winapi_thunks.obj
 0002:000026f0       ??_C@_0BC@JEAENNKH@SystemFunction036@ 100616f0     libucrt:winapi_thunks.obj
 0002:00002768       ??_C@_03OEIAHPBN@INF@      10061768     libucrt:cvt.obj
 0002:0000276c       ??_C@_03OJHLLCGB@inf@      1006176c     libucrt:cvt.obj
 0002:00002770       ??_C@_03LKNCIKJB@NAN@      10061770     libucrt:cvt.obj
 0002:00002774       ??_C@_03LHCJEHON@nan@      10061774     libucrt:cvt.obj
 0002:00002778       ??_C@_09OFJJIMPC@NAN?$CISNAN?$CJ@ 10061778     libucrt:cvt.obj
 0002:00002784       ??_C@_09IPFBKMDL@nan?$CIsnan?$CJ@ 10061784     libucrt:cvt.obj
 0002:00002790       ??_C@_08IKHNHAJ@NAN?$CIIND?$CJ@ 10061790     libucrt:cvt.obj
 0002:0000279c       ??_C@_08OFCDMILK@nan?$CIind?$CJ@ 1006179c     libucrt:cvt.obj
 0002:000027a8       ??_C@_05KLBDPFGC@e?$CL000@ 100617a8     libucrt:cvt.obj
 0002:000027b0       __sys_first_posix_error    100617b0     libucrt:syserr.obj
 0002:000027b4       __sys_last_posix_error     100617b4     libucrt:syserr.obj
 0002:000027b8       __sys_posix_errlist        100617b8     libucrt:syserr.obj
 0002:00002860       __sys_errlist              10061860     libucrt:syserr.obj
 0002:00002910       ??_C@_08INEPGKHH@No?5error@ 10061910     libucrt:syserr.obj
 0002:0000291c       ??_C@_0BI@BJFCGOHL@Operation?5not?5permitted@ 1006191c     libucrt:syserr.obj
 0002:00002934       ??_C@_0BK@FMDHKPNF@No?5such?5file?5or?5directory@ 10061934     libucrt:syserr.obj
 0002:00002950       ??_C@_0BA@FKIAIBGA@No?5such?5process@ 10061950     libucrt:syserr.obj
 0002:00002960       ??_C@_0BK@FJBOAFDK@Interrupted?5function?5call@ 10061960     libucrt:syserr.obj
 0002:0000297c       ??_C@_0BD@KKNFOBBD@Input?1output?5error@ 1006197c     libucrt:syserr.obj
 0002:00002990       ??_C@_0BK@DPKMCKJ@No?5such?5device?5or?5address@ 10061990     libucrt:syserr.obj
 0002:000029ac       ??_C@_0BC@MFFGCDFL@Arg?5list?5too?5long@ 100619ac     libucrt:syserr.obj
 0002:000029c0       ??_C@_0BC@HKPNECK@Exec?5format?5error@ 100619c0     libucrt:syserr.obj
 0002:000029d4       ??_C@_0BE@NFGDDCEF@Bad?5file?5descriptor@ 100619d4     libucrt:syserr.obj
 0002:000029e8       ??_C@_0BD@LOHELEP@No?5child?5processes@ 100619e8     libucrt:syserr.obj
 0002:000029fc       ??_C@_0CB@EPFKGNAK@Resource?5temporarily?5unavailabl@ 100619fc     libucrt:syserr.obj
 0002:00002a20       ??_C@_0BB@IMDKMPFB@Not?5enough?5space@ 10061a20     libucrt:syserr.obj
 0002:00002a34       ??_C@_0BC@HFNFNKAI@Permission?5denied@ 10061a34     libucrt:syserr.obj
 0002:00002a48       ??_C@_0M@LOEHLCJD@Bad?5address@ 10061a48     libucrt:syserr.obj
 0002:00002a54       ??_C@_0O@NIPGCINC@Unknown?5error@ 10061a54     libucrt:syserr.obj
 0002:00002a64       ??_C@_0BA@BIBLIOEK@Resource?5device@ 10061a64     libucrt:syserr.obj
 0002:00002a74       ??_C@_0M@NAAJNNGH@File?5exists@ 10061a74     libucrt:syserr.obj
 0002:00002a80       ??_C@_0O@OAMDNOCP@Improper?5link@ 10061a80     libucrt:syserr.obj
 0002:00002a90       ??_C@_0P@NLEIANHE@No?5such?5device@ 10061a90     libucrt:syserr.obj
 0002:00002aa0       ??_C@_0BA@CJBACOOL@Not?5a?5directory@ 10061aa0     libucrt:syserr.obj
 0002:00002ab0       ??_C@_0P@NDHGCGKE@Is?5a?5directory@ 10061ab0     libucrt:syserr.obj
 0002:00002ac0       ??_C@_0BB@HMGGCEBG@Invalid?5argument@ 10061ac0     libucrt:syserr.obj
 0002:00002ad4       ??_C@_0BO@IIFBODJE@Too?5many?5open?5files?5in?5system@ 10061ad4     libucrt:syserr.obj
 0002:00002af4       ??_C@_0BE@INBJMKGG@Too?5many?5open?5files@ 10061af4     libucrt:syserr.obj
 0002:00002b08       ??_C@_0CE@ONOKNLPF@Inappropriate?5I?1O?5control?5opera@ 10061b08     libucrt:syserr.obj
 0002:00002b2c       ??_C@_0P@LFMMIPAE@File?5too?5large@ 10061b2c     libucrt:syserr.obj
 0002:00002b3c       ??_C@_0BI@FEALHKLD@No?5space?5left?5on?5device@ 10061b3c     libucrt:syserr.obj
 0002:00002b54       ??_C@_0N@FEHLOILP@Invalid?5seek@ 10061b54     libucrt:syserr.obj
 0002:00002b64       ??_C@_0BG@DDBFNKBH@Read?9only?5file?5system@ 10061b64     libucrt:syserr.obj
 0002:00002b7c       ??_C@_0P@PKCJJLLM@Too?5many?5links@ 10061b7c     libucrt:syserr.obj
 0002:00002b8c       ??_C@_0M@LHEPIIOM@Broken?5pipe@ 10061b8c     libucrt:syserr.obj
 0002:00002b98       ??_C@_0N@MMJPGLJK@Domain?5error@ 10061b98     libucrt:syserr.obj
 0002:00002ba8       ??_C@_0BB@FCBJFCAJ@Result?5too?5large@ 10061ba8     libucrt:syserr.obj
 0002:00002bbc       ??_C@_0BK@JAEBMJJM@Resource?5deadlock?5avoided@ 10061bbc     libucrt:syserr.obj
 0002:00002bd8       ??_C@_0BC@BEDIHIDK@Filename?5too?5long@ 10061bd8     libucrt:syserr.obj
 0002:00002bec       ??_C@_0BD@CLHBCGPB@No?5locks?5available@ 10061bec     libucrt:syserr.obj
 0002:00002c00       ??_C@_0BJ@IHEHINLI@Function?5not?5implemented@ 10061c00     libucrt:syserr.obj
 0002:00002c1c       ??_C@_0BE@ICMCHPHH@Directory?5not?5empty@ 10061c1c     libucrt:syserr.obj
 0002:00002c30       ??_C@_0BG@KLEAJEFJ@Illegal?5byte?5sequence@ 10061c30     libucrt:syserr.obj
 0002:00002c48       ??_C@_0P@LDMLAFHI@address?5in?5use@ 10061c48     libucrt:syserr.obj
 0002:00002c58       ??_C@_0BG@DHPCNBJB@address?5not?5available@ 10061c58     libucrt:syserr.obj
 0002:00002c70       ??_C@_0BN@LKKBCCDB@address?5family?5not?5supported@ 10061c70     libucrt:syserr.obj
 0002:00002c90       ??_C@_0BP@KAIHPOGN@connection?5already?5in?5progress@ 10061c90     libucrt:syserr.obj
 0002:00002cb0       ??_C@_0M@PMMIEFCP@bad?5message@ 10061cb0     libucrt:syserr.obj
 0002:00002cbc       ??_C@_0BD@MOLBPMEA@operation?5canceled@ 10061cbc     libucrt:syserr.obj
 0002:00002cd0       ??_C@_0BD@MGNDDEGM@connection?5aborted@ 10061cd0     libucrt:syserr.obj
 0002:00002ce4       ??_C@_0BD@PJLIIJEL@connection?5refused@ 10061ce4     libucrt:syserr.obj
 0002:00002cf8       ??_C@_0BB@IECNJNOI@connection?5reset@ 10061cf8     libucrt:syserr.obj
 0002:00002d0c       ??_C@_0BN@KDMIFEIP@destination?5address?5required@ 10061d0c     libucrt:syserr.obj
 0002:00002d2c       ??_C@_0BB@DHFDFGDM@host?5unreachable@ 10061d2c     libucrt:syserr.obj
 0002:00002d40       ??_C@_0BD@JPHBMONG@identifier?5removed@ 10061d40     libucrt:syserr.obj
 0002:00002d54       ??_C@_0BG@KDKHOPCO@operation?5in?5progress@ 10061d54     libucrt:syserr.obj
 0002:00002d6c       ??_C@_0BC@DFIBIBIL@already?5connected@ 10061d6c     libucrt:syserr.obj
 0002:00002d80       ??_C@_0BO@EFGOJEF@too?5many?5symbolic?5link?5levels@ 10061d80     libucrt:syserr.obj
 0002:00002da0       ??_C@_0N@IFLPBIOP@message?5size@ 10061da0     libucrt:syserr.obj
 0002:00002db0       ??_C@_0N@KIIEAAIO@network?5down@ 10061db0     libucrt:syserr.obj
 0002:00002dc0       ??_C@_0O@FNPDBHEE@network?5reset@ 10061dc0     libucrt:syserr.obj
 0002:00002dd0       ??_C@_0BE@IFNCKGE@network?5unreachable@ 10061dd0     libucrt:syserr.obj
 0002:00002de4       ??_C@_0BA@PFFCAOFK@no?5buffer?5space@ 10061de4     libucrt:syserr.obj
 0002:00002df4       ??_C@_0BF@PBGGPKKE@no?5message?5available@ 10061df4     libucrt:syserr.obj
 0002:00002e0c       ??_C@_07PLECNNKG@no?5link@ 10061e0c     libucrt:syserr.obj
 0002:00002e14       ??_C@_0L@EDOLMPAK@no?5message@ 10061e14     libucrt:syserr.obj
 0002:00002e20       ??_C@_0BD@EAMBFIDF@no?5protocol?5option@ 10061e20     libucrt:syserr.obj
 0002:00002e34       ??_C@_0BE@MKFDAFMP@no?5stream?5resources@ 10061e34     libucrt:syserr.obj
 0002:00002e48       ??_C@_0N@LGAPMMPI@not?5a?5stream@ 10061e48     libucrt:syserr.obj
 0002:00002e58       ??_C@_0O@GLMIBBEG@not?5connected@ 10061e58     libucrt:syserr.obj
 0002:00002e68       ??_C@_0BG@MPLKFPAE@state?5not?5recoverable@ 10061e68     libucrt:syserr.obj
 0002:00002e80       ??_C@_0N@POEIPGGF@not?5a?5socket@ 10061e80     libucrt:syserr.obj
 0002:00002e90       ??_C@_0O@NHEDABJP@not?5supported@ 10061e90     libucrt:syserr.obj
 0002:00002ea0       ??_C@_0BI@LNEGIFLN@operation?5not?5supported@ 10061ea0     libucrt:syserr.obj
 0002:00002eb8       ??_C@_0BA@KGKGOOJA@value?5too?5large@ 10061eb8     libucrt:syserr.obj
 0002:00002ec8       ??_C@_0L@BLPOFLNJ@owner?5dead@ 10061ec8     libucrt:syserr.obj
 0002:00002ed4       ??_C@_0P@FNPOCJBE@protocol?5error@ 10061ed4     libucrt:syserr.obj
 0002:00002ee4       ??_C@_0BH@JPPPLHJB@protocol?5not?5supported@ 10061ee4     libucrt:syserr.obj
 0002:00002efc       ??_C@_0BE@MIEJDDNH@wrong?5protocol?5type@ 10061efc     libucrt:syserr.obj
 0002:00002f10       ??_C@_0P@DIIFGFCG@stream?5timeout@ 10061f10     libucrt:syserr.obj
 0002:00002f20       ??_C@_09KJPPMAOI@timed?5out@ 10061f20     libucrt:syserr.obj
 0002:00002f2c       ??_C@_0P@IPFDMIFL@text?5file?5busy@ 10061f2c     libucrt:syserr.obj
 0002:00002f3c       ??_C@_0BG@OEMDKMEE@operation?5would?5block@ 10061f3c     libucrt:syserr.obj
 0002:00002f54       __sys_nerr                 10061f54     libucrt:syserr.obj
 0002:00002f58       ?ccs@?1???$__acrt_stdio_parse_mode@D@@YA?AU__acrt_stdio_stream_mode@@QBD@Z@4QBDB 10061f58     libucrt:openfile.obj
 0002:00002f5c       ?utf8_encoding@?1???$__acrt_stdio_parse_mode@D@@YA?AU__acrt_stdio_stream_mode@@QBD@Z@4QBDB 10061f5c     libucrt:openfile.obj
 0002:00002f64       ?utf16_encoding@?1???$__acrt_stdio_parse_mode@D@@YA?AU__acrt_stdio_stream_mode@@QBD@Z@4QBDB 10061f64     libucrt:openfile.obj
 0002:00002f6c       ?unicode_encoding@?1???$__acrt_stdio_parse_mode@D@@YA?AU__acrt_stdio_stream_mode@@QBD@Z@4QBDB 10061f6c     libucrt:openfile.obj
 0002:00002f74       ?ccs@?1???$__acrt_stdio_parse_mode@_W@@YA?AU__acrt_stdio_stream_mode@@QB_W@Z@4QB_WB 10061f74     libucrt:openfile.obj
 0002:00002f7c       ?utf8_encoding@?1???$__acrt_stdio_parse_mode@_W@@YA?AU__acrt_stdio_stream_mode@@QB_W@Z@4QB_WB 10061f7c     libucrt:openfile.obj
 0002:00002f88       ?utf16_encoding@?1???$__acrt_stdio_parse_mode@_W@@YA?AU__acrt_stdio_stream_mode@@QB_W@Z@4QB_WB 10061f88     libucrt:openfile.obj
 0002:00002f98       ?unicode_encoding@?1???$__acrt_stdio_parse_mode@_W@@YA?AU__acrt_stdio_stream_mode@@QB_W@Z@4QB_WB 10061f98     libucrt:openfile.obj
 0002:00002fb8       ??_C@_1M@HPNHIDJI@?$AAj?$AAa?$AA?9?$AAJ?$AAP@ 10061fb8     libucrt:mbctype.obj
 0002:00002fc4       ??_C@_1M@BIBDDEMK@?$AAz?$AAh?$AA?9?$AAC?$AAN@ 10061fc4     libucrt:mbctype.obj
 0002:00002fd0       ??_C@_1M@JLOOOEGK@?$AAk?$AAo?$AA?9?$AAK?$AAR@ 10061fd0     libucrt:mbctype.obj
 0002:00002fdc       ??_C@_1M@CLNBBOPM@?$AAz?$AAh?$AA?9?$AAT?$AAW@ 10061fdc     libucrt:mbctype.obj
 0002:00002fe8       ___newctype                10061fe8     libucrt:ctype.obj
 0002:000032e8       ___newclmap                100622e8     libucrt:ctype.obj
 0002:00003468       ___newcumap                10062468     libucrt:ctype.obj
 0002:000035e8       __wctype                   100625e8     libucrt:ctype.obj
 0002:000037ec       ??_C@_1DE@JNGNBFGO@?$AAR?$AAu?$AAn?$AAt?$AAi?$AAm?$AAe?$AA?5?$AAE?$AAr?$AAr?$AAo?$AAr?$AA?$CB?$AA?6@ 100627ec     libucrt:report_runtime_error.obj
 0002:00003820       ??_C@_1CO@EAEJAADC@?$AA?$DM?$AAp?$AAr?$AAo?$AAg?$AAr?$AAa?$AAm?$AA?5?$AAn?$AAa?$AAm?$AAe?$AA?5?$AAu@ 10062820     libucrt:report_runtime_error.obj
 0002:00003850       ??_C@_17LGKOMLJ@?$AA?4?$AA?4?$AA?4@ 10062850     libucrt:report_runtime_error.obj
 0002:00003858       ??_C@_15IABLJNFO@?$AA?6?$AA?6@ 10062858     libucrt:report_runtime_error.obj
 0002:00003860       ??_C@_1EK@MBDPDCGA@?$AAM?$AAi?$AAc?$AAr?$AAo?$AAs?$AAo?$AAf?$AAt?$AA?5?$AAV?$AAi?$AAs?$AAu?$AAa@ 10062860     libucrt:report_runtime_error.obj
 0002:000038b0       ___acrt_rg_language        100628b0     libucrt:get_qualified_locale.obj
 0002:00003bbc       ___acrt_rg_language_count  10062bbc     libucrt:get_qualified_locale.obj
 0002:00003bc0       ___acrt_rg_country         10062bc0     libucrt:get_qualified_locale.obj
 0002:00003cd4       ___acrt_rg_country_count   10062cd4     libucrt:get_qualified_locale.obj
 0002:00003cd8       ??_C@_1BC@LLOKLNP@?$AAa?$AAm?$AAe?$AAr?$AAi?$AAc?$AAa?$AAn@ 10062cd8     libucrt:get_qualified_locale.obj
 0002:00003cec       ??_C@_1CC@HEIGCDGG@?$AAa?$AAm?$AAe?$AAr?$AAi?$AAc?$AAa?$AAn?$AA?5?$AAe?$AAn?$AAg?$AAl?$AAi?$AAs@ 10062cec     libucrt:get_qualified_locale.obj
 0002:00003d10       ??_C@_1CC@IHCNOMIN@?$AAa?$AAm?$AAe?$AAr?$AAi?$AAc?$AAa?$AAn?$AA?9?$AAe?$AAn?$AAg?$AAl?$AAi?$AAs@ 10062d10     libucrt:get_qualified_locale.obj
 0002:00003d34       ??_C@_1BG@GKAGPCGG@?$AAa?$AAu?$AAs?$AAt?$AAr?$AAa?$AAl?$AAi?$AAa?$AAn@ 10062d34     libucrt:get_qualified_locale.obj
 0002:00003d4c       ??_C@_1BA@GMENCENF@?$AAb?$AAe?$AAl?$AAg?$AAi?$AAa?$AAn@ 10062d4c     libucrt:get_qualified_locale.obj
 0002:00003d5c       ??_C@_1BC@PJMIIAAN@?$AAc?$AAa?$AAn?$AAa?$AAd?$AAi?$AAa?$AAn@ 10062d5c     libucrt:get_qualified_locale.obj
 0002:00003d70       ??_C@_17NOIMNFBF@?$AAc?$AAh?$AAh@ 10062d70     libucrt:get_qualified_locale.obj
 0002:00003d78       ??_C@_17GGDALCHA@?$AAc?$AAh?$AAi@ 10062d78     libucrt:get_qualified_locale.obj
 0002:00003d80       ??_C@_1BA@NPNJKIBL@?$AAc?$AAh?$AAi?$AAn?$AAe?$AAs?$AAe@ 10062d80     libucrt:get_qualified_locale.obj
 0002:00003d90       ??_C@_1CC@DINBAMMJ@?$AAc?$AAh?$AAi?$AAn?$AAe?$AAs?$AAe?$AA?9?$AAh?$AAo?$AAn?$AAg?$AAk?$AAo?$AAn@ 10062d90     libucrt:get_qualified_locale.obj
 0002:00003db4       ??_C@_1CG@IOBJPACO@?$AAc?$AAh?$AAi?$AAn?$AAe?$AAs?$AAe?$AA?9?$AAs?$AAi?$AAm?$AAp?$AAl?$AAi?$AAf@ 10062db4     libucrt:get_qualified_locale.obj
 0002:00003ddc       ??_C@_1CE@GAJNDCKG@?$AAc?$AAh?$AAi?$AAn?$AAe?$AAs?$AAe?$AA?9?$AAs?$AAi?$AAn?$AAg?$AAa?$AAp?$AAo@ 10062ddc     libucrt:get_qualified_locale.obj
 0002:00003e00       ??_C@_1CI@PAJPIOOD@?$AAc?$AAh?$AAi?$AAn?$AAe?$AAs?$AAe?$AA?9?$AAt?$AAr?$AAa?$AAd?$AAi?$AAt?$AAi@ 10062e00     libucrt:get_qualified_locale.obj
 0002:00003e28       ??_C@_1BM@NILJBMMD@?$AAd?$AAu?$AAt?$AAc?$AAh?$AA?9?$AAb?$AAe?$AAl?$AAg?$AAi?$AAa?$AAn@ 10062e28     libucrt:get_qualified_locale.obj
 0002:00003e44       ??_C@_1CC@OOJPJNEJ@?$AAe?$AAn?$AAg?$AAl?$AAi?$AAs?$AAh?$AA?9?$AAa?$AAm?$AAe?$AAr?$AAi?$AAc?$AAa@ 10062e44     libucrt:get_qualified_locale.obj
 0002:00003e68       ??_C@_1BI@IOLFEEM@?$AAe?$AAn?$AAg?$AAl?$AAi?$AAs?$AAh?$AA?9?$AAa?$AAu?$AAs@ 10062e68     libucrt:get_qualified_locale.obj
 0002:00003e80       ??_C@_1BO@HFFNLENJ@?$AAe?$AAn?$AAg?$AAl?$AAi?$AAs?$AAh?$AA?9?$AAb?$AAe?$AAl?$AAi?$AAz?$AAe@ 10062e80     libucrt:get_qualified_locale.obj
 0002:00003ea0       ??_C@_1BI@HAPKJMPO@?$AAe?$AAn?$AAg?$AAl?$AAi?$AAs?$AAh?$AA?9?$AAc?$AAa?$AAn@ 10062ea0     libucrt:get_qualified_locale.obj
 0002:00003eb8       ??_C@_1CE@HLNDMIOJ@?$AAe?$AAn?$AAg?$AAl?$AAi?$AAs?$AAh?$AA?9?$AAc?$AAa?$AAr?$AAi?$AAb?$AAb?$AAe@ 10062eb8     libucrt:get_qualified_locale.obj
 0002:00003edc       ??_C@_1BI@LDHJHHAC@?$AAe?$AAn?$AAg?$AAl?$AAi?$AAs?$AAh?$AA?9?$AAi?$AAr?$AAe@ 10062edc     libucrt:get_qualified_locale.obj
 0002:00003ef4       ??_C@_1CA@NJMMCFOC@?$AAe?$AAn?$AAg?$AAl?$AAi?$AAs?$AAh?$AA?9?$AAj?$AAa?$AAm?$AAa?$AAi?$AAc?$AAa@ 10062ef4     libucrt:get_qualified_locale.obj
 0002:00003f14       ??_C@_1BG@BHJEBBGG@?$AAe?$AAn?$AAg?$AAl?$AAi?$AAs?$AAh?$AA?9?$AAn?$AAz@ 10062f14     libucrt:get_qualified_locale.obj
 0002:00003f2c       ??_C@_1CK@FGOEJJCO@?$AAe?$AAn?$AAg?$AAl?$AAi?$AAs?$AAh?$AA?9?$AAs?$AAo?$AAu?$AAt?$AAh?$AA?5?$AAa@ 10062f2c     libucrt:get_qualified_locale.obj
 0002:00003f58       ??_C@_1DE@PDBJPCJ@?$AAe?$AAn?$AAg?$AAl?$AAi?$AAs?$AAh?$AA?9?$AAt?$AAr?$AAi?$AAn?$AAi?$AAd?$AAa@ 10062f58     libucrt:get_qualified_locale.obj
 0002:00003f8c       ??_C@_1BG@JGCANDME@?$AAe?$AAn?$AAg?$AAl?$AAi?$AAs?$AAh?$AA?9?$AAu?$AAk@ 10062f8c     libucrt:get_qualified_locale.obj
 0002:00003fa4       ??_C@_1BG@DINKMLE@?$AAe?$AAn?$AAg?$AAl?$AAi?$AAs?$AAh?$AA?9?$AAu?$AAs@ 10062fa4     libucrt:get_qualified_locale.obj
 0002:00003fbc       ??_C@_1BI@NMFDBHJE@?$AAe?$AAn?$AAg?$AAl?$AAi?$AAs?$AAh?$AA?9?$AAu?$AAs?$AAa@ 10062fbc     libucrt:get_qualified_locale.obj
 0002:00003fd4       ??_C@_1BO@OIHKJKII@?$AAf?$AAr?$AAe?$AAn?$AAc?$AAh?$AA?9?$AAb?$AAe?$AAl?$AAg?$AAi?$AAa?$AAn@ 10062fd4     libucrt:get_qualified_locale.obj
 0002:00003ff4       ??_C@_1CA@NKAELJKI@?$AAf?$AAr?$AAe?$AAn?$AAc?$AAh?$AA?9?$AAc?$AAa?$AAn?$AAa?$AAd?$AAi?$AAa?$AAn@ 10062ff4     libucrt:get_qualified_locale.obj
 0002:00004014       ??_C@_1CE@MGKCNLGN@?$AAf?$AAr?$AAe?$AAn?$AAc?$AAh?$AA?9?$AAl?$AAu?$AAx?$AAe?$AAm?$AAb?$AAo?$AAu@ 10063014     libucrt:get_qualified_locale.obj
 0002:00004038       ??_C@_1BK@CEGEAILM@?$AAf?$AAr?$AAe?$AAn?$AAc?$AAh?$AA?9?$AAs?$AAw?$AAi?$AAs?$AAs@ 10063038     libucrt:get_qualified_locale.obj
 0002:00004054       ??_C@_1CA@PAFKEOCC@?$AAg?$AAe?$AAr?$AAm?$AAa?$AAn?$AA?9?$AAa?$AAu?$AAs?$AAt?$AAr?$AAi?$AAa?$AAn@ 10063054     libucrt:get_qualified_locale.obj
 0002:00004074       ??_C@_1CI@HCFHGOFD@?$AAg?$AAe?$AAr?$AAm?$AAa?$AAn?$AA?9?$AAl?$AAi?$AAc?$AAh?$AAt?$AAe?$AAn?$AAs@ 10063074     libucrt:get_qualified_locale.obj
 0002:0000409c       ??_C@_1CE@FEDDNPDG@?$AAg?$AAe?$AAr?$AAm?$AAa?$AAn?$AA?9?$AAl?$AAu?$AAx?$AAe?$AAm?$AAb?$AAo?$AAu@ 1006309c     libucrt:get_qualified_locale.obj
 0002:000040c0       ??_C@_1BK@LIMINNMN@?$AAg?$AAe?$AAr?$AAm?$AAa?$AAn?$AA?9?$AAs?$AAw?$AAi?$AAs?$AAs@ 100630c0     libucrt:get_qualified_locale.obj
 0002:000040dc       ??_C@_1BM@LGMDBEPD@?$AAi?$AAr?$AAi?$AAs?$AAh?$AA?9?$AAe?$AAn?$AAg?$AAl?$AAi?$AAs?$AAh@ 100630dc     libucrt:get_qualified_locale.obj
 0002:000040f8       ??_C@_1BM@NNCFBAEE@?$AAi?$AAt?$AAa?$AAl?$AAi?$AAa?$AAn?$AA?9?$AAs?$AAw?$AAi?$AAs?$AAs@ 100630f8     libucrt:get_qualified_locale.obj
 0002:00004114       ??_C@_1BE@FEDJNPIB@?$AAn?$AAo?$AAr?$AAw?$AAe?$AAg?$AAi?$AAa?$AAn@ 10063114     libucrt:get_qualified_locale.obj
 0002:00004128       ??_C@_1CC@CILKDEIE@?$AAn?$AAo?$AAr?$AAw?$AAe?$AAg?$AAi?$AAa?$AAn?$AA?9?$AAb?$AAo?$AAk?$AAm?$AAa@ 10063128     libucrt:get_qualified_locale.obj
 0002:0000414c       ??_C@_1CE@DHMMHEPL@?$AAn?$AAo?$AAr?$AAw?$AAe?$AAg?$AAi?$AAa?$AAn?$AA?9?$AAn?$AAy?$AAn?$AAo?$AAr@ 1006314c     libucrt:get_qualified_locale.obj
 0002:00004170       ??_C@_1CK@OPNMHECD@?$AAp?$AAo?$AAr?$AAt?$AAu?$AAg?$AAu?$AAe?$AAs?$AAe?$AA?9?$AAb?$AAr?$AAa?$AAz@ 10063170     libucrt:get_qualified_locale.obj
 0002:0000419c       ??_C@_1CE@KEEHCDB@?$AAs?$AAp?$AAa?$AAn?$AAi?$AAs?$AAh?$AA?9?$AAa?$AAr?$AAg?$AAe?$AAn?$AAt?$AAi@ 1006319c     libucrt:get_qualified_locale.obj
 0002:000041c0       ??_C@_1CA@GIAOLHJD@?$AAs?$AAp?$AAa?$AAn?$AAi?$AAs?$AAh?$AA?9?$AAb?$AAo?$AAl?$AAi?$AAv?$AAi?$AAa@ 100631c0     libucrt:get_qualified_locale.obj
 0002:000041e0       ??_C@_1BM@OJNDFNPD@?$AAs?$AAp?$AAa?$AAn?$AAi?$AAs?$AAh?$AA?9?$AAc?$AAh?$AAi?$AAl?$AAe@ 100631e0     libucrt:get_qualified_locale.obj
 0002:000041fc       ??_C@_1CC@OCOLPALL@?$AAs?$AAp?$AAa?$AAn?$AAi?$AAs?$AAh?$AA?9?$AAc?$AAo?$AAl?$AAo?$AAm?$AAb?$AAi@ 100631fc     libucrt:get_qualified_locale.obj
 0002:00004220       ??_C@_1CG@BPOFMKBB@?$AAs?$AAp?$AAa?$AAn?$AAi?$AAs?$AAh?$AA?9?$AAc?$AAo?$AAs?$AAt?$AAa?$AA?5?$AAr@ 10063220     libucrt:get_qualified_locale.obj
 0002:00004248       ??_C@_1DG@IGOBAPBB@?$AAs?$AAp?$AAa?$AAn?$AAi?$AAs?$AAh?$AA?9?$AAd?$AAo?$AAm?$AAi?$AAn?$AAi?$AAc@ 10063248     libucrt:get_qualified_locale.obj
 0002:00004280       ??_C@_1CA@JHAPGEGI@?$AAs?$AAp?$AAa?$AAn?$AAi?$AAs?$AAh?$AA?9?$AAe?$AAc?$AAu?$AAa?$AAd?$AAo?$AAr@ 10063280     libucrt:get_qualified_locale.obj
 0002:000042a0       ??_C@_1CI@LAPALJPP@?$AAs?$AAp?$AAa?$AAn?$AAi?$AAs?$AAh?$AA?9?$AAe?$AAl?$AA?5?$AAs?$AAa?$AAl?$AAv@ 100632a0     libucrt:get_qualified_locale.obj
 0002:000042c8       ??_C@_1CE@PDGBOFOM@?$AAs?$AAp?$AAa?$AAn?$AAi?$AAs?$AAh?$AA?9?$AAg?$AAu?$AAa?$AAt?$AAe?$AAm?$AAa@ 100632c8     libucrt:get_qualified_locale.obj
 0002:000042ec       ??_C@_1CC@NBEBAODI@?$AAs?$AAp?$AAa?$AAn?$AAi?$AAs?$AAh?$AA?9?$AAh?$AAo?$AAn?$AAd?$AAu?$AAr?$AAa@ 100632ec     libucrt:get_qualified_locale.obj
 0002:00004310       ??_C@_1CA@LLKGHBMF@?$AAs?$AAp?$AAa?$AAn?$AAi?$AAs?$AAh?$AA?9?$AAm?$AAe?$AAx?$AAi?$AAc?$AAa?$AAn@ 10063310     libucrt:get_qualified_locale.obj
 0002:00004330       ??_C@_1BO@LKNDOIGD@?$AAs?$AAp?$AAa?$AAn?$AAi?$AAs?$AAh?$AA?9?$AAm?$AAo?$AAd?$AAe?$AAr?$AAn@ 10063330     libucrt:get_qualified_locale.obj
 0002:00004350       ??_C@_1CE@NMDMOEEB@?$AAs?$AAp?$AAa?$AAn?$AAi?$AAs?$AAh?$AA?9?$AAn?$AAi?$AAc?$AAa?$AAr?$AAa?$AAg@ 10063350     libucrt:get_qualified_locale.obj
 0002:00004374       ??_C@_1BO@LLCBEJGB@?$AAs?$AAp?$AAa?$AAn?$AAi?$AAs?$AAh?$AA?9?$AAp?$AAa?$AAn?$AAa?$AAm?$AAa@ 10063374     libucrt:get_qualified_locale.obj
 0002:00004394       ??_C@_1CC@FKPGGIHO@?$AAs?$AAp?$AAa?$AAn?$AAi?$AAs?$AAh?$AA?9?$AAp?$AAa?$AAr?$AAa?$AAg?$AAu?$AAa@ 10063394     libucrt:get_qualified_locale.obj
 0002:000043b8       ??_C@_1BK@CDEIHOOP@?$AAs?$AAp?$AAa?$AAn?$AAi?$AAs?$AAh?$AA?9?$AAp?$AAe?$AAr?$AAu@ 100633b8     libucrt:get_qualified_locale.obj
 0002:000043d4       ??_C@_1CI@GAHAKKGP@?$AAs?$AAp?$AAa?$AAn?$AAi?$AAs?$AAh?$AA?9?$AAp?$AAu?$AAe?$AAr?$AAt?$AAo?$AA?5@ 100633d4     libucrt:get_qualified_locale.obj
 0002:000043fc       ??_C@_1CA@NKJBCAGP@?$AAs?$AAp?$AAa?$AAn?$AAi?$AAs?$AAh?$AA?9?$AAu?$AAr?$AAu?$AAg?$AAu?$AAa?$AAy@ 100633fc     libucrt:get_qualified_locale.obj
 0002:0000441c       ??_C@_1CE@ODILCONM@?$AAs?$AAp?$AAa?$AAn?$AAi?$AAs?$AAh?$AA?9?$AAv?$AAe?$AAn?$AAe?$AAz?$AAu?$AAe@ 1006341c     libucrt:get_qualified_locale.obj
 0002:00004440       ??_C@_1CA@OBNMCGFO@?$AAs?$AAw?$AAe?$AAd?$AAi?$AAs?$AAh?$AA?9?$AAf?$AAi?$AAn?$AAl?$AAa?$AAn?$AAd@ 10063440     libucrt:get_qualified_locale.obj
 0002:00004460       ??_C@_1M@PIPDDPPI@?$AAs?$AAw?$AAi?$AAs?$AAs@ 10063460     libucrt:get_qualified_locale.obj
 0002:0000446c       ??_C@_15PJPFLCCM@?$AAu?$AAk@ 1006346c     libucrt:get_qualified_locale.obj
 0002:00004474       ??_C@_15GMFIMNFM@?$AAu?$AAs@ 10063474     libucrt:get_qualified_locale.obj
 0002:0000447c       ??_C@_17HAEBFAGL@?$AAu?$AAs?$AAa@ 1006347c     libucrt:get_qualified_locale.obj
 0002:00004484       ??_C@_1BA@DPFJEPHB@?$AAa?$AAm?$AAe?$AAr?$AAi?$AAc?$AAa@ 10063484     libucrt:get_qualified_locale.obj
 0002:00004494       ??_C@_1BA@ELOGGFK@?$AAb?$AAr?$AAi?$AAt?$AAa?$AAi?$AAn@ 10063494     libucrt:get_qualified_locale.obj
 0002:000044a4       ??_C@_1M@GHBGIGDA@?$AAc?$AAh?$AAi?$AAn?$AAa@ 100634a4     libucrt:get_qualified_locale.obj
 0002:000044b0       ??_C@_1M@NCHEJOPO@?$AAc?$AAz?$AAe?$AAc?$AAh@ 100634b0     libucrt:get_qualified_locale.obj
 0002:000044bc       ??_C@_1BA@BKPAPBLA@?$AAe?$AAn?$AAg?$AAl?$AAa?$AAn?$AAd@ 100634bc     libucrt:get_qualified_locale.obj
 0002:000044cc       ??_C@_1BM@HKBCKIPC@?$AAg?$AAr?$AAe?$AAa?$AAt?$AA?5?$AAb?$AAr?$AAi?$AAt?$AAa?$AAi?$AAn@ 100634cc     libucrt:get_qualified_locale.obj
 0002:000044e8       ??_C@_1BA@PPCHPGJB@?$AAh?$AAo?$AAl?$AAl?$AAa?$AAn?$AAd@ 100634e8     libucrt:get_qualified_locale.obj
 0002:000044f8       ??_C@_1BE@JBMPEGDG@?$AAh?$AAo?$AAn?$AAg?$AA?9?$AAk?$AAo?$AAn?$AAg@ 100634f8     libucrt:get_qualified_locale.obj
 0002:0000450c       ??_C@_1BI@KOELBBPJ@?$AAn?$AAe?$AAw?$AA?9?$AAz?$AAe?$AAa?$AAl?$AAa?$AAn?$AAd@ 1006350c     libucrt:get_qualified_locale.obj
 0002:00004524       ??_C@_15HIEBHAIO@?$AAn?$AAz@ 10063524     libucrt:get_qualified_locale.obj
 0002:0000452c       ??_C@_1BC@CHBCPFPI@?$AAp?$AAr?$AA?5?$AAc?$AAh?$AAi?$AAn?$AAa@ 1006352c     libucrt:get_qualified_locale.obj
 0002:00004540       ??_C@_1BC@JAOIIFKD@?$AAp?$AAr?$AA?9?$AAc?$AAh?$AAi?$AAn?$AAa@ 10063540     libucrt:get_qualified_locale.obj
 0002:00004554       ??_C@_1BI@BEHPPHKC@?$AAp?$AAu?$AAe?$AAr?$AAt?$AAo?$AA?9?$AAr?$AAi?$AAc?$AAo@ 10063554     libucrt:get_qualified_locale.obj
 0002:0000456c       ??_C@_1O@PAEOFKDI@?$AAs?$AAl?$AAo?$AAv?$AAa?$AAk@ 1006356c     libucrt:get_qualified_locale.obj
 0002:0000457c       ??_C@_1BK@FIHMCKAM@?$AAs?$AAo?$AAu?$AAt?$AAh?$AA?5?$AAa?$AAf?$AAr?$AAi?$AAc?$AAa@ 1006357c     libucrt:get_qualified_locale.obj
 0002:00004598       ??_C@_1BI@NAEOODKB@?$AAs?$AAo?$AAu?$AAt?$AAh?$AA?5?$AAk?$AAo?$AAr?$AAe?$AAa@ 10063598     libucrt:get_qualified_locale.obj
 0002:000045b0       ??_C@_1BK@FBDGGIFF@?$AAs?$AAo?$AAu?$AAt?$AAh?$AA?9?$AAa?$AAf?$AAr?$AAi?$AAc?$AAa@ 100635b0     libucrt:get_qualified_locale.obj
 0002:000045cc       ??_C@_1BI@GHLEJDPK@?$AAs?$AAo?$AAu?$AAt?$AAh?$AA?9?$AAk?$AAo?$AAr?$AAe?$AAa@ 100635cc     libucrt:get_qualified_locale.obj
 0002:000045e4       ??_C@_1CE@PLHLOMJF@?$AAt?$AAr?$AAi?$AAn?$AAi?$AAd?$AAa?$AAd?$AA?5?$AA?$CG?$AA?5?$AAt?$AAo?$AAb?$AAa@ 100635e4     libucrt:get_qualified_locale.obj
 0002:00004608       ??_C@_1BO@MODIMHHI@?$AAu?$AAn?$AAi?$AAt?$AAe?$AAd?$AA?9?$AAk?$AAi?$AAn?$AAg?$AAd?$AAo?$AAm@ 10063608     libucrt:get_qualified_locale.obj
 0002:00004628       ??_C@_1BM@FFHJONBJ@?$AAu?$AAn?$AAi?$AAt?$AAe?$AAd?$AA?9?$AAs?$AAt?$AAa?$AAt?$AAe?$AAs@ 10063628     libucrt:get_qualified_locale.obj
 0002:00004644       ??_C@_19MPDNHKDG@?$AAu?$AAt?$AAf?$AA8@ 10063644     libucrt:get_qualified_locale.obj
 0002:00004650       ??_C@_17DNCLJFIF@?$AAA?$AAC?$AAP@ 10063650     libucrt:get_qualified_locale.obj
 0002:00004658       ??_C@_1M@FPEIIFAM@?$AAu?$AAt?$AAf?$AA?9?$AA8@ 10063658     libucrt:get_qualified_locale.obj
 0002:00004664       ??_C@_17CIKBIHLH@?$AAO?$AAC?$AAP@ 10063664     libucrt:get_qualified_locale.obj
 0002:0000466c       ___rglangidNotDefault      1006366c     libucrt:getqloc_downlevel.obj
 0002:00004da0       ??_C@_15EMKDOKLE@?$AAa?$AAr@ 10063da0     libucrt:lcidtoname_downlevel.obj
 0002:00004da8       ??_C@_15KNPADPLH@?$AAb?$AAg@ 10063da8     libucrt:lcidtoname_downlevel.obj
 0002:00004db0       ??_C@_15EDMHLDMO@?$AAc?$AAa@ 10063db0     libucrt:lcidtoname_downlevel.obj
 0002:00004db8       ??_C@_1O@BPEAJADD@?$AAz?$AAh?$AA?9?$AAC?$AAH?$AAS@ 10063db8     libucrt:lcidtoname_downlevel.obj
 0002:00004dc8       ??_C@_15LJNHCMNK@?$AAc?$AAs@ 10063dc8     libucrt:lcidtoname_downlevel.obj
 0002:00004dd0       ??_C@_15FOMCIDHG@?$AAd?$AAa@ 10063dd0     libucrt:lcidtoname_downlevel.obj
 0002:00004dd8       ??_C@_15NBKABECB@?$AAd?$AAe@ 10063dd8     libucrt:lcidtoname_downlevel.obj
 0002:00004de0       ??_C@_15GHPEIIAO@?$AAe?$AAl@ 10063de0     libucrt:lcidtoname_downlevel.obj
 0002:00004de8       ??_C@_15MNPNEAIF@?$AAe?$AAn@ 10063de8     libucrt:lcidtoname_downlevel.obj
 0002:00004df0       ??_C@_15GPIOMPMH@?$AAe?$AAs@ 10063df0     libucrt:lcidtoname_downlevel.obj
 0002:00004df8       ??_C@_15NGLOAKJC@?$AAf?$AAi@ 10063df8     libucrt:lcidtoname_downlevel.obj
 0002:00004e00       ??_C@_15FBKGNKAM@?$AAf?$AAr@ 10063e00     libucrt:lcidtoname_downlevel.obj
 0002:00004e08       ??_C@_15KGGCNEFK@?$AAh?$AAe@ 10063e08     libucrt:lcidtoname_downlevel.obj
 0002:00004e10       ??_C@_15PGHLIDMF@?$AAh?$AAu@ 10063e10     libucrt:lcidtoname_downlevel.obj
 0002:00004e18       ??_C@_15BIEMAPLM@?$AAi?$AAs@ 10063e18     libucrt:lcidtoname_downlevel.obj
 0002:00004e20       ??_C@_15IFJLDHAF@?$AAi?$AAt@ 10063e20     libucrt:lcidtoname_downlevel.obj
 0002:00004e28       ??_C@_15GEMIOCAG@?$AAj?$AAa@ 10063e28     libucrt:lcidtoname_downlevel.obj
 0002:00004e30       ??_C@_15EPELEGJA@?$AAk?$AAo@ 10063e30     libucrt:lcidtoname_downlevel.obj
 0002:00004e38       ??_C@_15NDDHIMN@?$AAn?$AAl@ 10063e38     libucrt:lcidtoname_downlevel.obj
 0002:00004e40       ??_C@_15BPIGNHCD@?$AAn?$AAo@ 10063e40     libucrt:lcidtoname_downlevel.obj
 0002:00004e48       ??_C@_15DEOPBLCG@?$AAp?$AAl@ 10063e48     libucrt:lcidtoname_downlevel.obj
 0002:00004e50       ??_C@_15KBECGEFG@?$AAp?$AAt@ 10063e50     libucrt:lcidtoname_downlevel.obj
 0002:00004e58       ??_C@_15GLJCBFMD@?$AAr?$AAo@ 10063e58     libucrt:lcidtoname_downlevel.obj
 0002:00004e60       ??_C@_15FEDGKCDI@?$AAr?$AAu@ 10063e60     libucrt:lcidtoname_downlevel.obj
 0002:00004e68       ??_C@_15GLKMLLHM@?$AAh?$AAr@ 10063e68     libucrt:lcidtoname_downlevel.obj
 0002:00004e70       ??_C@_15CPKMFBDB@?$AAs?$AAk@ 10063e70     libucrt:lcidtoname_downlevel.obj
 0002:00004e78       ??_C@_15BAAIOGMK@?$AAs?$AAq@ 10063e78     libucrt:lcidtoname_downlevel.obj
 0002:00004e80       ??_C@_15INNPNOHD@?$AAs?$AAv@ 10063e80     libucrt:lcidtoname_downlevel.obj
 0002:00004e88       ??_C@_15CABMMOGH@?$AAt?$AAh@ 10063e88     libucrt:lcidtoname_downlevel.obj
 0002:00004e90       ??_C@_15BPLIHJJM@?$AAt?$AAr@ 10063e90     libucrt:lcidtoname_downlevel.obj
 0002:00004e98       ??_C@_15NEOEKKDJ@?$AAu?$AAr@ 10063e98     libucrt:lcidtoname_downlevel.obj
 0002:00004ea0       ??_C@_15NFICGAJK@?$AAi?$AAd@ 10063ea0     libucrt:lcidtoname_downlevel.obj
 0002:00004ea8       ??_C@_15HPJPHDM@?$AAb?$AAe@ 10063ea8     libucrt:lcidtoname_downlevel.obj
 0002:00004eb0       ??_C@_15LCHLGJII@?$AAs?$AAl@ 10063eb0     libucrt:lcidtoname_downlevel.obj
 0002:00004eb8       ??_C@_15PCFJPHHO@?$AAe?$AAt@ 10063eb8     libucrt:lcidtoname_downlevel.obj
 0002:00004ec0       ??_C@_15HPFPGODN@?$AAl?$AAv@ 10063ec0     libucrt:lcidtoname_downlevel.obj
 0002:00004ec8       ??_C@_15NFFGKGLG@?$AAl?$AAt@ 10063ec8     libucrt:lcidtoname_downlevel.obj
 0002:00004ed0       ??_C@_15BDAKCCHN@?$AAf?$AAa@ 10063ed0     libucrt:lcidtoname_downlevel.obj
 0002:00004ed8       ??_C@_15NFGIAIAJ@?$AAv?$AAi@ 10063ed8     libucrt:lcidtoname_downlevel.obj
 0002:00004ee0       ??_C@_15LMKNDMHN@?$AAh?$AAy@ 10063ee0     libucrt:lcidtoname_downlevel.obj
 0002:00004ee8       ??_C@_15IJBHMCFL@?$AAa?$AAz@ 10063ee8     libucrt:lcidtoname_downlevel.obj
 0002:00004ef0       ??_C@_15EKOFJABL@?$AAe?$AAu@ 10063ef0     libucrt:lcidtoname_downlevel.obj
 0002:00004ef8       ??_C@_15BGHADCNK@?$AAm?$AAk@ 10063ef8     libucrt:lcidtoname_downlevel.obj
 0002:00004f00       ??_C@_15JDNICKHM@?$AAa?$AAf@ 10063f00     libucrt:lcidtoname_downlevel.obj
 0002:00004f08       ??_C@_15KPJEDBKD@?$AAk?$AAa@ 10063f08     libucrt:lcidtoname_downlevel.obj
 0002:00004f10       ??_C@_15PDNFFFEO@?$AAf?$AAo@ 10063f10     libucrt:lcidtoname_downlevel.obj
 0002:00004f18       ??_C@_15OMLEGLOC@?$AAh?$AAi@ 10063f18     libucrt:lcidtoname_downlevel.obj
 0002:00004f20       ??_C@_15IDNNENKK@?$AAm?$AAs@ 10063f20     libucrt:lcidtoname_downlevel.obj
 0002:00004f28       ??_C@_15MACJNBMH@?$AAk?$AAk@ 10063f28     libucrt:lcidtoname_downlevel.obj
 0002:00004f30       ??_C@_15DKDJEOND@?$AAk?$AAy@ 10063f30     libucrt:lcidtoname_downlevel.obj
 0002:00004f38       ??_C@_15DFGDLJBG@?$AAs?$AAw@ 10063f38     libucrt:lcidtoname_downlevel.obj
 0002:00004f40       ??_C@_15BBFAICNG@?$AAu?$AAz@ 10063f40     libucrt:lcidtoname_downlevel.obj
 0002:00004f48       ??_C@_15DKNDCGEA@?$AAt?$AAt@ 10063f48     libucrt:lcidtoname_downlevel.obj
 0002:00004f50       ??_C@_15MGIFMDPL@?$AAp?$AAa@ 10063f50     libucrt:lcidtoname_downlevel.obj
 0002:00004f58       ??_C@_15HCNDBBA@?$AAg?$AAu@ 10063f58     libucrt:lcidtoname_downlevel.obj
 0002:00004f60       ??_C@_15FNBEIBON@?$AAt?$AAa@ 10063f60     libucrt:lcidtoname_downlevel.obj
 0002:00004f68       ??_C@_15NCHGBGLK@?$AAt?$AAe@ 10063f68     libucrt:lcidtoname_downlevel.obj
 0002:00004f70       ??_C@_15PHPHCBPF@?$AAk?$AAn@ 10063f70     libucrt:lcidtoname_downlevel.obj
 0002:00004f78       ??_C@_15DLGBCKMP@?$AAm?$AAr@ 10063f78     libucrt:lcidtoname_downlevel.obj
 0002:00004f80       ??_C@_15EABBLBFF@?$AAs?$AAa@ 10063f80     libucrt:lcidtoname_downlevel.obj
 0002:00004f88       ??_C@_15CBKOMCOI@?$AAm?$AAn@ 10063f88     libucrt:lcidtoname_downlevel.obj
 0002:00004f90       ??_C@_15CKDMCJAF@?$AAg?$AAl@ 10063f90     libucrt:lcidtoname_downlevel.obj
 0002:00004f98       ??_C@_17CNJFBPG@?$AAk?$AAo?$AAk@ 10063f98     libucrt:lcidtoname_downlevel.obj
 0002:00004fa0       ??_C@_17FFBJICPL@?$AAs?$AAy?$AAr@ 10063fa0     libucrt:lcidtoname_downlevel.obj
 0002:00004fa8       ??_C@_17KPNDCPAF@?$AAd?$AAi?$AAv@ 10063fa8     libucrt:lcidtoname_downlevel.obj
 0002:00004fb0       ??_C@_11LOCGONAA@@         10063fb0     libucrt:lcidtoname_downlevel.obj
 0002:00004fb4       ??_C@_1M@OKAHONE@?$AAa?$AAr?$AA?9?$AAS?$AAA@ 10063fb4     libucrt:lcidtoname_downlevel.obj
 0002:00004fc0       ??_C@_1M@FFFIGIGK@?$AAb?$AAg?$AA?9?$AAB?$AAG@ 10063fc0     libucrt:lcidtoname_downlevel.obj
 0002:00004fcc       ??_C@_1M@BJNKEDC@?$AAc?$AAa?$AA?9?$AAE?$AAS@ 10063fcc     libucrt:lcidtoname_downlevel.obj
 0002:00004fd8       ??_C@_1M@IJJHFJHA@?$AAc?$AAs?$AA?9?$AAC?$AAZ@ 10063fd8     libucrt:lcidtoname_downlevel.obj
 0002:00004fe4       ??_C@_1M@CLPEOBGI@?$AAd?$AAa?$AA?9?$AAD?$AAK@ 10063fe4     libucrt:lcidtoname_downlevel.obj
 0002:00004ff0       ??_C@_1M@MCMADGCB@?$AAd?$AAe?$AA?9?$AAD?$AAE@ 10063ff0     libucrt:lcidtoname_downlevel.obj
 0002:00004ffc       ??_C@_1M@OOCKEMAM@?$AAe?$AAl?$AA?9?$AAG?$AAR@ 10063ffc     libucrt:lcidtoname_downlevel.obj
 0002:00005008       ??_C@_1M@DDNJFGID@?$AAf?$AAi?$AA?9?$AAF?$AAI@ 10064008     libucrt:lcidtoname_downlevel.obj
 0002:00005014       ??_C@_1M@GLIPPMAC@?$AAf?$AAr?$AA?9?$AAF?$AAR@ 10064014     libucrt:lcidtoname_downlevel.obj
 0002:00005020       ??_C@_1M@GFMCHPE@?$AAh?$AAe?$AA?9?$AAI?$AAL@ 10064020     libucrt:lcidtoname_downlevel.obj
 0002:0000502c       ??_C@_1M@MHLPGNKM@?$AAh?$AAu?$AA?9?$AAH?$AAU@ 1006402c     libucrt:lcidtoname_downlevel.obj
 0002:00005038       ??_C@_1M@LPDDNNPN@?$AAi?$AAs?$AA?9?$AAI?$AAS@ 10064038     libucrt:lcidtoname_downlevel.obj
 0002:00005044       ??_C@_1M@MADIPODN@?$AAi?$AAt?$AA?9?$AAI?$AAT@ 10064044     libucrt:lcidtoname_downlevel.obj
 0002:00005050       ??_C@_1M@IHBJJGG@?$AAn?$AAl?$AA?9?$AAN?$AAL@ 10064050     libucrt:lcidtoname_downlevel.obj
 0002:0000505c       ??_C@_1M@EANAGDL@?$AAn?$AAb?$AA?9?$AAN?$AAO@ 1006405c     libucrt:lcidtoname_downlevel.obj
 0002:00005068       ??_C@_1M@NEIEMEGP@?$AAp?$AAl?$AA?9?$AAP?$AAL@ 10064068     libucrt:lcidtoname_downlevel.obj
 0002:00005074       ??_C@_1M@BOCFIGEP@?$AAp?$AAt?$AA?9?$AAB?$AAR@ 10064074     libucrt:lcidtoname_downlevel.obj
 0002:00005080       ??_C@_1M@IMPFOPBG@?$AAr?$AAo?$AA?9?$AAR?$AAO@ 10064080     libucrt:lcidtoname_downlevel.obj
 0002:0000508c       ??_C@_1M@IDNNEJMM@?$AAr?$AAu?$AA?9?$AAR?$AAU@ 1006408c     libucrt:lcidtoname_downlevel.obj
 0002:00005098       ??_C@_1M@LILEEOGM@?$AAh?$AAr?$AA?9?$AAH?$AAR@ 10064098     libucrt:lcidtoname_downlevel.obj
 0002:000050a4       ??_C@_1M@FKIFEHPB@?$AAs?$AAk?$AA?9?$AAS?$AAK@ 100640a4     libucrt:lcidtoname_downlevel.obj
 0002:000050b0       ??_C@_1M@LJMAMNPJ@?$AAs?$AAq?$AA?9?$AAA?$AAL@ 100640b0     libucrt:lcidtoname_downlevel.obj
 0002:000050bc       ??_C@_1M@GIAKDKJK@?$AAs?$AAv?$AA?9?$AAS?$AAE@ 100640bc     libucrt:lcidtoname_downlevel.obj
 0002:000050c8       ??_C@_1M@MKJKIKCL@?$AAt?$AAh?$AA?9?$AAT?$AAH@ 100640c8     libucrt:lcidtoname_downlevel.obj
 0002:000050d4       ??_C@_1M@MFLCCMPB@?$AAt?$AAr?$AA?9?$AAT?$AAR@ 100640d4     libucrt:lcidtoname_downlevel.obj
 0002:000050e0       ??_C@_1M@OIJHDKJN@?$AAu?$AAr?$AA?9?$AAP?$AAK@ 100640e0     libucrt:lcidtoname_downlevel.obj
 0002:000050ec       ??_C@_1M@LHIPCIEK@?$AAi?$AAd?$AA?9?$AAI?$AAD@ 100640ec     libucrt:lcidtoname_downlevel.obj
 0002:000050f8       ??_C@_1M@MFMOBGI@?$AAu?$AAk?$AA?9?$AAU?$AAA@ 100640f8     libucrt:lcidtoname_downlevel.obj
 0002:00005104       ??_C@_1M@OBGLJIPL@?$AAb?$AAe?$AA?9?$AAB?$AAY@ 10064104     libucrt:lcidtoname_downlevel.obj
 0002:00005110       ??_C@_1M@BCFAJEAD@?$AAs?$AAl?$AA?9?$AAS?$AAI@ 10064110     libucrt:lcidtoname_downlevel.obj
 0002:0000511c       ??_C@_1M@FKFFEDDN@?$AAe?$AAt?$AA?9?$AAE?$AAE@ 1006411c     libucrt:lcidtoname_downlevel.obj
 0002:00005128       ??_C@_1M@KGKKAACI@?$AAl?$AAv?$AA?9?$AAL?$AAV@ 10064128     libucrt:lcidtoname_downlevel.obj
 0002:00005134       ??_C@_1M@IFGBIJO@?$AAl?$AAt?$AA?9?$AAL?$AAT@ 10064134     libucrt:lcidtoname_downlevel.obj
 0002:00005140       ??_C@_1M@FGEAHEDM@?$AAf?$AAa?$AA?9?$AAI?$AAR@ 10064140     libucrt:lcidtoname_downlevel.obj
 0002:0000514c       ??_C@_1M@KBMAIBFN@?$AAv?$AAi?$AA?9?$AAV?$AAN@ 1006414c     libucrt:lcidtoname_downlevel.obj
 0002:00005158       ??_C@_1M@GPCBKDJK@?$AAh?$AAy?$AA?9?$AAA?$AAM@ 10064158     libucrt:lcidtoname_downlevel.obj
 0002:00005164       ??_C@_1BG@BECMDDJB@?$AAa?$AAz?$AA?9?$AAA?$AAZ?$AA?9?$AAL?$AAa?$AAt?$AAn@ 10064164     libucrt:lcidtoname_downlevel.obj
 0002:0000517c       ??_C@_1M@MAOFCAEA@?$AAe?$AAu?$AA?9?$AAE?$AAS@ 1006417c     libucrt:lcidtoname_downlevel.obj
 0002:00005188       ??_C@_1M@IGHABKPI@?$AAm?$AAk?$AA?9?$AAM?$AAK@ 10064188     libucrt:lcidtoname_downlevel.obj
 0002:00005194       ??_C@_1M@IAIGNEJG@?$AAt?$AAn?$AA?9?$AAZ?$AAA@ 10064194     libucrt:lcidtoname_downlevel.obj
