 zlibwapi

 Timestamp is 64c5fb9b (Sun Jul 30 17:56:43 2023)

 Preferred load address is 10000000

 Start         Length     Name                   Class
 0001:00000000 0005dcadH .text$mn                CODE
 0001:0005dcad 000001d7H .text$x                 CODE
 0002:00000000 00000154H .idata$5                DATA
 0002:00000154 0000000cH .00cfg                  DATA
 0002:00000160 00000004H .CRT$XCA                DATA
 0002:00000164 00000004H .CRT$XCZ                DATA
 0002:00000168 00000004H .CRT$XIA                DATA
 0002:0000016c 00000010H .CRT$XIC                DATA
 0002:0000017c 00000004H .CRT$XIZ                DATA
 0002:00000180 00000004H .CRT$XPA                DATA
 0002:00000184 00000008H .CRT$XPX                DATA
 0002:0000018c 00000004H .CRT$XPXA               DATA
 0002:00000190 00000004H .CRT$XPZ                DATA
 0002:00000194 00000004H .CRT$XTA                DATA
 0002:00000198 00000008H .CRT$XTZ                DATA
 0002:0000019c 00000000H .gfids$y                DATA
 0002:000001a0 0000c8e0H .rdata                  DATA
 0002:0000ca80 00000040H .rdata$CastGuardVftablesA DATA
 0002:0000cac0 00000040H .rdata$CastGuardVftablesC DATA
 0002:0000cb00 000002a0H .rdata$r                DATA
 0002:0000cda0 000004c0H .rdata$voltmd           DATA
 0002:0000d260 00000390H .rdata$zzzdbg           DATA
 0002:0000d5f0 00000004H .rtc$IAA                DATA
 0002:0000d5f4 00000004H .rtc$IZZ                DATA
 0002:0000d5f8 00000004H .rtc$TAA                DATA
 0002:0000d5fc 00000004H .rtc$TZZ                DATA
 0002:0000d600 00000c30H .xdata$x                DATA
 0002:0000e230 00000d50H .edata                  DATA
 0002:0000ef80 00000014H .idata$2                DATA
 0002:0000ef94 00000014H .idata$3                DATA
 0002:0000efa8 00000154H .idata$4                DATA
 0002:0000f0fc 0000062cH .idata$6                DATA
 0003:00000000 000008b0H .data                   DATA
 0003:000008b0 00000058H .data$r                 DATA
 0003:00000908 000000b8H .data$rs                DATA
 0003:000009c0 000012e0H .bss                    DATA
 0004:00000000 00000060H .rsrc$01                DATA
 0004:00000060 00000340H .rsrc$02                DATA

  Address         Publics by Value              Rva+Base       Lib:Object

 0000:00000000       ___AbsoluteZero            00000000     <absolute>
 0000:00000000       ___arm64x_extra_rfe_table  00000000     <absolute>
 0000:00000000       ___arm64x_extra_rfe_table_size 00000000     <absolute>
 0000:00000000       ___arm64x_native_entrypoint 00000000     <absolute>
 0000:00000000       ___arm64x_redirection_metadata 00000000     <absolute>
 0000:00000000       ___arm64x_redirection_metadata_count 00000000     <absolute>
 0000:00000000       ___dynamic_value_reloc_table 00000000     <absolute>
 0000:00000000       ___enclave_config          00000000     <absolute>
 0000:00000000       ___guard_check_icall_a64n_fptr 00000000     <absolute>
 0000:00000000       ___guard_eh_cont_count     00000000     <absolute>
 0000:00000000       ___guard_eh_cont_table     00000000     <absolute>
 0000:00000000       ___guard_fids_count        00000000     <absolute>
 0000:00000000       ___guard_fids_table        00000000     <absolute>
 0000:00000000       ___guard_iat_count         00000000     <absolute>
 0000:00000000       ___guard_iat_table         00000000     <absolute>
 0000:00000000       ___guard_longjmp_count     00000000     <absolute>
 0000:00000000       ___guard_longjmp_table     00000000     <absolute>
 0000:00000000       ___hybrid_auxiliary_delayload_iat 00000000     <absolute>
 0000:00000000       ___hybrid_auxiliary_delayload_iat_copy 00000000     <absolute>
 0000:00000000       ___hybrid_auxiliary_iat    00000000     <absolute>
 0000:00000000       ___hybrid_auxiliary_iat_copy 00000000     <absolute>
 0000:00000000       ___hybrid_code_map         00000000     <absolute>
 0000:00000000       ___hybrid_code_map_count   00000000     <absolute>
 0000:00000000       ___safe_se_handler_count   00000000     <absolute>
 0000:00000000       ___safe_se_handler_table   00000000     <absolute>
 0000:00000000       ___x64_code_ranges_to_entry_points 00000000     <absolute>
 0000:00000000       ___x64_code_ranges_to_entry_points_count 00000000     <absolute>
 0000:00000000       __except_list              00000000     <absolute>
 0000:00000100       ___guard_flags             00000100     <absolute>
 0000:00000000       ___ImageBase               10000000     <linker-defined>
 0001:00000000       _adler32_z@12              10001000 f   adler32.obj
 0001:00000280       _adler32@12                10001280 f   adler32.obj
 0001:000003c0       _adler32_combine@12        100013c0 f   adler32.obj
 0001:000003e0       _compress2@20              100013e0 f   compress.obj
 0001:000004c0       _compress@16               100014c0 f   compress.obj
 0001:000004e0       _compressBound@4           100014e0 f   compress.obj
 0001:000005b0       _get_crc_table@0           100015b0 f   crc32.obj
 0001:00000650       _crc32_z@12                10001650 f   crc32.obj
 0001:00000970       _crc32@12                  10001970 f   crc32.obj
 0001:00000980       _crc32_combine64@16        10001980 f   crc32.obj
 0001:000009b0       _crc32_combine@12          100019b0 f   crc32.obj
 0001:000009d0       _crc32_combine_gen64@8     100019d0 f   crc32.obj
 0001:000009f0       _crc32_combine_gen@4       100019f0 f   crc32.obj
 0001:00000a10       _crc32_combine_op@12       10001a10 f   crc32.obj
 0001:00000cd0       _deflateInit_@16           10001cd0 f   deflate.obj
 0001:00000cf0       _deflateInit2_@32          10001cf0 f   deflate.obj
 0001:00000f90       _deflateSetDictionary@12   10001f90 f   deflate.obj
 0001:00001130       _deflateGetDictionary@12   10002130 f   deflate.obj
 0001:00001190       _deflateResetKeep@4        10002190 f   deflate.obj
 0001:000012e0       _deflateReset@4            100022e0 f   deflate.obj
 0001:00001310       _deflateSetHeader@8        10002310 f   deflate.obj
 0001:00001340       _deflatePending@12         10002340 f   deflate.obj
 0001:00001380       _deflatePrime@12           10002380 f   deflate.obj
 0001:00001420       _deflateParams@12          10002420 f   deflate.obj
 0001:00001570       _deflateTune@20            10002570 f   deflate.obj
 0001:000015c0       _deflateBound@8            100025c0 f   deflate.obj
 0001:00001770       _deflate@8                 10002770 f   deflate.obj
 0001:000020a0       _deflateEnd@4              100030a0 f   deflate.obj
 0001:00002150       _deflateCopy@8             10003150 f   deflate.obj
 0001:000033f0       _gzclose@4                 100043f0 f   gzclose.obj
 0001:00003420       ___local_stdio_printf_options 10004420 f i gzlib.obj
 0001:00003430       _vsnprintf                 10004430 f i gzlib.obj
 0001:00003470       _snprintf                  10004470 f i gzlib.obj
 0001:00003820       _gzopen@8                  10004820 f   gzlib.obj
 0001:00003840       _gzdopen@8                 10004840 f   gzlib.obj
 0001:000038a0       _gzopen_w@8                100048a0 f   gzlib.obj
 0001:000038c0       _gzbuffer@8                100048c0 f   gzlib.obj
 0001:00003910       _gzrewind@4                10004910 f   gzlib.obj
 0001:00003970       _gzseek64@16               10004970 f   gzlib.obj
 0001:00003b20       _gzseek@12                 10004b20 f   gzlib.obj
 0001:00003b60       _gztell64@4                10004b60 f   gzlib.obj
 0001:00003bc0       _gztell@4                  10004bc0 f   gzlib.obj
 0001:00003bf0       _gzoffset64@4              10004bf0 f   gzlib.obj
 0001:00003c40       _gzoffset@4                10004c40 f   gzlib.obj
 0001:00003c70       _gzeof@4                   10004c70 f   gzlib.obj
 0001:00003ca0       _gzerror@8                 10004ca0 f   gzlib.obj
 0001:00003cf0       _gzclearerr@4              10004cf0 f   gzlib.obj
 0001:00003d40       _gz_error                  10004d40 f   gzlib.obj
 0001:00004410       _gzread@12                 10005410 f   gzread.obj
 0001:00004480       _gzfread@16                10005480 f   gzread.obj
 0001:00004500       _gzgetc@4                  10005500 f   gzread.obj
 0001:00004570       _gzgetc_@4                 10005570 f   gzread.obj
 0001:00004580       _gzungetc@8                10005580 f   gzread.obj
 0001:00004680       _gzgets@12                 10005680 f   gzread.obj
 0001:000047a0       _gzdirect@4                100057a0 f   gzread.obj
 0001:000047e0       _gzclose_r@4               100057e0 f   gzread.obj
 0001:00004c70       _gzwrite@12                10005c70 f   gzwrite.obj
 0001:00004cc0       _gzfwrite@16               10005cc0 f   gzwrite.obj
 0001:00004d30       _gzputc@8                  10005d30 f   gzwrite.obj
 0001:00004df0       _gzputs@8                  10005df0 f   gzwrite.obj
 0001:00004e60       _gzvprintf                 10005e60 f   gzwrite.obj
 0001:00004f90       _gzprintf                  10005f90 f   gzwrite.obj
 0001:00004fb0       _gzflush@8                 10005fb0 f   gzwrite.obj
 0001:00005020       _gzsetparams@12            10006020 f   gzwrite.obj
 0001:000050e0       _gzclose_w@4               100060e0 f   gzwrite.obj
 0001:000051b0       _inflateBackInit_@20       100061b0 f   infback.obj
 0001:000052c0       _inflateBack@20            100062c0 f   infback.obj
 0001:00006040       _inflateBackEnd@4          10007040 f   infback.obj
 0001:00006080       _inflate_fast              10007080 f   inffast.obj
 0001:000064f0       _inflateResetKeep@4        100074f0 f   inflate.obj
 0001:000065a0       _inflateReset@4            100075a0 f   inflate.obj
 0001:000065e0       _inflateReset2@8           100075e0 f   inflate.obj
 0001:00006670       _inflateInit2_@16          10007670 f   inflate.obj
 0001:00006740       _inflateInit_@12           10007740 f   inflate.obj
 0001:00006760       _inflatePrime@12           10007760 f   inflate.obj
 0001:00006900       _inflate@8                 10007900 f   inflate.obj
 0001:00008070       _inflateEnd@4              10009070 f   inflate.obj
 0001:000080d0       _inflateGetDictionary@12   100090d0 f   inflate.obj
 0001:00008140       _inflateSetDictionary@12   10009140 f   inflate.obj
 0001:000081e0       _inflateGetHeader@8        100091e0 f   inflate.obj
 0001:000082a0       _inflateSync@4             100092a0 f   inflate.obj
 0001:000083c0       _inflateSyncPoint@4        100093c0 f   inflate.obj
 0001:00008400       _inflateCopy@8             10009400 f   inflate.obj
 0001:00008560       _inflateUndermine@8        10009560 f   inflate.obj
 0001:00008590       _inflateValidate@8         10009590 f   inflate.obj
 0001:000085d0       _inflateMark@4             100095d0 f   inflate.obj
 0001:00008640       _inflateCodesUsed@4        10009640 f   inflate.obj
 0001:00008670       _inflate_table             10009670 f   inftrees.obj
 0001:00008b50       _call_zopen64              10009b50 f   ioapi.obj
 0001:00008b70       _call_zseek64              10009b70 f   ioapi.obj
 0001:00008bc0       _call_ztell64              10009bc0 f   ioapi.obj
 0001:00008bf0       _fill_zlib_filefunc64_32_def_from_filefunc32 10009bf0 f   ioapi.obj
 0001:00008e00       _fill_fopen64_filefunc     10009e00 f   ioapi.obj
 0001:00008ef0       _win32_open64_file_func    10009ef0 f   iowin32.obj
 0001:00008f50       _win32_open64_file_funcA   10009f50 f   iowin32.obj
 0001:00008fb0       _win32_open64_file_funcW   10009fb0 f   iowin32.obj
 0001:00009010       _win32_open_file_func      1000a010 f   iowin32.obj
 0001:00009070       _win32_read_file_func      1000a070 f   iowin32.obj
 0001:000090c0       _win32_write_file_func     1000a0c0 f   iowin32.obj
 0001:00009170       _win32_tell_file_func      1000a170 f   iowin32.obj
 0001:000091c0       _win32_tell64_file_func    1000a1c0 f   iowin32.obj
 0001:00009220       _win32_seek_file_func      1000a220 f   iowin32.obj
 0001:00009290       _win32_seek64_file_func    1000a290 f   iowin32.obj
 0001:00009310       _win32_close_file_func     1000a310 f   iowin32.obj
 0001:00009340       _win32_error_file_func     1000a340 f   iowin32.obj
 0001:00009360       _fill_win32_filefunc       1000a360 f   iowin32.obj
 0001:000093a0       _fill_win32_filefunc64     1000a3a0 f   iowin32.obj
 0001:000093e0       _fill_win32_filefunc64A    1000a3e0 f   iowin32.obj
 0001:00009420       _fill_win32_filefunc64W    1000a420 f   iowin32.obj
 0001:00009670       __tr_init                  1000a670 f   trees.obj
 0001:0000a550       __tr_stored_block          1000b550 f   trees.obj
 0001:0000a650       __tr_flush_bits            1000b650 f   trees.obj
 0001:0000a660       __tr_align                 1000b660 f   trees.obj
 0001:0000abf0       __tr_flush_block           1000bbf0 f   trees.obj
 0001:0000ae10       _uncompress2@16            1000be10 f   uncompr.obj
 0001:0000af40       _uncompress@16             1000bf40 f   uncompr.obj
 0001:0000b2c0       _unzStringFileNameCompare@12 1000c2c0 f   unzip.obj
 0001:0000bbb0       _unzOpen2@8                1000cbb0 f   unzip.obj
 0001:0000bc00       _unzOpen2_64@8             1000cc00 f   unzip.obj
 0001:0000bc60       _unzOpen@4                 1000cc60 f   unzip.obj
 0001:0000bc80       _unzOpen64@4               1000cc80 f   unzip.obj
 0001:0000bca0       _unzClose@4                1000cca0 f   unzip.obj
 0001:0000bce0       _unzGetGlobalInfo64@8      1000cce0 f   unzip.obj
 0001:0000bd10       _unzGetGlobalInfo@8        1000cd10 f   unzip.obj
 0001:0000c390       _unzGetCurrentFileInfo64@32 1000d390 f   unzip.obj
 0001:0000c3c0       _unzGetCurrentFileInfo@32  1000d3c0 f   unzip.obj
 0001:0000c480       _unzGoToFirstFile@4        1000d480 f   unzip.obj
 0001:0000c4f0       _unzGoToNextFile@4         1000d4f0 f   unzip.obj
 0001:0000c5a0       _unzLocateFile@12          1000d5a0 f   unzip.obj
 0001:0000c750       _unzGetFilePos64@8         1000d750 f   unzip.obj
 0001:0000c7a0       _unzGetFilePos@8           1000d7a0 f   unzip.obj
 0001:0000c7d0       _unzGoToFilePos64@8        1000d7d0 f   unzip.obj
 0001:0000c840       _unzGoToFilePos@8          1000d840 f   unzip.obj
 0001:0000cae0       _unzOpenCurrentFile3@20    1000dae0 f   unzip.obj
 0001:0000cd70       _unzOpenCurrentFile@4      1000dd70 f   unzip.obj
 0001:0000cd90       _unzOpenCurrentFilePassword@8 1000dd90 f   unzip.obj
 0001:0000cdb0       _unzOpenCurrentFile2@16    1000ddb0 f   unzip.obj
 0001:0000cdd0       _unzGetCurrentFileZStreamPos64@4 1000ddd0 f   unzip.obj
 0001:0000ce10       _unzReadCurrentFile@12     1000de10 f   unzip.obj
 0001:0000d0e0       _unztell@4                 1000e0e0 f   unzip.obj
 0001:0000d110       _unztell64@4               1000e110 f   unzip.obj
 0001:0000d140       _unzeof@4                  1000e140 f   unzip.obj
 0001:0000d180       _unzGetLocalExtrafield@12  1000e180 f   unzip.obj
 0001:0000d250       _unzCloseCurrentFile@4     1000e250 f   unzip.obj
 0001:0000d2e0       _unzGetGlobalComment@12    1000e2e0 f   unzip.obj
 0001:0000e3c0       _zipOpen3@16               1000f3c0 f   zip.obj
 0001:0000e530       _zipOpen2@16               1000f530 f   zip.obj
 0001:0000e580       _zipOpen2_64@16            1000f580 f   zip.obj
 0001:0000e5e0       _zipOpen@8                 1000f5e0 f   zip.obj
 0001:0000e600       _zipOpen64@8               1000f600 f   zip.obj
 0001:0000e860       _zipOpenNewFileInZip4_64@76 1000f860 f   zip.obj
 0001:0000edb0       _zipOpenNewFileInZip3@64   1000fdb0 f   zip.obj
 0001:0000ee00       _zipOpenNewFileInZip3_64@68 1000fe00 f   zip.obj
 0001:0000ee50       _zipOpenNewFileInZip2@44   1000fe50 f   zip.obj
 0001:0000ee90       _zipOpenNewFileInZip2_64@48 1000fe90 f   zip.obj
 0001:0000eed0       _zipOpenNewFileInZip64@44  1000fed0 f   zip.obj
 0001:0000ef10       _zipOpenNewFileInZip@40    1000ff10 f   zip.obj
 0001:0000f010       _zipWriteInFileInZip@12    10010010 f   zip.obj
 0001:0000f120       _zipCloseFileInZipRaw@12   10010120 f   zip.obj
 0001:0000f140       _zipCloseFileInZipRaw64@16 10010140 f   zip.obj
 0001:0000f690       _zipCloseFileInZip@4       10010690 f   zip.obj
 0001:0000f9f0       _zipClose@8                100109f0 f   zip.obj
 0001:0000fb80       _zlibVersion@0             10010b80 f   zutil.obj
 0001:0000fb90       _zlibCompileFlags@0        10010b90 f   zutil.obj
 0001:0000fba0       _zError@4                  10010ba0 f   zutil.obj
 0001:0000fbc0       _zcalloc                   10010bc0 f   zutil.obj
 0001:0000fbe0       _zcfree                    10010be0 f   zutil.obj
 0001:0000fbf0       _ReadFile@20               10010bf0 f   kernel32:KERNEL32.dll
 0001:0000fbf6       _WriteFile@20              10010bf6 f   kernel32:KERNEL32.dll
 0001:0000fbfc       _SetFilePointer@16         10010bfc f   kernel32:KERNEL32.dll
 0001:0000fc02       _CreateFileW@28            10010c02 f   kernel32:KERNEL32.dll
 0001:0000fc08       _GetLastError@0            10010c08 f   kernel32:KERNEL32.dll
 0001:0000fc0e       _CreateFileA@28            10010c0e f   kernel32:KERNEL32.dll
 0001:0000fc14       _CloseHandle@4             10010c14 f   kernel32:KERNEL32.dll
 0001:0000ff5a       __CRT_INIT@12              10010f5a f   LIBCMT:dll_dllmain.obj
 0001:0000ff63       __DllMainCRTStartup@12     10010f63 f   LIBCMT:dll_dllmain.obj
 0001:0000ffd3       ___security_init_cookie    10010fd3 f   LIBCMT:gs_support.obj
 0001:0001001e       _DllMain@12                1001101e f   LIBCMT:dll_dllmain_stub.obj
 0001:00010024       ?__scrt_initialize_type_info@@YAXXZ 10011024 f   LIBCMT:tncleanup.obj
 0001:00010030       ?__scrt_uninitialize_type_info@@YAXXZ 10011030 f   LIBCMT:tncleanup.obj
 0001:0001003c       ___local_stdio_scanf_options 1001103c f i LIBCMT:default_local_stdio_options.obj
 0001:00010042       ___scrt_initialize_default_local_stdio_options 10011042 f   LIBCMT:default_local_stdio_options.obj
 0001:0001005f       ?configure_argv@__scrt_narrow_argv_policy@@SAHXZ 1001105f f i LIBCMT:utility.obj
 0001:000100b0       ?initialize_environment@__scrt_narrow_environment_policy@@SAHXZ 100110b0 f i LIBCMT:utility.obj
 0001:000100e8       _NtCurrentTeb              100110e8 f i LIBCMT:utility.obj
 0001:000100ef       ___scrt_acquire_startup_lock 100110ef f   LIBCMT:utility.obj
 0001:00010121       ___scrt_dllmain_after_initialize_c 10011121 f   LIBCMT:utility.obj
 0001:0001014c       ___scrt_dllmain_before_initialize_c 1001114c f   LIBCMT:utility.obj
 0001:0001015a       ___scrt_dllmain_crt_thread_attach 1001115a f   LIBCMT:utility.obj
 0001:00010179       ___scrt_dllmain_crt_thread_detach 10011179 f   LIBCMT:utility.obj
 0001:00010186       ___scrt_dllmain_exception_filter 10011186 f   LIBCMT:utility.obj
 0001:000101ba       ___scrt_dllmain_uninitialize_c 100111ba f   LIBCMT:utility.obj
 0001:000101dd       ___scrt_dllmain_uninitialize_critical 100111dd f   LIBCMT:utility.obj
 0001:000101ea       ___scrt_initialize_crt     100111ea f   LIBCMT:utility.obj
 0001:00010223       ___scrt_initialize_onexit_tables 10011223 f   LIBCMT:utility.obj
 0001:000102aa       ___scrt_is_nonwritable_in_current_image 100112aa f   LIBCMT:utility.obj
 0001:0001033e       ___scrt_release_startup_lock 1001133e f   LIBCMT:utility.obj
 0001:0001035b       ___scrt_uninitialize_crt   1001135b f   LIBCMT:utility.obj
 0001:00010383       __onexit                   10011383 f   LIBCMT:utility.obj
 0001:000103b0       _at_quick_exit             100113b0 f   LIBCMT:utility.obj
 0001:000103d3       _atexit                    100113d3 f   LIBCMT:utility.obj
 0001:000103e8       ___scrt_get_dyn_tls_init_callback 100113e8 f   LIBCMT:dyn_tls_init.obj
 0001:000103ee       ___scrt_fastfail           100113ee f   LIBCMT:utility_desktop.obj
 0001:00010509       ___scrt_get_show_window_mode 10011509 f   LIBCMT:utility_desktop.obj
 0001:0001053a       ___scrt_initialize_mta     1001153a f   LIBCMT:utility_desktop.obj
 0001:0001053f       ___scrt_initialize_winrt   1001153f f   LIBCMT:utility_desktop.obj
 0001:00010542       ___scrt_is_managed_app     10011542 f   LIBCMT:utility_desktop.obj
 0001:00010584       ___scrt_set_unhandled_exception_filter 10011584 f   LIBCMT:utility_desktop.obj
 0001:00010590       ___scrt_exe_initialize_mta 10011590 f   LIBCMT:utility_desktop.obj
 0001:00010590       ___scrt_stub_for_initialize_mta 10011590 f   LIBCMT:utility_desktop.obj
 0001:00010593       ___scrt_unhandled_exception_filter@4 10011593 f   LIBCMT:utility_desktop.obj
 0001:000105e9       __crt_debugger_hook        100115e9 f   LIBCMT:utility_desktop.obj
 0001:000105f1       __RTC_Initialize           100115f1 f   LIBCMT:initsect.obj
 0001:0001061d       __RTC_Terminate            1001161d f   LIBCMT:initsect.obj
 0001:00010650       __SEH_prolog4              10011650 f   LIBCMT:sehprolg4.obj
 0001:000106a0       __SEH_epilog4              100116a0 f   LIBCMT:sehprolg4.obj
 0001:000106b4       @_guard_check_icall_nop@4  100116b4 f i LIBCMT:guard_support.obj
 0001:000106b7       _ReadNoFence               100116b7 f i LIBCMT:guard_support.obj
 0001:000106c1       _ReadPointerNoFence        100116c1 f i LIBCMT:guard_support.obj
 0001:000106cb       __InlineInterlockedExchangePointer 100116cb f i LIBCMT:guard_support.obj
 0001:000106d8       ___castguard_check_failure_debugbreak 100116d8 f i LIBCMT:guard_support.obj
 0001:000106f3       ___castguard_check_failure_fastfail 100116f3 f i LIBCMT:guard_support.obj
 0001:00010712       ___castguard_check_failure_nop 10011712 f i LIBCMT:guard_support.obj
 0001:00010715       ___castguard_check_failure_os_handled 10011715 f i LIBCMT:guard_support.obj
 0001:00010756       ___castguard_check_failure_user_handled 10011756 f i LIBCMT:guard_support.obj
 0001:000107c4       ___castguard_set_user_handler 100117c4 f i LIBCMT:guard_support.obj
 0001:000107d3       ___castguard_slow_path_check_debugbreak 100117d3 f i LIBCMT:guard_support.obj
 0001:00010800       ___castguard_slow_path_check_fastfail 10011800 f i LIBCMT:guard_support.obj
 0001:00010831       ___castguard_slow_path_check_nop 10011831 f i LIBCMT:guard_support.obj
 0001:00010834       ___castguard_slow_path_check_os_handled 10011834 f i LIBCMT:guard_support.obj
 0001:00010875       ___castguard_slow_path_check_user_handled 10011875 f i LIBCMT:guard_support.obj
 0001:000108d6       __guard_icall_checks_enforced 100118d6 f i LIBCMT:guard_support.obj
 0001:000108e8       ___isa_available_init      100118e8 f   LIBCMT:cpu_disp.obj
 0001:00010abc       __get_startup_argv_mode    10011abc f   LIBCMT:argv_mode.obj
 0001:00010ac0       ___scrt_is_ucrt_dll_in_use 10011ac0 f   LIBCMT:ucrt_detection.obj
 0001:00010acc       @__security_check_cookie@4 10011acc f   LIBCMT:secchk.obj
 0001:00010ada       ___raise_securityfailure   10011ada f   LIBCMT:gs_report.obj
 0001:00010b02       ___report_gsfailure        10011b02 f   LIBCMT:gs_report.obj
 0001:00010bfc       ___report_rangecheckfailure 10011bfc f   LIBCMT:gs_report.obj
 0001:00010c08       ___report_securityfailure  10011c08 f   LIBCMT:gs_report.obj
 0001:00010cd7       ___report_securityfailureEx 10011cd7 f   LIBCMT:gs_report.obj
 0001:00010e30       __except_handler4          10011e30 f   libvcruntime:chandler4.obj
 0001:00010f9c       ??$?RD@__crt_internal_free_policy@@QBEXQBD@Z 10011f9c f i libvcruntime:std_type_info.obj
 0001:00010fac       ??$?RX@__crt_internal_free_policy@@QBEXQBX@Z 10011fac f i libvcruntime:std_type_info.obj
 0001:00010fbc       ??$__crt_interlocked_compare_exchange_pointer@$$CBDPAD$$T@@YAPBDPDSBDQAD$$T@Z 10011fbc f i libvcruntime:std_type_info.obj
 0001:00010fce       ??$__crt_interlocked_read_pointer@$$CBD@@YAPBDPDSBD@Z 10011fce f i libvcruntime:std_type_info.obj
 0001:00010fd9       ??0?$__crt_unique_heap_ptr@DU__crt_internal_free_policy@@@@QAE@QAD@Z 10011fd9 f i libvcruntime:std_type_info.obj
 0001:00010fe7       ??0?$__crt_unique_heap_ptr@XU__crt_internal_free_policy@@@@QAE@QAX@Z 10011fe7 f i libvcruntime:std_type_info.obj
 0001:00010ff5       ??1?$__crt_unique_heap_ptr@DU__crt_internal_free_policy@@@@QAE@XZ 10011ff5 f i libvcruntime:std_type_info.obj
 0001:00011005       ??1?$__crt_unique_heap_ptr@XU__crt_internal_free_policy@@@@QAE@XZ 10012005 f i libvcruntime:std_type_info.obj
 0001:00011015       ??B?$__crt_unique_heap_ptr@DU__crt_internal_free_policy@@@@QBE_NXZ 10012015 f i libvcruntime:std_type_info.obj
 0001:0001101c       ??B?$__crt_unique_heap_ptr@XU__crt_internal_free_policy@@@@QBE_NXZ 1001201c f i libvcruntime:std_type_info.obj
 0001:00011043       ?__crt_interlocked_read_32@@YAHPDH@Z 10012043 f i libvcruntime:std_type_info.obj
 0001:0001104e       ?detach@?$__crt_unique_heap_ptr@XU__crt_internal_free_policy@@@@QAEPAXXZ 1001204e f i libvcruntime:std_type_info.obj
 0001:00011054       ?get@?$__crt_unique_heap_ptr@DU__crt_internal_free_policy@@@@QBEPADXZ 10012054 f i libvcruntime:std_type_info.obj
 0001:00011057       ?get@?$__crt_unique_heap_ptr@XU__crt_internal_free_policy@@@@QBEPAXXZ 10012057 f i libvcruntime:std_type_info.obj
 0001:0001105a       ?is_valid@?$__crt_unique_heap_ptr@DU__crt_internal_free_policy@@@@QBE_NXZ 1001205a f i libvcruntime:std_type_info.obj
 0001:00011061       ?is_valid@?$__crt_unique_heap_ptr@XU__crt_internal_free_policy@@@@QBE_NXZ 10012061 f i libvcruntime:std_type_info.obj
 0001:00011068       ?release@?$__crt_unique_heap_ptr@DU__crt_internal_free_policy@@@@QAEXXZ 10012068 f i libvcruntime:std_type_info.obj
 0001:00011078       ?release@?$__crt_unique_heap_ptr@XU__crt_internal_free_policy@@@@QAEXXZ 10012078 f i libvcruntime:std_type_info.obj
 0001:00011088       ___std_type_info_compare   10012088 f   libvcruntime:std_type_info.obj
 0001:000110c4       ___std_type_info_destroy_list 100120c4 f   libvcruntime:std_type_info.obj
 0001:000110e7       ___std_type_info_hash      100120e7 f   libvcruntime:std_type_info.obj
 0001:0001110d       ___std_type_info_name      1001210d f   libvcruntime:std_type_info.obj
 0001:000111d3       ___vcrt_initialize         100121d3 f   libvcruntime:initialization.obj
 0001:000111f2       ___vcrt_thread_attach      100121f2 f   libvcruntime:initialization.obj
 0001:000111fd       ___vcrt_thread_detach      100121fd f   libvcruntime:initialization.obj
 0001:00011208       ___vcrt_uninitialize       10012208 f   libvcruntime:initialization.obj
 0001:0001121f       ___vcrt_uninitialize_critical 1001221f f   libvcruntime:initialization.obj
 0001:0001122a       ___DestructExceptionObject 1001222a f   libvcruntime:ehhelpers.obj
 0001:000112cb       ?_CallMemberFunction0@@YGXQAX0@Z 100122cb f i libvcruntime:ehhelpers.obj
 0001:00011330       ?raw_name@type_info@@QBEPBDXZ 10012330 f i libvcruntime:ehhelpers.obj
 0001:00011334       __IsExceptionObjectToBeDestroyed 10012334 f   libvcruntime:ehhelpers.obj
 0001:0001135a       __SetWinRTOutOfMemoryExceptionCallback 1001235a f   libvcruntime:ehhelpers.obj
 0001:00011367       ___AdjustPointer           10012367 f   libvcruntime:ehhelpers.obj
 0001:0001138c       ___FrameUnwindFilter       1001238c f   libvcruntime:ehhelpers.obj
 0001:000113e2       ___GetPlatformExceptionInfo 100123e2 f   libvcruntime:ehhelpers.obj
 0001:0001142e       ___current_exception       1001242e f   libvcruntime:ehhelpers.obj
 0001:00011437       ___current_exception_context 10012437 f   libvcruntime:ehhelpers.obj
 0001:00011440       ___processing_throw        10012440 f   libvcruntime:ehhelpers.obj
 0001:00011449       ___std_terminate           10012449 f   libvcruntime:ehhelpers.obj
 0001:0001144e       __is_exception_typeof      1001244e f   libvcruntime:ehhelpers.obj
 0001:00011500       _memset                    10012500 f   libvcruntime:memset.obj
 0001:00011660       __local_unwind4            10012660 f   libvcruntime:exsup4.obj
 0001:00011750       __seh_longjmp_unwind4@4    10012750 f   libvcruntime:exsup4.obj
 0001:00011780       @_EH4_CallFilterFunc@8     10012780 f   libvcruntime:exsup4.obj
 0001:000117a0       @_EH4_TransferToHandler@8  100127a0 f   libvcruntime:exsup4.obj
 0001:000117c0       @_EH4_GlobalUnwind2@8      100127c0 f   libvcruntime:exsup4.obj
 0001:000117e0       @_EH4_LocalUnwind@16       100127e0 f   libvcruntime:exsup4.obj
 0001:00011802       ___except_validate_context_record 10012802 f   libvcruntime:jbcxrval.obj
 0001:00011832       ___except_validate_jump_buffer 10012832 f   libvcruntime:jbcxrval.obj
 0001:0001185f       ___except_validate_jump_buffer_common 1001285f f i libvcruntime:jbcxrval.obj
 0001:00011898       ??$?0$00@DName@@QAE@PBDU?$StringLifeSelector@$00@@@Z 10012898 f i libvcruntime:undname.obj
 0001:000118cb       ??$?0$00@pcharNode@@QAE@PBDHU?$StringLifeSelector@$00@@@Z 100128cb f i libvcruntime:undname.obj
 0001:000118e6       ??$?0$01@DName@@QAE@PBDU?$StringLifeSelector@$01@@@Z 100128e6 f i libvcruntime:undname.obj
 0001:00011919       ??$?0$01@pcharNode@@QAE@PBDHU?$StringLifeSelector@$01@@@Z 10012919 f i libvcruntime:undname.obj
 0001:00011959       ??$?0$0A@@DName@@QAE@PBDU?$StringLifeSelector@$0A@@@@Z 10012959 f i libvcruntime:undname.obj
 0001:0001198c       ??$?0$0A@@pcharNode@@QAE@PBDHU?$StringLifeSelector@$0A@@@@Z 1001298c f i libvcruntime:undname.obj
 0001:000119cc       ??$?0_K$0A@@?$optional@_K@std@@QAE@$$QA_K@Z 100129cc f i libvcruntime:undname.obj
 0001:000119e6       ??$?0_K@?$_Optional_construct_base@_K@std@@QAE@Uin_place_t@1@$$QA_K@Z 100129e6 f i libvcruntime:undname.obj
 0001:00011a00       ??$?0_K@?$_Optional_destruct_base@_K$00@std@@QAE@Uin_place_t@1@$$QA_K@Z 10012a00 f i libvcruntime:undname.obj
 0001:00011a1a       ??$append@VDNameNode@@@DName@@AAEXPBVDNameNode@@@Z 10012a1a f i libvcruntime:undname.obj
 0001:00011a5b       ??$append@VDNameStatusNode@@@DName@@AAEXPBVDNameStatusNode@@@Z 10012a5b f i libvcruntime:undname.obj
 0001:00011a9c       ??$append@VcharNode@@@DName@@AAEXPBVcharNode@@@Z 10012a9c f i libvcruntime:undname.obj
 0001:00011add       ??$append@VpDNameNode@@@DName@@AAEXPBVpDNameNode@@@Z 10012add f i libvcruntime:undname.obj
 0001:00011b1e       ??$append@VpcharNode@@@DName@@AAEXPBVpcharNode@@@Z 10012b1e f i libvcruntime:undname.obj
 0001:00011b5f       ??$doPchar@$00@DName@@AAEXPBDH@Z 10012b5f f i libvcruntime:undname.obj
 0001:00011bca       ??$doPchar@$01@DName@@AAEXPBDH@Z 10012bca f i libvcruntime:undname.obj
 0001:00011c3b       ??$doPchar@$0A@@DName@@AAEXPBDH@Z 10012c3b f i libvcruntime:undname.obj
 0001:00011cac       ??$forward@_K@std@@YA$$QA_KAA_K@Z 10012cac f i libvcruntime:undname.obj
 0001:00011d70       ??$size@D$04@std@@YAIAAY04$$CBD@Z 10012d70 f i libvcruntime:undname.obj
 0001:00011d74       ??0?$_Optional_construct_base@_K@std@@QAE@XZ 10012d74 f i libvcruntime:undname.obj
 0001:00011d7b       ??0?$_Optional_destruct_base@_K$00@std@@QAE@XZ 10012d7b f i libvcruntime:undname.obj
 0001:00011d82       ??0?$optional@_K@std@@QAE@XZ 10012d82 f i libvcruntime:undname.obj
 0001:00011d89       ??0Block@_HeapManager@@QAE@XZ 10012d89 f i libvcruntime:undname.obj
 0001:00011d8f       ??0DName@@QAE@AAPBDD@Z     10012d8f f   libvcruntime:undname.obj
 0001:00011e0f       ??0DName@@QAE@ABUStringLiteral@@@Z 10012e0f f   libvcruntime:undname.obj
 0001:00011e36       ??0DName@@QAE@ABV0@@Z      10012e36 f i libvcruntime:undname.obj
 0001:00011e4c       ??0DName@@QAE@D@Z          10012e4c f   libvcruntime:undname.obj
 0001:00011e68       ??0DName@@QAE@PAV0@@Z      10012e68 f   libvcruntime:undname.obj
 0001:00011eb1       ??0DName@@QAE@W4DNameStatus@@@Z 10012eb1 f   libvcruntime:undname.obj
 0001:00011ef1       ??0DName@@QAE@XZ           10012ef1 f i libvcruntime:undname.obj
 0001:00011efb       ??0DName@@QAE@_J@Z         10012efb f   libvcruntime:undname.obj
 0001:00011f85       ??0DName@@QAE@_K@Z         10012f85 f   libvcruntime:undname.obj
 0001:00011fe9       ??0DNameNode@@IAE@XZ       10012fe9 f i libvcruntime:undname.obj
 0001:00011ff2       ??0Replicator@@QAE@XZ      10012ff2 f i libvcruntime:undname.obj
 0001:00012001       ??0UnDecorator@@QAE@PBDP6APADJ@ZK@Z 10013001 f i libvcruntime:undname.obj
 0001:0001204d       ??0_Nontrivial_dummy_type@std@@QAE@XZ 1001304d f i libvcruntime:undname.obj
 0001:00012050       ??0charNode@@QAE@D@Z       10013050 f i libvcruntime:undname.obj
 0001:00012065       ??0pDNameNode@@QAE@PAVDName@@@Z 10013065 f   libvcruntime:undname.obj
 0001:0001208d       ??0pairNode@@QAE@PBVDNameNode@@0@Z 1001308d f i libvcruntime:undname.obj
 0001:000120b3       ??2@YAPAXIAAV_HeapManager@@H@Z 100130b3 f   libvcruntime:undname.obj
 0001:000120d2       ??4DName@@QAEAAV0@ABUStringLiteral@@@Z 100130d2 f   libvcruntime:undname.obj
 0001:000120f3       ??4DName@@QAEAAV0@ABV0@@Z  100130f3 f   libvcruntime:undname.obj
 0001:00012109       ??4DName@@QAEAAV0@D@Z      10013109 f i libvcruntime:undname.obj
 0001:00012125       ??4DName@@QAEAAV0@PAV0@@Z  10013125 f   libvcruntime:undname.obj
 0001:00012168       ??4DName@@QAEAAV0@W4DNameStatus@@@Z 10013168 f   libvcruntime:undname.obj
 0001:0001219a       ??AReplicator@@QBE?AVDName@@H@Z 1001319a f   libvcruntime:undname.obj
 0001:000121d6       ??B?$optional@_K@std@@QBE_NXZ 100131d6 f i libvcruntime:undname.obj
 0001:000121da       ??D?$_Optional_construct_base@_K@std@@QGAEAA_KXZ 100131da f i libvcruntime:undname.obj
 0001:000121dd       ??H@YA?AVDName@@ABUStringLiteral@@ABV0@@Z 100131dd f i libvcruntime:undname.obj
 0001:000121ff       ??H@YA?AVDName@@DABV0@@Z   100131ff f i libvcruntime:undname.obj
 0001:0001222a       ??H@YA?AVDName@@W4DNameStatus@@ABV0@@Z 1001322a f i libvcruntime:undname.obj
 0001:0001224c       ??HDName@@QBE?AV0@ABUStringLiteral@@@Z 1001324c f   libvcruntime:undname.obj
 0001:0001226e       ??HDName@@QBE?AV0@ABV0@@Z  1001326e f   libvcruntime:undname.obj
 0001:00012290       ??HDName@@QBE?AV0@D@Z      10013290 f   libvcruntime:undname.obj
 0001:000122b2       ??HDName@@QBE?AV0@PAV0@@Z  100132b2 f   libvcruntime:undname.obj
 0001:000122d4       ??HDName@@QBE?AV0@W4DNameStatus@@@Z 100132d4 f   libvcruntime:undname.obj
 0001:000122f6       ??HStringLiteral@@QBE?AU0@H@Z 100132f6 f i libvcruntime:undname.obj
 0001:00012310       ??YDName@@QAEAAV0@ABUStringLiteral@@@Z 10013310 f   libvcruntime:undname.obj
 0001:00012368       ??YDName@@QAEAAV0@ABV0@@Z  10013368 f   libvcruntime:undname.obj
 0001:000123bf       ??YDName@@QAEAAV0@D@Z      100133bf f   libvcruntime:undname.obj
 0001:00012414       ??YDName@@QAEAAV0@PAV0@@Z  10013414 f   libvcruntime:undname.obj
 0001:00012478       ??YDName@@QAEAAV0@W4DNameStatus@@@Z 10013478 f   libvcruntime:undname.obj
 0001:000124b8       ??YReplicator@@QAEAAV0@ABVDName@@@Z 100134b8 f   libvcruntime:undname.obj
 0001:000124f8       ??_5DName@@QAEAAV0@ABV0@@Z 100134f8 f   libvcruntime:undname.obj
 0001:00012517       ??__K_l@@YA?AUStringLiteral@@PBDI@Z 10013517 f i libvcruntime:undname.obj
 0001:00012522       ?Constructor@_HeapManager@@QAEXP6APAXI@ZP6AXPAX@Z@Z 10013522 f i libvcruntime:undname.obj
 0001:0001253f       ?Destructor@_HeapManager@@QAEXXZ 1001353f f i libvcruntime:undname.obj
 0001:00012583       ?UScore@UnDecorator@@SA?AUStringLiteral@@W4Tokens@@@Z 10013583 f   libvcruntime:undname.obj
 0001:000125aa       ?composeDeclaration@UnDecorator@@CA?AVDName@@ABV2@@Z 100135aa f i libvcruntime:undname.obj
 0001:000132a2       ?doAccessSpecifiers@UnDecorator@@SAHXZ 100142a2 f i libvcruntime:undname.obj
 0001:000132b0       ?doAllocationLanguage@UnDecorator@@SAHXZ 100142b0 f i libvcruntime:undname.obj
 0001:000132be       ?doAllocationModel@UnDecorator@@SAHXZ 100142be f i libvcruntime:undname.obj
 0001:000132cc       ?doEcsu@UnDecorator@@SAHXZ 100142cc f i libvcruntime:undname.obj
 0001:000132da       ?doEllipsis@UnDecorator@@SAHXZ 100142da f i libvcruntime:undname.obj
 0001:000132e8       ?doFunctionReturns@UnDecorator@@SAHXZ 100142e8 f i libvcruntime:undname.obj
 0001:000132f6       ?doMSKeywords@UnDecorator@@SAHXZ 100142f6 f i libvcruntime:undname.obj
 0001:00013303       ?doMemberTypes@UnDecorator@@SAHXZ 10014303 f i libvcruntime:undname.obj
 0001:00013311       ?doNameOnly@UnDecorator@@SAHXZ 10014311 f i libvcruntime:undname.obj
 0001:0001331c       ?doNoIdentCharCheck@UnDecorator@@SAHXZ 1001431c f i libvcruntime:undname.obj
 0001:00013327       ?doPchar@DName@@AAEXD@Z    10014327 f   libvcruntime:undname.obj
 0001:0001335f       ?doPtr64@UnDecorator@@SAHXZ 1001435f f i libvcruntime:undname.obj
 0001:0001336d       ?doRestrictionSpec@UnDecorator@@SAHXZ 1001436d f i libvcruntime:undname.obj
 0001:0001337b       ?doThisTypes@UnDecorator@@SAHXZ 1001437b f i libvcruntime:undname.obj
 0001:0001338d       ?doThrowTypes@UnDecorator@@SAHXZ 1001438d f i libvcruntime:undname.obj
 0001:0001339b       ?doTypeOnly@UnDecorator@@SAHXZ 1001439b f i libvcruntime:undname.obj
 0001:000133a6       ?doUnderScore@UnDecorator@@SAHXZ 100143a6 f i libvcruntime:undname.obj
 0001:000133b1       ?getAddressOf@UnDecorator@@CA?AVDName@@XZ 100143b1 f   libvcruntime:undname.obj
 0001:00013419       ?getArgumentList@UnDecorator@@CA?AVDName@@XZ 10014419 f   libvcruntime:undname.obj
 0001:00013583       ?getArgumentTypes@UnDecorator@@CA?AVDName@@XZ 10014583 f   libvcruntime:undname.obj
 0001:0001368b       ?getArrayAccess@UnDecorator@@CA?AVDName@@XZ 1001468b f   libvcruntime:undname.obj
 0001:000136ff       ?getArrayObject@UnDecorator@@CA?AVDName@@XZ 100146ff f   libvcruntime:undname.obj
 0001:0001378a       ?getArrayType@UnDecorator@@CA?AVDName@@ABV2@@Z 1001478a f i libvcruntime:undname.obj
 0001:00013927       ?getBasedType@UnDecorator@@CA?AVDName@@XZ 10014927 f   libvcruntime:undname.obj
 0001:000139d6       ?getBasicDataType@UnDecorator@@CA?AVDName@@ABV2@@Z 100149d6 f   libvcruntime:undname.obj
 0001:00013f32       ?getCHPEName@UnDecorator@@QAEPADPADH@Z 10014f32 f i libvcruntime:undname.obj
 0001:0001400f       ?getCallIndex@UnDecorator@@CA?AVDName@@XZ 1001500f f i libvcruntime:undname.obj
 0001:00014023       ?getCallingConvention@UnDecorator@@CA?AVDName@@XZ 10015023 f   libvcruntime:undname.obj
 0001:000140f8       ?getDataIndirectType@UnDecorator@@CA?AVDName@@ABV2@W4IndirectionKind@@0H@Z 100150f8 f   libvcruntime:undname.obj
 0001:000148aa       ?getDataIndirectType@UnDecorator@@CA?AVDName@@XZ 100158aa f i libvcruntime:undname.obj
 0001:000148d8       ?getDataType@UnDecorator@@CA?AVDName@@PAV2@@Z 100158d8 f   libvcruntime:undname.obj
 0001:000149af       ?getDecoratedName@UnDecorator@@CA?AVDName@@XZ 100159af f   libvcruntime:undname.obj
 0001:00014c03       ?getDimension@UnDecorator@@CA?AVDName@@_N@Z 10015c03 f   libvcruntime:undname.obj
 0001:00014d0a       ?getDispatchTarget@UnDecorator@@CA?AVDName@@XZ 10015d0a f   libvcruntime:undname.obj
 0001:00014d5b       ?getDisplacement@UnDecorator@@CA?AVDName@@XZ 10015d5b f i libvcruntime:undname.obj
 0001:00014d6f       ?getECSUDataType@UnDecorator@@CA?AVDName@@XZ 10015d6f f   libvcruntime:undname.obj
 0001:00014f19       ?getECSUName@UnDecorator@@CA?AVDName@@XZ 10015f19 f i libvcruntime:undname.obj
 0001:00014f2a       ?getEnumType@UnDecorator@@CA?AVDName@@XZ 10015f2a f i libvcruntime:undname.obj
 0001:0001504a       ?getExtendedDataIndirectType@UnDecorator@@CA?AVDName@@AAW4IndirectionKind@@AA_NH@Z 1001604a f   libvcruntime:undname.obj
 0001:000151f6       ?getExternalDataType@UnDecorator@@CA?AVDName@@ABV2@@Z 100161f6 f i libvcruntime:undname.obj
 0001:0001525b       ?getFloatingPoint@UnDecorator@@CA?AVDName@@H@Z 1001625b f   libvcruntime:undname.obj
 0001:00015319       ?getFunctionIndirectType@UnDecorator@@CA?AVDName@@ABV2@@Z 10016319 f   libvcruntime:undname.obj
 0001:000156c3       ?getGuardNumber@UnDecorator@@CA?AVDName@@XZ 100166c3 f i libvcruntime:undname.obj
 0001:000156d7       ?getLastChar@DName@@QBEDXZ 100166d7 f i libvcruntime:undname.obj
 0001:000156f7       ?getLastChar@DNameStatusNode@@UBEDXZ 100166f7 f i libvcruntime:undname.obj
 0001:00015703       ?getLastChar@charNode@@UBEDXZ 10016703 f i libvcruntime:undname.obj
 0001:00015707       ?getLastChar@pDNameNode@@UBEDXZ 10016707 f i libvcruntime:undname.obj
 0001:00015715       ?getLastChar@pairNode@@UBEDXZ 10016715 f i libvcruntime:undname.obj
 0001:0001574a       ?getLastChar@pcharNode@@UBEDXZ 1001674a f i libvcruntime:undname.obj
 0001:0001575c       ?getLexicalFrame@UnDecorator@@CA?AVDName@@XZ 1001675c f i libvcruntime:undname.obj
 0001:0001578d       ?getMemberAccess@UnDecorator@@CA?AVDName@@XZ 1001678d f   libvcruntime:undname.obj
 0001:000157fd       ?getMemoryWithBuffer@_HeapManager@@QAEPAXI@Z 100167fd f   libvcruntime:undname.obj
 0001:00015867       ?getMemoryWithoutBuffer@_HeapManager@@QAEPAXI@Z 10016867 f   libvcruntime:undname.obj
 0001:00015887       ?getNoexcept@UnDecorator@@CA?AVDName@@XZ 10016887 f   libvcruntime:undname.obj
 0001:000158cf       ?getNumberOfDimensions@UnDecorator@@CAHXZ 100168cf f   libvcruntime:undname.obj
 0001:00015931       ?getOperatorName@UnDecorator@@CA?AVDName@@_NPA_N@Z 10016931 f i libvcruntime:undname.obj
 0001:0001615b       ?getPointerToMember@UnDecorator@@CA?AVDName@@XZ 1001715b f   libvcruntime:undname.obj
 0001:00016217       ?getPointerType@UnDecorator@@CA?AVDName@@ABV2@0@Z 10017217 f i libvcruntime:undname.obj
 0001:00016232       ?getPointerTypeArray@UnDecorator@@CA?AVDName@@ABV2@0@Z 10017232 f i libvcruntime:undname.obj
 0001:0001624d       ?getPrimaryDataType@UnDecorator@@CA?AVDName@@ABV2@@Z 1001724d f   libvcruntime:undname.obj
 0001:0001649b       ?getPtrRefDataType@UnDecorator@@CA?AVDName@@ABV2@H@Z 1001749b f   libvcruntime:undname.obj
 0001:00016608       ?getPtrRefType@UnDecorator@@CA?AVDName@@ABV2@0W4IndirectionKind@@@Z 10017608 f   libvcruntime:undname.obj
 0001:00016719       ?getReferenceType@UnDecorator@@CA?AVDName@@ABV2@0W4IndirectionKind@@@Z 10017719 f i libvcruntime:undname.obj
 0001:00016735       ?getRestrictionSpec@UnDecorator@@CA?AVDName@@XZ 10017735 f   libvcruntime:undname.obj
 0001:0001684e       ?getReturnType@UnDecorator@@CA?AVDName@@PAV2@@Z 1001784e f   libvcruntime:undname.obj
 0001:0001687d       ?getScope@UnDecorator@@CA?AVDName@@XZ 1001787d f   libvcruntime:undname.obj
 0001:00016c3b       ?getScopedName@UnDecorator@@CA?AVDName@@XZ 10017c3b f   libvcruntime:undname.obj
 0001:00016d2e       ?getSignedDimension@UnDecorator@@CA?AVDName@@XZ 10017d2e f   libvcruntime:undname.obj
 0001:00016d7f       ?getStorageConvention@UnDecorator@@CA?AVDName@@XZ 10017d7f f i libvcruntime:undname.obj
 0001:00016d90       ?getString@DName@@QBEPADPAD0@Z 10017d90 f i libvcruntime:undname.obj
 0001:00016dbd       ?getString@DName@@QBEPADPADH@Z 10017dbd f i libvcruntime:undname.obj
 0001:00016e12       ?getString@DNameStatusNode@@UBEPADPAD0@Z 10017e12 f i libvcruntime:undname.obj
 0001:00016e59       ?getString@charNode@@UBEPADPAD0@Z 10017e59 f i libvcruntime:undname.obj
 0001:00016e6e       ?getString@pDNameNode@@UBEPADPAD0@Z 10017e6e f i libvcruntime:undname.obj
 0001:00016e85       ?getString@pairNode@@UBEPADPAD0@Z 10017e85 f i libvcruntime:undname.obj
 0001:00016ecb       ?getString@pcharNode@@UBEPADPAD0@Z 10017ecb f i libvcruntime:undname.obj
 0001:00016ee6       ?getStringEncoding@UnDecorator@@CA?AVDName@@W4PrefixKind@@H@Z 10017ee6 f   libvcruntime:undname.obj
 0001:00016f79       ?getStringHelper@@YAPADPADPBD1H@Z 10017f79 f i libvcruntime:undname.obj
 0001:00016fa3       ?getStringObject@UnDecorator@@CA?AVDName@@XZ 10017fa3 f   libvcruntime:undname.obj
 0001:00016fee       ?getSymbolName@UnDecorator@@CA?AVDName@@XZ 10017fee f i libvcruntime:undname.obj
 0001:00017036       ?getTemplateArgumentList@UnDecorator@@CA?AVDName@@XZ 10018036 f   libvcruntime:undname.obj
 0001:000171e6       ?getTemplateName@UnDecorator@@CA?AVDName@@_N@Z 100181e6 f   libvcruntime:undname.obj
 0001:00017346       ?getTemplateNonTypeArgument@UnDecorator@@CA?AVDName@@XZ 10018346 f   libvcruntime:undname.obj
 0001:0001770e       ?getTemplateTypeArgument@UnDecorator@@CA?AVDName@@XZ 1001870e f   libvcruntime:undname.obj
 0001:0001781f       ?getThisType@UnDecorator@@CA?AVDName@@XZ 1001881f f i libvcruntime:undname.obj
 0001:0001784e       ?getThrowTypes@UnDecorator@@CA?AVDName@@XZ 1001884e f   libvcruntime:undname.obj
 0001:0001786d       ?getTypeEncoding@UnDecorator@@CAHXZ 1001886d f i libvcruntime:undname.obj
 0001:00017bad       ?getUndecoratedName@UnDecorator@@QAEPADPADH@Z 10018bad f i libvcruntime:undname.obj
 0001:00017ccc       ?getUnionObject@UnDecorator@@CA?AVDName@@XZ 10018ccc f   libvcruntime:undname.obj
 0001:00017d73       ?getVCallThunkType@UnDecorator@@CA?AVDName@@XZ 10018d73 f i libvcruntime:undname.obj
 0001:00017dbd       ?getValue@UnDecorator@@CA?AV?$optional@_K@std@@XZ 10018dbd f   libvcruntime:undname.obj
 0001:00017e14       ?getValueObject@UnDecorator@@CA?AVDName@@XZ 10018e14 f   libvcruntime:undname.obj
 0001:00017f0e       ?getVbTableType@UnDecorator@@CA?AVDName@@ABV2@@Z 10018f0e f i libvcruntime:undname.obj
 0001:00017f23       ?getVdispMapType@UnDecorator@@CA?AVDName@@ABV2@@Z 10018f23 f i libvcruntime:undname.obj
 0001:00017f84       ?getVfTableType@UnDecorator@@CA?AVDName@@ABV2@@Z 10018f84 f i libvcruntime:undname.obj
 0001:000180d8       ?getZName@UnDecorator@@CA?AVDName@@_N0@Z 100190d8 f   libvcruntime:undname.obj
 0001:000182f1       ?get_current_character_and_increment_buffer@UnDecorator@@CADXZ 100192f1 f i libvcruntime:undname.obj
 0001:00018305       ?haveTemplateParameters@UnDecorator@@SAHXZ 10019305 f i libvcruntime:undname.obj
 0001:00018310       ?increment_buffer@UnDecorator@@CA_NI@Z 10019310 f i libvcruntime:undname.obj
 0001:00018338       ?increment_buffer_no_check@UnDecorator@@CAXI@Z 10019338 f i libvcruntime:undname.obj
 0001:00018346       ?increment_buffer_no_check@UnDecorator@@CAXXZ 10019346 f i libvcruntime:undname.obj
 0001:0001834d       ?isArray@DName@@QBEHXZ     1001934d f i libvcruntime:undname.obj
 0001:00018357       ?isComArray@DName@@QBEHXZ  10019357 f i libvcruntime:undname.obj
 0001:00018361       ?isEmpty@DName@@QBEHXZ     10019361 f i libvcruntime:undname.obj
 0001:00018369       ?isFull@Replicator@@QBEHXZ 10019369 f i libvcruntime:undname.obj
 0001:00018372       ?isNoTE@DName@@QBEHXZ      10019372 f i libvcruntime:undname.obj
 0001:0001837c       ?isPinPtr@DName@@QBEHXZ    1001937c f i libvcruntime:undname.obj
 0001:00018386       ?isPtrRef@DName@@QBEHXZ    10019386 f i libvcruntime:undname.obj
 0001:00018390       ?isUDC@DName@@QBEHXZ       10019390 f i libvcruntime:undname.obj
 0001:000183a1       ?isUDTThunk@DName@@QBEHXZ  100193a1 f i libvcruntime:undname.obj
 0001:000183b2       ?isVCallThunk@DName@@QBEHXZ 100193b2 f i libvcruntime:undname.obj
 0001:000183bc       ?isValid@DName@@QBEHXZ     100193bc f i libvcruntime:undname.obj
 0001:000183c6       ?length@DName@@QBEHXZ      100193c6 f i libvcruntime:undname.obj
 0001:000183e5       ?length@DNameStatusNode@@UBEHXZ 100193e5 f i libvcruntime:undname.obj
 0001:000183e9       ?length@charNode@@UBEHXZ   100193e9 f i libvcruntime:undname.obj
 0001:000183ed       ?length@pDNameNode@@UBEHXZ 100193ed f i libvcruntime:undname.obj
 0001:000183fb       ?length@pairNode@@UBEHXZ   100193fb f i libvcruntime:undname.obj
 0001:00018444       ?length@pcharNode@@UBEHXZ  10019444 f i libvcruntime:undname.obj
 0001:00018448       ?make@DNameStatusNode@@SAPBV1@W4DNameStatus@@@Z 10019448 f i libvcruntime:undname.obj
 0001:00018464       ?parseDecoratedName@UnDecorator@@CA?AVDName@@XZ 10019464 f   libvcruntime:undname.obj
 0001:0001855f       ?raw_length@DNameStatusNode@@UBEHXZ 1001955f f i libvcruntime:undname.obj
 0001:00018563       ?raw_length@charNode@@UBEHXZ 10019563 f i libvcruntime:undname.obj
 0001:00018567       ?raw_length@pDNameNode@@UBEHXZ 10019567 f i libvcruntime:undname.obj
 0001:0001856b       ?raw_length@pairNode@@UBEHXZ 1001956b f i libvcruntime:undname.obj
 0001:0001856f       ?raw_length@pcharNode@@UBEHXZ 1001956f f i libvcruntime:undname.obj
 0001:00018573       ?setIsArray@DName@@QAEXXZ  10019573 f i libvcruntime:undname.obj
 0001:0001857b       ?setIsComArray@DName@@QAEXXZ 1001957b f i libvcruntime:undname.obj
 0001:00018583       ?setIsNoTE@DName@@QAEXXZ   10019583 f i libvcruntime:undname.obj
 0001:0001858b       ?setIsPinPtr@DName@@QAEXXZ 1001958b f i libvcruntime:undname.obj
 0001:00018593       ?setIsUDC@DName@@QAEXXZ    10019593 f i libvcruntime:undname.obj
 0001:000185a0       ?setIsVCallThunk@DName@@QAEXXZ 100195a0 f i libvcruntime:undname.obj
 0001:000185a8       ?setPtrRef@DName@@QAEAAV1@XZ 100195a8 f i libvcruntime:undname.obj
 0001:000185b2       ?status@DName@@QBE?AW4DNameStatus@@XZ 100195b2 f i libvcruntime:undname.obj
 0001:0001861e       ___unDName                 1001961e f   libvcruntime:undname.obj
 0001:00018641       ___unDNameEx               10019641 f   libvcruntime:undname.obj
 0001:000186e0       __vsprintf_s_l             100196e0 f i libvcruntime:undname.obj
 0001:0001870d       _sprintf_s                 1001970d f i libvcruntime:undname.obj
 0001:00018729       _unDNameGenerateCHPE       10019729 f   libvcruntime:undname.obj
 0001:000187c6       ??$?RU__vcrt_ptd@@@__crt_internal_free_policy@@QBEXQBU__vcrt_ptd@@@Z 100197c6 f i libvcruntime:per_thread_data.obj
 0001:000187d6       ??0?$__crt_unique_heap_ptr@U__vcrt_ptd@@U__crt_internal_free_policy@@@@QAE@QAU__vcrt_ptd@@@Z 100197d6 f i libvcruntime:per_thread_data.obj
 0001:000187f3       ??1?$__crt_unique_heap_ptr@U__vcrt_ptd@@U__crt_internal_free_policy@@@@QAE@XZ 100197f3 f i libvcruntime:per_thread_data.obj
 0001:0001880c       ??B?$__crt_unique_heap_ptr@U__vcrt_ptd@@U__crt_internal_free_policy@@@@QBE_NXZ 1001980c f i libvcruntime:per_thread_data.obj
 0001:00018813       ?detach@?$__crt_unique_heap_ptr@U__vcrt_ptd@@U__crt_internal_free_policy@@@@QAEPAU__vcrt_ptd@@XZ 10019813 f i libvcruntime:per_thread_data.obj
 0001:00018819       ?get@?$__crt_unique_heap_ptr@U__vcrt_ptd@@U__crt_internal_free_policy@@@@QBEPAU__vcrt_ptd@@XZ 10019819 f i libvcruntime:per_thread_data.obj
 0001:0001881c       ?is_valid@?$__crt_unique_heap_ptr@U__vcrt_ptd@@U__crt_internal_free_policy@@@@QBE_NXZ 1001981c f i libvcruntime:per_thread_data.obj
 0001:00018823       ?release@?$__crt_unique_heap_ptr@U__vcrt_ptd@@U__crt_internal_free_policy@@@@QAEXXZ 10019823 f i libvcruntime:per_thread_data.obj
 0001:0001884d       ___vcrt_freefls@4          1001984d f   libvcruntime:per_thread_data.obj
 0001:00018869       ___vcrt_freeptd            10019869 f   libvcruntime:per_thread_data.obj
 0001:0001889f       ___vcrt_getptd             1001989f f   libvcruntime:per_thread_data.obj
 0001:000188ad       ___vcrt_getptd_noexit      100198ad f   libvcruntime:per_thread_data.obj
 0001:0001893f       ___vcrt_getptd_noinit      1001993f f   libvcruntime:per_thread_data.obj
 0001:00018976       ___vcrt_initialize_ptd     10019976 f   libvcruntime:per_thread_data.obj
 0001:000189a9       ___vcrt_uninitialize_ptd   100199a9 f   libvcruntime:per_thread_data.obj
 0001:000189c4       ___vcrt_initialize_locks   100199c4 f   libvcruntime:locks.obj
 0001:00018a00       ___vcrt_lock               10019a00 f   libvcruntime:locks.obj
 0001:00018a15       ___vcrt_uninitialize_locks 10019a15 f   libvcruntime:locks.obj
 0001:00018a44       ___vcrt_unlock             10019a44 f   libvcruntime:locks.obj
 0001:00018a60       __global_unwind2           10019a60 f   libvcruntime:exsup.obj
 0001:00018ae0       __local_unwind2            10019ae0 f   libvcruntime:exsup.obj
 0001:00018b80       __abnormal_termination     10019b80 f   libvcruntime:exsup.obj
 0001:00018bb0       __NLG_Notify1              10019bb0 f   libvcruntime:exsup.obj
 0001:00018bc0       __NLG_Notify               10019bc0 f   libvcruntime:exsup.obj
 0001:00018bd7       __NLG_Dispatch             10019bd7     libvcruntime:exsup.obj
 0001:00018bd7       __NLG_Dispatch2            10019bd7     libvcruntime:exsup.obj
 0001:00018be0       __NLG_Call                 10019be0 f   libvcruntime:exsup.obj
 0001:00018be2       __NLG_Return2              10019be2     libvcruntime:exsup.obj
 0001:00018be3       ??$__crt_interlocked_exchange_pointer@$$A6AXXZP6AXXZ@@YAP6AXXZPDS6AXXZQ6AXXZ@Z 10019be3 f i libvcruntime:purevirt.obj
 0001:00018bf0       ??$__crt_interlocked_read_pointer@$$A6AXXZ@@YAP6AXXZPDS6AXXZ@Z 10019bf0 f i libvcruntime:purevirt.obj
 0001:00018bfb       __get_purecall_handler     10019bfb f   libvcruntime:purevirt.obj
 0001:00018c02       __purecall                 10019c02 f   libvcruntime:purevirt.obj
 0001:00018c1e       __set_purecall_handler     10019c1e f   libvcruntime:purevirt.obj
 0001:00018c2d       ??$?0AAViterator@TryBlockMap@__FrameHandler3@@AAV012@$0A@@?$pair@Viterator@TryBlockMap@__FrameHandler3@@V123@@std@@QAE@AAViterator@TryBlockMap@__FrameHandler3@@0@Z 10019c2d f i libvcruntime:trnsctrl.obj
 0001:00018c51       ??$forward@AAViterator@TryBlockMap@__FrameHandler3@@@std@@YAAAViterator@TryBlockMap@__FrameHandler3@@AAV123@@Z 10019c51 f i libvcruntime:trnsctrl.obj
 0001:00018c59       ??0iterator@TryBlockMap@__FrameHandler3@@QAE@AAV12@I@Z 10019c59 f i libvcruntime:trnsctrl.obj
 0001:00018c6d       ?GetRangeOfTrysToCheck@__FrameHandler3@@SA?AU?$pair@Viterator@TryBlockMap@__FrameHandler3@@V123@@std@@AAVTryBlockMap@1@HPAXPBU_s_FuncInfo@@H@Z 10019c6d f   libvcruntime:trnsctrl.obj
 0001:00018cdd       ?_CallCatchBlock2@@YAPAXPAUEHRegistrationNode@@PBU_s_FuncInfo@@PAXHK@Z 10019cdd f   libvcruntime:trnsctrl.obj
 0001:00018d3a       ?_CallSETranslator@@YAHPAUEHExceptionRecord@@PAUEHRegistrationNode@@PAX2PBU_s_FuncInfo@@H1@Z 10019d3a f   libvcruntime:trnsctrl.obj
 0001:00018e30       ?_JumpToContinuation@@YGXPAXPAUEHRegistrationNode@@@Z 10019e30 f   libvcruntime:trnsctrl.obj
 0001:00018e60       ?_UnwindNestedFrames@@YGXPAUEHRegistrationNode@@PAUEHExceptionRecord@@@Z 10019e60 f   libvcruntime:trnsctrl.obj
 0001:00018eb3       __CatchGuardHandler        10019eb3 f   libvcruntime:trnsctrl.obj
 0001:00018ee4       __CreateFrameInfo          10019ee4 f   libvcruntime:trnsctrl.obj
 0001:00018f08       __FindAndUnlinkFrame       10019f08 f   libvcruntime:trnsctrl.obj
 0001:00018f50       __TranslatorGuardHandler   10019f50 f   libvcruntime:trnsctrl.obj
 0001:00018fed       ___CxxFrameHandler         10019fed f   libvcruntime:trnsctrl.obj
 0001:00019023       ___CxxFrameHandler2        1001a023 f   libvcruntime:trnsctrl.obj
 0001:00019059       ___CxxFrameHandler3        1001a059 f   libvcruntime:trnsctrl.obj
 0001:0001908f       ___CxxLongjmpUnwind@4      1001a08f f   libvcruntime:trnsctrl.obj
 0001:000190c0       _memcpy                    1001a0c0 f   libvcruntime:memcpy.obj
 0001:00019634       ??$__crt_interlocked_exchange_pointer@UHINSTANCE__@@PAU1@@@YAPAUHINSTANCE__@@PDSAU0@QAU0@@Z 1001a634 f i libvcruntime:winapi_downlevel.obj
 0001:00019641       ??$__crt_interlocked_exchange_pointer@UHINSTANCE__@@PAX@@YAPAUHINSTANCE__@@PDSAU0@QAX@Z 1001a641 f i libvcruntime:winapi_downlevel.obj
 0001:0001964e       ??$__crt_interlocked_exchange_pointer@XPAX@@YAPAXPDSAXQAX@Z 1001a64e f i libvcruntime:winapi_downlevel.obj
 0001:0001965b       ??$__crt_interlocked_read_pointer@UHINSTANCE__@@@@YAPAUHINSTANCE__@@PDSAU0@@Z 1001a65b f i libvcruntime:winapi_downlevel.obj
 0001:00019666       ??$__crt_interlocked_read_pointer@X@@YAPAXPDSAX@Z 1001a666 f i libvcruntime:winapi_downlevel.obj
 0001:000198f2       ___vcrt_FlsAlloc           1001a8f2 f   libvcruntime:winapi_downlevel.obj
 0001:0001992d       ___vcrt_FlsFree            1001a92d f   libvcruntime:winapi_downlevel.obj
 0001:00019968       ___vcrt_FlsGetValue        1001a968 f   libvcruntime:winapi_downlevel.obj
 0001:000199a3       ___vcrt_FlsSetValue        1001a9a3 f   libvcruntime:winapi_downlevel.obj
 0001:000199e1       ___vcrt_InitializeCriticalSectionEx 1001a9e1 f   libvcruntime:winapi_downlevel.obj
 0001:0001a15a       ??$TypeMatchHelper@V__FrameHandler3@@@@YAHPBU_s_HandlerType@@PBU_s_CatchableType@@PBU_s_ThrowInfo@@@Z 1001b15a f i libvcruntime:frame.obj
 0001:0001a1e8       ??$__InternalCxxFrameHandler@V__FrameHandler3@@@@YA?AW4_EXCEPTION_DISPOSITION@@PAUEHExceptionRecord@@PAUEHRegistrationNode@@PAU_CONTEXT@@PAXPBU_s_FuncInfo@@H1E@Z 1001b1e8 f i libvcruntime:frame.obj
 0001:0001a2ea       ??$__InternalCxxFrameHandlerWrapper@V__FrameHandler3@@@@YA?AW4_EXCEPTION_DISPOSITION@@PAUEHExceptionRecord@@PAUEHRegistrationNode@@PAU_CONTEXT@@PAXPBU_s_FuncInfo@@H1E@Z 1001b2ea f i libvcruntime:frame.obj
 0001:0001a2f3       ??0HandlerMap@__FrameHandler3@@QAE@PBU_s_TryBlockMapEntry@@II@Z 1001b2f3 f i libvcruntime:frame.obj
 0001:0001a30a       ??0TryBlockMap@__FrameHandler3@@QAE@PBU_s_FuncInfo@@I@Z 1001b30a f i libvcruntime:frame.obj
 0001:0001a31e       ??0bad_exception@std@@QAE@ABV01@@Z 1001b31e f i libvcruntime:frame.obj
 0001:0001a339       ??0bad_exception@std@@QAE@XZ 1001b339 f i libvcruntime:frame.obj
 0001:0001a351       ??0exception@std@@QAE@ABV01@@Z 1001b351 f i libvcruntime:frame.obj
 0001:0001a37d       ??0exception@std@@QAE@QBDH@Z 1001b37d f i libvcruntime:frame.obj
 0001:0001a39a       ??0iterator@HandlerMap@__FrameHandler3@@QAE@AAV12@I@Z 1001b39a f i libvcruntime:frame.obj
 0001:0001a3ae       ??1bad_exception@std@@UAE@XZ 1001b3ae f i libvcruntime:frame.obj
 0001:0001a3bf       ??1exception@std@@UAE@XZ   1001b3bf f i libvcruntime:frame.obj
 0001:0001a3d0       ??8iterator@HandlerMap@__FrameHandler3@@QBE_NABV012@@Z 1001b3d0 f i libvcruntime:frame.obj
 0001:0001a3e3       ??8type_info@@QBE_NABV0@@Z 1001b3e3 f i libvcruntime:frame.obj
 0001:0001a402       ??9iterator@HandlerMap@__FrameHandler3@@QBE_NABV012@@Z 1001b402 f i libvcruntime:frame.obj
 0001:0001a415       ??Diterator@HandlerMap@__FrameHandler3@@QAE?BU_s_HandlerType@@XZ 1001b415 f i libvcruntime:frame.obj
 0001:0001a434       ??Diterator@TryBlockMap@__FrameHandler3@@QAE?BU_s_TryBlockMapEntry@@XZ 1001b434 f i libvcruntime:frame.obj
 0001:0001a456       ??Eiterator@HandlerMap@__FrameHandler3@@QAEAAV012@XZ 1001b456 f i libvcruntime:frame.obj
 0001:0001a45c       ??Eiterator@TryBlockMap@__FrameHandler3@@QAEAAV012@XZ 1001b45c f i libvcruntime:frame.obj
 0001:0001a462       ??Miterator@TryBlockMap@__FrameHandler3@@QBE_NABV012@@Z 1001b462 f i libvcruntime:frame.obj
 0001:0001a475       ??_Ebad_exception@std@@UAEPAXI@Z 1001b475 f i libvcruntime:frame.obj
 0001:0001a475       ??_Gbad_exception@std@@UAEPAXI@Z 1001b475 f i libvcruntime:frame.obj
 0001:0001a4a2       ??_Eexception@std@@UAEPAXI@Z 1001b4a2 f i libvcruntime:frame.obj
 0001:0001a4a2       ??_Gexception@std@@UAEPAXI@Z 1001b4a2 f i libvcruntime:frame.obj
 0001:0001a4cf       ?BuildCatchObject@__FrameHandler3@@SAXPAUEHExceptionRecord@@PAXPBU_s_HandlerType@@PBU_s_CatchableType@@@Z 1001b4cf f   libvcruntime:frame.obj
 0001:0001a4d4       ?BuildCatchObjectHelper@__FrameHandler3@@SAHPAUEHExceptionRecord@@PAXPBU_s_HandlerType@@PBU_s_CatchableType@@@Z 1001b4d4 f   libvcruntime:frame.obj
 0001:0001a735       ?FrameUnwindToEmptyState@__FrameHandler3@@SAXPAUEHRegistrationNode@@PAXPBU_s_FuncInfo@@@Z 1001b735 f   libvcruntime:frame.obj
 0001:0001a74d       ?FrameUnwindToState@__FrameHandler3@@SAXPAUEHRegistrationNode@@PAXPBU_s_FuncInfo@@H@Z 1001b74d f   libvcruntime:frame.obj
 0001:0001a835       ?GetMaxState@__FrameHandler3@@SAHPAXPBU_s_FuncInfo@@@Z 1001b835 f i libvcruntime:frame.obj
 0001:0001a913       ?TypeMatch@__FrameHandler3@@SAHPBU_s_HandlerType@@PBU_s_CatchableType@@PBU_s_ThrowInfo@@@Z 1001b913 f   libvcruntime:frame.obj
 0001:0001a91c       ?_CallMemberFunction1@@YGXQAX00@Z 1001b91c f i libvcruntime:frame.obj
 0001:0001a92c       ?_CallMemberFunction2@@YGXQAX00H@Z 1001b92c f i libvcruntime:frame.obj
 0001:0001a93f       ?begin@HandlerMap@__FrameHandler3@@QAE?AViterator@12@XZ 1001b93f f i libvcruntime:frame.obj
 0001:0001a94f       ?end@HandlerMap@__FrameHandler3@@QAE?AViterator@12@XZ 1001b94f f i libvcruntime:frame.obj
 0001:0001a960       ?getESTypes@__FrameHandler3@@SAPBU_s_ESTypeList@@PBU_s_FuncInfo@@@Z 1001b960 f i libvcruntime:frame.obj
 0001:0001a96b       ?getLastEntry@HandlerMap@__FrameHandler3@@QAEPBU_s_HandlerType@@XZ 1001b96b f i libvcruntime:frame.obj
 0001:0001a979       ?getMagicNum@__FrameHandler3@@SAIPBU_s_FuncInfo@@@Z 1001b979 f i libvcruntime:frame.obj
 0001:0001a988       ?getNumTryBlocks@TryBlockMap@__FrameHandler3@@QAEIXZ 1001b988 f i libvcruntime:frame.obj
 0001:0001a98e       ?isEHs@__FrameHandler3@@SA_NPBU_s_FuncInfo@@@Z 1001b98e f i libvcruntime:frame.obj
 0001:0001a99b       ?isNoExcept@__FrameHandler3@@SA_NPBU_s_FuncInfo@@@Z 1001b99b f i libvcruntime:frame.obj
 0001:0001a9ab       ?what@exception@std@@UBEPBDXZ 1001b9ab f i libvcruntime:frame.obj
 0001:0001a9b8       ___BuildCatchObject        1001b9b8 f   libvcruntime:frame.obj
 0001:0001a9bd       ___BuildCatchObjectHelper  1001b9bd f   libvcruntime:frame.obj
 0001:0001a9c6       ___TypeMatch               1001b9c6 f   libvcruntime:frame.obj
 0001:0001a9cf       ___vcrt_EncodePointer      1001b9cf f i libvcruntime:frame.obj
 0001:0001a9e0       __CallSettingFrame@12      1001b9e0 f   libvcruntime:lowhelpr.obj
 0001:0001aa07       __NLG_Return               1001ba07     libvcruntime:lowhelpr.obj
 0001:0001aa40       __get_unexpected           1001ba40 f   libvcruntime:unexpected.obj
 0001:0001aa52       _set_unexpected            1001ba52 f   libvcruntime:unexpected.obj
 0001:0001aa70       _unexpected                1001ba70 f   libvcruntime:unexpected.obj
 0001:0001aa8d       ?GetCurrentState@__FrameHandler3@@SAHPAUEHRegistrationNode@@PAXPBU_s_FuncInfo@@@Z 1001ba8d f   libvcruntime:ehstate.obj
 0001:0001aaaa       ?SetState@__FrameHandler3@@SAXPAUEHRegistrationNode@@PBU_s_FuncInfo@@H@Z 1001baaa f   libvcruntime:ehstate.obj
 0001:0001aab8       ??$?RD@__crt_public_free_policy@@QBEXQBD@Z 1001bab8 f i libvcruntime:std_exception.obj
 0001:0001aac8       ??0?$__crt_unique_heap_ptr@DU__crt_public_free_policy@@@@QAE@QAD@Z 1001bac8 f i libvcruntime:std_exception.obj
 0001:0001aad6       ??1?$__crt_unique_heap_ptr@DU__crt_public_free_policy@@@@QAE@XZ 1001bad6 f i libvcruntime:std_exception.obj
 0001:0001aae6       ??B?$__crt_unique_heap_ptr@DU__crt_public_free_policy@@@@QBE_NXZ 1001bae6 f i libvcruntime:std_exception.obj
 0001:0001aaed       ?detach@?$__crt_unique_heap_ptr@DU__crt_public_free_policy@@@@QAEPADXZ 1001baed f i libvcruntime:std_exception.obj
 0001:0001aaf3       ?get@?$__crt_unique_heap_ptr@DU__crt_public_free_policy@@@@QBEPADXZ 1001baf3 f i libvcruntime:std_exception.obj
 0001:0001aaf6       ?is_valid@?$__crt_unique_heap_ptr@DU__crt_public_free_policy@@@@QBE_NXZ 1001baf6 f i libvcruntime:std_exception.obj
 0001:0001aafd       ?release@?$__crt_unique_heap_ptr@DU__crt_public_free_policy@@@@QAEXXZ 1001bafd f i libvcruntime:std_exception.obj
 0001:0001ab0d       ___std_exception_copy      1001bb0d f   libvcruntime:std_exception.obj
 0001:0001ab70       ___std_exception_destroy   1001bb70 f   libvcruntime:std_exception.obj
 0001:0001ab8f       __CxxThrowException@8      1001bb8f f   libvcruntime:throw.obj
 0001:0001ac00       _memmove                   1001bc00 f   libvcruntime:memmove.obj
 0001:0001b48a       ??0?$cached@H@__crt_cached_ptd_host@@QAE@XZ 1001c48a f i libucrt:lseek.obj
 0001:0001b491       ??0?$cached@K@__crt_cached_ptd_host@@QAE@XZ 1001c491 f i libucrt:lseek.obj
 0001:0001b498       ??0__crt_cached_ptd_host@@QAE@QAU__crt_locale_pointers@@@Z 1001c498 f i libucrt:lseek.obj
 0001:0001b4e0       ??0__crt_scoped_get_last_error_reset@@QAE@XZ 1001c4e0 f i libucrt:lseek.obj
 0001:0001b4f1       ??1__crt_cached_ptd_host@@QAE@XZ 1001c4f1 f i libucrt:lseek.obj
 0001:0001b52d       ??1__crt_scoped_get_last_error_reset@@QAE@XZ 1001c52d f i libucrt:lseek.obj
 0001:0001b536       ?check_synchronize_global_state_index@__crt_cached_ptd_host@@AAEIABV__crt_scoped_get_last_error_reset@@@Z 1001c536 f i libucrt:lseek.obj
 0001:0001b54e       ?check_synchronize_per_thread_data@__crt_cached_ptd_host@@AAEPAU__acrt_ptd@@XZ 1001c54e f i libucrt:lseek.obj
 0001:0001b635       ?force_synchronize_global_state_index@__crt_cached_ptd_host@@AAEIABV__crt_scoped_get_last_error_reset@@@Z 1001c635 f i libucrt:lseek.obj
 0001:0001b642       ?force_synchronize_per_thread_data@__crt_cached_ptd_host@@AAEPAU__acrt_ptd@@XZ 1001c642 f i libucrt:lseek.obj
 0001:0001b688       ?get_current_state_index@__crt_state_management@@YAIABV__crt_scoped_get_last_error_reset@@@Z 1001c688 f i libucrt:lseek.obj
 0001:0001b68b       ?get_doserrno@__crt_cached_ptd_host@@QAE@XZ 1001c68b f i libucrt:lseek.obj
 0001:0001b68f       ?get_errno@__crt_cached_ptd_host@@QAE@XZ 1001c68f f i libucrt:lseek.obj
 0001:0001b693       ?get_raw_ptd@__crt_cached_ptd_host@@QAEPAU__acrt_ptd@@XZ 1001c693 f i libucrt:lseek.obj
 0001:0001b6b0       ?set@?$cached@H@__crt_cached_ptd_host@@QAEHH@Z 1001c6b0 f i libucrt:lseek.obj
 0001:0001b6c2       ?set@?$cached@K@__crt_cached_ptd_host@@QAEKK@Z 1001c6c2 f i libucrt:lseek.obj
 0001:0001b6d4       ?unsafe_value@?$cached@H@__crt_cached_ptd_host@@QAEHXZ 1001c6d4 f i libucrt:lseek.obj
 0001:0001b6d7       ?unsafe_value@?$cached@K@__crt_cached_ptd_host@@QAEKXZ 1001c6d7 f i libucrt:lseek.obj
 0001:0001b6da       ?valid@?$cached@H@__crt_cached_ptd_host@@QBE_NXZ 1001c6da f i libucrt:lseek.obj
 0001:0001b6de       ?valid@?$cached@K@__crt_cached_ptd_host@@QBE_NXZ 1001c6de f i libucrt:lseek.obj
 0001:0001b6e2       ___acrt_enable_global_locale_sync 1001c6e2 f i libucrt:lseek.obj
 0001:0001b6f7       ___acrt_locale_changed     1001c6f7 f i libucrt:lseek.obj
 0001:0001b702       __lseek                    1001c702 f   libucrt:lseek.obj
 0001:0001b739       __lseek_internal           1001c739 f   libucrt:lseek.obj
 0001:0001b744       __lseek_nolock             1001c744 f   libucrt:lseek.obj
 0001:0001b77b       __lseek_nolock_internal    1001c77b f   libucrt:lseek.obj
 0001:0001b786       __lseeki64                 1001c786 f   libucrt:lseek.obj
 0001:0001b7c6       __lseeki64_internal        1001c7c6 f   libucrt:lseek.obj
 0001:0001b7e4       __lseeki64_nolock          1001c7e4 f   libucrt:lseek.obj
 0001:0001b824       __lseeki64_nolock_internal 1001c824 f   libucrt:lseek.obj
 0001:0001b842       ??$__acrt_convert_wcs_mbs_cp@D_WV<lambda_62f6974d9771e494a5ea317cc32e971c>@@U__crt_win32_buffer_internal_dynamic_resizing@@@@YAHQBDAAV?$__crt_win32_buffer@_WU__crt_win32_buffer_internal_dynamic_resizing@@@@ABV<lambda_62f6974d9771e494a5ea317cc32e971c>@@I@Z 1001c842 f i libucrt:open.obj
 0001:0001b8f4       ??$__acrt_mbs_to_wcs_cp@U__crt_win32_buffer_internal_dynamic_resizing@@@@YAHQBDAAV?$__crt_win32_buffer@_WU__crt_win32_buffer_internal_dynamic_resizing@@@@I@Z 1001c8f4 f i libucrt:open.obj
 0001:0001bc69       ??$tsopen_nolock@PAHABQAHABQBDABHABHABHABH@?$__crt_char_traits@D@@SAH$$QAPAHABQAHABQBDABH333@Z 1001cc69 f i libucrt:open.obj
 0001:0001bc9b       ??$tsopen_nolock@PAHABQAHABQB_WABHABHABHABH@?$__crt_char_traits@_W@@SAH$$QAPAHABQAHABQB_WABH333@Z 1001cc9b f i libucrt:open.obj
 0001:0001bccd       ??$tsopen_nolock@PAHPAHABQBDABHHABHH@?$__crt_char_traits@D@@SAH$$QAPAH0ABQBDABH$$QAH23@Z 1001cccd f i libucrt:open.obj
 0001:0001bcff       ??$tsopen_nolock@PAHPAHABQB_WABHHABHH@?$__crt_char_traits@_W@@SAH$$QAPAH0ABQB_WABH$$QAH23@Z 1001ccff f i libucrt:open.obj
 0001:0001bd31       ??0?$__crt_win32_buffer@_WU__crt_win32_buffer_internal_dynamic_resizing@@@@QAE@XZ 1001cd31 f i libucrt:open.obj
 0001:0001bd47       ??0_LocaleUpdate@@QAE@QAU__crt_locale_pointers@@@Z 1001cd47 f i libucrt:open.obj
 0001:0001bdc9       ??1?$__crt_win32_buffer@_WU__crt_win32_buffer_internal_dynamic_resizing@@@@QAE@XZ 1001cdc9 f i libucrt:open.obj
 0001:0001bdce       ??1_LocaleUpdate@@QAE@XZ   1001cdce f i libucrt:open.obj
 0001:0001bdde       ??R<lambda_62f6974d9771e494a5ea317cc32e971c>@@QBE@IQBDQA_WI@Z 1001cdde f i libucrt:open.obj
 0001:0001bdff       ?GetLocaleT@_LocaleUpdate@@QAEPAU__crt_locale_pointers@@XZ 1001cdff f i libucrt:open.obj
 0001:0001be03       ?__acrt_get_utf8_acp_compatibility_codepage@@YAIXZ 1001ce03 f i libucrt:open.obj
 0001:0001be42       ?_deallocate@?$__crt_win32_buffer@_WU__crt_win32_buffer_internal_dynamic_resizing@@@@AAEXXZ 1001ce42 f i libucrt:open.obj
 0001:0001be5c       ?allocate@?$__crt_win32_buffer@_WU__crt_win32_buffer_internal_dynamic_resizing@@@@QAEHI@Z 1001ce5c f i libucrt:open.obj
 0001:0001be9b       ?allocate@__crt_win32_buffer_internal_dynamic_resizing@@SAHQAPAXIABV__crt_win32_buffer_empty_debug_info@@@Z 1001ce9b f i libucrt:open.obj
 0001:0001beba       ?capacity@?$__crt_win32_buffer@_WU__crt_win32_buffer_internal_dynamic_resizing@@@@QBEIXZ 1001ceba f i libucrt:open.obj
 0001:0001c139       ?data@?$__crt_win32_buffer@_WU__crt_win32_buffer_internal_dynamic_resizing@@@@QAEPA_WXZ 1001d139 f i libucrt:open.obj
 0001:0001c13d       ?deallocate@__crt_win32_buffer_internal_dynamic_resizing@@SAXQAXABV__crt_win32_buffer_empty_debug_info@@@Z 1001d13d f i libucrt:open.obj
 0001:0001c14d       ?debug_info@?$__crt_win32_buffer@_WU__crt_win32_buffer_internal_dynamic_resizing@@@@QBEABV__crt_win32_buffer_empty_debug_info@@XZ 1001d14d f i libucrt:open.obj
 0001:0001c433       ?set_to_nullptr@?$__crt_win32_buffer@_WU__crt_win32_buffer_internal_dynamic_resizing@@@@QAEXXZ 1001d433 f i libucrt:open.obj
 0001:0001c44a       ?size@?$__crt_win32_buffer@_WU__crt_win32_buffer_internal_dynamic_resizing@@@@QAEXI@Z 1001d44a f i libucrt:open.obj
 0001:0001c503       ___acrt_disable_global_locale_sync 1001d503 f i libucrt:open.obj
 0001:0001c516       __invoke_watson_if_error   1001d516 f i libucrt:open.obj
 0001:0001c538       __open                     1001d538 f   libucrt:open.obj
 0001:0001c550       __sopen                    1001d550 f   libucrt:open.obj
 0001:0001c583       __sopen_dispatch           1001d583 f   libucrt:open.obj
 0001:0001c58e       __sopen_nolock             1001d58e f   libucrt:open.obj
 0001:0001c5fc       __sopen_s                  1001d5fc f   libucrt:open.obj
 0001:0001c61c       __wopen                    1001d61c f   libucrt:open.obj
 0001:0001c634       __wsopen                   1001d634 f   libucrt:open.obj
 0001:0001c667       __wsopen_dispatch          1001d667 f   libucrt:open.obj
 0001:0001c672       __wsopen_nolock            1001d672 f   libucrt:open.obj
 0001:0001c99c       __wsopen_s                 1001d99c f   libucrt:open.obj
 0001:0001cd38       ?get_locale@__crt_cached_ptd_host@@QAEPAU__crt_locale_pointers@@XZ 1001dd38 f i libucrt:wcstombs.obj
 0001:0001cd4d       ?update_locale@__crt_cached_ptd_host@@AAEXXZ 1001dd4d f i libucrt:wcstombs.obj
 0001:0001cd58       ?update_locale_slow@__crt_cached_ptd_host@@AAEXXZ 1001dd58 f i libucrt:wcstombs.obj
 0001:0001cdb1       ?value_or@?$cached@H@__crt_cached_ptd_host@@QBEHH@Z 1001ddb1 f i libucrt:wcstombs.obj
 0001:0001cdf2       __wcstombs_l               1001ddf2 f   libucrt:wcstombs.obj
 0001:0001ce2a       __wcstombs_s_l             1001de2a f   libucrt:wcstombs.obj
 0001:0001ce68       _wcstombs                  1001de68 f   libucrt:wcstombs.obj
 0001:0001ce9f       _wcstombs_s                1001de9f f   libucrt:wcstombs.obj
 0001:0001cedc       ??$?0ABV?$stream_output_adapter@D@__crt_stdio_output@@AB_KABQBDAAV__crt_cached_ptd_host@@ABQAD@?$format_validation_base@DV?$stream_output_adapter@D@__crt_stdio_output@@@__crt_stdio_output@@IAE@ABV?$stream_output_adapter@D@1@AB_KABQBDAAV__crt_cached_ptd_host@@ABQAD@Z 1001dedc f i libucrt:output.obj
 0001:0001ceff       ??$?0ABV?$stream_output_adapter@D@__crt_stdio_output@@AB_KABQBDAAV__crt_cached_ptd_host@@ABQAD@?$positional_parameter_base@DV?$stream_output_adapter@D@__crt_stdio_output@@@__crt_stdio_output@@IAE@ABV?$stream_output_adapter@D@1@AB_KABQBDAAV__crt_cached_ptd_host@@ABQAD@Z 1001deff f i libucrt:output.obj
 0001:0001cf47       ??$?0ABV?$stream_output_adapter@D@__crt_stdio_output@@AB_KABQBDAAV__crt_cached_ptd_host@@ABQAD@?$standard_base@DV?$stream_output_adapter@D@__crt_stdio_output@@@__crt_stdio_output@@IAE@ABV?$stream_output_adapter@D@1@AB_KABQBDAAV__crt_cached_ptd_host@@ABQAD@Z 1001df47 f i libucrt:output.obj
 0001:0001cf7a       ??$?0ABV?$stream_output_adapter@_W@__crt_stdio_output@@AB_KABQB_WAAV__crt_cached_ptd_host@@ABQAD@?$format_validation_base@_WV?$stream_output_adapter@_W@__crt_stdio_output@@@__crt_stdio_output@@IAE@ABV?$stream_output_adapter@_W@1@AB_KABQB_WAAV__crt_cached_ptd_host@@ABQAD@Z 1001df7a f i libucrt:output.obj
 0001:0001cf9d       ??$?0ABV?$stream_output_adapter@_W@__crt_stdio_output@@AB_KABQB_WAAV__crt_cached_ptd_host@@ABQAD@?$positional_parameter_base@_WV?$stream_output_adapter@_W@__crt_stdio_output@@@__crt_stdio_output@@IAE@ABV?$stream_output_adapter@_W@1@AB_KABQB_WAAV__crt_cached_ptd_host@@ABQAD@Z 1001df9d f i libucrt:output.obj
 0001:0001cfe5       ??$?0ABV?$stream_output_adapter@_W@__crt_stdio_output@@AB_KABQB_WAAV__crt_cached_ptd_host@@ABQAD@?$standard_base@_WV?$stream_output_adapter@_W@__crt_stdio_output@@@__crt_stdio_output@@IAE@ABV?$stream_output_adapter@_W@1@AB_KABQB_WAAV__crt_cached_ptd_host@@ABQAD@Z 1001dfe5 f i libucrt:output.obj
 0001:0001d018       ??$?0ABV?$string_output_adapter@D@__crt_stdio_output@@AB_KABQBDAAV__crt_cached_ptd_host@@ABQAD@?$format_validation_base@DV?$string_output_adapter@D@__crt_stdio_output@@@__crt_stdio_output@@IAE@ABV?$string_output_adapter@D@1@AB_KABQBDAAV__crt_cached_ptd_host@@ABQAD@Z 1001e018 f i libucrt:output.obj
 0001:0001d03b       ??$?0ABV?$string_output_adapter@D@__crt_stdio_output@@AB_KABQBDAAV__crt_cached_ptd_host@@ABQAD@?$positional_parameter_base@DV?$string_output_adapter@D@__crt_stdio_output@@@__crt_stdio_output@@IAE@ABV?$string_output_adapter@D@1@AB_KABQBDAAV__crt_cached_ptd_host@@ABQAD@Z 1001e03b f i libucrt:output.obj
 0001:0001d083       ??$?0ABV?$string_output_adapter@D@__crt_stdio_output@@AB_KABQBDAAV__crt_cached_ptd_host@@ABQAD@?$standard_base@DV?$string_output_adapter@D@__crt_stdio_output@@@__crt_stdio_output@@IAE@ABV?$string_output_adapter@D@1@AB_KABQBDAAV__crt_cached_ptd_host@@ABQAD@Z 1001e083 f i libucrt:output.obj
 0001:0001d0b6       ??$?0ABV?$string_output_adapter@_W@__crt_stdio_output@@AB_KABQB_WAAV__crt_cached_ptd_host@@ABQAD@?$format_validation_base@_WV?$string_output_adapter@_W@__crt_stdio_output@@@__crt_stdio_output@@IAE@ABV?$string_output_adapter@_W@1@AB_KABQB_WAAV__crt_cached_ptd_host@@ABQAD@Z 1001e0b6 f i libucrt:output.obj
 0001:0001d0d9       ??$?0ABV?$string_output_adapter@_W@__crt_stdio_output@@AB_KABQB_WAAV__crt_cached_ptd_host@@ABQAD@?$positional_parameter_base@_WV?$string_output_adapter@_W@__crt_stdio_output@@@__crt_stdio_output@@IAE@ABV?$string_output_adapter@_W@1@AB_KABQB_WAAV__crt_cached_ptd_host@@ABQAD@Z 1001e0d9 f i libucrt:output.obj
 0001:0001d121       ??$?0ABV?$string_output_adapter@_W@__crt_stdio_output@@AB_KABQB_WAAV__crt_cached_ptd_host@@ABQAD@?$standard_base@_WV?$string_output_adapter@_W@__crt_stdio_output@@@__crt_stdio_output@@IAE@ABV?$string_output_adapter@_W@1@AB_KABQB_WAAV__crt_cached_ptd_host@@ABQAD@Z 1001e121 f i libucrt:output.obj
 0001:0001d45a       ??$__crt_interlocked_read@J@@YAJPDJ@Z 1001e45a f i libucrt:output.obj
 0001:0001d467       ??$_tcstol_internal@DPAPAD$0A@@@YAJAAV__crt_cached_ptd_host@@QBDQAPADH@Z 1001e467 f i libucrt:output.obj
 0001:0001d492       ??$_tcstol_internal@_WPAPA_W$0A@@@YAJAAV__crt_cached_ptd_host@@QB_WQAPA_WH@Z 1001e492 f i libucrt:output.obj
 0001:0001e3ec       ??$count@D@formatting_buffer@__crt_stdio_output@@QBEIXZ 1001f3ec f i libucrt:output.obj
 0001:0001e404       ??$count@_W@formatting_buffer@__crt_stdio_output@@QBEIXZ 1001f404 f i libucrt:output.obj
 0001:0001e41d       ??$data@D@formatting_buffer@__crt_stdio_output@@QAEPADXZ 1001f41d f i libucrt:output.obj
 0001:0001e42a       ??$data@_W@formatting_buffer@__crt_stdio_output@@QAEPA_WXZ 1001f42a f i libucrt:output.obj
 0001:0001e437       ??$ensure_buffer_is_big_enough@D@formatting_buffer@__crt_stdio_output@@QAE_NIAAV__crt_cached_ptd_host@@@Z 1001f437 f i libucrt:output.obj
 0001:0001e4b8       ??$ensure_buffer_is_big_enough@_W@formatting_buffer@__crt_stdio_output@@QAE_NIAAV__crt_cached_ptd_host@@@Z 1001f4b8 f i libucrt:output.obj
 0001:0001e53a       ??$extract_argument_from_va_list@C_J@?$positional_parameter_base@DV?$stream_output_adapter@D@__crt_stdio_output@@@__crt_stdio_output@@IAE_NAA_J@Z 1001f53a f i libucrt:output.obj
 0001:0001e5c9       ??$extract_argument_from_va_list@C_J@?$positional_parameter_base@DV?$string_output_adapter@D@__crt_stdio_output@@@__crt_stdio_output@@IAE_NAA_J@Z 1001f5c9 f i libucrt:output.obj
 0001:0001e658       ??$extract_argument_from_va_list@C_J@?$positional_parameter_base@_WV?$stream_output_adapter@_W@__crt_stdio_output@@@__crt_stdio_output@@IAE_NAA_J@Z 1001f658 f i libucrt:output.obj
 0001:0001e6e8       ??$extract_argument_from_va_list@C_J@?$positional_parameter_base@_WV?$string_output_adapter@_W@__crt_stdio_output@@@__crt_stdio_output@@IAE_NAA_J@Z 1001f6e8 f i libucrt:output.obj
 0001:0001e778       ??$extract_argument_from_va_list@C_J@?$standard_base@DV?$stream_output_adapter@D@__crt_stdio_output@@@__crt_stdio_output@@IAE_NAA_J@Z 1001f778 f i libucrt:output.obj
 0001:0001e798       ??$extract_argument_from_va_list@C_J@?$standard_base@DV?$string_output_adapter@D@__crt_stdio_output@@@__crt_stdio_output@@IAE_NAA_J@Z 1001f798 f i libucrt:output.obj
 0001:0001e7b8       ??$extract_argument_from_va_list@C_J@?$standard_base@_WV?$stream_output_adapter@_W@__crt_stdio_output@@@__crt_stdio_output@@IAE_NAA_J@Z 1001f7b8 f i libucrt:output.obj
 0001:0001e7d8       ??$extract_argument_from_va_list@C_J@?$standard_base@_WV?$string_output_adapter@_W@__crt_stdio_output@@@__crt_stdio_output@@IAE_NAA_J@Z 1001f7d8 f i libucrt:output.obj
 0001:0001e7f8       ??$extract_argument_from_va_list@E_J@?$positional_parameter_base@DV?$stream_output_adapter@D@__crt_stdio_output@@@__crt_stdio_output@@IAE_NAA_J@Z 1001f7f8 f i libucrt:output.obj
 0001:0001e887       ??$extract_argument_from_va_list@E_J@?$positional_parameter_base@DV?$string_output_adapter@D@__crt_stdio_output@@@__crt_stdio_output@@IAE_NAA_J@Z 1001f887 f i libucrt:output.obj
 0001:0001e916       ??$extract_argument_from_va_list@E_J@?$positional_parameter_base@_WV?$stream_output_adapter@_W@__crt_stdio_output@@@__crt_stdio_output@@IAE_NAA_J@Z 1001f916 f i libucrt:output.obj
 0001:0001e9a6       ??$extract_argument_from_va_list@E_J@?$positional_parameter_base@_WV?$string_output_adapter@_W@__crt_stdio_output@@@__crt_stdio_output@@IAE_NAA_J@Z 1001f9a6 f i libucrt:output.obj
 0001:0001ea36       ??$extract_argument_from_va_list@E_J@?$standard_base@DV?$stream_output_adapter@D@__crt_stdio_output@@@__crt_stdio_output@@IAE_NAA_J@Z 1001fa36 f i libucrt:output.obj
 0001:0001ea56       ??$extract_argument_from_va_list@E_J@?$standard_base@DV?$string_output_adapter@D@__crt_stdio_output@@@__crt_stdio_output@@IAE_NAA_J@Z 1001fa56 f i libucrt:output.obj
 0001:0001ea76       ??$extract_argument_from_va_list@E_J@?$standard_base@_WV?$stream_output_adapter@_W@__crt_stdio_output@@@__crt_stdio_output@@IAE_NAA_J@Z 1001fa76 f i libucrt:output.obj
 0001:0001ea96       ??$extract_argument_from_va_list@E_J@?$standard_base@_WV?$string_output_adapter@_W@__crt_stdio_output@@@__crt_stdio_output@@IAE_NAA_J@Z 1001fa96 f i libucrt:output.obj
 0001:0001eab6       ??$extract_argument_from_va_list@F_J@?$positional_parameter_base@DV?$stream_output_adapter@D@__crt_stdio_output@@@__crt_stdio_output@@IAE_NAA_J@Z 1001fab6 f i libucrt:output.obj
 0001:0001eb45       ??$extract_argument_from_va_list@F_J@?$positional_parameter_base@DV?$string_output_adapter@D@__crt_stdio_output@@@__crt_stdio_output@@IAE_NAA_J@Z 1001fb45 f i libucrt:output.obj
 0001:0001ebd4       ??$extract_argument_from_va_list@F_J@?$positional_parameter_base@_WV?$stream_output_adapter@_W@__crt_stdio_output@@@__crt_stdio_output@@IAE_NAA_J@Z 1001fbd4 f i libucrt:output.obj
 0001:0001ec64       ??$extract_argument_from_va_list@F_J@?$positional_parameter_base@_WV?$string_output_adapter@_W@__crt_stdio_output@@@__crt_stdio_output@@IAE_NAA_J@Z 1001fc64 f i libucrt:output.obj
 0001:0001ecf4       ??$extract_argument_from_va_list@F_J@?$standard_base@DV?$stream_output_adapter@D@__crt_stdio_output@@@__crt_stdio_output@@IAE_NAA_J@Z 1001fcf4 f i libucrt:output.obj
 0001:0001ed14       ??$extract_argument_from_va_list@F_J@?$standard_base@DV?$string_output_adapter@D@__crt_stdio_output@@@__crt_stdio_output@@IAE_NAA_J@Z 1001fd14 f i libucrt:output.obj
 0001:0001ed34       ??$extract_argument_from_va_list@F_J@?$standard_base@_WV?$stream_output_adapter@_W@__crt_stdio_output@@@__crt_stdio_output@@IAE_NAA_J@Z 1001fd34 f i libucrt:output.obj
 0001:0001ed54       ??$extract_argument_from_va_list@F_J@?$standard_base@_WV?$string_output_adapter@_W@__crt_stdio_output@@@__crt_stdio_output@@IAE_NAA_J@Z 1001fd54 f i libucrt:output.obj
 0001:0001ed74       ??$extract_argument_from_va_list@GD@?$positional_parameter_base@DV?$stream_output_adapter@D@__crt_stdio_output@@@__crt_stdio_output@@IAE_NAAD@Z 1001fd74 f i libucrt:output.obj
 0001:0001ee02       ??$extract_argument_from_va_list@GD@?$positional_parameter_base@DV?$string_output_adapter@D@__crt_stdio_output@@@__crt_stdio_output@@IAE_NAAD@Z 1001fe02 f i libucrt:output.obj
 0001:0001ee90       ??$extract_argument_from_va_list@GD@?$standard_base@DV?$stream_output_adapter@D@__crt_stdio_output@@@__crt_stdio_output@@IAE_NAAD@Z 1001fe90 f i libucrt:output.obj
 0001:0001eeab       ??$extract_argument_from_va_list@GD@?$standard_base@DV?$string_output_adapter@D@__crt_stdio_output@@@__crt_stdio_output@@IAE_NAAD@Z 1001feab f i libucrt:output.obj
 0001:0001eec6       ??$extract_argument_from_va_list@G_J@?$positional_parameter_base@DV?$stream_output_adapter@D@__crt_stdio_output@@@__crt_stdio_output@@IAE_NAA_J@Z 1001fec6 f i libucrt:output.obj
 0001:0001ef55       ??$extract_argument_from_va_list@G_J@?$positional_parameter_base@DV?$string_output_adapter@D@__crt_stdio_output@@@__crt_stdio_output@@IAE_NAA_J@Z 1001ff55 f i libucrt:output.obj
 0001:0001efe4       ??$extract_argument_from_va_list@G_J@?$positional_parameter_base@_WV?$stream_output_adapter@_W@__crt_stdio_output@@@__crt_stdio_output@@IAE_NAA_J@Z 1001ffe4 f i libucrt:output.obj
 0001:0001f074       ??$extract_argument_from_va_list@G_J@?$positional_parameter_base@_WV?$string_output_adapter@_W@__crt_stdio_output@@@__crt_stdio_output@@IAE_NAA_J@Z 10020074 f i libucrt:output.obj
 0001:0001f104       ??$extract_argument_from_va_list@G_J@?$standard_base@DV?$stream_output_adapter@D@__crt_stdio_output@@@__crt_stdio_output@@IAE_NAA_J@Z 10020104 f i libucrt:output.obj
 0001:0001f124       ??$extract_argument_from_va_list@G_J@?$standard_base@DV?$string_output_adapter@D@__crt_stdio_output@@@__crt_stdio_output@@IAE_NAA_J@Z 10020124 f i libucrt:output.obj
 0001:0001f144       ??$extract_argument_from_va_list@G_J@?$standard_base@_WV?$stream_output_adapter@_W@__crt_stdio_output@@@__crt_stdio_output@@IAE_NAA_J@Z 10020144 f i libucrt:output.obj
 0001:0001f164       ??$extract_argument_from_va_list@G_J@?$standard_base@_WV?$string_output_adapter@_W@__crt_stdio_output@@@__crt_stdio_output@@IAE_NAA_J@Z 10020164 f i libucrt:output.obj
 0001:0001f184       ??$extract_argument_from_va_list@H_J@?$positional_parameter_base@DV?$stream_output_adapter@D@__crt_stdio_output@@@__crt_stdio_output@@IAE_NAA_J@Z 10020184 f i libucrt:output.obj
 0001:0001f20d       ??$extract_argument_from_va_list@H_J@?$positional_parameter_base@DV?$string_output_adapter@D@__crt_stdio_output@@@__crt_stdio_output@@IAE_NAA_J@Z 1002020d f i libucrt:output.obj
 0001:0001f296       ??$extract_argument_from_va_list@H_J@?$positional_parameter_base@_WV?$stream_output_adapter@_W@__crt_stdio_output@@@__crt_stdio_output@@IAE_NAA_J@Z 10020296 f i libucrt:output.obj
 0001:0001f320       ??$extract_argument_from_va_list@H_J@?$positional_parameter_base@_WV?$string_output_adapter@_W@__crt_stdio_output@@@__crt_stdio_output@@IAE_NAA_J@Z 10020320 f i libucrt:output.obj
 0001:0001f3aa       ??$extract_argument_from_va_list@H_J@?$standard_base@DV?$stream_output_adapter@D@__crt_stdio_output@@@__crt_stdio_output@@IAE_NAA_J@Z 100203aa f i libucrt:output.obj
 0001:0001f3c9       ??$extract_argument_from_va_list@H_J@?$standard_base@DV?$string_output_adapter@D@__crt_stdio_output@@@__crt_stdio_output@@IAE_NAA_J@Z 100203c9 f i libucrt:output.obj
 0001:0001f3e8       ??$extract_argument_from_va_list@H_J@?$standard_base@_WV?$stream_output_adapter@_W@__crt_stdio_output@@@__crt_stdio_output@@IAE_NAA_J@Z 100203e8 f i libucrt:output.obj
 0001:0001f407       ??$extract_argument_from_va_list@H_J@?$standard_base@_WV?$string_output_adapter@_W@__crt_stdio_output@@@__crt_stdio_output@@IAE_NAA_J@Z 10020407 f i libucrt:output.obj
 0001:0001f426       ??$extract_argument_from_va_list@I_J@?$positional_parameter_base@DV?$stream_output_adapter@D@__crt_stdio_output@@@__crt_stdio_output@@IAE_NAA_J@Z 10020426 f i libucrt:output.obj
 0001:0001f4bc       ??$extract_argument_from_va_list@I_J@?$positional_parameter_base@DV?$string_output_adapter@D@__crt_stdio_output@@@__crt_stdio_output@@IAE_NAA_J@Z 100204bc f i libucrt:output.obj
 0001:0001f552       ??$extract_argument_from_va_list@I_J@?$positional_parameter_base@_WV?$stream_output_adapter@_W@__crt_stdio_output@@@__crt_stdio_output@@IAE_NAA_J@Z 10020552 f i libucrt:output.obj
 0001:0001f5e9       ??$extract_argument_from_va_list@I_J@?$positional_parameter_base@_WV?$string_output_adapter@_W@__crt_stdio_output@@@__crt_stdio_output@@IAE_NAA_J@Z 100205e9 f i libucrt:output.obj
 0001:0001f680       ??$extract_argument_from_va_list@I_J@?$standard_base@DV?$stream_output_adapter@D@__crt_stdio_output@@@__crt_stdio_output@@IAE_NAA_J@Z 10020680 f i libucrt:output.obj
 0001:0001f69f       ??$extract_argument_from_va_list@I_J@?$standard_base@DV?$string_output_adapter@D@__crt_stdio_output@@@__crt_stdio_output@@IAE_NAA_J@Z 1002069f f i libucrt:output.obj
 0001:0001f6be       ??$extract_argument_from_va_list@I_J@?$standard_base@_WV?$stream_output_adapter@_W@__crt_stdio_output@@@__crt_stdio_output@@IAE_NAA_J@Z 100206be f i libucrt:output.obj
 0001:0001f6dd       ??$extract_argument_from_va_list@I_J@?$standard_base@_WV?$string_output_adapter@_W@__crt_stdio_output@@@__crt_stdio_output@@IAE_NAA_J@Z 100206dd f i libucrt:output.obj
 0001:0001f6fc       ??$extract_argument_from_va_list@PADPAD@?$positional_parameter_base@DV?$stream_output_adapter@D@__crt_stdio_output@@@__crt_stdio_output@@IAE_NAAPAD@Z 100206fc f i libucrt:output.obj
 0001:0001f78a       ??$extract_argument_from_va_list@PADPAD@?$positional_parameter_base@DV?$string_output_adapter@D@__crt_stdio_output@@@__crt_stdio_output@@IAE_NAAPAD@Z 1002078a f i libucrt:output.obj
 0001:0001f818       ??$extract_argument_from_va_list@PADPAD@?$positional_parameter_base@_WV?$stream_output_adapter@_W@__crt_stdio_output@@@__crt_stdio_output@@IAE_NAAPAD@Z 10020818 f i libucrt:output.obj
 0001:0001f8a7       ??$extract_argument_from_va_list@PADPAD@?$positional_parameter_base@_WV?$string_output_adapter@_W@__crt_stdio_output@@@__crt_stdio_output@@IAE_NAAPAD@Z 100208a7 f i libucrt:output.obj
 0001:0001f936       ??$extract_argument_from_va_list@PADPAD@?$standard_base@DV?$stream_output_adapter@D@__crt_stdio_output@@@__crt_stdio_output@@IAE_NAAPAD@Z 10020936 f i libucrt:output.obj
 0001:0001f953       ??$extract_argument_from_va_list@PADPAD@?$standard_base@DV?$string_output_adapter@D@__crt_stdio_output@@@__crt_stdio_output@@IAE_NAAPAD@Z 10020953 f i libucrt:output.obj
 0001:0001f970       ??$extract_argument_from_va_list@PADPAD@?$standard_base@_WV?$stream_output_adapter@_W@__crt_stdio_output@@@__crt_stdio_output@@IAE_NAAPAD@Z 10020970 f i libucrt:output.obj
 0001:0001f98d       ??$extract_argument_from_va_list@PADPAD@?$standard_base@_WV?$string_output_adapter@_W@__crt_stdio_output@@@__crt_stdio_output@@IAE_NAAPAD@Z 1002098d f i libucrt:output.obj
 0001:0001f9aa       ??$extract_argument_from_va_list@PAUansi_string@?1??type_case_Z@?$output_processor@DV?$stream_output_adapter@D@__crt_stdio_output@@V?$format_validation_base@DV?$stream_output_adapter@D@__crt_stdio_output@@@2@@__crt_stdio_output@@AAE_NXZ@PAU1?1??234@AAE_NXZ@@?$standard_base@DV?$stream_output_adapter@D@__crt_stdio_output@@@__crt_stdio_output@@IAE_NAAPAUansi_string@?1??type_case_Z@?$output_processor@DV?$stream_output_adapter@D@__crt_stdio_output@@V?$format_validation_base@DV?$stream_output_adapter@D@__crt_stdio_output@@@2@@1@AAE_NXZ@@Z 100209aa f i libucrt:output.obj
 0001:0001f9c7       ??$extract_argument_from_va_list@PAUansi_string@?1??type_case_Z@?$output_processor@DV?$stream_output_adapter@D@__crt_stdio_output@@V?$positional_parameter_base@DV?$stream_output_adapter@D@__crt_stdio_output@@@2@@__crt_stdio_output@@AAE_NXZ@PAU1?1??234@AAE_NXZ@@?$positional_parameter_base@DV?$stream_output_adapter@D@__crt_stdio_output@@@__crt_stdio_output@@IAE_NAAPAUansi_string@?1??type_case_Z@?$output_processor@DV?$stream_output_adapter@D@__crt_stdio_output@@V?$positional_parameter_base@DV?$stream_output_adapter@D@__crt_stdio_output@@@2@@1@AAE_NXZ@@Z 100209c7 f i libucrt:output.obj
 0001:0001fa55       ??$extract_argument_from_va_list@PAUansi_string@?1??type_case_Z@?$output_processor@DV?$stream_output_adapter@D@__crt_stdio_output@@V?$positional_parameter_base@DV?$stream_output_adapter@D@__crt_stdio_output@@@2@@__crt_stdio_output@@AAE_NXZ@PAU1?1??234@AAE_NXZ@@?$standard_base@DV?$stream_output_adapter@D@__crt_stdio_output@@@__crt_stdio_output@@IAE_NAAPAUansi_string@?1??type_case_Z@?$output_processor@DV?$stream_output_adapter@D@__crt_stdio_output@@V?$positional_parameter_base@DV?$stream_output_adapter@D@__crt_stdio_output@@@2@@1@AAE_NXZ@@Z 10020a55 f i libucrt:output.obj
 0001:0001fa72       ??$extract_argument_from_va_list@PAUansi_string@?1??type_case_Z@?$output_processor@DV?$stream_output_adapter@D@__crt_stdio_output@@V?$standard_base@DV?$stream_output_adapter@D@__crt_stdio_output@@@2@@__crt_stdio_output@@AAE_NXZ@PAU1?1??234@AAE_NXZ@@?$standard_base@DV?$stream_output_adapter@D@__crt_stdio_output@@@__crt_stdio_output@@IAE_NAAPAUansi_string@?1??type_case_Z@?$output_processor@DV?$stream_output_adapter@D@__crt_stdio_output@@V?$standard_base@DV?$stream_output_adapter@D@__crt_stdio_output@@@2@@1@AAE_NXZ@@Z 10020a72 f i libucrt:output.obj
 0001:0001fa8f       ??$extract_argument_from_va_list@PAUansi_string@?1??type_case_Z@?$output_processor@DV?$string_output_adapter@D@__crt_stdio_output@@V?$format_validation_base@DV?$string_output_adapter@D@__crt_stdio_output@@@2@@__crt_stdio_output@@AAE_NXZ@PAU1?1??234@AAE_NXZ@@?$standard_base@DV?$string_output_adapter@D@__crt_stdio_output@@@__crt_stdio_output@@IAE_NAAPAUansi_string@?1??type_case_Z@?$output_processor@DV?$string_output_adapter@D@__crt_stdio_output@@V?$format_validation_base@DV?$string_output_adapter@D@__crt_stdio_output@@@2@@1@AAE_NXZ@@Z 10020a8f f i libucrt:output.obj
 0001:0001faac       ??$extract_argument_from_va_list@PAUansi_string@?1??type_case_Z@?$output_processor@DV?$string_output_adapter@D@__crt_stdio_output@@V?$positional_parameter_base@DV?$string_output_adapter@D@__crt_stdio_output@@@2@@__crt_stdio_output@@AAE_NXZ@PAU1?1??234@AAE_NXZ@@?$positional_parameter_base@DV?$string_output_adapter@D@__crt_stdio_output@@@__crt_stdio_output@@IAE_NAAPAUansi_string@?1??type_case_Z@?$output_processor@DV?$string_output_adapter@D@__crt_stdio_output@@V?$positional_parameter_base@DV?$string_output_adapter@D@__crt_stdio_output@@@2@@1@AAE_NXZ@@Z 10020aac f i libucrt:output.obj
 0001:0001fb3a       ??$extract_argument_from_va_list@PAUansi_string@?1??type_case_Z@?$output_processor@DV?$string_output_adapter@D@__crt_stdio_output@@V?$positional_parameter_base@DV?$string_output_adapter@D@__crt_stdio_output@@@2@@__crt_stdio_output@@AAE_NXZ@PAU1?1??234@AAE_NXZ@@?$standard_base@DV?$string_output_adapter@D@__crt_stdio_output@@@__crt_stdio_output@@IAE_NAAPAUansi_string@?1??type_case_Z@?$output_processor@DV?$string_output_adapter@D@__crt_stdio_output@@V?$positional_parameter_base@DV?$string_output_adapter@D@__crt_stdio_output@@@2@@1@AAE_NXZ@@Z 10020b3a f i libucrt:output.obj
 0001:0001fb57       ??$extract_argument_from_va_list@PAUansi_string@?1??type_case_Z@?$output_processor@DV?$string_output_adapter@D@__crt_stdio_output@@V?$standard_base@DV?$string_output_adapter@D@__crt_stdio_output@@@2@@__crt_stdio_output@@AAE_NXZ@PAU1?1??234@AAE_NXZ@@?$standard_base@DV?$string_output_adapter@D@__crt_stdio_output@@@__crt_stdio_output@@IAE_NAAPAUansi_string@?1??type_case_Z@?$output_processor@DV?$string_output_adapter@D@__crt_stdio_output@@V?$standard_base@DV?$string_output_adapter@D@__crt_stdio_output@@@2@@1@AAE_NXZ@@Z 10020b57 f i libucrt:output.obj
 0001:0001fb74       ??$extract_argument_from_va_list@PAUansi_string@?1??type_case_Z@?$output_processor@_WV?$stream_output_adapter@_W@__crt_stdio_output@@V?$format_validation_base@_WV?$stream_output_adapter@_W@__crt_stdio_output@@@2@@__crt_stdio_output@@AAE_NXZ@PAU1?1??234@AAE_NXZ@@?$standard_base@_WV?$stream_output_adapter@_W@__crt_stdio_output@@@__crt_stdio_output@@IAE_NAAPAUansi_string@?1??type_case_Z@?$output_processor@_WV?$stream_output_adapter@_W@__crt_stdio_output@@V?$format_validation_base@_WV?$stream_output_adapter@_W@__crt_stdio_output@@@2@@1@AAE_NXZ@@Z 10020b74 f i libucrt:output.obj
 0001:0001fb91       ??$extract_argument_from_va_list@PAUansi_string@?1??type_case_Z@?$output_processor@_WV?$stream_output_adapter@_W@__crt_stdio_output@@V?$positional_parameter_base@_WV?$stream_output_adapter@_W@__crt_stdio_output@@@2@@__crt_stdio_output@@AAE_NXZ@PAU1?1??234@AAE_NXZ@@?$positional_parameter_base@_WV?$stream_output_adapter@_W@__crt_stdio_output@@@__crt_stdio_output@@IAE_NAAPAUansi_string@?1??type_case_Z@?$output_processor@_WV?$stream_output_adapter@_W@__crt_stdio_output@@V?$positional_parameter_base@_WV?$stream_output_adapter@_W@__crt_stdio_output@@@2@@1@AAE_NXZ@@Z 10020b91 f i libucrt:output.obj
 0001:0001fc20       ??$extract_argument_from_va_list@PAUansi_string@?1??type_case_Z@?$output_processor@_WV?$stream_output_adapter@_W@__crt_stdio_output@@V?$positional_parameter_base@_WV?$stream_output_adapter@_W@__crt_stdio_output@@@2@@__crt_stdio_output@@AAE_NXZ@PAU1?1??234@AAE_NXZ@@?$standard_base@_WV?$stream_output_adapter@_W@__crt_stdio_output@@@__crt_stdio_output@@IAE_NAAPAUansi_string@?1??type_case_Z@?$output_processor@_WV?$stream_output_adapter@_W@__crt_stdio_output@@V?$positional_parameter_base@_WV?$stream_output_adapter@_W@__crt_stdio_output@@@2@@1@AAE_NXZ@@Z 10020c20 f i libucrt:output.obj
 0001:0001fc3d       ??$extract_argument_from_va_list@PAUansi_string@?1??type_case_Z@?$output_processor@_WV?$stream_output_adapter@_W@__crt_stdio_output@@V?$standard_base@_WV?$stream_output_adapter@_W@__crt_stdio_output@@@2@@__crt_stdio_output@@AAE_NXZ@PAU1?1??234@AAE_NXZ@@?$standard_base@_WV?$stream_output_adapter@_W@__crt_stdio_output@@@__crt_stdio_output@@IAE_NAAPAUansi_string@?1??type_case_Z@?$output_processor@_WV?$stream_output_adapter@_W@__crt_stdio_output@@V?$standard_base@_WV?$stream_output_adapter@_W@__crt_stdio_output@@@2@@1@AAE_NXZ@@Z 10020c3d f i libucrt:output.obj
 0001:0001fc5a       ??$extract_argument_from_va_list@PAUansi_string@?1??type_case_Z@?$output_processor@_WV?$string_output_adapter@_W@__crt_stdio_output@@V?$format_validation_base@_WV?$string_output_adapter@_W@__crt_stdio_output@@@2@@__crt_stdio_output@@AAE_NXZ@PAU1?1??234@AAE_NXZ@@?$standard_base@_WV?$string_output_adapter@_W@__crt_stdio_output@@@__crt_stdio_output@@IAE_NAAPAUansi_string@?1??type_case_Z@?$output_processor@_WV?$string_output_adapter@_W@__crt_stdio_output@@V?$format_validation_base@_WV?$string_output_adapter@_W@__crt_stdio_output@@@2@@1@AAE_NXZ@@Z 10020c5a f i libucrt:output.obj
 0001:0001fc77       ??$extract_argument_from_va_list@PAUansi_string@?1??type_case_Z@?$output_processor@_WV?$string_output_adapter@_W@__crt_stdio_output@@V?$positional_parameter_base@_WV?$string_output_adapter@_W@__crt_stdio_output@@@2@@__crt_stdio_output@@AAE_NXZ@PAU1?1??234@AAE_NXZ@@?$positional_parameter_base@_WV?$string_output_adapter@_W@__crt_stdio_output@@@__crt_stdio_output@@IAE_NAAPAUansi_string@?1??type_case_Z@?$output_processor@_WV?$string_output_adapter@_W@__crt_stdio_output@@V?$positional_parameter_base@_WV?$string_output_adapter@_W@__crt_stdio_output@@@2@@1@AAE_NXZ@@Z 10020c77 f i libucrt:output.obj
 0001:0001fd06       ??$extract_argument_from_va_list@PAUansi_string@?1??type_case_Z@?$output_processor@_WV?$string_output_adapter@_W@__crt_stdio_output@@V?$positional_parameter_base@_WV?$string_output_adapter@_W@__crt_stdio_output@@@2@@__crt_stdio_output@@AAE_NXZ@PAU1?1??234@AAE_NXZ@@?$standard_base@_WV?$string_output_adapter@_W@__crt_stdio_output@@@__crt_stdio_output@@IAE_NAAPAUansi_string@?1??type_case_Z@?$output_processor@_WV?$string_output_adapter@_W@__crt_stdio_output@@V?$positional_parameter_base@_WV?$string_output_adapter@_W@__crt_stdio_output@@@2@@1@AAE_NXZ@@Z 10020d06 f i libucrt:output.obj
 0001:0001fd23       ??$extract_argument_from_va_list@PAUansi_string@?1??type_case_Z@?$output_processor@_WV?$string_output_adapter@_W@__crt_stdio_output@@V?$standard_base@_WV?$string_output_adapter@_W@__crt_stdio_output@@@2@@__crt_stdio_output@@AAE_NXZ@PAU1?1??234@AAE_NXZ@@?$standard_base@_WV?$string_output_adapter@_W@__crt_stdio_output@@@__crt_stdio_output@@IAE_NAAPAUansi_string@?1??type_case_Z@?$output_processor@_WV?$string_output_adapter@_W@__crt_stdio_output@@V?$standard_base@_WV?$string_output_adapter@_W@__crt_stdio_output@@@2@@1@AAE_NXZ@@Z 10020d23 f i libucrt:output.obj
 0001:0001fd40       ??$extract_argument_from_va_list@PAXPAX@?$positional_parameter_base@DV?$stream_output_adapter@D@__crt_stdio_output@@@__crt_stdio_output@@IAE_NAAPAX@Z 10020d40 f i libucrt:output.obj
 0001:0001fdce       ??$extract_argument_from_va_list@PAXPAX@?$positional_parameter_base@DV?$string_output_adapter@D@__crt_stdio_output@@@__crt_stdio_output@@IAE_NAAPAX@Z 10020dce f i libucrt:output.obj
 0001:0001fe5c       ??$extract_argument_from_va_list@PAXPAX@?$positional_parameter_base@_WV?$stream_output_adapter@_W@__crt_stdio_output@@@__crt_stdio_output@@IAE_NAAPAX@Z 10020e5c f i libucrt:output.obj
 0001:0001feeb       ??$extract_argument_from_va_list@PAXPAX@?$positional_parameter_base@_WV?$string_output_adapter@_W@__crt_stdio_output@@@__crt_stdio_output@@IAE_NAAPAX@Z 10020eeb f i libucrt:output.obj
 0001:0001ff7a       ??$extract_argument_from_va_list@PAXPAX@?$standard_base@DV?$stream_output_adapter@D@__crt_stdio_output@@@__crt_stdio_output@@IAE_NAAPAX@Z 10020f7a f i libucrt:output.obj
 0001:0001ff97       ??$extract_argument_from_va_list@PAXPAX@?$standard_base@DV?$string_output_adapter@D@__crt_stdio_output@@@__crt_stdio_output@@IAE_NAAPAX@Z 10020f97 f i libucrt:output.obj
 0001:0001ffb4       ??$extract_argument_from_va_list@PAXPAX@?$standard_base@_WV?$stream_output_adapter@_W@__crt_stdio_output@@@__crt_stdio_output@@IAE_NAAPAX@Z 10020fb4 f i libucrt:output.obj
 0001:0001ffd1       ??$extract_argument_from_va_list@PAXPAX@?$standard_base@_WV?$string_output_adapter@_W@__crt_stdio_output@@@__crt_stdio_output@@IAE_NAAPAX@Z 10020fd1 f i libucrt:output.obj
 0001:0001ffee       ??$extract_argument_from_va_list@U_CRT_DOUBLE@@U1@@?$positional_parameter_base@DV?$stream_output_adapter@D@__crt_stdio_output@@@__crt_stdio_output@@IAE_NAAU_CRT_DOUBLE@@@Z 10020fee f i libucrt:output.obj
 0001:00020084       ??$extract_argument_from_va_list@U_CRT_DOUBLE@@U1@@?$positional_parameter_base@DV?$string_output_adapter@D@__crt_stdio_output@@@__crt_stdio_output@@IAE_NAAU_CRT_DOUBLE@@@Z 10021084 f i libucrt:output.obj
 0001:0002011a       ??$extract_argument_from_va_list@U_CRT_DOUBLE@@U1@@?$positional_parameter_base@_WV?$stream_output_adapter@_W@__crt_stdio_output@@@__crt_stdio_output@@IAE_NAAU_CRT_DOUBLE@@@Z 1002111a f i libucrt:output.obj
 0001:000201b1       ??$extract_argument_from_va_list@U_CRT_DOUBLE@@U1@@?$positional_parameter_base@_WV?$string_output_adapter@_W@__crt_stdio_output@@@__crt_stdio_output@@IAE_NAAU_CRT_DOUBLE@@@Z 100211b1 f i libucrt:output.obj
 0001:00020248       ??$extract_argument_from_va_list@U_CRT_DOUBLE@@U1@@?$standard_base@DV?$stream_output_adapter@D@__crt_stdio_output@@@__crt_stdio_output@@IAE_NAAU_CRT_DOUBLE@@@Z 10021248 f i libucrt:output.obj
 0001:00020269       ??$extract_argument_from_va_list@U_CRT_DOUBLE@@U1@@?$standard_base@DV?$string_output_adapter@D@__crt_stdio_output@@@__crt_stdio_output@@IAE_NAAU_CRT_DOUBLE@@@Z 10021269 f i libucrt:output.obj
 0001:0002028a       ??$extract_argument_from_va_list@U_CRT_DOUBLE@@U1@@?$standard_base@_WV?$stream_output_adapter@_W@__crt_stdio_output@@@__crt_stdio_output@@IAE_NAAU_CRT_DOUBLE@@@Z 1002128a f i libucrt:output.obj
 0001:000202ab       ??$extract_argument_from_va_list@U_CRT_DOUBLE@@U1@@?$standard_base@_WV?$string_output_adapter@_W@__crt_stdio_output@@@__crt_stdio_output@@IAE_NAAU_CRT_DOUBLE@@@Z 100212ab f i libucrt:output.obj
 0001:000202cc       ??$extract_argument_from_va_list@_J_J@?$positional_parameter_base@DV?$stream_output_adapter@D@__crt_stdio_output@@@__crt_stdio_output@@IAE_NAA_J@Z 100212cc f i libucrt:output.obj
 0001:00020366       ??$extract_argument_from_va_list@_J_J@?$positional_parameter_base@DV?$string_output_adapter@D@__crt_stdio_output@@@__crt_stdio_output@@IAE_NAA_J@Z 10021366 f i libucrt:output.obj
 0001:00020400       ??$extract_argument_from_va_list@_J_J@?$positional_parameter_base@_WV?$stream_output_adapter@_W@__crt_stdio_output@@@__crt_stdio_output@@IAE_NAA_J@Z 10021400 f i libucrt:output.obj
 0001:0002049b       ??$extract_argument_from_va_list@_J_J@?$positional_parameter_base@_WV?$string_output_adapter@_W@__crt_stdio_output@@@__crt_stdio_output@@IAE_NAA_J@Z 1002149b f i libucrt:output.obj
 0001:00020536       ??$extract_argument_from_va_list@_J_J@?$standard_base@DV?$stream_output_adapter@D@__crt_stdio_output@@@__crt_stdio_output@@IAE_NAA_J@Z 10021536 f i libucrt:output.obj
 0001:00020557       ??$extract_argument_from_va_list@_J_J@?$standard_base@DV?$string_output_adapter@D@__crt_stdio_output@@@__crt_stdio_output@@IAE_NAA_J@Z 10021557 f i libucrt:output.obj
 0001:00020578       ??$extract_argument_from_va_list@_J_J@?$standard_base@_WV?$stream_output_adapter@_W@__crt_stdio_output@@@__crt_stdio_output@@IAE_NAA_J@Z 10021578 f i libucrt:output.obj
 0001:00020599       ??$extract_argument_from_va_list@_J_J@?$standard_base@_WV?$string_output_adapter@_W@__crt_stdio_output@@@__crt_stdio_output@@IAE_NAA_J@Z 10021599 f i libucrt:output.obj
 0001:000205ba       ??$extract_argument_from_va_list@_K_J@?$positional_parameter_base@DV?$stream_output_adapter@D@__crt_stdio_output@@@__crt_stdio_output@@IAE_NAA_J@Z 100215ba f i libucrt:output.obj
 0001:00020654       ??$extract_argument_from_va_list@_K_J@?$positional_parameter_base@DV?$string_output_adapter@D@__crt_stdio_output@@@__crt_stdio_output@@IAE_NAA_J@Z 10021654 f i libucrt:output.obj
 0001:000206ee       ??$extract_argument_from_va_list@_K_J@?$positional_parameter_base@_WV?$stream_output_adapter@_W@__crt_stdio_output@@@__crt_stdio_output@@IAE_NAA_J@Z 100216ee f i libucrt:output.obj
 0001:00020789       ??$extract_argument_from_va_list@_K_J@?$positional_parameter_base@_WV?$string_output_adapter@_W@__crt_stdio_output@@@__crt_stdio_output@@IAE_NAA_J@Z 10021789 f i libucrt:output.obj
 0001:00020824       ??$extract_argument_from_va_list@_K_J@?$standard_base@DV?$stream_output_adapter@D@__crt_stdio_output@@@__crt_stdio_output@@IAE_NAA_J@Z 10021824 f i libucrt:output.obj
 0001:00020845       ??$extract_argument_from_va_list@_K_J@?$standard_base@DV?$string_output_adapter@D@__crt_stdio_output@@@__crt_stdio_output@@IAE_NAA_J@Z 10021845 f i libucrt:output.obj
 0001:00020866       ??$extract_argument_from_va_list@_K_J@?$standard_base@_WV?$stream_output_adapter@_W@__crt_stdio_output@@@__crt_stdio_output@@IAE_NAA_J@Z 10021866 f i libucrt:output.obj
 0001:00020887       ??$extract_argument_from_va_list@_K_J@?$standard_base@_WV?$string_output_adapter@_W@__crt_stdio_output@@@__crt_stdio_output@@IAE_NAA_J@Z 10021887 f i libucrt:output.obj
 0001:000208a8       ??$extract_argument_from_va_list@_W_W@?$positional_parameter_base@DV?$stream_output_adapter@D@__crt_stdio_output@@@__crt_stdio_output@@IAE_NAA_W@Z 100218a8 f i libucrt:output.obj
 0001:0002093a       ??$extract_argument_from_va_list@_W_W@?$positional_parameter_base@DV?$string_output_adapter@D@__crt_stdio_output@@@__crt_stdio_output@@IAE_NAA_W@Z 1002193a f i libucrt:output.obj
 0001:000209cc       ??$extract_argument_from_va_list@_W_W@?$positional_parameter_base@_WV?$stream_output_adapter@_W@__crt_stdio_output@@@__crt_stdio_output@@IAE_NAA_W@Z 100219cc f i libucrt:output.obj
 0001:00020a5f       ??$extract_argument_from_va_list@_W_W@?$positional_parameter_base@_WV?$string_output_adapter@_W@__crt_stdio_output@@@__crt_stdio_output@@IAE_NAA_W@Z 10021a5f f i libucrt:output.obj
 0001:00020af2       ??$extract_argument_from_va_list@_W_W@?$standard_base@DV?$stream_output_adapter@D@__crt_stdio_output@@@__crt_stdio_output@@IAE_NAA_W@Z 10021af2 f i libucrt:output.obj
 0001:00020b0f       ??$extract_argument_from_va_list@_W_W@?$standard_base@DV?$string_output_adapter@D@__crt_stdio_output@@@__crt_stdio_output@@IAE_NAA_W@Z 10021b0f f i libucrt:output.obj
 0001:00020b2c       ??$extract_argument_from_va_list@_W_W@?$standard_base@_WV?$stream_output_adapter@_W@__crt_stdio_output@@@__crt_stdio_output@@IAE_NAA_W@Z 10021b2c f i libucrt:output.obj
 0001:00020b49       ??$extract_argument_from_va_list@_W_W@?$standard_base@_WV?$string_output_adapter@_W@__crt_stdio_output@@@__crt_stdio_output@@IAE_NAA_W@Z 10021b49 f i libucrt:output.obj
 0001:00020b66       ??$get_parameter_type@D@?$positional_parameter_base@DV?$stream_output_adapter@D@__crt_stdio_output@@@__crt_stdio_output@@CA?AW4parameter_type@01@PAD@Z 10021b66 f i libucrt:output.obj
 0001:00020b6a       ??$get_parameter_type@D@?$positional_parameter_base@DV?$string_output_adapter@D@__crt_stdio_output@@@__crt_stdio_output@@CA?AW4parameter_type@01@PAD@Z 10021b6a f i libucrt:output.obj
 0001:00020b6e       ??$get_parameter_type@D@?$positional_parameter_base@_WV?$stream_output_adapter@_W@__crt_stdio_output@@@__crt_stdio_output@@CA?AW4parameter_type@01@PAD@Z 10021b6e f i libucrt:output.obj
 0001:00020b72       ??$get_parameter_type@D@?$positional_parameter_base@_WV?$string_output_adapter@_W@__crt_stdio_output@@@__crt_stdio_output@@CA?AW4parameter_type@01@PAD@Z 10021b72 f i libucrt:output.obj
 0001:00020b76       ??$get_parameter_type@Uansi_string@?1??type_case_Z@?$output_processor@DV?$stream_output_adapter@D@__crt_stdio_output@@V?$positional_parameter_base@DV?$stream_output_adapter@D@__crt_stdio_output@@@2@@__crt_stdio_output@@AAE_NXZ@@?$positional_parameter_base@DV?$stream_output_adapter@D@__crt_stdio_output@@@__crt_stdio_output@@CA?AW4parameter_type@01@PAUansi_string@?1??type_case_Z@?$output_processor@DV?$stream_output_adapter@D@__crt_stdio_output@@V?$positional_parameter_base@DV?$stream_output_adapter@D@__crt_stdio_output@@@2@@1@AAE_NXZ@@Z 10021b76 f i libucrt:output.obj
 0001:00020b7a       ??$get_parameter_type@Uansi_string@?1??type_case_Z@?$output_processor@DV?$string_output_adapter@D@__crt_stdio_output@@V?$positional_parameter_base@DV?$string_output_adapter@D@__crt_stdio_output@@@2@@__crt_stdio_output@@AAE_NXZ@@?$positional_parameter_base@DV?$string_output_adapter@D@__crt_stdio_output@@@__crt_stdio_output@@CA?AW4parameter_type@01@PAUansi_string@?1??type_case_Z@?$output_processor@DV?$string_output_adapter@D@__crt_stdio_output@@V?$positional_parameter_base@DV?$string_output_adapter@D@__crt_stdio_output@@@2@@1@AAE_NXZ@@Z 10021b7a f i libucrt:output.obj
 0001:00020b7e       ??$get_parameter_type@Uansi_string@?1??type_case_Z@?$output_processor@_WV?$stream_output_adapter@_W@__crt_stdio_output@@V?$positional_parameter_base@_WV?$stream_output_adapter@_W@__crt_stdio_output@@@2@@__crt_stdio_output@@AAE_NXZ@@?$positional_parameter_base@_WV?$stream_output_adapter@_W@__crt_stdio_output@@@__crt_stdio_output@@CA?AW4parameter_type@01@PAUansi_string@?1??type_case_Z@?$output_processor@_WV?$stream_output_adapter@_W@__crt_stdio_output@@V?$positional_parameter_base@_WV?$stream_output_adapter@_W@__crt_stdio_output@@@2@@1@AAE_NXZ@@Z 10021b7e f i libucrt:output.obj
 0001:00020b82       ??$get_parameter_type@Uansi_string@?1??type_case_Z@?$output_processor@_WV?$string_output_adapter@_W@__crt_stdio_output@@V?$positional_parameter_base@_WV?$string_output_adapter@_W@__crt_stdio_output@@@2@@__crt_stdio_output@@AAE_NXZ@@?$positional_parameter_base@_WV?$string_output_adapter@_W@__crt_stdio_output@@@__crt_stdio_output@@CA?AW4parameter_type@01@PAUansi_string@?1??type_case_Z@?$output_processor@_WV?$string_output_adapter@_W@__crt_stdio_output@@V?$positional_parameter_base@_WV?$string_output_adapter@_W@__crt_stdio_output@@@2@@1@AAE_NXZ@@Z 10021b82 f i libucrt:output.obj
 0001:00020b86       ??$get_parameter_type@X@?$positional_parameter_base@DV?$stream_output_adapter@D@__crt_stdio_output@@@__crt_stdio_output@@CA?AW4parameter_type@01@PAX@Z 10021b86 f i libucrt:output.obj
 0001:00020b8a       ??$get_parameter_type@X@?$positional_parameter_base@DV?$string_output_adapter@D@__crt_stdio_output@@@__crt_stdio_output@@CA?AW4parameter_type@01@PAX@Z 10021b8a f i libucrt:output.obj
 0001:00020b8e       ??$get_parameter_type@X@?$positional_parameter_base@_WV?$stream_output_adapter@_W@__crt_stdio_output@@@__crt_stdio_output@@CA?AW4parameter_type@01@PAX@Z 10021b8e f i libucrt:output.obj
 0001:00020b92       ??$get_parameter_type@X@?$positional_parameter_base@_WV?$string_output_adapter@_W@__crt_stdio_output@@@__crt_stdio_output@@CA?AW4parameter_type@01@PAX@Z 10021b92 f i libucrt:output.obj
 0001:00020b96       ??$is_character_specifier@D@?$positional_parameter_base@DV?$stream_output_adapter@D@__crt_stdio_output@@@__crt_stdio_output@@CA_ND@Z 10021b96 f i libucrt:output.obj
 0001:00020bae       ??$is_character_specifier@D@?$positional_parameter_base@DV?$string_output_adapter@D@__crt_stdio_output@@@__crt_stdio_output@@CA_ND@Z 10021bae f i libucrt:output.obj
 0001:00020bc6       ??$is_character_specifier@_W@?$positional_parameter_base@_WV?$stream_output_adapter@_W@__crt_stdio_output@@@__crt_stdio_output@@CA_N_W@Z 10021bc6 f i libucrt:output.obj
 0001:00020be1       ??$is_character_specifier@_W@?$positional_parameter_base@_WV?$string_output_adapter@_W@__crt_stdio_output@@@__crt_stdio_output@@CA_N_W@Z 10021be1 f i libucrt:output.obj
 0001:00020bfc       ??$is_integral_specifier@D@?$positional_parameter_base@DV?$stream_output_adapter@D@__crt_stdio_output@@@__crt_stdio_output@@CA_ND@Z 10021bfc f i libucrt:output.obj
 0001:00020c28       ??$is_integral_specifier@D@?$positional_parameter_base@DV?$string_output_adapter@D@__crt_stdio_output@@@__crt_stdio_output@@CA_ND@Z 10021c28 f i libucrt:output.obj
 0001:00020c54       ??$is_integral_specifier@_W@?$positional_parameter_base@_WV?$stream_output_adapter@_W@__crt_stdio_output@@@__crt_stdio_output@@CA_N_W@Z 10021c54 f i libucrt:output.obj
 0001:00020c8f       ??$is_integral_specifier@_W@?$positional_parameter_base@_WV?$string_output_adapter@_W@__crt_stdio_output@@@__crt_stdio_output@@CA_N_W@Z 10021c8f f i libucrt:output.obj
 0001:00020cca       ??$is_overflow_condition@K@__crt_strtox@@YA_NIK@Z 10021cca f i libucrt:output.obj
 0001:00020cfe       ??$is_pointer_specifier@D@?$positional_parameter_base@DV?$stream_output_adapter@D@__crt_stdio_output@@@__crt_stdio_output@@CA_ND@Z 10021cfe f i libucrt:output.obj
 0001:00020d0c       ??$is_pointer_specifier@D@?$positional_parameter_base@DV?$string_output_adapter@D@__crt_stdio_output@@@__crt_stdio_output@@CA_ND@Z 10021d0c f i libucrt:output.obj
 0001:00020d1a       ??$is_pointer_specifier@_W@?$positional_parameter_base@_WV?$stream_output_adapter@_W@__crt_stdio_output@@@__crt_stdio_output@@CA_N_W@Z 10021d1a f i libucrt:output.obj
 0001:00020d29       ??$is_pointer_specifier@_W@?$positional_parameter_base@_WV?$string_output_adapter@_W@__crt_stdio_output@@@__crt_stdio_output@@CA_N_W@Z 10021d29 f i libucrt:output.obj
 0001:00020d38       ??$is_string_specifier@D@?$positional_parameter_base@DV?$stream_output_adapter@D@__crt_stdio_output@@@__crt_stdio_output@@CA_ND@Z 10021d38 f i libucrt:output.obj
 0001:00020d50       ??$is_string_specifier@D@?$positional_parameter_base@DV?$string_output_adapter@D@__crt_stdio_output@@@__crt_stdio_output@@CA_ND@Z 10021d50 f i libucrt:output.obj
 0001:00020d68       ??$is_string_specifier@_W@?$positional_parameter_base@_WV?$stream_output_adapter@_W@__crt_stdio_output@@@__crt_stdio_output@@CA_N_W@Z 10021d68 f i libucrt:output.obj
 0001:00020d83       ??$is_string_specifier@_W@?$positional_parameter_base@_WV?$string_output_adapter@_W@__crt_stdio_output@@@__crt_stdio_output@@CA_N_W@Z 10021d83 f i libucrt:output.obj
 0001:00020d9e       ??$is_wide_character_specifier@D@__crt_stdio_output@@YA_N_KDW4length_modifier@0@@Z 10021d9e f i libucrt:output.obj
 0001:00020dcf       ??$is_wide_character_specifier@_W@__crt_stdio_output@@YA_N_K_WW4length_modifier@0@@Z 10021dcf f i libucrt:output.obj
 0001:00020e1d       ??$make_c_string_character_source@DPAPAD@__crt_strtox@@YA?AV?$c_string_character_source@D@0@QBDQAPAD@Z 10021e1d f i libucrt:output.obj
 0001:00020e38       ??$make_c_string_character_source@_WPAPA_W@__crt_strtox@@YA?AV?$c_string_character_source@_W@0@QB_WQAPA_W@Z 10021e38 f i libucrt:output.obj
 0001:00020e53       ??$parse_integer@KV?$c_string_character_source@D@__crt_strtox@@$0A@@__crt_strtox@@YAKAAV__crt_cached_ptd_host@@V?$c_string_character_source@D@0@H_N@Z 10021e53 f i libucrt:output.obj
 0001:00021062       ??$parse_integer@KV?$c_string_character_source@_W@__crt_strtox@@$0A@@__crt_strtox@@YAKAAV__crt_cached_ptd_host@@V?$c_string_character_source@_W@0@H_N@Z 10022062 f i libucrt:output.obj
 0001:00021635       ??$peek_va_arg@C@__crt_stdio_output@@YACPAD@Z 10022635 f i libucrt:output.obj
 0001:00021641       ??$peek_va_arg@E@__crt_stdio_output@@YAEPAD@Z 10022641 f i libucrt:output.obj
 0001:0002164d       ??$peek_va_arg@F@__crt_stdio_output@@YAFPAD@Z 1002264d f i libucrt:output.obj
 0001:0002165a       ??$peek_va_arg@G@__crt_stdio_output@@YAGPAD@Z 1002265a f i libucrt:output.obj
 0001:00021667       ??$peek_va_arg@H@__crt_stdio_output@@YAHPAD@Z 10022667 f i libucrt:output.obj
 0001:00021673       ??$peek_va_arg@I@__crt_stdio_output@@YAIPAD@Z 10022673 f i libucrt:output.obj
 0001:0002167f       ??$peek_va_arg@PAD@__crt_stdio_output@@YAPADPAD@Z 1002267f f i libucrt:output.obj
 0001:0002168b       ??$peek_va_arg@PAUansi_string@?1??type_case_Z@?$output_processor@DV?$stream_output_adapter@D@__crt_stdio_output@@V?$positional_parameter_base@DV?$stream_output_adapter@D@__crt_stdio_output@@@2@@__crt_stdio_output@@AAE_NXZ@@__crt_stdio_output@@YAPAUansi_string@?1??type_case_Z@?$output_processor@DV?$stream_output_adapter@D@__crt_stdio_output@@V?$positional_parameter_base@DV?$stream_output_adapter@D@__crt_stdio_output@@@2@@0@AAE_NXZ@PAD@Z 1002268b f i libucrt:output.obj
 0001:00021697       ??$peek_va_arg@PAUansi_string@?1??type_case_Z@?$output_processor@DV?$string_output_adapter@D@__crt_stdio_output@@V?$positional_parameter_base@DV?$string_output_adapter@D@__crt_stdio_output@@@2@@__crt_stdio_output@@AAE_NXZ@@__crt_stdio_output@@YAPAUansi_string@?1??type_case_Z@?$output_processor@DV?$string_output_adapter@D@__crt_stdio_output@@V?$positional_parameter_base@DV?$string_output_adapter@D@__crt_stdio_output@@@2@@0@AAE_NXZ@PAD@Z 10022697 f i libucrt:output.obj
 0001:000216a3       ??$peek_va_arg@PAUansi_string@?1??type_case_Z@?$output_processor@_WV?$stream_output_adapter@_W@__crt_stdio_output@@V?$positional_parameter_base@_WV?$stream_output_adapter@_W@__crt_stdio_output@@@2@@__crt_stdio_output@@AAE_NXZ@@__crt_stdio_output@@YAPAUansi_string@?1??type_case_Z@?$output_processor@_WV?$stream_output_adapter@_W@__crt_stdio_output@@V?$positional_parameter_base@_WV?$stream_output_adapter@_W@__crt_stdio_output@@@2@@0@AAE_NXZ@PAD@Z 100226a3 f i libucrt:output.obj
 0001:000216af       ??$peek_va_arg@PAUansi_string@?1??type_case_Z@?$output_processor@_WV?$string_output_adapter@_W@__crt_stdio_output@@V?$positional_parameter_base@_WV?$string_output_adapter@_W@__crt_stdio_output@@@2@@__crt_stdio_output@@AAE_NXZ@@__crt_stdio_output@@YAPAUansi_string@?1??type_case_Z@?$output_processor@_WV?$string_output_adapter@_W@__crt_stdio_output@@V?$positional_parameter_base@_WV?$string_output_adapter@_W@__crt_stdio_output@@@2@@0@AAE_NXZ@PAD@Z 100226af f i libucrt:output.obj
 0001:000216bb       ??$peek_va_arg@PAX@__crt_stdio_output@@YAPAXPAD@Z 100226bb f i libucrt:output.obj
 0001:000216c7       ??$peek_va_arg@U_CRT_DOUBLE@@@__crt_stdio_output@@YA?AU_CRT_DOUBLE@@PAD@Z 100226c7 f i libucrt:output.obj
 0001:000216d6       ??$peek_va_arg@_J@__crt_stdio_output@@YA_JPAD@Z 100226d6 f i libucrt:output.obj
 0001:000216e5       ??$peek_va_arg@_K@__crt_stdio_output@@YA_KPAD@Z 100226e5 f i libucrt:output.obj
 0001:000216f4       ??$peek_va_arg@_W@__crt_stdio_output@@YA_WPAD@Z 100226f4 f i libucrt:output.obj
 0001:00021701       ??$puttc_nolock_internal@ABDPAU_iobuf@@AAV__crt_cached_ptd_host@@@?$__crt_char_traits@D@@SAHABD$$QAPAU_iobuf@@AAV__crt_cached_ptd_host@@@Z 10022701 f i libucrt:output.obj
 0001:0002171f       ??$puttc_nolock_internal@AB_WPAU_iobuf@@AAV__crt_cached_ptd_host@@@?$__crt_char_traits@_W@@SAGAB_W$$QAPAU_iobuf@@AAV__crt_cached_ptd_host@@@Z 1002271f f i libucrt:output.obj
 0001:0002173d       ??$read_va_arg@C@__crt_stdio_output@@YACAAPAD@Z 1002273d f i libucrt:output.obj
 0001:00021750       ??$read_va_arg@E@__crt_stdio_output@@YAEAAPAD@Z 10022750 f i libucrt:output.obj
 0001:00021763       ??$read_va_arg@F@__crt_stdio_output@@YAFAAPAD@Z 10022763 f i libucrt:output.obj
 0001:00021777       ??$read_va_arg@G@__crt_stdio_output@@YAGAAPAD@Z 10022777 f i libucrt:output.obj
 0001:0002178b       ??$read_va_arg@H@__crt_stdio_output@@YAHAAPAD@Z 1002278b f i libucrt:output.obj
 0001:0002179e       ??$read_va_arg@I@__crt_stdio_output@@YAIAAPAD@Z 1002279e f i libucrt:output.obj
 0001:000217b1       ??$read_va_arg@PAD@__crt_stdio_output@@YAPADAAPAD@Z 100227b1 f i libucrt:output.obj
 0001:000217c4       ??$read_va_arg@PAUansi_string@?1??type_case_Z@?$output_processor@DV?$stream_output_adapter@D@__crt_stdio_output@@V?$format_validation_base@DV?$stream_output_adapter@D@__crt_stdio_output@@@2@@__crt_stdio_output@@AAE_NXZ@@__crt_stdio_output@@YAPAUansi_string@?1??type_case_Z@?$output_processor@DV?$stream_output_adapter@D@__crt_stdio_output@@V?$format_validation_base@DV?$stream_output_adapter@D@__crt_stdio_output@@@2@@0@AAE_NXZ@AAPAD@Z 100227c4 f i libucrt:output.obj
 0001:000217d7       ??$read_va_arg@PAUansi_string@?1??type_case_Z@?$output_processor@DV?$stream_output_adapter@D@__crt_stdio_output@@V?$positional_parameter_base@DV?$stream_output_adapter@D@__crt_stdio_output@@@2@@__crt_stdio_output@@AAE_NXZ@@__crt_stdio_output@@YAPAUansi_string@?1??type_case_Z@?$output_processor@DV?$stream_output_adapter@D@__crt_stdio_output@@V?$positional_parameter_base@DV?$stream_output_adapter@D@__crt_stdio_output@@@2@@0@AAE_NXZ@AAPAD@Z 100227d7 f i libucrt:output.obj
 0001:000217ea       ??$read_va_arg@PAUansi_string@?1??type_case_Z@?$output_processor@DV?$stream_output_adapter@D@__crt_stdio_output@@V?$standard_base@DV?$stream_output_adapter@D@__crt_stdio_output@@@2@@__crt_stdio_output@@AAE_NXZ@@__crt_stdio_output@@YAPAUansi_string@?1??type_case_Z@?$output_processor@DV?$stream_output_adapter@D@__crt_stdio_output@@V?$standard_base@DV?$stream_output_adapter@D@__crt_stdio_output@@@2@@0@AAE_NXZ@AAPAD@Z 100227ea f i libucrt:output.obj
 0001:000217fd       ??$read_va_arg@PAUansi_string@?1??type_case_Z@?$output_processor@DV?$string_output_adapter@D@__crt_stdio_output@@V?$format_validation_base@DV?$string_output_adapter@D@__crt_stdio_output@@@2@@__crt_stdio_output@@AAE_NXZ@@__crt_stdio_output@@YAPAUansi_string@?1??type_case_Z@?$output_processor@DV?$string_output_adapter@D@__crt_stdio_output@@V?$format_validation_base@DV?$string_output_adapter@D@__crt_stdio_output@@@2@@0@AAE_NXZ@AAPAD@Z 100227fd f i libucrt:output.obj
 0001:00021810       ??$read_va_arg@PAUansi_string@?1??type_case_Z@?$output_processor@DV?$string_output_adapter@D@__crt_stdio_output@@V?$positional_parameter_base@DV?$string_output_adapter@D@__crt_stdio_output@@@2@@__crt_stdio_output@@AAE_NXZ@@__crt_stdio_output@@YAPAUansi_string@?1??type_case_Z@?$output_processor@DV?$string_output_adapter@D@__crt_stdio_output@@V?$positional_parameter_base@DV?$string_output_adapter@D@__crt_stdio_output@@@2@@0@AAE_NXZ@AAPAD@Z 10022810 f i libucrt:output.obj
 0001:00021823       ??$read_va_arg@PAUansi_string@?1??type_case_Z@?$output_processor@DV?$string_output_adapter@D@__crt_stdio_output@@V?$standard_base@DV?$string_output_adapter@D@__crt_stdio_output@@@2@@__crt_stdio_output@@AAE_NXZ@@__crt_stdio_output@@YAPAUansi_string@?1??type_case_Z@?$output_processor@DV?$string_output_adapter@D@__crt_stdio_output@@V?$standard_base@DV?$string_output_adapter@D@__crt_stdio_output@@@2@@0@AAE_NXZ@AAPAD@Z 10022823 f i libucrt:output.obj
 0001:00021836       ??$read_va_arg@PAUansi_string@?1??type_case_Z@?$output_processor@_WV?$stream_output_adapter@_W@__crt_stdio_output@@V?$format_validation_base@_WV?$stream_output_adapter@_W@__crt_stdio_output@@@2@@__crt_stdio_output@@AAE_NXZ@@__crt_stdio_output@@YAPAUansi_string@?1??type_case_Z@?$output_processor@_WV?$stream_output_adapter@_W@__crt_stdio_output@@V?$format_validation_base@_WV?$stream_output_adapter@_W@__crt_stdio_output@@@2@@0@AAE_NXZ@AAPAD@Z 10022836 f i libucrt:output.obj
 0001:00021849       ??$read_va_arg@PAUansi_string@?1??type_case_Z@?$output_processor@_WV?$stream_output_adapter@_W@__crt_stdio_output@@V?$positional_parameter_base@_WV?$stream_output_adapter@_W@__crt_stdio_output@@@2@@__crt_stdio_output@@AAE_NXZ@@__crt_stdio_output@@YAPAUansi_string@?1??type_case_Z@?$output_processor@_WV?$stream_output_adapter@_W@__crt_stdio_output@@V?$positional_parameter_base@_WV?$stream_output_adapter@_W@__crt_stdio_output@@@2@@0@AAE_NXZ@AAPAD@Z 10022849 f i libucrt:output.obj
 0001:0002185c       ??$read_va_arg@PAUansi_string@?1??type_case_Z@?$output_processor@_WV?$stream_output_adapter@_W@__crt_stdio_output@@V?$standard_base@_WV?$stream_output_adapter@_W@__crt_stdio_output@@@2@@__crt_stdio_output@@AAE_NXZ@@__crt_stdio_output@@YAPAUansi_string@?1??type_case_Z@?$output_processor@_WV?$stream_output_adapter@_W@__crt_stdio_output@@V?$standard_base@_WV?$stream_output_adapter@_W@__crt_stdio_output@@@2@@0@AAE_NXZ@AAPAD@Z 1002285c f i libucrt:output.obj
 0001:0002186f       ??$read_va_arg@PAUansi_string@?1??type_case_Z@?$output_processor@_WV?$string_output_adapter@_W@__crt_stdio_output@@V?$format_validation_base@_WV?$string_output_adapter@_W@__crt_stdio_output@@@2@@__crt_stdio_output@@AAE_NXZ@@__crt_stdio_output@@YAPAUansi_string@?1??type_case_Z@?$output_processor@_WV?$string_output_adapter@_W@__crt_stdio_output@@V?$format_validation_base@_WV?$string_output_adapter@_W@__crt_stdio_output@@@2@@0@AAE_NXZ@AAPAD@Z 1002286f f i libucrt:output.obj
 0001:00021882       ??$read_va_arg@PAUansi_string@?1??type_case_Z@?$output_processor@_WV?$string_output_adapter@_W@__crt_stdio_output@@V?$positional_parameter_base@_WV?$string_output_adapter@_W@__crt_stdio_output@@@2@@__crt_stdio_output@@AAE_NXZ@@__crt_stdio_output@@YAPAUansi_string@?1??type_case_Z@?$output_processor@_WV?$string_output_adapter@_W@__crt_stdio_output@@V?$positional_parameter_base@_WV?$string_output_adapter@_W@__crt_stdio_output@@@2@@0@AAE_NXZ@AAPAD@Z 10022882 f i libucrt:output.obj
 0001:00021895       ??$read_va_arg@PAUansi_string@?1??type_case_Z@?$output_processor@_WV?$string_output_adapter@_W@__crt_stdio_output@@V?$standard_base@_WV?$string_output_adapter@_W@__crt_stdio_output@@@2@@__crt_stdio_output@@AAE_NXZ@@__crt_stdio_output@@YAPAUansi_string@?1??type_case_Z@?$output_processor@_WV?$string_output_adapter@_W@__crt_stdio_output@@V?$standard_base@_WV?$string_output_adapter@_W@__crt_stdio_output@@@2@@0@AAE_NXZ@AAPAD@Z 10022895 f i libucrt:output.obj
 0001:000218a8       ??$read_va_arg@PAX@__crt_stdio_output@@YAPAXAAPAD@Z 100228a8 f i libucrt:output.obj
 0001:000218bb       ??$read_va_arg@U_CRT_DOUBLE@@@__crt_stdio_output@@YA?AU_CRT_DOUBLE@@AAPAD@Z 100228bb f i libucrt:output.obj
 0001:000218d1       ??$read_va_arg@_J@__crt_stdio_output@@YA_JAAPAD@Z 100228d1 f i libucrt:output.obj
 0001:000218e7       ??$read_va_arg@_K@__crt_stdio_output@@YA_KAAPAD@Z 100228e7 f i libucrt:output.obj
 0001:000218fd       ??$read_va_arg@_W@__crt_stdio_output@@YA_WAAPAD@Z 100228fd f i libucrt:output.obj
 0001:00021911       ??$scratch_count@D@formatting_buffer@__crt_stdio_output@@QBEIXZ 10022911 f i libucrt:output.obj
 0001:00021916       ??$scratch_data@D@formatting_buffer@__crt_stdio_output@@QAEPADXZ 10022916 f i libucrt:output.obj
 0001:00021934       ??$type_case_integer@$07@?$output_processor@DV?$stream_output_adapter@D@__crt_stdio_output@@V?$format_validation_base@DV?$stream_output_adapter@D@__crt_stdio_output@@@2@@__crt_stdio_output@@AAE_N_N@Z 10022934 f i libucrt:output.obj
 0001:00021ac1       ??$type_case_integer@$07@?$output_processor@DV?$stream_output_adapter@D@__crt_stdio_output@@V?$positional_parameter_base@DV?$stream_output_adapter@D@__crt_stdio_output@@@2@@__crt_stdio_output@@AAE_N_N@Z 10022ac1 f i libucrt:output.obj
 0001:00021c5d       ??$type_case_integer@$07@?$output_processor@DV?$stream_output_adapter@D@__crt_stdio_output@@V?$standard_base@DV?$stream_output_adapter@D@__crt_stdio_output@@@2@@__crt_stdio_output@@AAE_N_N@Z 10022c5d f i libucrt:output.obj
 0001:00021dea       ??$type_case_integer@$07@?$output_processor@DV?$string_output_adapter@D@__crt_stdio_output@@V?$format_validation_base@DV?$string_output_adapter@D@__crt_stdio_output@@@2@@__crt_stdio_output@@AAE_N_N@Z 10022dea f i libucrt:output.obj
 0001:00021f77       ??$type_case_integer@$07@?$output_processor@DV?$string_output_adapter@D@__crt_stdio_output@@V?$positional_parameter_base@DV?$string_output_adapter@D@__crt_stdio_output@@@2@@__crt_stdio_output@@AAE_N_N@Z 10022f77 f i libucrt:output.obj
 0001:00022113       ??$type_case_integer@$07@?$output_processor@DV?$string_output_adapter@D@__crt_stdio_output@@V?$standard_base@DV?$string_output_adapter@D@__crt_stdio_output@@@2@@__crt_stdio_output@@AAE_N_N@Z 10023113 f i libucrt:output.obj
 0001:000222a0       ??$type_case_integer@$07@?$output_processor@_WV?$stream_output_adapter@_W@__crt_stdio_output@@V?$format_validation_base@_WV?$stream_output_adapter@_W@__crt_stdio_output@@@2@@__crt_stdio_output@@AAE_N_N@Z 100232a0 f i libucrt:output.obj
 0001:00022432       ??$type_case_integer@$07@?$output_processor@_WV?$stream_output_adapter@_W@__crt_stdio_output@@V?$positional_parameter_base@_WV?$stream_output_adapter@_W@__crt_stdio_output@@@2@@__crt_stdio_output@@AAE_N_N@Z 10023432 f i libucrt:output.obj
 0001:000225d2       ??$type_case_integer@$07@?$output_processor@_WV?$stream_output_adapter@_W@__crt_stdio_output@@V?$standard_base@_WV?$stream_output_adapter@_W@__crt_stdio_output@@@2@@__crt_stdio_output@@AAE_N_N@Z 100235d2 f i libucrt:output.obj
 0001:00022764       ??$type_case_integer@$07@?$output_processor@_WV?$string_output_adapter@_W@__crt_stdio_output@@V?$format_validation_base@_WV?$string_output_adapter@_W@__crt_stdio_output@@@2@@__crt_stdio_output@@AAE_N_N@Z 10023764 f i libucrt:output.obj
 0001:000228f6       ??$type_case_integer@$07@?$output_processor@_WV?$string_output_adapter@_W@__crt_stdio_output@@V?$positional_parameter_base@_WV?$string_output_adapter@_W@__crt_stdio_output@@@2@@__crt_stdio_output@@AAE_N_N@Z 100238f6 f i libucrt:output.obj
 0001:00022a96       ??$type_case_integer@$07@?$output_processor@_WV?$string_output_adapter@_W@__crt_stdio_output@@V?$standard_base@_WV?$string_output_adapter@_W@__crt_stdio_output@@@2@@__crt_stdio_output@@AAE_N_N@Z 10023a96 f i libucrt:output.obj
 0001:00022c28       ??$type_case_integer@$09@?$output_processor@DV?$stream_output_adapter@D@__crt_stdio_output@@V?$format_validation_base@DV?$stream_output_adapter@D@__crt_stdio_output@@@2@@__crt_stdio_output@@AAE_N_N@Z 10023c28 f i libucrt:output.obj
 0001:00022db5       ??$type_case_integer@$09@?$output_processor@DV?$stream_output_adapter@D@__crt_stdio_output@@V?$positional_parameter_base@DV?$stream_output_adapter@D@__crt_stdio_output@@@2@@__crt_stdio_output@@AAE_N_N@Z 10023db5 f i libucrt:output.obj
 0001:00022f51       ??$type_case_integer@$09@?$output_processor@DV?$stream_output_adapter@D@__crt_stdio_output@@V?$standard_base@DV?$stream_output_adapter@D@__crt_stdio_output@@@2@@__crt_stdio_output@@AAE_N_N@Z 10023f51 f i libucrt:output.obj
 0001:000230de       ??$type_case_integer@$09@?$output_processor@DV?$string_output_adapter@D@__crt_stdio_output@@V?$format_validation_base@DV?$string_output_adapter@D@__crt_stdio_output@@@2@@__crt_stdio_output@@AAE_N_N@Z 100240de f i libucrt:output.obj
 0001:0002326b       ??$type_case_integer@$09@?$output_processor@DV?$string_output_adapter@D@__crt_stdio_output@@V?$positional_parameter_base@DV?$string_output_adapter@D@__crt_stdio_output@@@2@@__crt_stdio_output@@AAE_N_N@Z 1002426b f i libucrt:output.obj
 0001:00023407       ??$type_case_integer@$09@?$output_processor@DV?$string_output_adapter@D@__crt_stdio_output@@V?$standard_base@DV?$string_output_adapter@D@__crt_stdio_output@@@2@@__crt_stdio_output@@AAE_N_N@Z 10024407 f i libucrt:output.obj
 0001:00023594       ??$type_case_integer@$09@?$output_processor@_WV?$stream_output_adapter@_W@__crt_stdio_output@@V?$format_validation_base@_WV?$stream_output_adapter@_W@__crt_stdio_output@@@2@@__crt_stdio_output@@AAE_N_N@Z 10024594 f i libucrt:output.obj
 0001:00023726       ??$type_case_integer@$09@?$output_processor@_WV?$stream_output_adapter@_W@__crt_stdio_output@@V?$positional_parameter_base@_WV?$stream_output_adapter@_W@__crt_stdio_output@@@2@@__crt_stdio_output@@AAE_N_N@Z 10024726 f i libucrt:output.obj
 0001:000238c6       ??$type_case_integer@$09@?$output_processor@_WV?$stream_output_adapter@_W@__crt_stdio_output@@V?$standard_base@_WV?$stream_output_adapter@_W@__crt_stdio_output@@@2@@__crt_stdio_output@@AAE_N_N@Z 100248c6 f i libucrt:output.obj
 0001:00023a58       ??$type_case_integer@$09@?$output_processor@_WV?$string_output_adapter@_W@__crt_stdio_output@@V?$format_validation_base@_WV?$string_output_adapter@_W@__crt_stdio_output@@@2@@__crt_stdio_output@@AAE_N_N@Z 10024a58 f i libucrt:output.obj
 0001:00023bea       ??$type_case_integer@$09@?$output_processor@_WV?$string_output_adapter@_W@__crt_stdio_output@@V?$positional_parameter_base@_WV?$string_output_adapter@_W@__crt_stdio_output@@@2@@__crt_stdio_output@@AAE_N_N@Z 10024bea f i libucrt:output.obj
 0001:00023d8a       ??$type_case_integer@$09@?$output_processor@_WV?$string_output_adapter@_W@__crt_stdio_output@@V?$standard_base@_WV?$string_output_adapter@_W@__crt_stdio_output@@@2@@__crt_stdio_output@@AAE_N_N@Z 10024d8a f i libucrt:output.obj
 0001:00023f1c       ??$type_case_integer@$0BA@@?$output_processor@DV?$stream_output_adapter@D@__crt_stdio_output@@V?$format_validation_base@DV?$stream_output_adapter@D@__crt_stdio_output@@@2@@__crt_stdio_output@@AAE_N_N@Z 10024f1c f i libucrt:output.obj
 0001:000240a9       ??$type_case_integer@$0BA@@?$output_processor@DV?$stream_output_adapter@D@__crt_stdio_output@@V?$positional_parameter_base@DV?$stream_output_adapter@D@__crt_stdio_output@@@2@@__crt_stdio_output@@AAE_N_N@Z 100250a9 f i libucrt:output.obj
 0001:00024245       ??$type_case_integer@$0BA@@?$output_processor@DV?$stream_output_adapter@D@__crt_stdio_output@@V?$standard_base@DV?$stream_output_adapter@D@__crt_stdio_output@@@2@@__crt_stdio_output@@AAE_N_N@Z 10025245 f i libucrt:output.obj
 0001:000243d2       ??$type_case_integer@$0BA@@?$output_processor@DV?$string_output_adapter@D@__crt_stdio_output@@V?$format_validation_base@DV?$string_output_adapter@D@__crt_stdio_output@@@2@@__crt_stdio_output@@AAE_N_N@Z 100253d2 f i libucrt:output.obj
 0001:0002455f       ??$type_case_integer@$0BA@@?$output_processor@DV?$string_output_adapter@D@__crt_stdio_output@@V?$positional_parameter_base@DV?$string_output_adapter@D@__crt_stdio_output@@@2@@__crt_stdio_output@@AAE_N_N@Z 1002555f f i libucrt:output.obj
 0001:000246fb       ??$type_case_integer@$0BA@@?$output_processor@DV?$string_output_adapter@D@__crt_stdio_output@@V?$standard_base@DV?$string_output_adapter@D@__crt_stdio_output@@@2@@__crt_stdio_output@@AAE_N_N@Z 100256fb f i libucrt:output.obj
 0001:00024888       ??$type_case_integer@$0BA@@?$output_processor@_WV?$stream_output_adapter@_W@__crt_stdio_output@@V?$format_validation_base@_WV?$stream_output_adapter@_W@__crt_stdio_output@@@2@@__crt_stdio_output@@AAE_N_N@Z 10025888 f i libucrt:output.obj
 0001:00024a1a       ??$type_case_integer@$0BA@@?$output_processor@_WV?$stream_output_adapter@_W@__crt_stdio_output@@V?$positional_parameter_base@_WV?$stream_output_adapter@_W@__crt_stdio_output@@@2@@__crt_stdio_output@@AAE_N_N@Z 10025a1a f i libucrt:output.obj
 0001:00024bba       ??$type_case_integer@$0BA@@?$output_processor@_WV?$stream_output_adapter@_W@__crt_stdio_output@@V?$standard_base@_WV?$stream_output_adapter@_W@__crt_stdio_output@@@2@@__crt_stdio_output@@AAE_N_N@Z 10025bba f i libucrt:output.obj
 0001:00024d4c       ??$type_case_integer@$0BA@@?$output_processor@_WV?$string_output_adapter@_W@__crt_stdio_output@@V?$format_validation_base@_WV?$string_output_adapter@_W@__crt_stdio_output@@@2@@__crt_stdio_output@@AAE_N_N@Z 10025d4c f i libucrt:output.obj
 0001:00024ede       ??$type_case_integer@$0BA@@?$output_processor@_WV?$string_output_adapter@_W@__crt_stdio_output@@V?$positional_parameter_base@_WV?$string_output_adapter@_W@__crt_stdio_output@@@2@@__crt_stdio_output@@AAE_N_N@Z 10025ede f i libucrt:output.obj
 0001:0002507e       ??$type_case_integer@$0BA@@?$output_processor@_WV?$string_output_adapter@_W@__crt_stdio_output@@V?$standard_base@_WV?$string_output_adapter@_W@__crt_stdio_output@@@2@@__crt_stdio_output@@AAE_N_N@Z 1002607e f i libucrt:output.obj
 0001:00025210       ??$type_case_integer_parse_into_buffer@I$07@?$output_processor@DV?$stream_output_adapter@D@__crt_stdio_output@@V?$format_validation_base@DV?$stream_output_adapter@D@__crt_stdio_output@@@2@@__crt_stdio_output@@AAEXI_N@Z 10026210 f i libucrt:output.obj
 0001:00025273       ??$type_case_integer_parse_into_buffer@I$07@?$output_processor@DV?$stream_output_adapter@D@__crt_stdio_output@@V?$positional_parameter_base@DV?$stream_output_adapter@D@__crt_stdio_output@@@2@@__crt_stdio_output@@AAEXI_N@Z 10026273 f i libucrt:output.obj
 0001:000252d6       ??$type_case_integer_parse_into_buffer@I$07@?$output_processor@DV?$stream_output_adapter@D@__crt_stdio_output@@V?$standard_base@DV?$stream_output_adapter@D@__crt_stdio_output@@@2@@__crt_stdio_output@@AAEXI_N@Z 100262d6 f i libucrt:output.obj
 0001:00025339       ??$type_case_integer_parse_into_buffer@I$07@?$output_processor@DV?$string_output_adapter@D@__crt_stdio_output@@V?$format_validation_base@DV?$string_output_adapter@D@__crt_stdio_output@@@2@@__crt_stdio_output@@AAEXI_N@Z 10026339 f i libucrt:output.obj
 0001:0002539c       ??$type_case_integer_parse_into_buffer@I$07@?$output_processor@DV?$string_output_adapter@D@__crt_stdio_output@@V?$positional_parameter_base@DV?$string_output_adapter@D@__crt_stdio_output@@@2@@__crt_stdio_output@@AAEXI_N@Z 1002639c f i libucrt:output.obj
 0001:000253ff       ??$type_case_integer_parse_into_buffer@I$07@?$output_processor@DV?$string_output_adapter@D@__crt_stdio_output@@V?$standard_base@DV?$string_output_adapter@D@__crt_stdio_output@@@2@@__crt_stdio_output@@AAEXI_N@Z 100263ff f i libucrt:output.obj
 0001:00025462       ??$type_case_integer_parse_into_buffer@I$07@?$output_processor@_WV?$stream_output_adapter@_W@__crt_stdio_output@@V?$format_validation_base@_WV?$stream_output_adapter@_W@__crt_stdio_output@@@2@@__crt_stdio_output@@AAEXI_N@Z 10026462 f i libucrt:output.obj
 0001:000254d5       ??$type_case_integer_parse_into_buffer@I$07@?$output_processor@_WV?$stream_output_adapter@_W@__crt_stdio_output@@V?$positional_parameter_base@_WV?$stream_output_adapter@_W@__crt_stdio_output@@@2@@__crt_stdio_output@@AAEXI_N@Z 100264d5 f i libucrt:output.obj
 0001:00025548       ??$type_case_integer_parse_into_buffer@I$07@?$output_processor@_WV?$stream_output_adapter@_W@__crt_stdio_output@@V?$standard_base@_WV?$stream_output_adapter@_W@__crt_stdio_output@@@2@@__crt_stdio_output@@AAEXI_N@Z 10026548 f i libucrt:output.obj
 0001:000255bb       ??$type_case_integer_parse_into_buffer@I$07@?$output_processor@_WV?$string_output_adapter@_W@__crt_stdio_output@@V?$format_validation_base@_WV?$string_output_adapter@_W@__crt_stdio_output@@@2@@__crt_stdio_output@@AAEXI_N@Z 100265bb f i libucrt:output.obj
 0001:0002562e       ??$type_case_integer_parse_into_buffer@I$07@?$output_processor@_WV?$string_output_adapter@_W@__crt_stdio_output@@V?$positional_parameter_base@_WV?$string_output_adapter@_W@__crt_stdio_output@@@2@@__crt_stdio_output@@AAEXI_N@Z 1002662e f i libucrt:output.obj
 0001:000256a1       ??$type_case_integer_parse_into_buffer@I$07@?$output_processor@_WV?$string_output_adapter@_W@__crt_stdio_output@@V?$standard_base@_WV?$string_output_adapter@_W@__crt_stdio_output@@@2@@__crt_stdio_output@@AAEXI_N@Z 100266a1 f i libucrt:output.obj
 0001:00025714       ??$type_case_integer_parse_into_buffer@I$09@?$output_processor@DV?$stream_output_adapter@D@__crt_stdio_output@@V?$format_validation_base@DV?$stream_output_adapter@D@__crt_stdio_output@@@2@@__crt_stdio_output@@AAEXI_N@Z 10026714 f i libucrt:output.obj
 0001:0002579b       ??$type_case_integer_parse_into_buffer@I$09@?$output_processor@DV?$stream_output_adapter@D@__crt_stdio_output@@V?$positional_parameter_base@DV?$stream_output_adapter@D@__crt_stdio_output@@@2@@__crt_stdio_output@@AAEXI_N@Z 1002679b f i libucrt:output.obj
 0001:00025822       ??$type_case_integer_parse_into_buffer@I$09@?$output_processor@DV?$stream_output_adapter@D@__crt_stdio_output@@V?$standard_base@DV?$stream_output_adapter@D@__crt_stdio_output@@@2@@__crt_stdio_output@@AAEXI_N@Z 10026822 f i libucrt:output.obj
 0001:000258a9       ??$type_case_integer_parse_into_buffer@I$09@?$output_processor@DV?$string_output_adapter@D@__crt_stdio_output@@V?$format_validation_base@DV?$string_output_adapter@D@__crt_stdio_output@@@2@@__crt_stdio_output@@AAEXI_N@Z 100268a9 f i libucrt:output.obj
 0001:00025930       ??$type_case_integer_parse_into_buffer@I$09@?$output_processor@DV?$string_output_adapter@D@__crt_stdio_output@@V?$positional_parameter_base@DV?$string_output_adapter@D@__crt_stdio_output@@@2@@__crt_stdio_output@@AAEXI_N@Z 10026930 f i libucrt:output.obj
 0001:000259b7       ??$type_case_integer_parse_into_buffer@I$09@?$output_processor@DV?$string_output_adapter@D@__crt_stdio_output@@V?$standard_base@DV?$string_output_adapter@D@__crt_stdio_output@@@2@@__crt_stdio_output@@AAEXI_N@Z 100269b7 f i libucrt:output.obj
 0001:00025a3e       ??$type_case_integer_parse_into_buffer@I$09@?$output_processor@_WV?$stream_output_adapter@_W@__crt_stdio_output@@V?$format_validation_base@_WV?$stream_output_adapter@_W@__crt_stdio_output@@@2@@__crt_stdio_output@@AAEXI_N@Z 10026a3e f i libucrt:output.obj
 0001:00025ada       ??$type_case_integer_parse_into_buffer@I$09@?$output_processor@_WV?$stream_output_adapter@_W@__crt_stdio_output@@V?$positional_parameter_base@_WV?$stream_output_adapter@_W@__crt_stdio_output@@@2@@__crt_stdio_output@@AAEXI_N@Z 10026ada f i libucrt:output.obj
 0001:00025b76       ??$type_case_integer_parse_into_buffer@I$09@?$output_processor@_WV?$stream_output_adapter@_W@__crt_stdio_output@@V?$standard_base@_WV?$stream_output_adapter@_W@__crt_stdio_output@@@2@@__crt_stdio_output@@AAEXI_N@Z 10026b76 f i libucrt:output.obj
 0001:00025c12       ??$type_case_integer_parse_into_buffer@I$09@?$output_processor@_WV?$string_output_adapter@_W@__crt_stdio_output@@V?$format_validation_base@_WV?$string_output_adapter@_W@__crt_stdio_output@@@2@@__crt_stdio_output@@AAEXI_N@Z 10026c12 f i libucrt:output.obj
 0001:00025cae       ??$type_case_integer_parse_into_buffer@I$09@?$output_processor@_WV?$string_output_adapter@_W@__crt_stdio_output@@V?$positional_parameter_base@_WV?$string_output_adapter@_W@__crt_stdio_output@@@2@@__crt_stdio_output@@AAEXI_N@Z 10026cae f i libucrt:output.obj
 0001:00025d4a       ??$type_case_integer_parse_into_buffer@I$09@?$output_processor@_WV?$string_output_adapter@_W@__crt_stdio_output@@V?$standard_base@_WV?$string_output_adapter@_W@__crt_stdio_output@@@2@@__crt_stdio_output@@AAEXI_N@Z 10026d4a f i libucrt:output.obj
 0001:00025de6       ??$type_case_integer_parse_into_buffer@I$0BA@@?$output_processor@DV?$stream_output_adapter@D@__crt_stdio_output@@V?$format_validation_base@DV?$stream_output_adapter@D@__crt_stdio_output@@@2@@__crt_stdio_output@@AAEXI_N@Z 10026de6 f i libucrt:output.obj
 0001:00025e63       ??$type_case_integer_parse_into_buffer@I$0BA@@?$output_processor@DV?$stream_output_adapter@D@__crt_stdio_output@@V?$positional_parameter_base@DV?$stream_output_adapter@D@__crt_stdio_output@@@2@@__crt_stdio_output@@AAEXI_N@Z 10026e63 f i libucrt:output.obj
 0001:00025ee0       ??$type_case_integer_parse_into_buffer@I$0BA@@?$output_processor@DV?$stream_output_adapter@D@__crt_stdio_output@@V?$standard_base@DV?$stream_output_adapter@D@__crt_stdio_output@@@2@@__crt_stdio_output@@AAEXI_N@Z 10026ee0 f i libucrt:output.obj
 0001:00025f5d       ??$type_case_integer_parse_into_buffer@I$0BA@@?$output_processor@DV?$string_output_adapter@D@__crt_stdio_output@@V?$format_validation_base@DV?$string_output_adapter@D@__crt_stdio_output@@@2@@__crt_stdio_output@@AAEXI_N@Z 10026f5d f i libucrt:output.obj
 0001:00025fda       ??$type_case_integer_parse_into_buffer@I$0BA@@?$output_processor@DV?$string_output_adapter@D@__crt_stdio_output@@V?$positional_parameter_base@DV?$string_output_adapter@D@__crt_stdio_output@@@2@@__crt_stdio_output@@AAEXI_N@Z 10026fda f i libucrt:output.obj
 0001:00026057       ??$type_case_integer_parse_into_buffer@I$0BA@@?$output_processor@DV?$string_output_adapter@D@__crt_stdio_output@@V?$standard_base@DV?$string_output_adapter@D@__crt_stdio_output@@@2@@__crt_stdio_output@@AAEXI_N@Z 10027057 f i libucrt:output.obj
 0001:000260d4       ??$type_case_integer_parse_into_buffer@I$0BA@@?$output_processor@_WV?$stream_output_adapter@_W@__crt_stdio_output@@V?$format_validation_base@_WV?$stream_output_adapter@_W@__crt_stdio_output@@@2@@__crt_stdio_output@@AAEXI_N@Z 100270d4 f i libucrt:output.obj
 0001:0002615e       ??$type_case_integer_parse_into_buffer@I$0BA@@?$output_processor@_WV?$stream_output_adapter@_W@__crt_stdio_output@@V?$positional_parameter_base@_WV?$stream_output_adapter@_W@__crt_stdio_output@@@2@@__crt_stdio_output@@AAEXI_N@Z 1002715e f i libucrt:output.obj
 0001:000261e8       ??$type_case_integer_parse_into_buffer@I$0BA@@?$output_processor@_WV?$stream_output_adapter@_W@__crt_stdio_output@@V?$standard_base@_WV?$stream_output_adapter@_W@__crt_stdio_output@@@2@@__crt_stdio_output@@AAEXI_N@Z 100271e8 f i libucrt:output.obj
 0001:00026272       ??$type_case_integer_parse_into_buffer@I$0BA@@?$output_processor@_WV?$string_output_adapter@_W@__crt_stdio_output@@V?$format_validation_base@_WV?$string_output_adapter@_W@__crt_stdio_output@@@2@@__crt_stdio_output@@AAEXI_N@Z 10027272 f i libucrt:output.obj
 0001:000262fc       ??$type_case_integer_parse_into_buffer@I$0BA@@?$output_processor@_WV?$string_output_adapter@_W@__crt_stdio_output@@V?$positional_parameter_base@_WV?$string_output_adapter@_W@__crt_stdio_output@@@2@@__crt_stdio_output@@AAEXI_N@Z 100272fc f i libucrt:output.obj
 0001:00026386       ??$type_case_integer_parse_into_buffer@I$0BA@@?$output_processor@_WV?$string_output_adapter@_W@__crt_stdio_output@@V?$standard_base@_WV?$string_output_adapter@_W@__crt_stdio_output@@@2@@__crt_stdio_output@@AAEXI_N@Z 10027386 f i libucrt:output.obj
 0001:00026410       ??$type_case_integer_parse_into_buffer@_K$07@?$output_processor@DV?$stream_output_adapter@D@__crt_stdio_output@@V?$format_validation_base@DV?$stream_output_adapter@D@__crt_stdio_output@@@2@@__crt_stdio_output@@AAEX_K_N@Z 10027410 f i libucrt:output.obj
 0001:00026488       ??$type_case_integer_parse_into_buffer@_K$07@?$output_processor@DV?$stream_output_adapter@D@__crt_stdio_output@@V?$positional_parameter_base@DV?$stream_output_adapter@D@__crt_stdio_output@@@2@@__crt_stdio_output@@AAEX_K_N@Z 10027488 f i libucrt:output.obj
 0001:00026500       ??$type_case_integer_parse_into_buffer@_K$07@?$output_processor@DV?$stream_output_adapter@D@__crt_stdio_output@@V?$standard_base@DV?$stream_output_adapter@D@__crt_stdio_output@@@2@@__crt_stdio_output@@AAEX_K_N@Z 10027500 f i libucrt:output.obj
 0001:00026578       ??$type_case_integer_parse_into_buffer@_K$07@?$output_processor@DV?$string_output_adapter@D@__crt_stdio_output@@V?$format_validation_base@DV?$string_output_adapter@D@__crt_stdio_output@@@2@@__crt_stdio_output@@AAEX_K_N@Z 10027578 f i libucrt:output.obj
 0001:000265f0       ??$type_case_integer_parse_into_buffer@_K$07@?$output_processor@DV?$string_output_adapter@D@__crt_stdio_output@@V?$positional_parameter_base@DV?$string_output_adapter@D@__crt_stdio_output@@@2@@__crt_stdio_output@@AAEX_K_N@Z 100275f0 f i libucrt:output.obj
 0001:00026668       ??$type_case_integer_parse_into_buffer@_K$07@?$output_processor@DV?$string_output_adapter@D@__crt_stdio_output@@V?$standard_base@DV?$string_output_adapter@D@__crt_stdio_output@@@2@@__crt_stdio_output@@AAEX_K_N@Z 10027668 f i libucrt:output.obj
 0001:000266e0       ??$type_case_integer_parse_into_buffer@_K$07@?$output_processor@_WV?$stream_output_adapter@_W@__crt_stdio_output@@V?$format_validation_base@_WV?$stream_output_adapter@_W@__crt_stdio_output@@@2@@__crt_stdio_output@@AAEX_K_N@Z 100276e0 f i libucrt:output.obj
 0001:00026767       ??$type_case_integer_parse_into_buffer@_K$07@?$output_processor@_WV?$stream_output_adapter@_W@__crt_stdio_output@@V?$positional_parameter_base@_WV?$stream_output_adapter@_W@__crt_stdio_output@@@2@@__crt_stdio_output@@AAEX_K_N@Z 10027767 f i libucrt:output.obj
 0001:000267ee       ??$type_case_integer_parse_into_buffer@_K$07@?$output_processor@_WV?$stream_output_adapter@_W@__crt_stdio_output@@V?$standard_base@_WV?$stream_output_adapter@_W@__crt_stdio_output@@@2@@__crt_stdio_output@@AAEX_K_N@Z 100277ee f i libucrt:output.obj
 0001:00026875       ??$type_case_integer_parse_into_buffer@_K$07@?$output_processor@_WV?$string_output_adapter@_W@__crt_stdio_output@@V?$format_validation_base@_WV?$string_output_adapter@_W@__crt_stdio_output@@@2@@__crt_stdio_output@@AAEX_K_N@Z 10027875 f i libucrt:output.obj
 0001:000268fc       ??$type_case_integer_parse_into_buffer@_K$07@?$output_processor@_WV?$string_output_adapter@_W@__crt_stdio_output@@V?$positional_parameter_base@_WV?$string_output_adapter@_W@__crt_stdio_output@@@2@@__crt_stdio_output@@AAEX_K_N@Z 100278fc f i libucrt:output.obj
 0001:00026983       ??$type_case_integer_parse_into_buffer@_K$07@?$output_processor@_WV?$string_output_adapter@_W@__crt_stdio_output@@V?$standard_base@_WV?$string_output_adapter@_W@__crt_stdio_output@@@2@@__crt_stdio_output@@AAEX_K_N@Z 10027983 f i libucrt:output.obj
 0001:00026a0a       ??$type_case_integer_parse_into_buffer@_K$09@?$output_processor@DV?$stream_output_adapter@D@__crt_stdio_output@@V?$format_validation_base@DV?$stream_output_adapter@D@__crt_stdio_output@@@2@@__crt_stdio_output@@AAEX_K_N@Z 10027a0a f i libucrt:output.obj
 0001:00026ab1       ??$type_case_integer_parse_into_buffer@_K$09@?$output_processor@DV?$stream_output_adapter@D@__crt_stdio_output@@V?$positional_parameter_base@DV?$stream_output_adapter@D@__crt_stdio_output@@@2@@__crt_stdio_output@@AAEX_K_N@Z 10027ab1 f i libucrt:output.obj
 0001:00026b58       ??$type_case_integer_parse_into_buffer@_K$09@?$output_processor@DV?$stream_output_adapter@D@__crt_stdio_output@@V?$standard_base@DV?$stream_output_adapter@D@__crt_stdio_output@@@2@@__crt_stdio_output@@AAEX_K_N@Z 10027b58 f i libucrt:output.obj
 0001:00026bff       ??$type_case_integer_parse_into_buffer@_K$09@?$output_processor@DV?$string_output_adapter@D@__crt_stdio_output@@V?$format_validation_base@DV?$string_output_adapter@D@__crt_stdio_output@@@2@@__crt_stdio_output@@AAEX_K_N@Z 10027bff f i libucrt:output.obj
 0001:00026ca6       ??$type_case_integer_parse_into_buffer@_K$09@?$output_processor@DV?$string_output_adapter@D@__crt_stdio_output@@V?$positional_parameter_base@DV?$string_output_adapter@D@__crt_stdio_output@@@2@@__crt_stdio_output@@AAEX_K_N@Z 10027ca6 f i libucrt:output.obj
 0001:00026d4d       ??$type_case_integer_parse_into_buffer@_K$09@?$output_processor@DV?$string_output_adapter@D@__crt_stdio_output@@V?$standard_base@DV?$string_output_adapter@D@__crt_stdio_output@@@2@@__crt_stdio_output@@AAEX_K_N@Z 10027d4d f i libucrt:output.obj
 0001:00026df4       ??$type_case_integer_parse_into_buffer@_K$09@?$output_processor@_WV?$stream_output_adapter@_W@__crt_stdio_output@@V?$format_validation_base@_WV?$stream_output_adapter@_W@__crt_stdio_output@@@2@@__crt_stdio_output@@AAEX_K_N@Z 10027df4 f i libucrt:output.obj
 0001:00026eb1       ??$type_case_integer_parse_into_buffer@_K$09@?$output_processor@_WV?$stream_output_adapter@_W@__crt_stdio_output@@V?$positional_parameter_base@_WV?$stream_output_adapter@_W@__crt_stdio_output@@@2@@__crt_stdio_output@@AAEX_K_N@Z 10027eb1 f i libucrt:output.obj
 0001:00026f6e       ??$type_case_integer_parse_into_buffer@_K$09@?$output_processor@_WV?$stream_output_adapter@_W@__crt_stdio_output@@V?$standard_base@_WV?$stream_output_adapter@_W@__crt_stdio_output@@@2@@__crt_stdio_output@@AAEX_K_N@Z 10027f6e f i libucrt:output.obj
 0001:0002702b       ??$type_case_integer_parse_into_buffer@_K$09@?$output_processor@_WV?$string_output_adapter@_W@__crt_stdio_output@@V?$format_validation_base@_WV?$string_output_adapter@_W@__crt_stdio_output@@@2@@__crt_stdio_output@@AAEX_K_N@Z 1002802b f i libucrt:output.obj
 0001:000270e8       ??$type_case_integer_parse_into_buffer@_K$09@?$output_processor@_WV?$string_output_adapter@_W@__crt_stdio_output@@V?$positional_parameter_base@_WV?$string_output_adapter@_W@__crt_stdio_output@@@2@@__crt_stdio_output@@AAEX_K_N@Z 100280e8 f i libucrt:output.obj
 0001:000271a5       ??$type_case_integer_parse_into_buffer@_K$09@?$output_processor@_WV?$string_output_adapter@_W@__crt_stdio_output@@V?$standard_base@_WV?$string_output_adapter@_W@__crt_stdio_output@@@2@@__crt_stdio_output@@AAEX_K_N@Z 100281a5 f i libucrt:output.obj
 0001:00027262       ??$type_case_integer_parse_into_buffer@_K$0BA@@?$output_processor@DV?$stream_output_adapter@D@__crt_stdio_output@@V?$format_validation_base@DV?$stream_output_adapter@D@__crt_stdio_output@@@2@@__crt_stdio_output@@AAEX_K_N@Z 10028262 f i libucrt:output.obj
 0001:000272ec       ??$type_case_integer_parse_into_buffer@_K$0BA@@?$output_processor@DV?$stream_output_adapter@D@__crt_stdio_output@@V?$positional_parameter_base@DV?$stream_output_adapter@D@__crt_stdio_output@@@2@@__crt_stdio_output@@AAEX_K_N@Z 100282ec f i libucrt:output.obj
 0001:00027376       ??$type_case_integer_parse_into_buffer@_K$0BA@@?$output_processor@DV?$stream_output_adapter@D@__crt_stdio_output@@V?$standard_base@DV?$stream_output_adapter@D@__crt_stdio_output@@@2@@__crt_stdio_output@@AAEX_K_N@Z 10028376 f i libucrt:output.obj
 0001:00027400       ??$type_case_integer_parse_into_buffer@_K$0BA@@?$output_processor@DV?$string_output_adapter@D@__crt_stdio_output@@V?$format_validation_base@DV?$string_output_adapter@D@__crt_stdio_output@@@2@@__crt_stdio_output@@AAEX_K_N@Z 10028400 f i libucrt:output.obj
 0001:0002748a       ??$type_case_integer_parse_into_buffer@_K$0BA@@?$output_processor@DV?$string_output_adapter@D@__crt_stdio_output@@V?$positional_parameter_base@DV?$string_output_adapter@D@__crt_stdio_output@@@2@@__crt_stdio_output@@AAEX_K_N@Z 1002848a f i libucrt:output.obj
 0001:00027514       ??$type_case_integer_parse_into_buffer@_K$0BA@@?$output_processor@DV?$string_output_adapter@D@__crt_stdio_output@@V?$standard_base@DV?$string_output_adapter@D@__crt_stdio_output@@@2@@__crt_stdio_output@@AAEX_K_N@Z 10028514 f i libucrt:output.obj
 0001:0002759e       ??$type_case_integer_parse_into_buffer@_K$0BA@@?$output_processor@_WV?$stream_output_adapter@_W@__crt_stdio_output@@V?$format_validation_base@_WV?$stream_output_adapter@_W@__crt_stdio_output@@@2@@__crt_stdio_output@@AAEX_K_N@Z 1002859e f i libucrt:output.obj
 0001:00027634       ??$type_case_integer_parse_into_buffer@_K$0BA@@?$output_processor@_WV?$stream_output_adapter@_W@__crt_stdio_output@@V?$positional_parameter_base@_WV?$stream_output_adapter@_W@__crt_stdio_output@@@2@@__crt_stdio_output@@AAEX_K_N@Z 10028634 f i libucrt:output.obj
 0001:000276ca       ??$type_case_integer_parse_into_buffer@_K$0BA@@?$output_processor@_WV?$stream_output_adapter@_W@__crt_stdio_output@@V?$standard_base@_WV?$stream_output_adapter@_W@__crt_stdio_output@@@2@@__crt_stdio_output@@AAEX_K_N@Z 100286ca f i libucrt:output.obj
 0001:00027760       ??$type_case_integer_parse_into_buffer@_K$0BA@@?$output_processor@_WV?$string_output_adapter@_W@__crt_stdio_output@@V?$format_validation_base@_WV?$string_output_adapter@_W@__crt_stdio_output@@@2@@__crt_stdio_output@@AAEX_K_N@Z 10028760 f i libucrt:output.obj
 0001:000277f6       ??$type_case_integer_parse_into_buffer@_K$0BA@@?$output_processor@_WV?$string_output_adapter@_W@__crt_stdio_output@@V?$positional_parameter_base@_WV?$string_output_adapter@_W@__crt_stdio_output@@@2@@__crt_stdio_output@@AAEX_K_N@Z 100287f6 f i libucrt:output.obj
 0001:0002788c       ??$type_case_integer_parse_into_buffer@_K$0BA@@?$output_processor@_WV?$string_output_adapter@_W@__crt_stdio_output@@V?$standard_base@_WV?$string_output_adapter@_W@__crt_stdio_output@@@2@@__crt_stdio_output@@AAEX_K_N@Z 1002888c f i libucrt:output.obj
 0001:00027922       ??$write_multiple_characters@V?$stream_output_adapter@D@__crt_stdio_output@@D@__crt_stdio_output@@YAXABV?$stream_output_adapter@D@0@DHQAHAAV__crt_cached_ptd_host@@@Z 10028922 f i libucrt:output.obj
 0001:00027951       ??$write_multiple_characters@V?$stream_output_adapter@_W@__crt_stdio_output@@D@__crt_stdio_output@@YAXABV?$stream_output_adapter@_W@0@DHQAHAAV__crt_cached_ptd_host@@@Z 10028951 f i libucrt:output.obj
 0001:00027985       ??$write_multiple_characters@V?$string_output_adapter@D@__crt_stdio_output@@D@__crt_stdio_output@@YAXABV?$string_output_adapter@D@0@DHQAHAAV__crt_cached_ptd_host@@@Z 10028985 f i libucrt:output.obj
 0001:000279e8       ??$write_multiple_characters@V?$string_output_adapter@_W@__crt_stdio_output@@D@__crt_stdio_output@@YAXABV?$string_output_adapter@_W@0@DHQAHAAV__crt_cached_ptd_host@@@Z 100289e8 f i libucrt:output.obj
 0001:00027c17       ??0?$c_string_character_source@D@__crt_strtox@@QAE@QBDQAPBD@Z 10028c17 f i libucrt:output.obj
 0001:00027c33       ??0?$c_string_character_source@_W@__crt_strtox@@QAE@QB_WQAPB_W@Z 10028c33 f i libucrt:output.obj
 0001:00027c4f       ??0?$common_data@D@__crt_stdio_output@@IAE@AAV__crt_cached_ptd_host@@@Z 10028c4f f i libucrt:output.obj
 0001:00027c96       ??0?$common_data@_W@__crt_stdio_output@@IAE@AAV__crt_cached_ptd_host@@@Z 10028c96 f i libucrt:output.obj
 0001:00027ce2       ??0?$output_adapter_data@DV?$stream_output_adapter@D@__crt_stdio_output@@@__crt_stdio_output@@IAE@ABV?$stream_output_adapter@D@1@_KQBDAAV__crt_cached_ptd_host@@QAD@Z 10028ce2 f i libucrt:output.obj
 0001:00027d49       ??0?$output_adapter_data@DV?$string_output_adapter@D@__crt_stdio_output@@@__crt_stdio_output@@IAE@ABV?$string_output_adapter@D@1@_KQBDAAV__crt_cached_ptd_host@@QAD@Z 10028d49 f i libucrt:output.obj
 0001:00027db0       ??0?$output_adapter_data@_WV?$stream_output_adapter@_W@__crt_stdio_output@@@__crt_stdio_output@@IAE@ABV?$stream_output_adapter@_W@1@_KQB_WAAV__crt_cached_ptd_host@@QAD@Z 10028db0 f i libucrt:output.obj
 0001:00027e1c       ??0?$output_adapter_data@_WV?$string_output_adapter@_W@__crt_stdio_output@@@__crt_stdio_output@@IAE@ABV?$string_output_adapter@_W@1@_KQB_WAAV__crt_cached_ptd_host@@QAD@Z 10028e1c f i libucrt:output.obj
 0001:00027e88       ??0?$output_processor@DV?$stream_output_adapter@D@__crt_stdio_output@@V?$format_validation_base@DV?$stream_output_adapter@D@__crt_stdio_output@@@2@@__crt_stdio_output@@QAE@ABV?$stream_output_adapter@D@1@_KQBDAAV__crt_cached_ptd_host@@QAD@Z 10028e88 f i libucrt:output.obj
 0001:00027eb5       ??0?$output_processor@DV?$stream_output_adapter@D@__crt_stdio_output@@V?$positional_parameter_base@DV?$stream_output_adapter@D@__crt_stdio_output@@@2@@__crt_stdio_output@@QAE@ABV?$stream_output_adapter@D@1@_KQBDAAV__crt_cached_ptd_host@@QAD@Z 10028eb5 f i libucrt:output.obj
 0001:00027edb       ??0?$output_processor@DV?$stream_output_adapter@D@__crt_stdio_output@@V?$standard_base@DV?$stream_output_adapter@D@__crt_stdio_output@@@2@@__crt_stdio_output@@QAE@ABV?$stream_output_adapter@D@1@_KQBDAAV__crt_cached_ptd_host@@QAD@Z 10028edb f i libucrt:output.obj
 0001:00027f08       ??0?$output_processor@DV?$string_output_adapter@D@__crt_stdio_output@@V?$format_validation_base@DV?$string_output_adapter@D@__crt_stdio_output@@@2@@__crt_stdio_output@@QAE@ABV?$string_output_adapter@D@1@_KQBDAAV__crt_cached_ptd_host@@QAD@Z 10028f08 f i libucrt:output.obj
 0001:00027f35       ??0?$output_processor@DV?$string_output_adapter@D@__crt_stdio_output@@V?$positional_parameter_base@DV?$string_output_adapter@D@__crt_stdio_output@@@2@@__crt_stdio_output@@QAE@ABV?$string_output_adapter@D@1@_KQBDAAV__crt_cached_ptd_host@@QAD@Z 10028f35 f i libucrt:output.obj
 0001:00027f5b       ??0?$output_processor@DV?$string_output_adapter@D@__crt_stdio_output@@V?$standard_base@DV?$string_output_adapter@D@__crt_stdio_output@@@2@@__crt_stdio_output@@QAE@ABV?$string_output_adapter@D@1@_KQBDAAV__crt_cached_ptd_host@@QAD@Z 10028f5b f i libucrt:output.obj
 0001:00027f88       ??0?$output_processor@_WV?$stream_output_adapter@_W@__crt_stdio_output@@V?$format_validation_base@_WV?$stream_output_adapter@_W@__crt_stdio_output@@@2@@__crt_stdio_output@@QAE@ABV?$stream_output_adapter@_W@1@_KQB_WAAV__crt_cached_ptd_host@@QAD@Z 10028f88 f i libucrt:output.obj
 0001:00027fb5       ??0?$output_processor@_WV?$stream_output_adapter@_W@__crt_stdio_output@@V?$positional_parameter_base@_WV?$stream_output_adapter@_W@__crt_stdio_output@@@2@@__crt_stdio_output@@QAE@ABV?$stream_output_adapter@_W@1@_KQB_WAAV__crt_cached_ptd_host@@QAD@Z 10028fb5 f i libucrt:output.obj
 0001:00027fdb       ??0?$output_processor@_WV?$stream_output_adapter@_W@__crt_stdio_output@@V?$standard_base@_WV?$stream_output_adapter@_W@__crt_stdio_output@@@2@@__crt_stdio_output@@QAE@ABV?$stream_output_adapter@_W@1@_KQB_WAAV__crt_cached_ptd_host@@QAD@Z 10028fdb f i libucrt:output.obj
 0001:00028008       ??0?$output_processor@_WV?$string_output_adapter@_W@__crt_stdio_output@@V?$format_validation_base@_WV?$string_output_adapter@_W@__crt_stdio_output@@@2@@__crt_stdio_output@@QAE@ABV?$string_output_adapter@_W@1@_KQB_WAAV__crt_cached_ptd_host@@QAD@Z 10029008 f i libucrt:output.obj
 0001:00028035       ??0?$output_processor@_WV?$string_output_adapter@_W@__crt_stdio_output@@V?$positional_parameter_base@_WV?$string_output_adapter@_W@__crt_stdio_output@@@2@@__crt_stdio_output@@QAE@ABV?$string_output_adapter@_W@1@_KQB_WAAV__crt_cached_ptd_host@@QAD@Z 10029035 f i libucrt:output.obj
 0001:0002805b       ??0?$output_processor@_WV?$string_output_adapter@_W@__crt_stdio_output@@V?$standard_base@_WV?$string_output_adapter@_W@__crt_stdio_output@@@2@@__crt_stdio_output@@QAE@ABV?$string_output_adapter@_W@1@_KQB_WAAV__crt_cached_ptd_host@@QAD@Z 1002905b f i libucrt:output.obj
 0001:00028088       ??0?$stream_output_adapter@D@__crt_stdio_output@@QAE@QAU_iobuf@@@Z 10029088 f i libucrt:output.obj
 0001:00028098       ??0?$stream_output_adapter@_W@__crt_stdio_output@@QAE@QAU_iobuf@@@Z 10029098 f i libucrt:output.obj
 0001:000280a8       ??0?$string_output_adapter@D@__crt_stdio_output@@QAE@QAU?$string_output_adapter_context@D@1@@Z 100290a8 f i libucrt:output.obj
 0001:000280b8       ??0?$string_output_adapter@_W@__crt_stdio_output@@QAE@QAU?$string_output_adapter_context@_W@1@@Z 100290b8 f i libucrt:output.obj
 0001:000280c8       ??0__acrt_stdio_temporary_buffering_guard@@QAE@QAU_iobuf@@AAV__crt_cached_ptd_host@@@Z 100290c8 f i libucrt:output.obj
 0001:000280ec       ??0__crt_stdio_stream@@QAE@QAU_iobuf@@@Z 100290ec f i libucrt:output.obj
 0001:000280fc       ??0formatting_buffer@__crt_stdio_output@@QAE@XZ 100290fc f i libucrt:output.obj
 0001:0002810d       ??0guard@?$cached@H@__crt_cached_ptd_host@@QAE@AAU12@@Z 1002910d f i libucrt:output.obj
 0001:0002812c       ??1?$c_string_character_source@D@__crt_strtox@@QAE@XZ 1002912c f i libucrt:output.obj
 0001:00028138       ??1?$c_string_character_source@_W@__crt_strtox@@QAE@XZ 10029138 f i libucrt:output.obj
 0001:00028144       ??1?$common_data@D@__crt_stdio_output@@QAE@XZ 10029144 f i libucrt:output.obj
 0001:0002814c       ??1?$common_data@_W@__crt_stdio_output@@QAE@XZ 1002914c f i libucrt:output.obj
 0001:00028154       ??1?$format_validation_base@DV?$stream_output_adapter@D@__crt_stdio_output@@@__crt_stdio_output@@QAE@XZ 10029154 f i libucrt:output.obj
 0001:0002815c       ??1?$format_validation_base@DV?$string_output_adapter@D@__crt_stdio_output@@@__crt_stdio_output@@QAE@XZ 1002915c f i libucrt:output.obj
 0001:00028164       ??1?$format_validation_base@_WV?$stream_output_adapter@_W@__crt_stdio_output@@@__crt_stdio_output@@QAE@XZ 10029164 f i libucrt:output.obj
 0001:0002816c       ??1?$format_validation_base@_WV?$string_output_adapter@_W@__crt_stdio_output@@@__crt_stdio_output@@QAE@XZ 1002916c f i libucrt:output.obj
 0001:00028174       ??1?$output_adapter_data@DV?$stream_output_adapter@D@__crt_stdio_output@@@__crt_stdio_output@@QAE@XZ 10029174 f i libucrt:output.obj
 0001:0002817c       ??1?$output_adapter_data@DV?$string_output_adapter@D@__crt_stdio_output@@@__crt_stdio_output@@QAE@XZ 1002917c f i libucrt:output.obj
 0001:00028184       ??1?$output_adapter_data@_WV?$stream_output_adapter@_W@__crt_stdio_output@@@__crt_stdio_output@@QAE@XZ 10029184 f i libucrt:output.obj
 0001:0002818c       ??1?$output_adapter_data@_WV?$string_output_adapter@_W@__crt_stdio_output@@@__crt_stdio_output@@QAE@XZ 1002918c f i libucrt:output.obj
 0001:00028194       ??1?$output_processor@DV?$stream_output_adapter@D@__crt_stdio_output@@V?$format_validation_base@DV?$stream_output_adapter@D@__crt_stdio_output@@@2@@__crt_stdio_output@@QAE@XZ 10029194 f i libucrt:output.obj
 0001:0002819c       ??1?$output_processor@DV?$stream_output_adapter@D@__crt_stdio_output@@V?$positional_parameter_base@DV?$stream_output_adapter@D@__crt_stdio_output@@@2@@__crt_stdio_output@@QAE@XZ 1002919c f i libucrt:output.obj
 0001:000281a4       ??1?$output_processor@DV?$stream_output_adapter@D@__crt_stdio_output@@V?$standard_base@DV?$stream_output_adapter@D@__crt_stdio_output@@@2@@__crt_stdio_output@@QAE@XZ 100291a4 f i libucrt:output.obj
 0001:000281ac       ??1?$output_processor@DV?$string_output_adapter@D@__crt_stdio_output@@V?$format_validation_base@DV?$string_output_adapter@D@__crt_stdio_output@@@2@@__crt_stdio_output@@QAE@XZ 100291ac f i libucrt:output.obj
 0001:000281b4       ??1?$output_processor@DV?$string_output_adapter@D@__crt_stdio_output@@V?$positional_parameter_base@DV?$string_output_adapter@D@__crt_stdio_output@@@2@@__crt_stdio_output@@QAE@XZ 100291b4 f i libucrt:output.obj
 0001:000281bc       ??1?$output_processor@DV?$string_output_adapter@D@__crt_stdio_output@@V?$standard_base@DV?$string_output_adapter@D@__crt_stdio_output@@@2@@__crt_stdio_output@@QAE@XZ 100291bc f i libucrt:output.obj
 0001:000281c4       ??1?$output_processor@_WV?$stream_output_adapter@_W@__crt_stdio_output@@V?$format_validation_base@_WV?$stream_output_adapter@_W@__crt_stdio_output@@@2@@__crt_stdio_output@@QAE@XZ 100291c4 f i libucrt:output.obj
 0001:000281cc       ??1?$output_processor@_WV?$stream_output_adapter@_W@__crt_stdio_output@@V?$positional_parameter_base@_WV?$stream_output_adapter@_W@__crt_stdio_output@@@2@@__crt_stdio_output@@QAE@XZ 100291cc f i libucrt:output.obj
 0001:000281d4       ??1?$output_processor@_WV?$stream_output_adapter@_W@__crt_stdio_output@@V?$standard_base@_WV?$stream_output_adapter@_W@__crt_stdio_output@@@2@@__crt_stdio_output@@QAE@XZ 100291d4 f i libucrt:output.obj
 0001:000281dc       ??1?$output_processor@_WV?$string_output_adapter@_W@__crt_stdio_output@@V?$format_validation_base@_WV?$string_output_adapter@_W@__crt_stdio_output@@@2@@__crt_stdio_output@@QAE@XZ 100291dc f i libucrt:output.obj
 0001:000281e4       ??1?$output_processor@_WV?$string_output_adapter@_W@__crt_stdio_output@@V?$positional_parameter_base@_WV?$string_output_adapter@_W@__crt_stdio_output@@@2@@__crt_stdio_output@@QAE@XZ 100291e4 f i libucrt:output.obj
 0001:000281ec       ??1?$output_processor@_WV?$string_output_adapter@_W@__crt_stdio_output@@V?$standard_base@_WV?$string_output_adapter@_W@__crt_stdio_output@@@2@@__crt_stdio_output@@QAE@XZ 100291ec f i libucrt:output.obj
 0001:000281f4       ??1?$positional_parameter_base@DV?$stream_output_adapter@D@__crt_stdio_output@@@__crt_stdio_output@@QAE@XZ 100291f4 f i libucrt:output.obj
 0001:000281fc       ??1?$positional_parameter_base@DV?$string_output_adapter@D@__crt_stdio_output@@@__crt_stdio_output@@QAE@XZ 100291fc f i libucrt:output.obj
 0001:00028204       ??1?$positional_parameter_base@_WV?$stream_output_adapter@_W@__crt_stdio_output@@@__crt_stdio_output@@QAE@XZ 10029204 f i libucrt:output.obj
 0001:0002820c       ??1?$positional_parameter_base@_WV?$string_output_adapter@_W@__crt_stdio_output@@@__crt_stdio_output@@QAE@XZ 1002920c f i libucrt:output.obj
 0001:00028214       ??1?$standard_base@DV?$stream_output_adapter@D@__crt_stdio_output@@@__crt_stdio_output@@QAE@XZ 10029214 f i libucrt:output.obj
 0001:0002821c       ??1?$standard_base@DV?$string_output_adapter@D@__crt_stdio_output@@@__crt_stdio_output@@QAE@XZ 1002921c f i libucrt:output.obj
 0001:00028224       ??1?$standard_base@_WV?$stream_output_adapter@_W@__crt_stdio_output@@@__crt_stdio_output@@QAE@XZ 10029224 f i libucrt:output.obj
 0001:0002822c       ??1?$standard_base@_WV?$string_output_adapter@_W@__crt_stdio_output@@@__crt_stdio_output@@QAE@XZ 1002922c f i libucrt:output.obj
 0001:00028234       ??1__acrt_stdio_temporary_buffering_guard@@QAE@XZ 10029234 f i libucrt:output.obj
 0001:00028247       ??1formatting_buffer@__crt_stdio_output@@QAE@XZ 10029247 f i libucrt:output.obj
 0001:00028261       ??1guard@?$cached@H@__crt_cached_ptd_host@@QAE@XZ 10029261 f i libucrt:output.obj
 0001:00028277       ??4?$__crt_unique_heap_ptr@DU__crt_internal_free_policy@@@@QAEAAV0@$$QAV0@@Z 10029277 f i libucrt:output.obj
 0001:0002829b       ??A?$spectre_mitigated_lookup_table@Ustate_transition_pair@__crt_stdio_output@@$0IA@@__crt_stdio_output@@QBEABUstate_transition_pair@1@I@Z 1002929b f i libucrt:output.obj
 0001:000282ad       ??C__crt_stdio_stream@@QBEPAU__crt_stdio_stream_data@@XZ 100292ad f i libucrt:output.obj
 0001:00028716       ?adjust_hexit@?$output_processor@DV?$stream_output_adapter@D@__crt_stdio_output@@V?$format_validation_base@DV?$stream_output_adapter@D@__crt_stdio_output@@@2@@__crt_stdio_output@@CADH_N@Z 10029716 f i libucrt:output.obj
 0001:0002872a       ?adjust_hexit@?$output_processor@DV?$stream_output_adapter@D@__crt_stdio_output@@V?$positional_parameter_base@DV?$stream_output_adapter@D@__crt_stdio_output@@@2@@__crt_stdio_output@@CADH_N@Z 1002972a f i libucrt:output.obj
 0001:0002873e       ?adjust_hexit@?$output_processor@DV?$stream_output_adapter@D@__crt_stdio_output@@V?$standard_base@DV?$stream_output_adapter@D@__crt_stdio_output@@@2@@__crt_stdio_output@@CADH_N@Z 1002973e f i libucrt:output.obj
 0001:00028752       ?adjust_hexit@?$output_processor@DV?$string_output_adapter@D@__crt_stdio_output@@V?$format_validation_base@DV?$string_output_adapter@D@__crt_stdio_output@@@2@@__crt_stdio_output@@CADH_N@Z 10029752 f i libucrt:output.obj
 0001:00028766       ?adjust_hexit@?$output_processor@DV?$string_output_adapter@D@__crt_stdio_output@@V?$positional_parameter_base@DV?$string_output_adapter@D@__crt_stdio_output@@@2@@__crt_stdio_output@@CADH_N@Z 10029766 f i libucrt:output.obj
 0001:0002877a       ?adjust_hexit@?$output_processor@DV?$string_output_adapter@D@__crt_stdio_output@@V?$standard_base@DV?$string_output_adapter@D@__crt_stdio_output@@@2@@__crt_stdio_output@@CADH_N@Z 1002977a f i libucrt:output.obj
 0001:0002878e       ?adjust_hexit@?$output_processor@_WV?$stream_output_adapter@_W@__crt_stdio_output@@V?$format_validation_base@_WV?$stream_output_adapter@_W@__crt_stdio_output@@@2@@__crt_stdio_output@@CADH_N@Z 1002978e f i libucrt:output.obj
 0001:000287a2       ?adjust_hexit@?$output_processor@_WV?$stream_output_adapter@_W@__crt_stdio_output@@V?$positional_parameter_base@_WV?$stream_output_adapter@_W@__crt_stdio_output@@@2@@__crt_stdio_output@@CADH_N@Z 100297a2 f i libucrt:output.obj
 0001:000287b6       ?adjust_hexit@?$output_processor@_WV?$stream_output_adapter@_W@__crt_stdio_output@@V?$standard_base@_WV?$stream_output_adapter@_W@__crt_stdio_output@@@2@@__crt_stdio_output@@CADH_N@Z 100297b6 f i libucrt:output.obj
 0001:000287ca       ?adjust_hexit@?$output_processor@_WV?$string_output_adapter@_W@__crt_stdio_output@@V?$format_validation_base@_WV?$string_output_adapter@_W@__crt_stdio_output@@@2@@__crt_stdio_output@@CADH_N@Z 100297ca f i libucrt:output.obj
 0001:000287de       ?adjust_hexit@?$output_processor@_WV?$string_output_adapter@_W@__crt_stdio_output@@V?$positional_parameter_base@_WV?$string_output_adapter@_W@__crt_stdio_output@@@2@@__crt_stdio_output@@CADH_N@Z 100297de f i libucrt:output.obj
 0001:000287f2       ?adjust_hexit@?$output_processor@_WV?$string_output_adapter@_W@__crt_stdio_output@@V?$standard_base@_WV?$string_output_adapter@_W@__crt_stdio_output@@@2@@__crt_stdio_output@@CADH_N@Z 100297f2 f i libucrt:output.obj
 0001:00028806       ?advance_to_next_pass@?$positional_parameter_base@DV?$stream_output_adapter@D@__crt_stdio_output@@@__crt_stdio_output@@IAE_NXZ 10029806 f i libucrt:output.obj
 0001:00028854       ?advance_to_next_pass@?$positional_parameter_base@DV?$string_output_adapter@D@__crt_stdio_output@@@__crt_stdio_output@@IAE_NXZ 10029854 f i libucrt:output.obj
 0001:000288a2       ?advance_to_next_pass@?$positional_parameter_base@_WV?$stream_output_adapter@_W@__crt_stdio_output@@@__crt_stdio_output@@IAE_NXZ 100298a2 f i libucrt:output.obj
 0001:000288f0       ?advance_to_next_pass@?$positional_parameter_base@_WV?$string_output_adapter@_W@__crt_stdio_output@@@__crt_stdio_output@@IAE_NXZ 100298f0 f i libucrt:output.obj
 0001:0002893e       ?advance_to_next_pass@?$standard_base@DV?$stream_output_adapter@D@__crt_stdio_output@@@__crt_stdio_output@@IAE_NXZ 1002993e f i libucrt:output.obj
 0001:0002894f       ?advance_to_next_pass@?$standard_base@DV?$string_output_adapter@D@__crt_stdio_output@@@__crt_stdio_output@@IAE_NXZ 1002994f f i libucrt:output.obj
 0001:00028960       ?advance_to_next_pass@?$standard_base@_WV?$stream_output_adapter@_W@__crt_stdio_output@@@__crt_stdio_output@@IAE_NXZ 10029960 f i libucrt:output.obj
 0001:00028971       ?advance_to_next_pass@?$standard_base@_WV?$string_output_adapter@_W@__crt_stdio_output@@@__crt_stdio_output@@IAE_NXZ 10029971 f i libucrt:output.obj
 0001:00028982       ?check@?$cached@H@__crt_cached_ptd_host@@QBE_NH@Z 10029982 f i libucrt:output.obj
 0001:0002899e       ?create_guard@?$cached@H@__crt_cached_ptd_host@@QAE?AVguard@12@XZ 1002999e f i libucrt:output.obj
 0001:000289bb       ?crop_zeroes@__crt_stdio_output@@YAXPADQAU__crt_locale_pointers@@@Z 100299bb f i libucrt:output.obj
 0001:00028a1b       ?disable@guard@?$cached@H@__crt_cached_ptd_host@@QAEXXZ 10029a1b f i libucrt:output.obj
 0001:00028a20       ?enable@guard@?$cached@H@__crt_cached_ptd_host@@QAEXXZ 10029a20 f i libucrt:output.obj
 0001:00028a25       ?find_next_state@?$output_processor@DV?$stream_output_adapter@D@__crt_stdio_output@@V?$format_validation_base@DV?$stream_output_adapter@D@__crt_stdio_output@@@2@@__crt_stdio_output@@ABE?AW4state@2@DW432@@Z 10029a25 f i libucrt:output.obj
 0001:00028a62       ?find_next_state@?$output_processor@DV?$stream_output_adapter@D@__crt_stdio_output@@V?$positional_parameter_base@DV?$stream_output_adapter@D@__crt_stdio_output@@@2@@__crt_stdio_output@@ABE?AW4state@2@DW432@@Z 10029a62 f i libucrt:output.obj
 0001:00028a9f       ?find_next_state@?$output_processor@DV?$stream_output_adapter@D@__crt_stdio_output@@V?$standard_base@DV?$stream_output_adapter@D@__crt_stdio_output@@@2@@__crt_stdio_output@@ABE?AW4state@2@DW432@@Z 10029a9f f i libucrt:output.obj
 0001:00028ada       ?find_next_state@?$output_processor@DV?$string_output_adapter@D@__crt_stdio_output@@V?$format_validation_base@DV?$string_output_adapter@D@__crt_stdio_output@@@2@@__crt_stdio_output@@ABE?AW4state@2@DW432@@Z 10029ada f i libucrt:output.obj
 0001:00028b17       ?find_next_state@?$output_processor@DV?$string_output_adapter@D@__crt_stdio_output@@V?$positional_parameter_base@DV?$string_output_adapter@D@__crt_stdio_output@@@2@@__crt_stdio_output@@ABE?AW4state@2@DW432@@Z 10029b17 f i libucrt:output.obj
 0001:00028b54       ?find_next_state@?$output_processor@DV?$string_output_adapter@D@__crt_stdio_output@@V?$standard_base@DV?$string_output_adapter@D@__crt_stdio_output@@@2@@__crt_stdio_output@@ABE?AW4state@2@DW432@@Z 10029b54 f i libucrt:output.obj
 0001:00028b8f       ?find_next_state@?$output_processor@_WV?$stream_output_adapter@_W@__crt_stdio_output@@V?$format_validation_base@_WV?$stream_output_adapter@_W@__crt_stdio_output@@@2@@__crt_stdio_output@@ABE?AW4state@2@_WW432@@Z 10029b8f f i libucrt:output.obj
 0001:00028bcb       ?find_next_state@?$output_processor@_WV?$stream_output_adapter@_W@__crt_stdio_output@@V?$positional_parameter_base@_WV?$stream_output_adapter@_W@__crt_stdio_output@@@2@@__crt_stdio_output@@ABE?AW4state@2@_WW432@@Z 10029bcb f i libucrt:output.obj
 0001:00028c07       ?find_next_state@?$output_processor@_WV?$stream_output_adapter@_W@__crt_stdio_output@@V?$standard_base@_WV?$stream_output_adapter@_W@__crt_stdio_output@@@2@@__crt_stdio_output@@ABE?AW4state@2@_WW432@@Z 10029c07 f i libucrt:output.obj
 0001:00028c41       ?find_next_state@?$output_processor@_WV?$string_output_adapter@_W@__crt_stdio_output@@V?$format_validation_base@_WV?$string_output_adapter@_W@__crt_stdio_output@@@2@@__crt_stdio_output@@ABE?AW4state@2@_WW432@@Z 10029c41 f i libucrt:output.obj
 0001:00028c7d       ?find_next_state@?$output_processor@_WV?$string_output_adapter@_W@__crt_stdio_output@@V?$positional_parameter_base@_WV?$string_output_adapter@_W@__crt_stdio_output@@@2@@__crt_stdio_output@@ABE?AW4state@2@_WW432@@Z 10029c7d f i libucrt:output.obj
 0001:00028cb9       ?find_next_state@?$output_processor@_WV?$string_output_adapter@_W@__crt_stdio_output@@V?$standard_base@_WV?$string_output_adapter@_W@__crt_stdio_output@@@2@@__crt_stdio_output@@ABE?AW4state@2@_WW432@@Z 10029cb9 f i libucrt:output.obj
 0001:00028cf3       ?force_decimal_point@__crt_stdio_output@@YAXPADQAU__crt_locale_pointers@@@Z 10029cf3 f i libucrt:output.obj
 0001:00028d4f       ?get@?$c_string_character_source@D@__crt_strtox@@QAEDXZ 10029d4f f i libucrt:output.obj
 0001:00028d57       ?get@?$c_string_character_source@_W@__crt_strtox@@QAE_WXZ 10029d57 f i libucrt:output.obj
 0001:00028d62       ?get_flags@__crt_stdio_stream@@QBEJXZ 10029d62 f i libucrt:output.obj
 0001:00028d69       ?get_parameter_type@?$positional_parameter_base@DV?$stream_output_adapter@D@__crt_stdio_output@@@__crt_stdio_output@@CA?AW4parameter_type@12@F@Z 10029d69 f i libucrt:output.obj
 0001:00028d6d       ?get_parameter_type@?$positional_parameter_base@DV?$stream_output_adapter@D@__crt_stdio_output@@@__crt_stdio_output@@CA?AW4parameter_type@12@G@Z 10029d6d f i libucrt:output.obj
 0001:00028d71       ?get_parameter_type@?$positional_parameter_base@DV?$stream_output_adapter@D@__crt_stdio_output@@@__crt_stdio_output@@CA?AW4parameter_type@12@H@Z 10029d71 f i libucrt:output.obj
 0001:00028d75       ?get_parameter_type@?$positional_parameter_base@DV?$stream_output_adapter@D@__crt_stdio_output@@@__crt_stdio_output@@CA?AW4parameter_type@12@I@Z 10029d75 f i libucrt:output.obj
 0001:00028d79       ?get_parameter_type@?$positional_parameter_base@DV?$stream_output_adapter@D@__crt_stdio_output@@@__crt_stdio_output@@CA?AW4parameter_type@12@U_CRT_DOUBLE@@@Z 10029d79 f i libucrt:output.obj
 0001:00028d7d       ?get_parameter_type@?$positional_parameter_base@DV?$stream_output_adapter@D@__crt_stdio_output@@@__crt_stdio_output@@CA?AW4parameter_type@12@_J@Z 10029d7d f i libucrt:output.obj
 0001:00028d81       ?get_parameter_type@?$positional_parameter_base@DV?$stream_output_adapter@D@__crt_stdio_output@@@__crt_stdio_output@@CA?AW4parameter_type@12@_K@Z 10029d81 f i libucrt:output.obj
 0001:00028d85       ?get_parameter_type@?$positional_parameter_base@DV?$stream_output_adapter@D@__crt_stdio_output@@@__crt_stdio_output@@CA?AW4parameter_type@12@_W@Z 10029d85 f i libucrt:output.obj
 0001:00028d89       ?get_parameter_type@?$positional_parameter_base@DV?$string_output_adapter@D@__crt_stdio_output@@@__crt_stdio_output@@CA?AW4parameter_type@12@F@Z 10029d89 f i libucrt:output.obj
 0001:00028d8d       ?get_parameter_type@?$positional_parameter_base@DV?$string_output_adapter@D@__crt_stdio_output@@@__crt_stdio_output@@CA?AW4parameter_type@12@G@Z 10029d8d f i libucrt:output.obj
 0001:00028d91       ?get_parameter_type@?$positional_parameter_base@DV?$string_output_adapter@D@__crt_stdio_output@@@__crt_stdio_output@@CA?AW4parameter_type@12@H@Z 10029d91 f i libucrt:output.obj
 0001:00028d95       ?get_parameter_type@?$positional_parameter_base@DV?$string_output_adapter@D@__crt_stdio_output@@@__crt_stdio_output@@CA?AW4parameter_type@12@I@Z 10029d95 f i libucrt:output.obj
 0001:00028d99       ?get_parameter_type@?$positional_parameter_base@DV?$string_output_adapter@D@__crt_stdio_output@@@__crt_stdio_output@@CA?AW4parameter_type@12@U_CRT_DOUBLE@@@Z 10029d99 f i libucrt:output.obj
 0001:00028d9d       ?get_parameter_type@?$positional_parameter_base@DV?$string_output_adapter@D@__crt_stdio_output@@@__crt_stdio_output@@CA?AW4parameter_type@12@_J@Z 10029d9d f i libucrt:output.obj
 0001:00028da1       ?get_parameter_type@?$positional_parameter_base@DV?$string_output_adapter@D@__crt_stdio_output@@@__crt_stdio_output@@CA?AW4parameter_type@12@_K@Z 10029da1 f i libucrt:output.obj
 0001:00028da5       ?get_parameter_type@?$positional_parameter_base@DV?$string_output_adapter@D@__crt_stdio_output@@@__crt_stdio_output@@CA?AW4parameter_type@12@_W@Z 10029da5 f i libucrt:output.obj
 0001:00028da9       ?get_parameter_type@?$positional_parameter_base@_WV?$stream_output_adapter@_W@__crt_stdio_output@@@__crt_stdio_output@@CA?AW4parameter_type@12@F@Z 10029da9 f i libucrt:output.obj
 0001:00028dad       ?get_parameter_type@?$positional_parameter_base@_WV?$stream_output_adapter@_W@__crt_stdio_output@@@__crt_stdio_output@@CA?AW4parameter_type@12@G@Z 10029dad f i libucrt:output.obj
 0001:00028db1       ?get_parameter_type@?$positional_parameter_base@_WV?$stream_output_adapter@_W@__crt_stdio_output@@@__crt_stdio_output@@CA?AW4parameter_type@12@H@Z 10029db1 f i libucrt:output.obj
 0001:00028db5       ?get_parameter_type@?$positional_parameter_base@_WV?$stream_output_adapter@_W@__crt_stdio_output@@@__crt_stdio_output@@CA?AW4parameter_type@12@I@Z 10029db5 f i libucrt:output.obj
 0001:00028db9       ?get_parameter_type@?$positional_parameter_base@_WV?$stream_output_adapter@_W@__crt_stdio_output@@@__crt_stdio_output@@CA?AW4parameter_type@12@U_CRT_DOUBLE@@@Z 10029db9 f i libucrt:output.obj
 0001:00028dbd       ?get_parameter_type@?$positional_parameter_base@_WV?$stream_output_adapter@_W@__crt_stdio_output@@@__crt_stdio_output@@CA?AW4parameter_type@12@_J@Z 10029dbd f i libucrt:output.obj
 0001:00028dc1       ?get_parameter_type@?$positional_parameter_base@_WV?$stream_output_adapter@_W@__crt_stdio_output@@@__crt_stdio_output@@CA?AW4parameter_type@12@_K@Z 10029dc1 f i libucrt:output.obj
 0001:00028dc5       ?get_parameter_type@?$positional_parameter_base@_WV?$stream_output_adapter@_W@__crt_stdio_output@@@__crt_stdio_output@@CA?AW4parameter_type@12@_W@Z 10029dc5 f i libucrt:output.obj
 0001:00028dc9       ?get_parameter_type@?$positional_parameter_base@_WV?$string_output_adapter@_W@__crt_stdio_output@@@__crt_stdio_output@@CA?AW4parameter_type@12@F@Z 10029dc9 f i libucrt:output.obj
 0001:00028dcd       ?get_parameter_type@?$positional_parameter_base@_WV?$string_output_adapter@_W@__crt_stdio_output@@@__crt_stdio_output@@CA?AW4parameter_type@12@G@Z 10029dcd f i libucrt:output.obj
 0001:00028dd1       ?get_parameter_type@?$positional_parameter_base@_WV?$string_output_adapter@_W@__crt_stdio_output@@@__crt_stdio_output@@CA?AW4parameter_type@12@H@Z 10029dd1 f i libucrt:output.obj
 0001:00028dd5       ?get_parameter_type@?$positional_parameter_base@_WV?$string_output_adapter@_W@__crt_stdio_output@@@__crt_stdio_output@@CA?AW4parameter_type@12@I@Z 10029dd5 f i libucrt:output.obj
 0001:00028dd9       ?get_parameter_type@?$positional_parameter_base@_WV?$string_output_adapter@_W@__crt_stdio_output@@@__crt_stdio_output@@CA?AW4parameter_type@12@U_CRT_DOUBLE@@@Z 10029dd9 f i libucrt:output.obj
 0001:00028ddd       ?get_parameter_type@?$positional_parameter_base@_WV?$string_output_adapter@_W@__crt_stdio_output@@@__crt_stdio_output@@CA?AW4parameter_type@12@_J@Z 10029ddd f i libucrt:output.obj
 0001:00028de1       ?get_parameter_type@?$positional_parameter_base@_WV?$string_output_adapter@_W@__crt_stdio_output@@@__crt_stdio_output@@CA?AW4parameter_type@12@_K@Z 10029de1 f i libucrt:output.obj
 0001:00028de5       ?get_parameter_type@?$positional_parameter_base@_WV?$string_output_adapter@_W@__crt_stdio_output@@@__crt_stdio_output@@CA?AW4parameter_type@12@_W@Z 10029de5 f i libucrt:output.obj
 0001:00028de9       ?has_flag@?$output_processor@DV?$stream_output_adapter@D@__crt_stdio_output@@V?$format_validation_base@DV?$stream_output_adapter@D@__crt_stdio_output@@@2@@__crt_stdio_output@@ABE_NI@Z 10029de9 f i libucrt:output.obj
 0001:00028dfb       ?has_flag@?$output_processor@DV?$stream_output_adapter@D@__crt_stdio_output@@V?$positional_parameter_base@DV?$stream_output_adapter@D@__crt_stdio_output@@@2@@__crt_stdio_output@@ABE_NI@Z 10029dfb f i libucrt:output.obj
 0001:00028e0d       ?has_flag@?$output_processor@DV?$stream_output_adapter@D@__crt_stdio_output@@V?$standard_base@DV?$stream_output_adapter@D@__crt_stdio_output@@@2@@__crt_stdio_output@@ABE_NI@Z 10029e0d f i libucrt:output.obj
 0001:00028e1f       ?has_flag@?$output_processor@DV?$string_output_adapter@D@__crt_stdio_output@@V?$format_validation_base@DV?$string_output_adapter@D@__crt_stdio_output@@@2@@__crt_stdio_output@@ABE_NI@Z 10029e1f f i libucrt:output.obj
 0001:00028e31       ?has_flag@?$output_processor@DV?$string_output_adapter@D@__crt_stdio_output@@V?$positional_parameter_base@DV?$string_output_adapter@D@__crt_stdio_output@@@2@@__crt_stdio_output@@ABE_NI@Z 10029e31 f i libucrt:output.obj
 0001:00028e43       ?has_flag@?$output_processor@DV?$string_output_adapter@D@__crt_stdio_output@@V?$standard_base@DV?$string_output_adapter@D@__crt_stdio_output@@@2@@__crt_stdio_output@@ABE_NI@Z 10029e43 f i libucrt:output.obj
 0001:00028e55       ?has_flag@?$output_processor@_WV?$stream_output_adapter@_W@__crt_stdio_output@@V?$format_validation_base@_WV?$stream_output_adapter@_W@__crt_stdio_output@@@2@@__crt_stdio_output@@ABE_NI@Z 10029e55 f i libucrt:output.obj
 0001:00028e67       ?has_flag@?$output_processor@_WV?$stream_output_adapter@_W@__crt_stdio_output@@V?$positional_parameter_base@_WV?$stream_output_adapter@_W@__crt_stdio_output@@@2@@__crt_stdio_output@@ABE_NI@Z 10029e67 f i libucrt:output.obj
 0001:00028e79       ?has_flag@?$output_processor@_WV?$stream_output_adapter@_W@__crt_stdio_output@@V?$standard_base@_WV?$stream_output_adapter@_W@__crt_stdio_output@@@2@@__crt_stdio_output@@ABE_NI@Z 10029e79 f i libucrt:output.obj
 0001:00028e8b       ?has_flag@?$output_processor@_WV?$string_output_adapter@_W@__crt_stdio_output@@V?$format_validation_base@_WV?$string_output_adapter@_W@__crt_stdio_output@@@2@@__crt_stdio_output@@ABE_NI@Z 10029e8b f i libucrt:output.obj
 0001:00028e9d       ?has_flag@?$output_processor@_WV?$string_output_adapter@_W@__crt_stdio_output@@V?$positional_parameter_base@_WV?$string_output_adapter@_W@__crt_stdio_output@@@2@@__crt_stdio_output@@ABE_NI@Z 10029e9d f i libucrt:output.obj
 0001:00028eaf       ?has_flag@?$output_processor@_WV?$string_output_adapter@_W@__crt_stdio_output@@V?$standard_base@_WV?$string_output_adapter@_W@__crt_stdio_output@@@2@@__crt_stdio_output@@ABE_NI@Z 10029eaf f i libucrt:output.obj
 0001:00028ec1       ?is_positional_parameter_reappearance_consistent@?$positional_parameter_base@DV?$stream_output_adapter@D@__crt_stdio_output@@@__crt_stdio_output@@AAE_NABUparameter_data@12@W4parameter_type@12@DW4length_modifier@2@@Z 10029ec1 f i libucrt:output.obj
 0001:00028fdb       ?is_positional_parameter_reappearance_consistent@?$positional_parameter_base@DV?$string_output_adapter@D@__crt_stdio_output@@@__crt_stdio_output@@AAE_NABUparameter_data@12@W4parameter_type@12@DW4length_modifier@2@@Z 10029fdb f i libucrt:output.obj
 0001:000290f5       ?is_positional_parameter_reappearance_consistent@?$positional_parameter_base@_WV?$stream_output_adapter@_W@__crt_stdio_output@@@__crt_stdio_output@@AAE_NABUparameter_data@12@W4parameter_type@12@_WW4length_modifier@2@@Z 1002a0f5 f i libucrt:output.obj
 0001:00029210       ?is_positional_parameter_reappearance_consistent@?$positional_parameter_base@_WV?$string_output_adapter@_W@__crt_stdio_output@@@__crt_stdio_output@@AAE_NABUparameter_data@12@W4parameter_type@12@_WW4length_modifier@2@@Z 1002a210 f i libucrt:output.obj
 0001:0002932b       ?is_string_backed@__crt_stdio_stream@@QBE_NXZ 1002a32b f i libucrt:output.obj
 0001:00029337       ?maximum_signed_value@__crt_strtox@@YAJK@Z 1002a337 f i libucrt:output.obj
 0001:0002933d       ?minimum_signed_value@__crt_strtox@@YAJK@Z 1002a33d f i libucrt:output.obj
 0001:00029343       ?narrow_null_string@?$output_processor@DV?$stream_output_adapter@D@__crt_stdio_output@@V?$format_validation_base@DV?$stream_output_adapter@D@__crt_stdio_output@@@2@@__crt_stdio_output@@CAPADXZ 1002a343 f i libucrt:output.obj
 0001:00029349       ?narrow_null_string@?$output_processor@DV?$stream_output_adapter@D@__crt_stdio_output@@V?$positional_parameter_base@DV?$stream_output_adapter@D@__crt_stdio_output@@@2@@__crt_stdio_output@@CAPADXZ 1002a349 f i libucrt:output.obj
 0001:0002934f       ?narrow_null_string@?$output_processor@DV?$stream_output_adapter@D@__crt_stdio_output@@V?$standard_base@DV?$stream_output_adapter@D@__crt_stdio_output@@@2@@__crt_stdio_output@@CAPADXZ 1002a34f f i libucrt:output.obj
 0001:00029355       ?narrow_null_string@?$output_processor@DV?$string_output_adapter@D@__crt_stdio_output@@V?$format_validation_base@DV?$string_output_adapter@D@__crt_stdio_output@@@2@@__crt_stdio_output@@CAPADXZ 1002a355 f i libucrt:output.obj
 0001:0002935b       ?narrow_null_string@?$output_processor@DV?$string_output_adapter@D@__crt_stdio_output@@V?$positional_parameter_base@DV?$string_output_adapter@D@__crt_stdio_output@@@2@@__crt_stdio_output@@CAPADXZ 1002a35b f i libucrt:output.obj
 0001:00029361       ?narrow_null_string@?$output_processor@DV?$string_output_adapter@D@__crt_stdio_output@@V?$standard_base@DV?$string_output_adapter@D@__crt_stdio_output@@@2@@__crt_stdio_output@@CAPADXZ 1002a361 f i libucrt:output.obj
 0001:00029367       ?narrow_null_string@?$output_processor@_WV?$stream_output_adapter@_W@__crt_stdio_output@@V?$format_validation_base@_WV?$stream_output_adapter@_W@__crt_stdio_output@@@2@@__crt_stdio_output@@CAPADXZ 1002a367 f i libucrt:output.obj
 0001:0002936d       ?narrow_null_string@?$output_processor@_WV?$stream_output_adapter@_W@__crt_stdio_output@@V?$positional_parameter_base@_WV?$stream_output_adapter@_W@__crt_stdio_output@@@2@@__crt_stdio_output@@CAPADXZ 1002a36d f i libucrt:output.obj
 0001:00029373       ?narrow_null_string@?$output_processor@_WV?$stream_output_adapter@_W@__crt_stdio_output@@V?$standard_base@_WV?$stream_output_adapter@_W@__crt_stdio_output@@@2@@__crt_stdio_output@@CAPADXZ 1002a373 f i libucrt:output.obj
 0001:00029379       ?narrow_null_string@?$output_processor@_WV?$string_output_adapter@_W@__crt_stdio_output@@V?$format_validation_base@_WV?$string_output_adapter@_W@__crt_stdio_output@@@2@@__crt_stdio_output@@CAPADXZ 1002a379 f i libucrt:output.obj
 0001:0002937f       ?narrow_null_string@?$output_processor@_WV?$string_output_adapter@_W@__crt_stdio_output@@V?$positional_parameter_base@_WV?$string_output_adapter@_W@__crt_stdio_output@@@2@@__crt_stdio_output@@CAPADXZ 1002a37f f i libucrt:output.obj
 0001:00029385       ?narrow_null_string@?$output_processor@_WV?$string_output_adapter@_W@__crt_stdio_output@@V?$standard_base@_WV?$string_output_adapter@_W@__crt_stdio_output@@@2@@__crt_stdio_output@@CAPADXZ 1002a385 f i libucrt:output.obj
 0001:0002938b       ?parse_digit@__crt_strtox@@YAID@Z 1002a38b f i libucrt:output.obj
 0001:000293c5       ?parse_digit@__crt_strtox@@YAI_W@Z 1002a3c5 f i libucrt:output.obj
 0001:0002958d       ?parse_int_from_format_string@?$output_processor@DV?$stream_output_adapter@D@__crt_stdio_output@@V?$format_validation_base@DV?$stream_output_adapter@D@__crt_stdio_output@@@2@@__crt_stdio_output@@AAE_NQAH@Z 1002a58d f i libucrt:output.obj
 0001:00029605       ?parse_int_from_format_string@?$output_processor@DV?$stream_output_adapter@D@__crt_stdio_output@@V?$positional_parameter_base@DV?$stream_output_adapter@D@__crt_stdio_output@@@2@@__crt_stdio_output@@AAE_NQAH@Z 1002a605 f i libucrt:output.obj
 0001:0002967d       ?parse_int_from_format_string@?$output_processor@DV?$stream_output_adapter@D@__crt_stdio_output@@V?$standard_base@DV?$stream_output_adapter@D@__crt_stdio_output@@@2@@__crt_stdio_output@@AAE_NQAH@Z 1002a67d f i libucrt:output.obj
 0001:000296f5       ?parse_int_from_format_string@?$output_processor@DV?$string_output_adapter@D@__crt_stdio_output@@V?$format_validation_base@DV?$string_output_adapter@D@__crt_stdio_output@@@2@@__crt_stdio_output@@AAE_NQAH@Z 1002a6f5 f i libucrt:output.obj
 0001:0002976d       ?parse_int_from_format_string@?$output_processor@DV?$string_output_adapter@D@__crt_stdio_output@@V?$positional_parameter_base@DV?$string_output_adapter@D@__crt_stdio_output@@@2@@__crt_stdio_output@@AAE_NQAH@Z 1002a76d f i libucrt:output.obj
 0001:000297e5       ?parse_int_from_format_string@?$output_processor@DV?$string_output_adapter@D@__crt_stdio_output@@V?$standard_base@DV?$string_output_adapter@D@__crt_stdio_output@@@2@@__crt_stdio_output@@AAE_NQAH@Z 1002a7e5 f i libucrt:output.obj
 0001:0002985d       ?parse_int_from_format_string@?$output_processor@_WV?$stream_output_adapter@_W@__crt_stdio_output@@V?$format_validation_base@_WV?$stream_output_adapter@_W@__crt_stdio_output@@@2@@__crt_stdio_output@@AAE_NQAH@Z 1002a85d f i libucrt:output.obj
 0001:000298d7       ?parse_int_from_format_string@?$output_processor@_WV?$stream_output_adapter@_W@__crt_stdio_output@@V?$positional_parameter_base@_WV?$stream_output_adapter@_W@__crt_stdio_output@@@2@@__crt_stdio_output@@AAE_NQAH@Z 1002a8d7 f i libucrt:output.obj
 0001:00029951       ?parse_int_from_format_string@?$output_processor@_WV?$stream_output_adapter@_W@__crt_stdio_output@@V?$standard_base@_WV?$stream_output_adapter@_W@__crt_stdio_output@@@2@@__crt_stdio_output@@AAE_NQAH@Z 1002a951 f i libucrt:output.obj
 0001:000299cb       ?parse_int_from_format_string@?$output_processor@_WV?$string_output_adapter@_W@__crt_stdio_output@@V?$format_validation_base@_WV?$string_output_adapter@_W@__crt_stdio_output@@@2@@__crt_stdio_output@@AAE_NQAH@Z 1002a9cb f i libucrt:output.obj
 0001:00029a45       ?parse_int_from_format_string@?$output_processor@_WV?$string_output_adapter@_W@__crt_stdio_output@@V?$positional_parameter_base@_WV?$string_output_adapter@_W@__crt_stdio_output@@@2@@__crt_stdio_output@@AAE_NQAH@Z 1002aa45 f i libucrt:output.obj
 0001:00029abf       ?parse_int_from_format_string@?$output_processor@_WV?$string_output_adapter@_W@__crt_stdio_output@@V?$standard_base@_WV?$string_output_adapter@_W@__crt_stdio_output@@@2@@__crt_stdio_output@@AAE_NQAH@Z 1002aabf f i libucrt:output.obj
 0001:00029b39       ?process@?$output_processor@DV?$stream_output_adapter@D@__crt_stdio_output@@V?$format_validation_base@DV?$stream_output_adapter@D@__crt_stdio_output@@@2@@__crt_stdio_output@@QAEHXZ 1002ab39 f i libucrt:output.obj
 0001:00029df9       ?process@?$output_processor@DV?$stream_output_adapter@D@__crt_stdio_output@@V?$positional_parameter_base@DV?$stream_output_adapter@D@__crt_stdio_output@@@2@@__crt_stdio_output@@QAEHXZ 1002adf9 f i libucrt:output.obj
 0001:0002a0cd       ?process@?$output_processor@DV?$stream_output_adapter@D@__crt_stdio_output@@V?$standard_base@DV?$stream_output_adapter@D@__crt_stdio_output@@@2@@__crt_stdio_output@@QAEHXZ 1002b0cd f i libucrt:output.obj
 0001:0002a37d       ?process@?$output_processor@DV?$string_output_adapter@D@__crt_stdio_output@@V?$format_validation_base@DV?$string_output_adapter@D@__crt_stdio_output@@@2@@__crt_stdio_output@@QAEHXZ 1002b37d f i libucrt:output.obj
 0001:0002a661       ?process@?$output_processor@DV?$string_output_adapter@D@__crt_stdio_output@@V?$positional_parameter_base@DV?$string_output_adapter@D@__crt_stdio_output@@@2@@__crt_stdio_output@@QAEHXZ 1002b661 f i libucrt:output.obj
 0001:0002a961       ?process@?$output_processor@DV?$string_output_adapter@D@__crt_stdio_output@@V?$standard_base@DV?$string_output_adapter@D@__crt_stdio_output@@@2@@__crt_stdio_output@@QAEHXZ 1002b961 f i libucrt:output.obj
 0001:0002ac35       ?process@?$output_processor@_WV?$stream_output_adapter@_W@__crt_stdio_output@@V?$format_validation_base@_WV?$stream_output_adapter@_W@__crt_stdio_output@@@2@@__crt_stdio_output@@QAEHXZ 1002bc35 f i libucrt:output.obj
 0001:0002ae51       ?process@?$output_processor@_WV?$stream_output_adapter@_W@__crt_stdio_output@@V?$positional_parameter_base@_WV?$stream_output_adapter@_W@__crt_stdio_output@@@2@@__crt_stdio_output@@QAEHXZ 1002be51 f i libucrt:output.obj
 0001:0002b0a5       ?process@?$output_processor@_WV?$stream_output_adapter@_W@__crt_stdio_output@@V?$standard_base@_WV?$stream_output_adapter@_W@__crt_stdio_output@@@2@@__crt_stdio_output@@QAEHXZ 1002c0a5 f i libucrt:output.obj
 0001:0002b2b5       ?process@?$output_processor@_WV?$string_output_adapter@_W@__crt_stdio_output@@V?$format_validation_base@_WV?$string_output_adapter@_W@__crt_stdio_output@@@2@@__crt_stdio_output@@QAEHXZ 1002c2b5 f i libucrt:output.obj
 0001:0002b4f5       ?process@?$output_processor@_WV?$string_output_adapter@_W@__crt_stdio_output@@V?$positional_parameter_base@_WV?$string_output_adapter@_W@__crt_stdio_output@@@2@@__crt_stdio_output@@QAEHXZ 1002c4f5 f i libucrt:output.obj
 0001:0002b75d       ?process@?$output_processor@_WV?$string_output_adapter@_W@__crt_stdio_output@@V?$standard_base@_WV?$string_output_adapter@_W@__crt_stdio_output@@@2@@__crt_stdio_output@@QAEHXZ 1002c75d f i libucrt:output.obj
 0001:0002b999       ?public_stream@__crt_stdio_stream@@QBEPAU_iobuf@@XZ 1002c999 f i libucrt:output.obj
 0001:0002b99c       ?restore_state@?$c_string_character_source@D@__crt_strtox@@QAE_NQBD@Z 1002c99c f i libucrt:output.obj
 0001:0002b9ac       ?restore_state@?$c_string_character_source@_W@__crt_strtox@@QAE_NQB_W@Z 1002c9ac f i libucrt:output.obj
 0001:0002b9bc       ?save_state@?$c_string_character_source@D@__crt_strtox@@QBEPBDXZ 1002c9bc f i libucrt:output.obj
 0001:0002b9bf       ?save_state@?$c_string_character_source@_W@__crt_strtox@@QBEPB_WXZ 1002c9bf f i libucrt:output.obj
 0001:0002b9c2       ?set_flag@?$output_processor@DV?$stream_output_adapter@D@__crt_stdio_output@@V?$format_validation_base@DV?$stream_output_adapter@D@__crt_stdio_output@@@2@@__crt_stdio_output@@AAEXI@Z 1002c9c2 f i libucrt:output.obj
 0001:0002b9d1       ?set_flag@?$output_processor@DV?$stream_output_adapter@D@__crt_stdio_output@@V?$positional_parameter_base@DV?$stream_output_adapter@D@__crt_stdio_output@@@2@@__crt_stdio_output@@AAEXI@Z 1002c9d1 f i libucrt:output.obj
 0001:0002b9e0       ?set_flag@?$output_processor@DV?$stream_output_adapter@D@__crt_stdio_output@@V?$standard_base@DV?$stream_output_adapter@D@__crt_stdio_output@@@2@@__crt_stdio_output@@AAEXI@Z 1002c9e0 f i libucrt:output.obj
 0001:0002b9ef       ?set_flag@?$output_processor@DV?$string_output_adapter@D@__crt_stdio_output@@V?$format_validation_base@DV?$string_output_adapter@D@__crt_stdio_output@@@2@@__crt_stdio_output@@AAEXI@Z 1002c9ef f i libucrt:output.obj
 0001:0002b9fe       ?set_flag@?$output_processor@DV?$string_output_adapter@D@__crt_stdio_output@@V?$positional_parameter_base@DV?$string_output_adapter@D@__crt_stdio_output@@@2@@__crt_stdio_output@@AAEXI@Z 1002c9fe f i libucrt:output.obj
 0001:0002ba0d       ?set_flag@?$output_processor@DV?$string_output_adapter@D@__crt_stdio_output@@V?$standard_base@DV?$string_output_adapter@D@__crt_stdio_output@@@2@@__crt_stdio_output@@AAEXI@Z 1002ca0d f i libucrt:output.obj
 0001:0002ba1c       ?set_flag@?$output_processor@_WV?$stream_output_adapter@_W@__crt_stdio_output@@V?$format_validation_base@_WV?$stream_output_adapter@_W@__crt_stdio_output@@@2@@__crt_stdio_output@@AAEXI@Z 1002ca1c f i libucrt:output.obj
 0001:0002ba2b       ?set_flag@?$output_processor@_WV?$stream_output_adapter@_W@__crt_stdio_output@@V?$positional_parameter_base@_WV?$stream_output_adapter@_W@__crt_stdio_output@@@2@@__crt_stdio_output@@AAEXI@Z 1002ca2b f i libucrt:output.obj
 0001:0002ba3a       ?set_flag@?$output_processor@_WV?$stream_output_adapter@_W@__crt_stdio_output@@V?$standard_base@_WV?$stream_output_adapter@_W@__crt_stdio_output@@@2@@__crt_stdio_output@@AAEXI@Z 1002ca3a f i libucrt:output.obj
 0001:0002ba49       ?set_flag@?$output_processor@_WV?$string_output_adapter@_W@__crt_stdio_output@@V?$format_validation_base@_WV?$string_output_adapter@_W@__crt_stdio_output@@@2@@__crt_stdio_output@@AAEXI@Z 1002ca49 f i libucrt:output.obj
 0001:0002ba58       ?set_flag@?$output_processor@_WV?$string_output_adapter@_W@__crt_stdio_output@@V?$positional_parameter_base@_WV?$string_output_adapter@_W@__crt_stdio_output@@@2@@__crt_stdio_output@@AAEXI@Z 1002ca58 f i libucrt:output.obj
 0001:0002ba67       ?set_flag@?$output_processor@_WV?$string_output_adapter@_W@__crt_stdio_output@@V?$standard_base@_WV?$string_output_adapter@_W@__crt_stdio_output@@@2@@__crt_stdio_output@@AAEXI@Z 1002ca67 f i libucrt:output.obj
 0001:0002ba76       ?should_format@?$positional_parameter_base@DV?$stream_output_adapter@D@__crt_stdio_output@@@__crt_stdio_output@@IAE_NXZ 1002ca76 f i libucrt:output.obj
 0001:0002ba8c       ?should_format@?$positional_parameter_base@DV?$string_output_adapter@D@__crt_stdio_output@@@__crt_stdio_output@@IAE_NXZ 1002ca8c f i libucrt:output.obj
 0001:0002baa2       ?should_format@?$positional_parameter_base@_WV?$stream_output_adapter@_W@__crt_stdio_output@@@__crt_stdio_output@@IAE_NXZ 1002caa2 f i libucrt:output.obj
 0001:0002bab8       ?should_format@?$positional_parameter_base@_WV?$string_output_adapter@_W@__crt_stdio_output@@@__crt_stdio_output@@IAE_NXZ 1002cab8 f i libucrt:output.obj
 0001:0002bace       ?should_format@?$standard_base@DV?$stream_output_adapter@D@__crt_stdio_output@@@__crt_stdio_output@@IAE_NXZ 1002cace f i libucrt:output.obj
 0001:0002bad1       ?should_format@?$standard_base@DV?$string_output_adapter@D@__crt_stdio_output@@@__crt_stdio_output@@IAE_NXZ 1002cad1 f i libucrt:output.obj
 0001:0002bad4       ?should_format@?$standard_base@_WV?$stream_output_adapter@_W@__crt_stdio_output@@@__crt_stdio_output@@IAE_NXZ 1002cad4 f i libucrt:output.obj
 0001:0002bad7       ?should_format@?$standard_base@_WV?$string_output_adapter@_W@__crt_stdio_output@@@__crt_stdio_output@@IAE_NXZ 1002cad7 f i libucrt:output.obj
 0001:0002bada       ?should_skip_normal_state_processing@?$positional_parameter_base@DV?$stream_output_adapter@D@__crt_stdio_output@@@__crt_stdio_output@@IAE_NXZ 1002cada f i libucrt:output.obj
 0001:0002bb04       ?should_skip_normal_state_processing@?$positional_parameter_base@DV?$string_output_adapter@D@__crt_stdio_output@@@__crt_stdio_output@@IAE_NXZ 1002cb04 f i libucrt:output.obj
 0001:0002bb2e       ?should_skip_normal_state_processing@?$positional_parameter_base@_WV?$stream_output_adapter@_W@__crt_stdio_output@@@__crt_stdio_output@@IAE_NXZ 1002cb2e f i libucrt:output.obj
 0001:0002bb58       ?should_skip_normal_state_processing@?$positional_parameter_base@_WV?$string_output_adapter@_W@__crt_stdio_output@@@__crt_stdio_output@@IAE_NXZ 1002cb58 f i libucrt:output.obj
 0001:0002bb82       ?should_skip_normal_state_processing@?$standard_base@DV?$stream_output_adapter@D@__crt_stdio_output@@@__crt_stdio_output@@IAE_NXZ 1002cb82 f i libucrt:output.obj
 0001:0002bb85       ?should_skip_normal_state_processing@?$standard_base@DV?$string_output_adapter@D@__crt_stdio_output@@@__crt_stdio_output@@IAE_NXZ 1002cb85 f i libucrt:output.obj
 0001:0002bb88       ?should_skip_normal_state_processing@?$standard_base@_WV?$stream_output_adapter@_W@__crt_stdio_output@@@__crt_stdio_output@@IAE_NXZ 1002cb88 f i libucrt:output.obj
 0001:0002bb8b       ?should_skip_normal_state_processing@?$standard_base@_WV?$string_output_adapter@_W@__crt_stdio_output@@@__crt_stdio_output@@IAE_NXZ 1002cb8b f i libucrt:output.obj
 0001:0002bb8e       ?should_skip_type_state_output@?$positional_parameter_base@DV?$stream_output_adapter@D@__crt_stdio_output@@@__crt_stdio_output@@IBE_NXZ 1002cb8e f i libucrt:output.obj
 0001:0002bba5       ?should_skip_type_state_output@?$positional_parameter_base@DV?$string_output_adapter@D@__crt_stdio_output@@@__crt_stdio_output@@IBE_NXZ 1002cba5 f i libucrt:output.obj
 0001:0002bbbc       ?should_skip_type_state_output@?$positional_parameter_base@_WV?$stream_output_adapter@_W@__crt_stdio_output@@@__crt_stdio_output@@IBE_NXZ 1002cbbc f i libucrt:output.obj
 0001:0002bbd3       ?should_skip_type_state_output@?$positional_parameter_base@_WV?$string_output_adapter@_W@__crt_stdio_output@@@__crt_stdio_output@@IBE_NXZ 1002cbd3 f i libucrt:output.obj
 0001:0002bbea       ?should_skip_type_state_output@?$standard_base@DV?$stream_output_adapter@D@__crt_stdio_output@@@__crt_stdio_output@@IBE_NXZ 1002cbea f i libucrt:output.obj
 0001:0002bbed       ?should_skip_type_state_output@?$standard_base@DV?$string_output_adapter@D@__crt_stdio_output@@@__crt_stdio_output@@IBE_NXZ 1002cbed f i libucrt:output.obj
 0001:0002bbf0       ?should_skip_type_state_output@?$standard_base@_WV?$stream_output_adapter@_W@__crt_stdio_output@@@__crt_stdio_output@@IBE_NXZ 1002cbf0 f i libucrt:output.obj
 0001:0002bbf3       ?should_skip_type_state_output@?$standard_base@_WV?$string_output_adapter@_W@__crt_stdio_output@@@__crt_stdio_output@@IBE_NXZ 1002cbf3 f i libucrt:output.obj
 0001:0002bbf6       ?state_case_dot@?$output_processor@DV?$stream_output_adapter@D@__crt_stdio_output@@V?$format_validation_base@DV?$stream_output_adapter@D@__crt_stdio_output@@@2@@__crt_stdio_output@@AAE_NXZ 1002cbf6 f i libucrt:output.obj
 0001:0002bbfd       ?state_case_dot@?$output_processor@DV?$stream_output_adapter@D@__crt_stdio_output@@V?$positional_parameter_base@DV?$stream_output_adapter@D@__crt_stdio_output@@@2@@__crt_stdio_output@@AAE_NXZ 1002cbfd f i libucrt:output.obj
 0001:0002bc04       ?state_case_dot@?$output_processor@DV?$stream_output_adapter@D@__crt_stdio_output@@V?$standard_base@DV?$stream_output_adapter@D@__crt_stdio_output@@@2@@__crt_stdio_output@@AAE_NXZ 1002cc04 f i libucrt:output.obj
 0001:0002bc0b       ?state_case_dot@?$output_processor@DV?$string_output_adapter@D@__crt_stdio_output@@V?$format_validation_base@DV?$string_output_adapter@D@__crt_stdio_output@@@2@@__crt_stdio_output@@AAE_NXZ 1002cc0b f i libucrt:output.obj
 0001:0002bc12       ?state_case_dot@?$output_processor@DV?$string_output_adapter@D@__crt_stdio_output@@V?$positional_parameter_base@DV?$string_output_adapter@D@__crt_stdio_output@@@2@@__crt_stdio_output@@AAE_NXZ 1002cc12 f i libucrt:output.obj
 0001:0002bc19       ?state_case_dot@?$output_processor@DV?$string_output_adapter@D@__crt_stdio_output@@V?$standard_base@DV?$string_output_adapter@D@__crt_stdio_output@@@2@@__crt_stdio_output@@AAE_NXZ 1002cc19 f i libucrt:output.obj
 0001:0002bc20       ?state_case_dot@?$output_processor@_WV?$stream_output_adapter@_W@__crt_stdio_output@@V?$format_validation_base@_WV?$stream_output_adapter@_W@__crt_stdio_output@@@2@@__crt_stdio_output@@AAE_NXZ 1002cc20 f i libucrt:output.obj
 0001:0002bc27       ?state_case_dot@?$output_processor@_WV?$stream_output_adapter@_W@__crt_stdio_output@@V?$positional_parameter_base@_WV?$stream_output_adapter@_W@__crt_stdio_output@@@2@@__crt_stdio_output@@AAE_NXZ 1002cc27 f i libucrt:output.obj
 0001:0002bc2e       ?state_case_dot@?$output_processor@_WV?$stream_output_adapter@_W@__crt_stdio_output@@V?$standard_base@_WV?$stream_output_adapter@_W@__crt_stdio_output@@@2@@__crt_stdio_output@@AAE_NXZ 1002cc2e f i libucrt:output.obj
 0001:0002bc35       ?state_case_dot@?$output_processor@_WV?$string_output_adapter@_W@__crt_stdio_output@@V?$format_validation_base@_WV?$string_output_adapter@_W@__crt_stdio_output@@@2@@__crt_stdio_output@@AAE_NXZ 1002cc35 f i libucrt:output.obj
 0001:0002bc3c       ?state_case_dot@?$output_processor@_WV?$string_output_adapter@_W@__crt_stdio_output@@V?$positional_parameter_base@_WV?$string_output_adapter@_W@__crt_stdio_output@@@2@@__crt_stdio_output@@AAE_NXZ 1002cc3c f i libucrt:output.obj
 0001:0002bc43       ?state_case_dot@?$output_processor@_WV?$string_output_adapter@_W@__crt_stdio_output@@V?$standard_base@_WV?$string_output_adapter@_W@__crt_stdio_output@@@2@@__crt_stdio_output@@AAE_NXZ 1002cc43 f i libucrt:output.obj
 0001:0002bc4a       ?state_case_flag@?$output_processor@DV?$stream_output_adapter@D@__crt_stdio_output@@V?$format_validation_base@DV?$stream_output_adapter@D@__crt_stdio_output@@@2@@__crt_stdio_output@@AAE_NXZ 1002cc4a f i libucrt:output.obj
 0001:0002bc87       ?state_case_flag@?$output_processor@DV?$stream_output_adapter@D@__crt_stdio_output@@V?$positional_parameter_base@DV?$stream_output_adapter@D@__crt_stdio_output@@@2@@__crt_stdio_output@@AAE_NXZ 1002cc87 f i libucrt:output.obj
 0001:0002bcc4       ?state_case_flag@?$output_processor@DV?$stream_output_adapter@D@__crt_stdio_output@@V?$standard_base@DV?$stream_output_adapter@D@__crt_stdio_output@@@2@@__crt_stdio_output@@AAE_NXZ 1002ccc4 f i libucrt:output.obj
 0001:0002bd01       ?state_case_flag@?$output_processor@DV?$string_output_adapter@D@__crt_stdio_output@@V?$format_validation_base@DV?$string_output_adapter@D@__crt_stdio_output@@@2@@__crt_stdio_output@@AAE_NXZ 1002cd01 f i libucrt:output.obj
 0001:0002bd3e       ?state_case_flag@?$output_processor@DV?$string_output_adapter@D@__crt_stdio_output@@V?$positional_parameter_base@DV?$string_output_adapter@D@__crt_stdio_output@@@2@@__crt_stdio_output@@AAE_NXZ 1002cd3e f i libucrt:output.obj
 0001:0002bd7b       ?state_case_flag@?$output_processor@DV?$string_output_adapter@D@__crt_stdio_output@@V?$standard_base@DV?$string_output_adapter@D@__crt_stdio_output@@@2@@__crt_stdio_output@@AAE_NXZ 1002cd7b f i libucrt:output.obj
 0001:0002bdb8       ?state_case_flag@?$output_processor@_WV?$stream_output_adapter@_W@__crt_stdio_output@@V?$format_validation_base@_WV?$stream_output_adapter@_W@__crt_stdio_output@@@2@@__crt_stdio_output@@AAE_NXZ 1002cdb8 f i libucrt:output.obj
 0001:0002bdf5       ?state_case_flag@?$output_processor@_WV?$stream_output_adapter@_W@__crt_stdio_output@@V?$positional_parameter_base@_WV?$stream_output_adapter@_W@__crt_stdio_output@@@2@@__crt_stdio_output@@AAE_NXZ 1002cdf5 f i libucrt:output.obj
 0001:0002be32       ?state_case_flag@?$output_processor@_WV?$stream_output_adapter@_W@__crt_stdio_output@@V?$standard_base@_WV?$stream_output_adapter@_W@__crt_stdio_output@@@2@@__crt_stdio_output@@AAE_NXZ 1002ce32 f i libucrt:output.obj
 0001:0002be6f       ?state_case_flag@?$output_processor@_WV?$string_output_adapter@_W@__crt_stdio_output@@V?$format_validation_base@_WV?$string_output_adapter@_W@__crt_stdio_output@@@2@@__crt_stdio_output@@AAE_NXZ 1002ce6f f i libucrt:output.obj
 0001:0002beac       ?state_case_flag@?$output_processor@_WV?$string_output_adapter@_W@__crt_stdio_output@@V?$positional_parameter_base@_WV?$string_output_adapter@_W@__crt_stdio_output@@@2@@__crt_stdio_output@@AAE_NXZ 1002ceac f i libucrt:output.obj
 0001:0002bee9       ?state_case_flag@?$output_processor@_WV?$string_output_adapter@_W@__crt_stdio_output@@V?$standard_base@_WV?$string_output_adapter@_W@__crt_stdio_output@@@2@@__crt_stdio_output@@AAE_NXZ 1002cee9 f i libucrt:output.obj
 0001:0002bf26       ?state_case_normal@?$output_processor@DV?$stream_output_adapter@D@__crt_stdio_output@@V?$format_validation_base@DV?$stream_output_adapter@D@__crt_stdio_output@@@2@@__crt_stdio_output@@AAE_NXZ 1002cf26 f i libucrt:output.obj
 0001:0002bfe3       ?state_case_normal@?$output_processor@DV?$stream_output_adapter@D@__crt_stdio_output@@V?$positional_parameter_base@DV?$stream_output_adapter@D@__crt_stdio_output@@@2@@__crt_stdio_output@@AAE_NXZ 1002cfe3 f i libucrt:output.obj
 0001:0002c0ab       ?state_case_normal@?$output_processor@DV?$stream_output_adapter@D@__crt_stdio_output@@V?$standard_base@DV?$stream_output_adapter@D@__crt_stdio_output@@@2@@__crt_stdio_output@@AAE_NXZ 1002d0ab f i libucrt:output.obj
 0001:0002c168       ?state_case_normal@?$output_processor@DV?$string_output_adapter@D@__crt_stdio_output@@V?$format_validation_base@DV?$string_output_adapter@D@__crt_stdio_output@@@2@@__crt_stdio_output@@AAE_NXZ 1002d168 f i libucrt:output.obj
 0001:0002c264       ?state_case_normal@?$output_processor@DV?$string_output_adapter@D@__crt_stdio_output@@V?$positional_parameter_base@DV?$string_output_adapter@D@__crt_stdio_output@@@2@@__crt_stdio_output@@AAE_NXZ 1002d264 f i libucrt:output.obj
 0001:0002c36b       ?state_case_normal@?$output_processor@DV?$string_output_adapter@D@__crt_stdio_output@@V?$standard_base@DV?$string_output_adapter@D@__crt_stdio_output@@@2@@__crt_stdio_output@@AAE_NXZ 1002d36b f i libucrt:output.obj
 0001:0002c467       ?state_case_normal@?$output_processor@_WV?$stream_output_adapter@_W@__crt_stdio_output@@V?$format_validation_base@_WV?$stream_output_adapter@_W@__crt_stdio_output@@@2@@__crt_stdio_output@@AAE_NXZ 1002d467 f i libucrt:output.obj
 0001:0002c485       ?state_case_normal@?$output_processor@_WV?$stream_output_adapter@_W@__crt_stdio_output@@V?$positional_parameter_base@_WV?$stream_output_adapter@_W@__crt_stdio_output@@@2@@__crt_stdio_output@@AAE_NXZ 1002d485 f i libucrt:output.obj
 0001:0002c4b2       ?state_case_normal@?$output_processor@_WV?$stream_output_adapter@_W@__crt_stdio_output@@V?$standard_base@_WV?$stream_output_adapter@_W@__crt_stdio_output@@@2@@__crt_stdio_output@@AAE_NXZ 1002d4b2 f i libucrt:output.obj
 0001:0002c4d0       ?state_case_normal@?$output_processor@_WV?$string_output_adapter@_W@__crt_stdio_output@@V?$format_validation_base@_WV?$string_output_adapter@_W@__crt_stdio_output@@@2@@__crt_stdio_output@@AAE_NXZ 1002d4d0 f i libucrt:output.obj
 0001:0002c518       ?state_case_normal@?$output_processor@_WV?$string_output_adapter@_W@__crt_stdio_output@@V?$positional_parameter_base@_WV?$string_output_adapter@_W@__crt_stdio_output@@@2@@__crt_stdio_output@@AAE_NXZ 1002d518 f i libucrt:output.obj
 0001:0002c56b       ?state_case_normal@?$output_processor@_WV?$string_output_adapter@_W@__crt_stdio_output@@V?$standard_base@_WV?$string_output_adapter@_W@__crt_stdio_output@@@2@@__crt_stdio_output@@AAE_NXZ 1002d56b f i libucrt:output.obj
 0001:0002c5b3       ?state_case_normal_common@?$output_processor@DV?$stream_output_adapter@D@__crt_stdio_output@@V?$format_validation_base@DV?$stream_output_adapter@D@__crt_stdio_output@@@2@@__crt_stdio_output@@AAE_NXZ 1002d5b3 f i libucrt:output.obj
 0001:0002c64b       ?state_case_normal_common@?$output_processor@DV?$stream_output_adapter@D@__crt_stdio_output@@V?$positional_parameter_base@DV?$stream_output_adapter@D@__crt_stdio_output@@@2@@__crt_stdio_output@@AAE_NXZ 1002d64b f i libucrt:output.obj
 0001:0002c6e3       ?state_case_normal_common@?$output_processor@DV?$stream_output_adapter@D@__crt_stdio_output@@V?$standard_base@DV?$stream_output_adapter@D@__crt_stdio_output@@@2@@__crt_stdio_output@@AAE_NXZ 1002d6e3 f i libucrt:output.obj
 0001:0002c77b       ?state_case_normal_common@?$output_processor@DV?$string_output_adapter@D@__crt_stdio_output@@V?$format_validation_base@DV?$string_output_adapter@D@__crt_stdio_output@@@2@@__crt_stdio_output@@AAE_NXZ 1002d77b f i libucrt:output.obj
 0001:0002c85b       ?state_case_normal_common@?$output_processor@DV?$string_output_adapter@D@__crt_stdio_output@@V?$positional_parameter_base@DV?$string_output_adapter@D@__crt_stdio_output@@@2@@__crt_stdio_output@@AAE_NXZ 1002d85b f i libucrt:output.obj
 0001:0002c93b       ?state_case_normal_common@?$output_processor@DV?$string_output_adapter@D@__crt_stdio_output@@V?$standard_base@DV?$string_output_adapter@D@__crt_stdio_output@@@2@@__crt_stdio_output@@AAE_NXZ 1002d93b f i libucrt:output.obj
 0001:0002ca1b       ?state_case_normal_common@?$output_processor@_WV?$stream_output_adapter@_W@__crt_stdio_output@@V?$format_validation_base@_WV?$stream_output_adapter@_W@__crt_stdio_output@@@2@@__crt_stdio_output@@AAE_NXZ 1002da1b f i libucrt:output.obj
 0001:0002ca39       ?state_case_normal_common@?$output_processor@_WV?$stream_output_adapter@_W@__crt_stdio_output@@V?$positional_parameter_base@_WV?$stream_output_adapter@_W@__crt_stdio_output@@@2@@__crt_stdio_output@@AAE_NXZ 1002da39 f i libucrt:output.obj
 0001:0002ca57       ?state_case_normal_common@?$output_processor@_WV?$stream_output_adapter@_W@__crt_stdio_output@@V?$standard_base@_WV?$stream_output_adapter@_W@__crt_stdio_output@@@2@@__crt_stdio_output@@AAE_NXZ 1002da57 f i libucrt:output.obj
 0001:0002ca75       ?state_case_normal_common@?$output_processor@_WV?$string_output_adapter@_W@__crt_stdio_output@@V?$format_validation_base@_WV?$string_output_adapter@_W@__crt_stdio_output@@@2@@__crt_stdio_output@@AAE_NXZ 1002da75 f i libucrt:output.obj
 0001:0002cabd       ?state_case_normal_common@?$output_processor@_WV?$string_output_adapter@_W@__crt_stdio_output@@V?$positional_parameter_base@_WV?$string_output_adapter@_W@__crt_stdio_output@@@2@@__crt_stdio_output@@AAE_NXZ 1002dabd f i libucrt:output.obj
 0001:0002cb05       ?state_case_normal_common@?$output_processor@_WV?$string_output_adapter@_W@__crt_stdio_output@@V?$standard_base@_WV?$string_output_adapter@_W@__crt_stdio_output@@@2@@__crt_stdio_output@@AAE_NXZ 1002db05 f i libucrt:output.obj
 0001:0002cb4d       ?state_case_normal_tchar@?$output_processor@DV?$stream_output_adapter@D@__crt_stdio_output@@V?$format_validation_base@DV?$stream_output_adapter@D@__crt_stdio_output@@@2@@__crt_stdio_output@@AAE_ND@Z 1002db4d f i libucrt:output.obj
 0001:0002cbd4       ?state_case_normal_tchar@?$output_processor@DV?$stream_output_adapter@D@__crt_stdio_output@@V?$positional_parameter_base@DV?$stream_output_adapter@D@__crt_stdio_output@@@2@@__crt_stdio_output@@AAE_ND@Z 1002dbd4 f i libucrt:output.obj
 0001:0002cc5b       ?state_case_normal_tchar@?$output_processor@DV?$stream_output_adapter@D@__crt_stdio_output@@V?$standard_base@DV?$stream_output_adapter@D@__crt_stdio_output@@@2@@__crt_stdio_output@@AAE_ND@Z 1002dc5b f i libucrt:output.obj
 0001:0002cce2       ?state_case_normal_tchar@?$output_processor@DV?$string_output_adapter@D@__crt_stdio_output@@V?$format_validation_base@DV?$string_output_adapter@D@__crt_stdio_output@@@2@@__crt_stdio_output@@AAE_ND@Z 1002dce2 f i libucrt:output.obj
 0001:0002cd8d       ?state_case_normal_tchar@?$output_processor@DV?$string_output_adapter@D@__crt_stdio_output@@V?$positional_parameter_base@DV?$string_output_adapter@D@__crt_stdio_output@@@2@@__crt_stdio_output@@AAE_ND@Z 1002dd8d f i libucrt:output.obj
 0001:0002ce38       ?state_case_normal_tchar@?$output_processor@DV?$string_output_adapter@D@__crt_stdio_output@@V?$standard_base@DV?$string_output_adapter@D@__crt_stdio_output@@@2@@__crt_stdio_output@@AAE_ND@Z 1002de38 f i libucrt:output.obj
 0001:0002cee3       ?state_case_normal_tchar@?$output_processor@_WV?$stream_output_adapter@_W@__crt_stdio_output@@V?$format_validation_base@_WV?$stream_output_adapter@_W@__crt_stdio_output@@@2@@__crt_stdio_output@@AAE_N_W@Z 1002dee3 f i libucrt:output.obj
 0001:0002ceec       ?state_case_normal_tchar@?$output_processor@_WV?$stream_output_adapter@_W@__crt_stdio_output@@V?$positional_parameter_base@_WV?$stream_output_adapter@_W@__crt_stdio_output@@@2@@__crt_stdio_output@@AAE_N_W@Z 1002deec f i libucrt:output.obj
 0001:0002cef5       ?state_case_normal_tchar@?$output_processor@_WV?$stream_output_adapter@_W@__crt_stdio_output@@V?$standard_base@_WV?$stream_output_adapter@_W@__crt_stdio_output@@@2@@__crt_stdio_output@@AAE_N_W@Z 1002def5 f i libucrt:output.obj
 0001:0002cefe       ?state_case_normal_tchar@?$output_processor@_WV?$string_output_adapter@_W@__crt_stdio_output@@V?$format_validation_base@_WV?$string_output_adapter@_W@__crt_stdio_output@@@2@@__crt_stdio_output@@AAE_N_W@Z 1002defe f i libucrt:output.obj
 0001:0002cf07       ?state_case_normal_tchar@?$output_processor@_WV?$string_output_adapter@_W@__crt_stdio_output@@V?$positional_parameter_base@_WV?$string_output_adapter@_W@__crt_stdio_output@@@2@@__crt_stdio_output@@AAE_N_W@Z 1002df07 f i libucrt:output.obj
 0001:0002cf10       ?state_case_normal_tchar@?$output_processor@_WV?$string_output_adapter@_W@__crt_stdio_output@@V?$standard_base@_WV?$string_output_adapter@_W@__crt_stdio_output@@@2@@__crt_stdio_output@@AAE_N_W@Z 1002df10 f i libucrt:output.obj
 0001:0002cf19       ?state_case_percent@?$output_processor@DV?$stream_output_adapter@D@__crt_stdio_output@@V?$format_validation_base@DV?$stream_output_adapter@D@__crt_stdio_output@@@2@@__crt_stdio_output@@AAE_NXZ 1002df19 f i libucrt:output.obj
 0001:0002cf31       ?state_case_percent@?$output_processor@DV?$stream_output_adapter@D@__crt_stdio_output@@V?$positional_parameter_base@DV?$stream_output_adapter@D@__crt_stdio_output@@@2@@__crt_stdio_output@@AAE_NXZ 1002df31 f i libucrt:output.obj
 0001:0002cf49       ?state_case_percent@?$output_processor@DV?$stream_output_adapter@D@__crt_stdio_output@@V?$standard_base@DV?$stream_output_adapter@D@__crt_stdio_output@@@2@@__crt_stdio_output@@AAE_NXZ 1002df49 f i libucrt:output.obj
 0001:0002cf61       ?state_case_percent@?$output_processor@DV?$string_output_adapter@D@__crt_stdio_output@@V?$format_validation_base@DV?$string_output_adapter@D@__crt_stdio_output@@@2@@__crt_stdio_output@@AAE_NXZ 1002df61 f i libucrt:output.obj
 0001:0002cf79       ?state_case_percent@?$output_processor@DV?$string_output_adapter@D@__crt_stdio_output@@V?$positional_parameter_base@DV?$string_output_adapter@D@__crt_stdio_output@@@2@@__crt_stdio_output@@AAE_NXZ 1002df79 f i libucrt:output.obj
 0001:0002cf91       ?state_case_percent@?$output_processor@DV?$string_output_adapter@D@__crt_stdio_output@@V?$standard_base@DV?$string_output_adapter@D@__crt_stdio_output@@@2@@__crt_stdio_output@@AAE_NXZ 1002df91 f i libucrt:output.obj
 0001:0002cfa9       ?state_case_percent@?$output_processor@_WV?$stream_output_adapter@_W@__crt_stdio_output@@V?$format_validation_base@_WV?$stream_output_adapter@_W@__crt_stdio_output@@@2@@__crt_stdio_output@@AAE_NXZ 1002dfa9 f i libucrt:output.obj
 0001:0002cfc1       ?state_case_percent@?$output_processor@_WV?$stream_output_adapter@_W@__crt_stdio_output@@V?$positional_parameter_base@_WV?$stream_output_adapter@_W@__crt_stdio_output@@@2@@__crt_stdio_output@@AAE_NXZ 1002dfc1 f i libucrt:output.obj
 0001:0002cfd9       ?state_case_percent@?$output_processor@_WV?$stream_output_adapter@_W@__crt_stdio_output@@V?$standard_base@_WV?$stream_output_adapter@_W@__crt_stdio_output@@@2@@__crt_stdio_output@@AAE_NXZ 1002dfd9 f i libucrt:output.obj
 0001:0002cff1       ?state_case_percent@?$output_processor@_WV?$string_output_adapter@_W@__crt_stdio_output@@V?$format_validation_base@_WV?$string_output_adapter@_W@__crt_stdio_output@@@2@@__crt_stdio_output@@AAE_NXZ 1002dff1 f i libucrt:output.obj
 0001:0002d009       ?state_case_percent@?$output_processor@_WV?$string_output_adapter@_W@__crt_stdio_output@@V?$positional_parameter_base@_WV?$string_output_adapter@_W@__crt_stdio_output@@@2@@__crt_stdio_output@@AAE_NXZ 1002e009 f i libucrt:output.obj
 0001:0002d021       ?state_case_percent@?$output_processor@_WV?$string_output_adapter@_W@__crt_stdio_output@@V?$standard_base@_WV?$string_output_adapter@_W@__crt_stdio_output@@@2@@__crt_stdio_output@@AAE_NXZ 1002e021 f i libucrt:output.obj
 0001:0002d039       ?state_case_precision@?$output_processor@DV?$stream_output_adapter@D@__crt_stdio_output@@V?$format_validation_base@DV?$stream_output_adapter@D@__crt_stdio_output@@@2@@__crt_stdio_output@@AAE_NXZ 1002e039 f i libucrt:output.obj
 0001:0002d065       ?state_case_precision@?$output_processor@DV?$stream_output_adapter@D@__crt_stdio_output@@V?$positional_parameter_base@DV?$stream_output_adapter@D@__crt_stdio_output@@@2@@__crt_stdio_output@@AAE_NXZ 1002e065 f i libucrt:output.obj
 0001:0002d09f       ?state_case_precision@?$output_processor@DV?$stream_output_adapter@D@__crt_stdio_output@@V?$standard_base@DV?$stream_output_adapter@D@__crt_stdio_output@@@2@@__crt_stdio_output@@AAE_NXZ 1002e09f f i libucrt:output.obj
 0001:0002d0cb       ?state_case_precision@?$output_processor@DV?$string_output_adapter@D@__crt_stdio_output@@V?$format_validation_base@DV?$string_output_adapter@D@__crt_stdio_output@@@2@@__crt_stdio_output@@AAE_NXZ 1002e0cb f i libucrt:output.obj
 0001:0002d0f7       ?state_case_precision@?$output_processor@DV?$string_output_adapter@D@__crt_stdio_output@@V?$positional_parameter_base@DV?$string_output_adapter@D@__crt_stdio_output@@@2@@__crt_stdio_output@@AAE_NXZ 1002e0f7 f i libucrt:output.obj
 0001:0002d131       ?state_case_precision@?$output_processor@DV?$string_output_adapter@D@__crt_stdio_output@@V?$standard_base@DV?$string_output_adapter@D@__crt_stdio_output@@@2@@__crt_stdio_output@@AAE_NXZ 1002e131 f i libucrt:output.obj
 0001:0002d15d       ?state_case_precision@?$output_processor@_WV?$stream_output_adapter@_W@__crt_stdio_output@@V?$format_validation_base@_WV?$stream_output_adapter@_W@__crt_stdio_output@@@2@@__crt_stdio_output@@AAE_NXZ 1002e15d f i libucrt:output.obj
 0001:0002d18a       ?state_case_precision@?$output_processor@_WV?$stream_output_adapter@_W@__crt_stdio_output@@V?$positional_parameter_base@_WV?$stream_output_adapter@_W@__crt_stdio_output@@@2@@__crt_stdio_output@@AAE_NXZ 1002e18a f i libucrt:output.obj
 0001:0002d1c5       ?state_case_precision@?$output_processor@_WV?$stream_output_adapter@_W@__crt_stdio_output@@V?$standard_base@_WV?$stream_output_adapter@_W@__crt_stdio_output@@@2@@__crt_stdio_output@@AAE_NXZ 1002e1c5 f i libucrt:output.obj
 0001:0002d1f2       ?state_case_precision@?$output_processor@_WV?$string_output_adapter@_W@__crt_stdio_output@@V?$format_validation_base@_WV?$string_output_adapter@_W@__crt_stdio_output@@@2@@__crt_stdio_output@@AAE_NXZ 1002e1f2 f i libucrt:output.obj
 0001:0002d21f       ?state_case_precision@?$output_processor@_WV?$string_output_adapter@_W@__crt_stdio_output@@V?$positional_parameter_base@_WV?$string_output_adapter@_W@__crt_stdio_output@@@2@@__crt_stdio_output@@AAE_NXZ 1002e21f f i libucrt:output.obj
 0001:0002d25a       ?state_case_precision@?$output_processor@_WV?$string_output_adapter@_W@__crt_stdio_output@@V?$standard_base@_WV?$string_output_adapter@_W@__crt_stdio_output@@@2@@__crt_stdio_output@@AAE_NXZ 1002e25a f i libucrt:output.obj
 0001:0002d287       ?state_case_size@?$output_processor@DV?$stream_output_adapter@D@__crt_stdio_output@@V?$format_validation_base@DV?$stream_output_adapter@D@__crt_stdio_output@@@2@@__crt_stdio_output@@AAE_NXZ 1002e287 f i libucrt:output.obj
 0001:0002d3e0       ?state_case_size@?$output_processor@DV?$stream_output_adapter@D@__crt_stdio_output@@V?$positional_parameter_base@DV?$stream_output_adapter@D@__crt_stdio_output@@@2@@__crt_stdio_output@@AAE_NXZ 1002e3e0 f i libucrt:output.obj
 0001:0002d539       ?state_case_size@?$output_processor@DV?$stream_output_adapter@D@__crt_stdio_output@@V?$standard_base@DV?$stream_output_adapter@D@__crt_stdio_output@@@2@@__crt_stdio_output@@AAE_NXZ 1002e539 f i libucrt:output.obj
 0001:0002d692       ?state_case_size@?$output_processor@DV?$string_output_adapter@D@__crt_stdio_output@@V?$format_validation_base@DV?$string_output_adapter@D@__crt_stdio_output@@@2@@__crt_stdio_output@@AAE_NXZ 1002e692 f i libucrt:output.obj
 0001:0002d7eb       ?state_case_size@?$output_processor@DV?$string_output_adapter@D@__crt_stdio_output@@V?$positional_parameter_base@DV?$string_output_adapter@D@__crt_stdio_output@@@2@@__crt_stdio_output@@AAE_NXZ 1002e7eb f i libucrt:output.obj
 0001:0002d944       ?state_case_size@?$output_processor@DV?$string_output_adapter@D@__crt_stdio_output@@V?$standard_base@DV?$string_output_adapter@D@__crt_stdio_output@@@2@@__crt_stdio_output@@AAE_NXZ 1002e944 f i libucrt:output.obj
 0001:0002da9d       ?state_case_size@?$output_processor@_WV?$stream_output_adapter@_W@__crt_stdio_output@@V?$format_validation_base@_WV?$stream_output_adapter@_W@__crt_stdio_output@@@2@@__crt_stdio_output@@AAE_NXZ 1002ea9d f i libucrt:output.obj
 0001:0002dc27       ?state_case_size@?$output_processor@_WV?$stream_output_adapter@_W@__crt_stdio_output@@V?$positional_parameter_base@_WV?$stream_output_adapter@_W@__crt_stdio_output@@@2@@__crt_stdio_output@@AAE_NXZ 1002ec27 f i libucrt:output.obj
 0001:0002ddb1       ?state_case_size@?$output_processor@_WV?$stream_output_adapter@_W@__crt_stdio_output@@V?$standard_base@_WV?$stream_output_adapter@_W@__crt_stdio_output@@@2@@__crt_stdio_output@@AAE_NXZ 1002edb1 f i libucrt:output.obj
 0001:0002df3b       ?state_case_size@?$output_processor@_WV?$string_output_adapter@_W@__crt_stdio_output@@V?$format_validation_base@_WV?$string_output_adapter@_W@__crt_stdio_output@@@2@@__crt_stdio_output@@AAE_NXZ 1002ef3b f i libucrt:output.obj
 0001:0002e0c5       ?state_case_size@?$output_processor@_WV?$string_output_adapter@_W@__crt_stdio_output@@V?$positional_parameter_base@_WV?$string_output_adapter@_W@__crt_stdio_output@@@2@@__crt_stdio_output@@AAE_NXZ 1002f0c5 f i libucrt:output.obj
 0001:0002e24f       ?state_case_size@?$output_processor@_WV?$string_output_adapter@_W@__crt_stdio_output@@V?$standard_base@_WV?$string_output_adapter@_W@__crt_stdio_output@@@2@@__crt_stdio_output@@AAE_NXZ 1002f24f f i libucrt:output.obj
 0001:0002e3d9       ?state_case_type@?$output_processor@DV?$stream_output_adapter@D@__crt_stdio_output@@V?$format_validation_base@DV?$stream_output_adapter@D@__crt_stdio_output@@@2@@__crt_stdio_output@@AAE_NXZ 1002f3d9 f i libucrt:output.obj
 0001:0002e71b       ?state_case_type@?$output_processor@DV?$stream_output_adapter@D@__crt_stdio_output@@V?$positional_parameter_base@DV?$stream_output_adapter@D@__crt_stdio_output@@@2@@__crt_stdio_output@@AAE_NXZ 1002f71b f i libucrt:output.obj
 0001:0002ea6c       ?state_case_type@?$output_processor@DV?$stream_output_adapter@D@__crt_stdio_output@@V?$standard_base@DV?$stream_output_adapter@D@__crt_stdio_output@@@2@@__crt_stdio_output@@AAE_NXZ 1002fa6c f i libucrt:output.obj
 0001:0002edae       ?state_case_type@?$output_processor@DV?$string_output_adapter@D@__crt_stdio_output@@V?$format_validation_base@DV?$string_output_adapter@D@__crt_stdio_output@@@2@@__crt_stdio_output@@AAE_NXZ 1002fdae f i libucrt:output.obj
 0001:0002f10d       ?state_case_type@?$output_processor@DV?$string_output_adapter@D@__crt_stdio_output@@V?$positional_parameter_base@DV?$string_output_adapter@D@__crt_stdio_output@@@2@@__crt_stdio_output@@AAE_NXZ 1003010d f i libucrt:output.obj
 0001:0002f47b       ?state_case_type@?$output_processor@DV?$string_output_adapter@D@__crt_stdio_output@@V?$standard_base@DV?$string_output_adapter@D@__crt_stdio_output@@@2@@__crt_stdio_output@@AAE_NXZ 1003047b f i libucrt:output.obj
 0001:0002f7da       ?state_case_type@?$output_processor@_WV?$stream_output_adapter@_W@__crt_stdio_output@@V?$format_validation_base@_WV?$stream_output_adapter@_W@__crt_stdio_output@@@2@@__crt_stdio_output@@AAE_NXZ 100307da f i libucrt:output.obj
 0001:0002fb38       ?state_case_type@?$output_processor@_WV?$stream_output_adapter@_W@__crt_stdio_output@@V?$positional_parameter_base@_WV?$stream_output_adapter@_W@__crt_stdio_output@@@2@@__crt_stdio_output@@AAE_NXZ 10030b38 f i libucrt:output.obj
 0001:0002fea5       ?state_case_type@?$output_processor@_WV?$stream_output_adapter@_W@__crt_stdio_output@@V?$standard_base@_WV?$stream_output_adapter@_W@__crt_stdio_output@@@2@@__crt_stdio_output@@AAE_NXZ 10030ea5 f i libucrt:output.obj
 0001:00030203       ?state_case_type@?$output_processor@_WV?$string_output_adapter@_W@__crt_stdio_output@@V?$format_validation_base@_WV?$string_output_adapter@_W@__crt_stdio_output@@@2@@__crt_stdio_output@@AAE_NXZ 10031203 f i libucrt:output.obj
 0001:000305f7       ?state_case_type@?$output_processor@_WV?$string_output_adapter@_W@__crt_stdio_output@@V?$positional_parameter_base@_WV?$string_output_adapter@_W@__crt_stdio_output@@@2@@__crt_stdio_output@@AAE_NXZ 100315f7 f i libucrt:output.obj
 0001:000309fa       ?state_case_type@?$output_processor@_WV?$string_output_adapter@_W@__crt_stdio_output@@V?$standard_base@_WV?$string_output_adapter@_W@__crt_stdio_output@@@2@@__crt_stdio_output@@AAE_NXZ 100319fa f i libucrt:output.obj
 0001:00030dee       ?state_case_width@?$output_processor@DV?$stream_output_adapter@D@__crt_stdio_output@@V?$format_validation_base@DV?$stream_output_adapter@D@__crt_stdio_output@@@2@@__crt_stdio_output@@AAE_NXZ 10031dee f i libucrt:output.obj
 0001:00030e1f       ?state_case_width@?$output_processor@DV?$stream_output_adapter@D@__crt_stdio_output@@V?$positional_parameter_base@DV?$stream_output_adapter@D@__crt_stdio_output@@@2@@__crt_stdio_output@@AAE_NXZ 10031e1f f i libucrt:output.obj
 0001:00030e5f       ?state_case_width@?$output_processor@DV?$stream_output_adapter@D@__crt_stdio_output@@V?$standard_base@DV?$stream_output_adapter@D@__crt_stdio_output@@@2@@__crt_stdio_output@@AAE_NXZ 10031e5f f i libucrt:output.obj
 0001:00030e90       ?state_case_width@?$output_processor@DV?$string_output_adapter@D@__crt_stdio_output@@V?$format_validation_base@DV?$string_output_adapter@D@__crt_stdio_output@@@2@@__crt_stdio_output@@AAE_NXZ 10031e90 f i libucrt:output.obj
 0001:00030ec1       ?state_case_width@?$output_processor@DV?$string_output_adapter@D@__crt_stdio_output@@V?$positional_parameter_base@DV?$string_output_adapter@D@__crt_stdio_output@@@2@@__crt_stdio_output@@AAE_NXZ 10031ec1 f i libucrt:output.obj
 0001:00030f01       ?state_case_width@?$output_processor@DV?$string_output_adapter@D@__crt_stdio_output@@V?$standard_base@DV?$string_output_adapter@D@__crt_stdio_output@@@2@@__crt_stdio_output@@AAE_NXZ 10031f01 f i libucrt:output.obj
 0001:00030f32       ?state_case_width@?$output_processor@_WV?$stream_output_adapter@_W@__crt_stdio_output@@V?$format_validation_base@_WV?$stream_output_adapter@_W@__crt_stdio_output@@@2@@__crt_stdio_output@@AAE_NXZ 10031f32 f i libucrt:output.obj
 0001:00030f64       ?state_case_width@?$output_processor@_WV?$stream_output_adapter@_W@__crt_stdio_output@@V?$positional_parameter_base@_WV?$stream_output_adapter@_W@__crt_stdio_output@@@2@@__crt_stdio_output@@AAE_NXZ 10031f64 f i libucrt:output.obj
 0001:00030fa5       ?state_case_width@?$output_processor@_WV?$stream_output_adapter@_W@__crt_stdio_output@@V?$standard_base@_WV?$stream_output_adapter@_W@__crt_stdio_output@@@2@@__crt_stdio_output@@AAE_NXZ 10031fa5 f i libucrt:output.obj
 0001:00030fd7       ?state_case_width@?$output_processor@_WV?$string_output_adapter@_W@__crt_stdio_output@@V?$format_validation_base@_WV?$string_output_adapter@_W@__crt_stdio_output@@@2@@__crt_stdio_output@@AAE_NXZ 10031fd7 f i libucrt:output.obj
 0001:00031009       ?state_case_width@?$output_processor@_WV?$string_output_adapter@_W@__crt_stdio_output@@V?$positional_parameter_base@_WV?$string_output_adapter@_W@__crt_stdio_output@@@2@@__crt_stdio_output@@AAE_NXZ 10032009 f i libucrt:output.obj
 0001:0003104a       ?state_case_width@?$output_processor@_WV?$string_output_adapter@_W@__crt_stdio_output@@V?$standard_base@_WV?$string_output_adapter@_W@__crt_stdio_output@@@2@@__crt_stdio_output@@AAE_NXZ 1003204a f i libucrt:output.obj
 0001:0003107c       ?state_count@?$format_validation_base@DV?$stream_output_adapter@D@__crt_stdio_output@@@__crt_stdio_output@@KAIXZ 1003207c f i libucrt:output.obj
 0001:00031080       ?state_count@?$format_validation_base@DV?$string_output_adapter@D@__crt_stdio_output@@@__crt_stdio_output@@KAIXZ 10032080 f i libucrt:output.obj
 0001:00031084       ?state_count@?$format_validation_base@_WV?$stream_output_adapter@_W@__crt_stdio_output@@@__crt_stdio_output@@KAIXZ 10032084 f i libucrt:output.obj
 0001:00031088       ?state_count@?$format_validation_base@_WV?$string_output_adapter@_W@__crt_stdio_output@@@__crt_stdio_output@@KAIXZ 10032088 f i libucrt:output.obj
 0001:0003108c       ?state_count@?$standard_base@DV?$stream_output_adapter@D@__crt_stdio_output@@@__crt_stdio_output@@KAIXZ 1003208c f i libucrt:output.obj
 0001:00031090       ?state_count@?$standard_base@DV?$string_output_adapter@D@__crt_stdio_output@@@__crt_stdio_output@@KAIXZ 10032090 f i libucrt:output.obj
 0001:00031094       ?state_count@?$standard_base@_WV?$stream_output_adapter@_W@__crt_stdio_output@@@__crt_stdio_output@@KAIXZ 10032094 f i libucrt:output.obj
 0001:00031098       ?state_count@?$standard_base@_WV?$string_output_adapter@_W@__crt_stdio_output@@@__crt_stdio_output@@KAIXZ 10032098 f i libucrt:output.obj
 0001:0003109c       ?state_transition_table@?$format_validation_base@DV?$stream_output_adapter@D@__crt_stdio_output@@@__crt_stdio_output@@KAABV?$spectre_mitigated_lookup_table@Ustate_transition_pair@__crt_stdio_output@@$0IA@@2@XZ 1003209c f i libucrt:output.obj
 0001:000310a2       ?state_transition_table@?$format_validation_base@DV?$string_output_adapter@D@__crt_stdio_output@@@__crt_stdio_output@@KAABV?$spectre_mitigated_lookup_table@Ustate_transition_pair@__crt_stdio_output@@$0IA@@2@XZ 100320a2 f i libucrt:output.obj
 0001:000310a8       ?state_transition_table@?$format_validation_base@_WV?$stream_output_adapter@_W@__crt_stdio_output@@@__crt_stdio_output@@KAABV?$spectre_mitigated_lookup_table@Ustate_transition_pair@__crt_stdio_output@@$0IA@@2@XZ 100320a8 f i libucrt:output.obj
 0001:000310ae       ?state_transition_table@?$format_validation_base@_WV?$string_output_adapter@_W@__crt_stdio_output@@@__crt_stdio_output@@KAABV?$spectre_mitigated_lookup_table@Ustate_transition_pair@__crt_stdio_output@@$0IA@@2@XZ 100320ae f i libucrt:output.obj
 0001:000310b4       ?state_transition_table@?$standard_base@DV?$stream_output_adapter@D@__crt_stdio_output@@@__crt_stdio_output@@KAABV?$spectre_mitigated_lookup_table@Ustate_transition_pair@__crt_stdio_output@@$0IA@@2@XZ 100320b4 f i libucrt:output.obj
 0001:000310ba       ?state_transition_table@?$standard_base@DV?$string_output_adapter@D@__crt_stdio_output@@@__crt_stdio_output@@KAABV?$spectre_mitigated_lookup_table@Ustate_transition_pair@__crt_stdio_output@@$0IA@@2@XZ 100320ba f i libucrt:output.obj
 0001:000310c0       ?state_transition_table@?$standard_base@_WV?$stream_output_adapter@_W@__crt_stdio_output@@@__crt_stdio_output@@KAABV?$spectre_mitigated_lookup_table@Ustate_transition_pair@__crt_stdio_output@@$0IA@@2@XZ 100320c0 f i libucrt:output.obj
 0001:000310c6       ?state_transition_table@?$standard_base@_WV?$string_output_adapter@_W@__crt_stdio_output@@@__crt_stdio_output@@KAABV?$spectre_mitigated_lookup_table@Ustate_transition_pair@__crt_stdio_output@@$0IA@@2@XZ 100320c6 f i libucrt:output.obj
 0001:000310cc       ?tchar_string@?$common_data@D@__crt_stdio_output@@IAEAAPADD@Z 100320cc f i libucrt:output.obj
 0001:000310d2       ?tchar_string@?$common_data@D@__crt_stdio_output@@IAEAAPADXZ 100320d2 f i libucrt:output.obj
 0001:000310d6       ?tchar_string@?$common_data@_W@__crt_stdio_output@@IAEAAPA_WXZ 100320d6 f i libucrt:output.obj
 0001:000310da       ?tchar_string@?$common_data@_W@__crt_stdio_output@@IAEAAPA_W_W@Z 100320da f i libucrt:output.obj
 0001:000310e0       ?to_integer_size@__crt_stdio_output@@YAIW4length_modifier@1@@Z 100320e0 f i libucrt:output.obj
 0001:00031134       ?type_case_X@?$output_processor@DV?$stream_output_adapter@D@__crt_stdio_output@@V?$format_validation_base@DV?$stream_output_adapter@D@__crt_stdio_output@@@2@@__crt_stdio_output@@AAE_NXZ 10032134 f i libucrt:output.obj
 0001:0003113c       ?type_case_X@?$output_processor@DV?$stream_output_adapter@D@__crt_stdio_output@@V?$positional_parameter_base@DV?$stream_output_adapter@D@__crt_stdio_output@@@2@@__crt_stdio_output@@AAE_NXZ 1003213c f i libucrt:output.obj
 0001:00031144       ?type_case_X@?$output_processor@DV?$stream_output_adapter@D@__crt_stdio_output@@V?$standard_base@DV?$stream_output_adapter@D@__crt_stdio_output@@@2@@__crt_stdio_output@@AAE_NXZ 10032144 f i libucrt:output.obj
 0001:0003114c       ?type_case_X@?$output_processor@DV?$string_output_adapter@D@__crt_stdio_output@@V?$format_validation_base@DV?$string_output_adapter@D@__crt_stdio_output@@@2@@__crt_stdio_output@@AAE_NXZ 1003214c f i libucrt:output.obj
 0001:00031154       ?type_case_X@?$output_processor@DV?$string_output_adapter@D@__crt_stdio_output@@V?$positional_parameter_base@DV?$string_output_adapter@D@__crt_stdio_output@@@2@@__crt_stdio_output@@AAE_NXZ 10032154 f i libucrt:output.obj
 0001:0003115c       ?type_case_X@?$output_processor@DV?$string_output_adapter@D@__crt_stdio_output@@V?$standard_base@DV?$string_output_adapter@D@__crt_stdio_output@@@2@@__crt_stdio_output@@AAE_NXZ 1003215c f i libucrt:output.obj
 0001:00031164       ?type_case_X@?$output_processor@_WV?$stream_output_adapter@_W@__crt_stdio_output@@V?$format_validation_base@_WV?$stream_output_adapter@_W@__crt_stdio_output@@@2@@__crt_stdio_output@@AAE_NXZ 10032164 f i libucrt:output.obj
 0001:0003116c       ?type_case_X@?$output_processor@_WV?$stream_output_adapter@_W@__crt_stdio_output@@V?$positional_parameter_base@_WV?$stream_output_adapter@_W@__crt_stdio_output@@@2@@__crt_stdio_output@@AAE_NXZ 1003216c f i libucrt:output.obj
 0001:00031174       ?type_case_X@?$output_processor@_WV?$stream_output_adapter@_W@__crt_stdio_output@@V?$standard_base@_WV?$stream_output_adapter@_W@__crt_stdio_output@@@2@@__crt_stdio_output@@AAE_NXZ 10032174 f i libucrt:output.obj
 0001:0003117c       ?type_case_X@?$output_processor@_WV?$string_output_adapter@_W@__crt_stdio_output@@V?$format_validation_base@_WV?$string_output_adapter@_W@__crt_stdio_output@@@2@@__crt_stdio_output@@AAE_NXZ 1003217c f i libucrt:output.obj
 0001:00031184       ?type_case_X@?$output_processor@_WV?$string_output_adapter@_W@__crt_stdio_output@@V?$positional_parameter_base@_WV?$string_output_adapter@_W@__crt_stdio_output@@@2@@__crt_stdio_output@@AAE_NXZ 10032184 f i libucrt:output.obj
 0001:0003118c       ?type_case_X@?$output_processor@_WV?$string_output_adapter@_W@__crt_stdio_output@@V?$standard_base@_WV?$string_output_adapter@_W@__crt_stdio_output@@@2@@__crt_stdio_output@@AAE_NXZ 1003218c f i libucrt:output.obj
 0001:00031194       ?type_case_Z@?$output_processor@DV?$stream_output_adapter@D@__crt_stdio_output@@V?$format_validation_base@DV?$stream_output_adapter@D@__crt_stdio_output@@@2@@__crt_stdio_output@@AAE_NXZ 10032194 f i libucrt:output.obj
 0001:000311f7       ?type_case_Z@?$output_processor@DV?$stream_output_adapter@D@__crt_stdio_output@@V?$positional_parameter_base@DV?$stream_output_adapter@D@__crt_stdio_output@@@2@@__crt_stdio_output@@AAE_NXZ 100321f7 f i libucrt:output.obj
 0001:00031271       ?type_case_Z@?$output_processor@DV?$stream_output_adapter@D@__crt_stdio_output@@V?$standard_base@DV?$stream_output_adapter@D@__crt_stdio_output@@@2@@__crt_stdio_output@@AAE_NXZ 10032271 f i libucrt:output.obj
 0001:000312d4       ?type_case_Z@?$output_processor@DV?$string_output_adapter@D@__crt_stdio_output@@V?$format_validation_base@DV?$string_output_adapter@D@__crt_stdio_output@@@2@@__crt_stdio_output@@AAE_NXZ 100322d4 f i libucrt:output.obj
 0001:00031337       ?type_case_Z@?$output_processor@DV?$string_output_adapter@D@__crt_stdio_output@@V?$positional_parameter_base@DV?$string_output_adapter@D@__crt_stdio_output@@@2@@__crt_stdio_output@@AAE_NXZ 10032337 f i libucrt:output.obj
 0001:000313b1       ?type_case_Z@?$output_processor@DV?$string_output_adapter@D@__crt_stdio_output@@V?$standard_base@DV?$string_output_adapter@D@__crt_stdio_output@@@2@@__crt_stdio_output@@AAE_NXZ 100323b1 f i libucrt:output.obj
 0001:00031414       ?type_case_Z@?$output_processor@_WV?$stream_output_adapter@_W@__crt_stdio_output@@V?$format_validation_base@_WV?$stream_output_adapter@_W@__crt_stdio_output@@@2@@__crt_stdio_output@@AAE_NXZ 10032414 f i libucrt:output.obj
 0001:00031477       ?type_case_Z@?$output_processor@_WV?$stream_output_adapter@_W@__crt_stdio_output@@V?$positional_parameter_base@_WV?$stream_output_adapter@_W@__crt_stdio_output@@@2@@__crt_stdio_output@@AAE_NXZ 10032477 f i libucrt:output.obj
 0001:000314f1       ?type_case_Z@?$output_processor@_WV?$stream_output_adapter@_W@__crt_stdio_output@@V?$standard_base@_WV?$stream_output_adapter@_W@__crt_stdio_output@@@2@@__crt_stdio_output@@AAE_NXZ 100324f1 f i libucrt:output.obj
 0001:00031554       ?type_case_Z@?$output_processor@_WV?$string_output_adapter@_W@__crt_stdio_output@@V?$format_validation_base@_WV?$string_output_adapter@_W@__crt_stdio_output@@@2@@__crt_stdio_output@@AAE_NXZ 10032554 f i libucrt:output.obj
 0001:000315b7       ?type_case_Z@?$output_processor@_WV?$string_output_adapter@_W@__crt_stdio_output@@V?$positional_parameter_base@_WV?$string_output_adapter@_W@__crt_stdio_output@@@2@@__crt_stdio_output@@AAE_NXZ 100325b7 f i libucrt:output.obj
 0001:00031631       ?type_case_Z@?$output_processor@_WV?$string_output_adapter@_W@__crt_stdio_output@@V?$standard_base@_WV?$string_output_adapter@_W@__crt_stdio_output@@@2@@__crt_stdio_output@@AAE_NXZ 10032631 f i libucrt:output.obj
 0001:00031694       ?type_case_a@?$output_processor@DV?$stream_output_adapter@D@__crt_stdio_output@@V?$format_validation_base@DV?$stream_output_adapter@D@__crt_stdio_output@@@2@@__crt_stdio_output@@AAE_NXZ 10032694 f i libucrt:output.obj
 0001:00031825       ?type_case_a@?$output_processor@DV?$stream_output_adapter@D@__crt_stdio_output@@V?$positional_parameter_base@DV?$stream_output_adapter@D@__crt_stdio_output@@@2@@__crt_stdio_output@@AAE_NXZ 10032825 f i libucrt:output.obj
 0001:000319d3       ?type_case_a@?$output_processor@DV?$stream_output_adapter@D@__crt_stdio_output@@V?$standard_base@DV?$stream_output_adapter@D@__crt_stdio_output@@@2@@__crt_stdio_output@@AAE_NXZ 100329d3 f i libucrt:output.obj
 0001:00031b64       ?type_case_a@?$output_processor@DV?$string_output_adapter@D@__crt_stdio_output@@V?$format_validation_base@DV?$string_output_adapter@D@__crt_stdio_output@@@2@@__crt_stdio_output@@AAE_NXZ 10032b64 f i libucrt:output.obj
 0001:00031cf5       ?type_case_a@?$output_processor@DV?$string_output_adapter@D@__crt_stdio_output@@V?$positional_parameter_base@DV?$string_output_adapter@D@__crt_stdio_output@@@2@@__crt_stdio_output@@AAE_NXZ 10032cf5 f i libucrt:output.obj
 0001:00031ea3       ?type_case_a@?$output_processor@DV?$string_output_adapter@D@__crt_stdio_output@@V?$standard_base@DV?$string_output_adapter@D@__crt_stdio_output@@@2@@__crt_stdio_output@@AAE_NXZ 10032ea3 f i libucrt:output.obj
 0001:00032034       ?type_case_a@?$output_processor@_WV?$stream_output_adapter@_W@__crt_stdio_output@@V?$format_validation_base@_WV?$stream_output_adapter@_W@__crt_stdio_output@@@2@@__crt_stdio_output@@AAE_NXZ 10033034 f i libucrt:output.obj
 0001:000321db       ?type_case_a@?$output_processor@_WV?$stream_output_adapter@_W@__crt_stdio_output@@V?$positional_parameter_base@_WV?$stream_output_adapter@_W@__crt_stdio_output@@@2@@__crt_stdio_output@@AAE_NXZ 100331db f i libucrt:output.obj
 0001:0003239f       ?type_case_a@?$output_processor@_WV?$stream_output_adapter@_W@__crt_stdio_output@@V?$standard_base@_WV?$stream_output_adapter@_W@__crt_stdio_output@@@2@@__crt_stdio_output@@AAE_NXZ 1003339f f i libucrt:output.obj
 0001:00032546       ?type_case_a@?$output_processor@_WV?$string_output_adapter@_W@__crt_stdio_output@@V?$format_validation_base@_WV?$string_output_adapter@_W@__crt_stdio_output@@@2@@__crt_stdio_output@@AAE_NXZ 10033546 f i libucrt:output.obj
 0001:000326ed       ?type_case_a@?$output_processor@_WV?$string_output_adapter@_W@__crt_stdio_output@@V?$positional_parameter_base@_WV?$string_output_adapter@_W@__crt_stdio_output@@@2@@__crt_stdio_output@@AAE_NXZ 100336ed f i libucrt:output.obj
 0001:000328b1       ?type_case_a@?$output_processor@_WV?$string_output_adapter@_W@__crt_stdio_output@@V?$standard_base@_WV?$string_output_adapter@_W@__crt_stdio_output@@@2@@__crt_stdio_output@@AAE_NXZ 100338b1 f i libucrt:output.obj
 0001:00032a58       ?type_case_c@?$output_processor@DV?$stream_output_adapter@D@__crt_stdio_output@@V?$format_validation_base@DV?$stream_output_adapter@D@__crt_stdio_output@@@2@@__crt_stdio_output@@AAE_NXZ 10033a58 f i libucrt:output.obj
 0001:00032a60       ?type_case_c@?$output_processor@DV?$stream_output_adapter@D@__crt_stdio_output@@V?$positional_parameter_base@DV?$stream_output_adapter@D@__crt_stdio_output@@@2@@__crt_stdio_output@@AAE_NXZ 10033a60 f i libucrt:output.obj
 0001:00032a68       ?type_case_c@?$output_processor@DV?$stream_output_adapter@D@__crt_stdio_output@@V?$standard_base@DV?$stream_output_adapter@D@__crt_stdio_output@@@2@@__crt_stdio_output@@AAE_NXZ 10033a68 f i libucrt:output.obj
 0001:00032a70       ?type_case_c@?$output_processor@DV?$string_output_adapter@D@__crt_stdio_output@@V?$format_validation_base@DV?$string_output_adapter@D@__crt_stdio_output@@@2@@__crt_stdio_output@@AAE_NXZ 10033a70 f i libucrt:output.obj
 0001:00032a78       ?type_case_c@?$output_processor@DV?$string_output_adapter@D@__crt_stdio_output@@V?$positional_parameter_base@DV?$string_output_adapter@D@__crt_stdio_output@@@2@@__crt_stdio_output@@AAE_NXZ 10033a78 f i libucrt:output.obj
 0001:00032a80       ?type_case_c@?$output_processor@DV?$string_output_adapter@D@__crt_stdio_output@@V?$standard_base@DV?$string_output_adapter@D@__crt_stdio_output@@@2@@__crt_stdio_output@@AAE_NXZ 10033a80 f i libucrt:output.obj
 0001:00032a88       ?type_case_c@?$output_processor@_WV?$stream_output_adapter@_W@__crt_stdio_output@@V?$format_validation_base@_WV?$stream_output_adapter@_W@__crt_stdio_output@@@2@@__crt_stdio_output@@AAE_NXZ 10033a88 f i libucrt:output.obj
 0001:00032a90       ?type_case_c@?$output_processor@_WV?$stream_output_adapter@_W@__crt_stdio_output@@V?$positional_parameter_base@_WV?$stream_output_adapter@_W@__crt_stdio_output@@@2@@__crt_stdio_output@@AAE_NXZ 10033a90 f i libucrt:output.obj
 0001:00032a98       ?type_case_c@?$output_processor@_WV?$stream_output_adapter@_W@__crt_stdio_output@@V?$standard_base@_WV?$stream_output_adapter@_W@__crt_stdio_output@@@2@@__crt_stdio_output@@AAE_NXZ 10033a98 f i libucrt:output.obj
 0001:00032aa0       ?type_case_c@?$output_processor@_WV?$string_output_adapter@_W@__crt_stdio_output@@V?$format_validation_base@_WV?$string_output_adapter@_W@__crt_stdio_output@@@2@@__crt_stdio_output@@AAE_NXZ 10033aa0 f i libucrt:output.obj
 0001:00032aa8       ?type_case_c@?$output_processor@_WV?$string_output_adapter@_W@__crt_stdio_output@@V?$positional_parameter_base@_WV?$string_output_adapter@_W@__crt_stdio_output@@@2@@__crt_stdio_output@@AAE_NXZ 10033aa8 f i libucrt:output.obj
 0001:00032ab0       ?type_case_c@?$output_processor@_WV?$string_output_adapter@_W@__crt_stdio_output@@V?$standard_base@_WV?$string_output_adapter@_W@__crt_stdio_output@@@2@@__crt_stdio_output@@AAE_NXZ 10033ab0 f i libucrt:output.obj
 0001:00032ab8       ?type_case_c_tchar@?$output_processor@DV?$stream_output_adapter@D@__crt_stdio_output@@V?$format_validation_base@DV?$stream_output_adapter@D@__crt_stdio_output@@@2@@__crt_stdio_output@@AAE_ND@Z 10033ab8 f i libucrt:output.obj
 0001:00032b4d       ?type_case_c_tchar@?$output_processor@DV?$stream_output_adapter@D@__crt_stdio_output@@V?$positional_parameter_base@DV?$stream_output_adapter@D@__crt_stdio_output@@@2@@__crt_stdio_output@@AAE_ND@Z 10033b4d f i libucrt:output.obj
 0001:00032c0c       ?type_case_c_tchar@?$output_processor@DV?$stream_output_adapter@D@__crt_stdio_output@@V?$standard_base@DV?$stream_output_adapter@D@__crt_stdio_output@@@2@@__crt_stdio_output@@AAE_ND@Z 10033c0c f i libucrt:output.obj
 0001:00032ca1       ?type_case_c_tchar@?$output_processor@DV?$string_output_adapter@D@__crt_stdio_output@@V?$format_validation_base@DV?$string_output_adapter@D@__crt_stdio_output@@@2@@__crt_stdio_output@@AAE_ND@Z 10033ca1 f i libucrt:output.obj
 0001:00032d36       ?type_case_c_tchar@?$output_processor@DV?$string_output_adapter@D@__crt_stdio_output@@V?$positional_parameter_base@DV?$string_output_adapter@D@__crt_stdio_output@@@2@@__crt_stdio_output@@AAE_ND@Z 10033d36 f i libucrt:output.obj
 0001:00032df5       ?type_case_c_tchar@?$output_processor@DV?$string_output_adapter@D@__crt_stdio_output@@V?$standard_base@DV?$string_output_adapter@D@__crt_stdio_output@@@2@@__crt_stdio_output@@AAE_ND@Z 10033df5 f i libucrt:output.obj
 0001:00032e8a       ?type_case_c_tchar@?$output_processor@_WV?$stream_output_adapter@_W@__crt_stdio_output@@V?$format_validation_base@_WV?$stream_output_adapter@_W@__crt_stdio_output@@@2@@__crt_stdio_output@@AAE_N_W@Z 10033e8a f i libucrt:output.obj
 0001:00032f32       ?type_case_c_tchar@?$output_processor@_WV?$stream_output_adapter@_W@__crt_stdio_output@@V?$positional_parameter_base@_WV?$stream_output_adapter@_W@__crt_stdio_output@@@2@@__crt_stdio_output@@AAE_N_W@Z 10033f32 f i libucrt:output.obj
 0001:00032ffd       ?type_case_c_tchar@?$output_processor@_WV?$stream_output_adapter@_W@__crt_stdio_output@@V?$standard_base@_WV?$stream_output_adapter@_W@__crt_stdio_output@@@2@@__crt_stdio_output@@AAE_N_W@Z 10033ffd f i libucrt:output.obj
 0001:000330a5       ?type_case_c_tchar@?$output_processor@_WV?$string_output_adapter@_W@__crt_stdio_output@@V?$format_validation_base@_WV?$string_output_adapter@_W@__crt_stdio_output@@@2@@__crt_stdio_output@@AAE_N_W@Z 100340a5 f i libucrt:output.obj
 0001:0003314d       ?type_case_c_tchar@?$output_processor@_WV?$string_output_adapter@_W@__crt_stdio_output@@V?$positional_parameter_base@_WV?$string_output_adapter@_W@__crt_stdio_output@@@2@@__crt_stdio_output@@AAE_N_W@Z 1003414d f i libucrt:output.obj
 0001:00033218       ?type_case_c_tchar@?$output_processor@_WV?$string_output_adapter@_W@__crt_stdio_output@@V?$standard_base@_WV?$string_output_adapter@_W@__crt_stdio_output@@@2@@__crt_stdio_output@@AAE_N_W@Z 10034218 f i libucrt:output.obj
 0001:000332c0       ?type_case_d@?$output_processor@DV?$stream_output_adapter@D@__crt_stdio_output@@V?$format_validation_base@DV?$stream_output_adapter@D@__crt_stdio_output@@@2@@__crt_stdio_output@@AAE_NXZ 100342c0 f i libucrt:output.obj
 0001:000332cc       ?type_case_d@?$output_processor@DV?$stream_output_adapter@D@__crt_stdio_output@@V?$positional_parameter_base@DV?$stream_output_adapter@D@__crt_stdio_output@@@2@@__crt_stdio_output@@AAE_NXZ 100342cc f i libucrt:output.obj
 0001:000332d8       ?type_case_d@?$output_processor@DV?$stream_output_adapter@D@__crt_stdio_output@@V?$standard_base@DV?$stream_output_adapter@D@__crt_stdio_output@@@2@@__crt_stdio_output@@AAE_NXZ 100342d8 f i libucrt:output.obj
 0001:000332e4       ?type_case_d@?$output_processor@DV?$string_output_adapter@D@__crt_stdio_output@@V?$format_validation_base@DV?$string_output_adapter@D@__crt_stdio_output@@@2@@__crt_stdio_output@@AAE_NXZ 100342e4 f i libucrt:output.obj
 0001:000332f0       ?type_case_d@?$output_processor@DV?$string_output_adapter@D@__crt_stdio_output@@V?$positional_parameter_base@DV?$string_output_adapter@D@__crt_stdio_output@@@2@@__crt_stdio_output@@AAE_NXZ 100342f0 f i libucrt:output.obj
 0001:000332fc       ?type_case_d@?$output_processor@DV?$string_output_adapter@D@__crt_stdio_output@@V?$standard_base@DV?$string_output_adapter@D@__crt_stdio_output@@@2@@__crt_stdio_output@@AAE_NXZ 100342fc f i libucrt:output.obj
 0001:00033308       ?type_case_d@?$output_processor@_WV?$stream_output_adapter@_W@__crt_stdio_output@@V?$format_validation_base@_WV?$stream_output_adapter@_W@__crt_stdio_output@@@2@@__crt_stdio_output@@AAE_NXZ 10034308 f i libucrt:output.obj
 0001:00033314       ?type_case_d@?$output_processor@_WV?$stream_output_adapter@_W@__crt_stdio_output@@V?$positional_parameter_base@_WV?$stream_output_adapter@_W@__crt_stdio_output@@@2@@__crt_stdio_output@@AAE_NXZ 10034314 f i libucrt:output.obj
 0001:00033320       ?type_case_d@?$output_processor@_WV?$stream_output_adapter@_W@__crt_stdio_output@@V?$standard_base@_WV?$stream_output_adapter@_W@__crt_stdio_output@@@2@@__crt_stdio_output@@AAE_NXZ 10034320 f i libucrt:output.obj
 0001:0003332c       ?type_case_d@?$output_processor@_WV?$string_output_adapter@_W@__crt_stdio_output@@V?$format_validation_base@_WV?$string_output_adapter@_W@__crt_stdio_output@@@2@@__crt_stdio_output@@AAE_NXZ 1003432c f i libucrt:output.obj
 0001:00033338       ?type_case_d@?$output_processor@_WV?$string_output_adapter@_W@__crt_stdio_output@@V?$positional_parameter_base@_WV?$string_output_adapter@_W@__crt_stdio_output@@@2@@__crt_stdio_output@@AAE_NXZ 10034338 f i libucrt:output.obj
 0001:00033344       ?type_case_d@?$output_processor@_WV?$string_output_adapter@_W@__crt_stdio_output@@V?$standard_base@_WV?$string_output_adapter@_W@__crt_stdio_output@@@2@@__crt_stdio_output@@AAE_NXZ 10034344 f i libucrt:output.obj
 0001:00033350       ?type_case_n@?$output_processor@DV?$stream_output_adapter@D@__crt_stdio_output@@V?$format_validation_base@DV?$stream_output_adapter@D@__crt_stdio_output@@@2@@__crt_stdio_output@@AAE_NXZ 10034350 f i libucrt:output.obj
 0001:000333d5       ?type_case_n@?$output_processor@DV?$stream_output_adapter@D@__crt_stdio_output@@V?$positional_parameter_base@DV?$stream_output_adapter@D@__crt_stdio_output@@@2@@__crt_stdio_output@@AAE_NXZ 100343d5 f i libucrt:output.obj
 0001:00033482       ?type_case_n@?$output_processor@DV?$stream_output_adapter@D@__crt_stdio_output@@V?$standard_base@DV?$stream_output_adapter@D@__crt_stdio_output@@@2@@__crt_stdio_output@@AAE_NXZ 10034482 f i libucrt:output.obj
 0001:00033507       ?type_case_n@?$output_processor@DV?$string_output_adapter@D@__crt_stdio_output@@V?$format_validation_base@DV?$string_output_adapter@D@__crt_stdio_output@@@2@@__crt_stdio_output@@AAE_NXZ 10034507 f i libucrt:output.obj
 0001:0003358c       ?type_case_n@?$output_processor@DV?$string_output_adapter@D@__crt_stdio_output@@V?$positional_parameter_base@DV?$string_output_adapter@D@__crt_stdio_output@@@2@@__crt_stdio_output@@AAE_NXZ 1003458c f i libucrt:output.obj
 0001:00033639       ?type_case_n@?$output_processor@DV?$string_output_adapter@D@__crt_stdio_output@@V?$standard_base@DV?$string_output_adapter@D@__crt_stdio_output@@@2@@__crt_stdio_output@@AAE_NXZ 10034639 f i libucrt:output.obj
 0001:000336be       ?type_case_n@?$output_processor@_WV?$stream_output_adapter@_W@__crt_stdio_output@@V?$format_validation_base@_WV?$stream_output_adapter@_W@__crt_stdio_output@@@2@@__crt_stdio_output@@AAE_NXZ 100346be f i libucrt:output.obj
 0001:00033743       ?type_case_n@?$output_processor@_WV?$stream_output_adapter@_W@__crt_stdio_output@@V?$positional_parameter_base@_WV?$stream_output_adapter@_W@__crt_stdio_output@@@2@@__crt_stdio_output@@AAE_NXZ 10034743 f i libucrt:output.obj
 0001:000337f0       ?type_case_n@?$output_processor@_WV?$stream_output_adapter@_W@__crt_stdio_output@@V?$standard_base@_WV?$stream_output_adapter@_W@__crt_stdio_output@@@2@@__crt_stdio_output@@AAE_NXZ 100347f0 f i libucrt:output.obj
 0001:00033875       ?type_case_n@?$output_processor@_WV?$string_output_adapter@_W@__crt_stdio_output@@V?$format_validation_base@_WV?$string_output_adapter@_W@__crt_stdio_output@@@2@@__crt_stdio_output@@AAE_NXZ 10034875 f i libucrt:output.obj
 0001:000338fa       ?type_case_n@?$output_processor@_WV?$string_output_adapter@_W@__crt_stdio_output@@V?$positional_parameter_base@_WV?$string_output_adapter@_W@__crt_stdio_output@@@2@@__crt_stdio_output@@AAE_NXZ 100348fa f i libucrt:output.obj
 0001:000339a7       ?type_case_n@?$output_processor@_WV?$string_output_adapter@_W@__crt_stdio_output@@V?$standard_base@_WV?$string_output_adapter@_W@__crt_stdio_output@@@2@@__crt_stdio_output@@AAE_NXZ 100349a7 f i libucrt:output.obj
 0001:00033a2c       ?type_case_o@?$output_processor@DV?$stream_output_adapter@D@__crt_stdio_output@@V?$format_validation_base@DV?$stream_output_adapter@D@__crt_stdio_output@@@2@@__crt_stdio_output@@AAE_NXZ 10034a2c f i libucrt:output.obj
 0001:00033a49       ?type_case_o@?$output_processor@DV?$stream_output_adapter@D@__crt_stdio_output@@V?$positional_parameter_base@DV?$stream_output_adapter@D@__crt_stdio_output@@@2@@__crt_stdio_output@@AAE_NXZ 10034a49 f i libucrt:output.obj
 0001:00033a66       ?type_case_o@?$output_processor@DV?$stream_output_adapter@D@__crt_stdio_output@@V?$standard_base@DV?$stream_output_adapter@D@__crt_stdio_output@@@2@@__crt_stdio_output@@AAE_NXZ 10034a66 f i libucrt:output.obj
 0001:00033a83       ?type_case_o@?$output_processor@DV?$string_output_adapter@D@__crt_stdio_output@@V?$format_validation_base@DV?$string_output_adapter@D@__crt_stdio_output@@@2@@__crt_stdio_output@@AAE_NXZ 10034a83 f i libucrt:output.obj
 0001:00033aa0       ?type_case_o@?$output_processor@DV?$string_output_adapter@D@__crt_stdio_output@@V?$positional_parameter_base@DV?$string_output_adapter@D@__crt_stdio_output@@@2@@__crt_stdio_output@@AAE_NXZ 10034aa0 f i libucrt:output.obj
 0001:00033abd       ?type_case_o@?$output_processor@DV?$string_output_adapter@D@__crt_stdio_output@@V?$standard_base@DV?$string_output_adapter@D@__crt_stdio_output@@@2@@__crt_stdio_output@@AAE_NXZ 10034abd f i libucrt:output.obj
 0001:00033ada       ?type_case_o@?$output_processor@_WV?$stream_output_adapter@_W@__crt_stdio_output@@V?$format_validation_base@_WV?$stream_output_adapter@_W@__crt_stdio_output@@@2@@__crt_stdio_output@@AAE_NXZ 10034ada f i libucrt:output.obj
 0001:00033af7       ?type_case_o@?$output_processor@_WV?$stream_output_adapter@_W@__crt_stdio_output@@V?$positional_parameter_base@_WV?$stream_output_adapter@_W@__crt_stdio_output@@@2@@__crt_stdio_output@@AAE_NXZ 10034af7 f i libucrt:output.obj
 0001:00033b14       ?type_case_o@?$output_processor@_WV?$stream_output_adapter@_W@__crt_stdio_output@@V?$standard_base@_WV?$stream_output_adapter@_W@__crt_stdio_output@@@2@@__crt_stdio_output@@AAE_NXZ 10034b14 f i libucrt:output.obj
 0001:00033b31       ?type_case_o@?$output_processor@_WV?$string_output_adapter@_W@__crt_stdio_output@@V?$format_validation_base@_WV?$string_output_adapter@_W@__crt_stdio_output@@@2@@__crt_stdio_output@@AAE_NXZ 10034b31 f i libucrt:output.obj
 0001:00033b4e       ?type_case_o@?$output_processor@_WV?$string_output_adapter@_W@__crt_stdio_output@@V?$positional_parameter_base@_WV?$string_output_adapter@_W@__crt_stdio_output@@@2@@__crt_stdio_output@@AAE_NXZ 10034b4e f i libucrt:output.obj
 0001:00033b6b       ?type_case_o@?$output_processor@_WV?$string_output_adapter@_W@__crt_stdio_output@@V?$standard_base@_WV?$string_output_adapter@_W@__crt_stdio_output@@@2@@__crt_stdio_output@@AAE_NXZ 10034b6b f i libucrt:output.obj
 0001:00033b88       ?type_case_p@?$output_processor@DV?$stream_output_adapter@D@__crt_stdio_output@@V?$format_validation_base@DV?$stream_output_adapter@D@__crt_stdio_output@@@2@@__crt_stdio_output@@AAE_NXZ 10034b88 f i libucrt:output.obj
 0001:00033b9e       ?type_case_p@?$output_processor@DV?$stream_output_adapter@D@__crt_stdio_output@@V?$positional_parameter_base@DV?$stream_output_adapter@D@__crt_stdio_output@@@2@@__crt_stdio_output@@AAE_NXZ 10034b9e f i libucrt:output.obj
 0001:00033bb4       ?type_case_p@?$output_processor@DV?$stream_output_adapter@D@__crt_stdio_output@@V?$standard_base@DV?$stream_output_adapter@D@__crt_stdio_output@@@2@@__crt_stdio_output@@AAE_NXZ 10034bb4 f i libucrt:output.obj
 0001:00033bca       ?type_case_p@?$output_processor@DV?$string_output_adapter@D@__crt_stdio_output@@V?$format_validation_base@DV?$string_output_adapter@D@__crt_stdio_output@@@2@@__crt_stdio_output@@AAE_NXZ 10034bca f i libucrt:output.obj
 0001:00033be0       ?type_case_p@?$output_processor@DV?$string_output_adapter@D@__crt_stdio_output@@V?$positional_parameter_base@DV?$string_output_adapter@D@__crt_stdio_output@@@2@@__crt_stdio_output@@AAE_NXZ 10034be0 f i libucrt:output.obj
 0001:00033bf6       ?type_case_p@?$output_processor@DV?$string_output_adapter@D@__crt_stdio_output@@V?$standard_base@DV?$string_output_adapter@D@__crt_stdio_output@@@2@@__crt_stdio_output@@AAE_NXZ 10034bf6 f i libucrt:output.obj
 0001:00033c0c       ?type_case_p@?$output_processor@_WV?$stream_output_adapter@_W@__crt_stdio_output@@V?$format_validation_base@_WV?$stream_output_adapter@_W@__crt_stdio_output@@@2@@__crt_stdio_output@@AAE_NXZ 10034c0c f i libucrt:output.obj
 0001:00033c22       ?type_case_p@?$output_processor@_WV?$stream_output_adapter@_W@__crt_stdio_output@@V?$positional_parameter_base@_WV?$stream_output_adapter@_W@__crt_stdio_output@@@2@@__crt_stdio_output@@AAE_NXZ 10034c22 f i libucrt:output.obj
 0001:00033c38       ?type_case_p@?$output_processor@_WV?$stream_output_adapter@_W@__crt_stdio_output@@V?$standard_base@_WV?$stream_output_adapter@_W@__crt_stdio_output@@@2@@__crt_stdio_output@@AAE_NXZ 10034c38 f i libucrt:output.obj
 0001:00033c4e       ?type_case_p@?$output_processor@_WV?$string_output_adapter@_W@__crt_stdio_output@@V?$format_validation_base@_WV?$string_output_adapter@_W@__crt_stdio_output@@@2@@__crt_stdio_output@@AAE_NXZ 10034c4e f i libucrt:output.obj
 0001:00033c64       ?type_case_p@?$output_processor@_WV?$string_output_adapter@_W@__crt_stdio_output@@V?$positional_parameter_base@_WV?$string_output_adapter@_W@__crt_stdio_output@@@2@@__crt_stdio_output@@AAE_NXZ 10034c64 f i libucrt:output.obj
 0001:00033c7a       ?type_case_p@?$output_processor@_WV?$string_output_adapter@_W@__crt_stdio_output@@V?$standard_base@_WV?$string_output_adapter@_W@__crt_stdio_output@@@2@@__crt_stdio_output@@AAE_NXZ 10034c7a f i libucrt:output.obj
 0001:00033c90       ?type_case_s@?$output_processor@DV?$stream_output_adapter@D@__crt_stdio_output@@V?$format_validation_base@DV?$stream_output_adapter@D@__crt_stdio_output@@@2@@__crt_stdio_output@@AAE_NXZ 10034c90 f i libucrt:output.obj
 0001:00033d02       ?type_case_s@?$output_processor@DV?$stream_output_adapter@D@__crt_stdio_output@@V?$positional_parameter_base@DV?$stream_output_adapter@D@__crt_stdio_output@@@2@@__crt_stdio_output@@AAE_NXZ 10034d02 f i libucrt:output.obj
 0001:00033d80       ?type_case_s@?$output_processor@DV?$stream_output_adapter@D@__crt_stdio_output@@V?$standard_base@DV?$stream_output_adapter@D@__crt_stdio_output@@@2@@__crt_stdio_output@@AAE_NXZ 10034d80 f i libucrt:output.obj
 0001:00033df2       ?type_case_s@?$output_processor@DV?$string_output_adapter@D@__crt_stdio_output@@V?$format_validation_base@DV?$string_output_adapter@D@__crt_stdio_output@@@2@@__crt_stdio_output@@AAE_NXZ 10034df2 f i libucrt:output.obj
 0001:00033e64       ?type_case_s@?$output_processor@DV?$string_output_adapter@D@__crt_stdio_output@@V?$positional_parameter_base@DV?$string_output_adapter@D@__crt_stdio_output@@@2@@__crt_stdio_output@@AAE_NXZ 10034e64 f i libucrt:output.obj
 0001:00033ee2       ?type_case_s@?$output_processor@DV?$string_output_adapter@D@__crt_stdio_output@@V?$standard_base@DV?$string_output_adapter@D@__crt_stdio_output@@@2@@__crt_stdio_output@@AAE_NXZ 10034ee2 f i libucrt:output.obj
 0001:00033f54       ?type_case_s@?$output_processor@_WV?$stream_output_adapter@_W@__crt_stdio_output@@V?$format_validation_base@_WV?$stream_output_adapter@_W@__crt_stdio_output@@@2@@__crt_stdio_output@@AAE_NXZ 10034f54 f i libucrt:output.obj
 0001:00033fc8       ?type_case_s@?$output_processor@_WV?$stream_output_adapter@_W@__crt_stdio_output@@V?$positional_parameter_base@_WV?$stream_output_adapter@_W@__crt_stdio_output@@@2@@__crt_stdio_output@@AAE_NXZ 10034fc8 f i libucrt:output.obj
 0001:00034048       ?type_case_s@?$output_processor@_WV?$stream_output_adapter@_W@__crt_stdio_output@@V?$standard_base@_WV?$stream_output_adapter@_W@__crt_stdio_output@@@2@@__crt_stdio_output@@AAE_NXZ 10035048 f i libucrt:output.obj
 0001:000340bc       ?type_case_s@?$output_processor@_WV?$string_output_adapter@_W@__crt_stdio_output@@V?$format_validation_base@_WV?$string_output_adapter@_W@__crt_stdio_output@@@2@@__crt_stdio_output@@AAE_NXZ 100350bc f i libucrt:output.obj
 0001:00034130       ?type_case_s@?$output_processor@_WV?$string_output_adapter@_W@__crt_stdio_output@@V?$positional_parameter_base@_WV?$string_output_adapter@_W@__crt_stdio_output@@@2@@__crt_stdio_output@@AAE_NXZ 10035130 f i libucrt:output.obj
 0001:000341b0       ?type_case_s@?$output_processor@_WV?$string_output_adapter@_W@__crt_stdio_output@@V?$standard_base@_WV?$string_output_adapter@_W@__crt_stdio_output@@@2@@__crt_stdio_output@@AAE_NXZ 100351b0 f i libucrt:output.obj
 0001:00034224       ?type_case_s_compute_narrow_string_length@?$output_processor@DV?$stream_output_adapter@D@__crt_stdio_output@@V?$format_validation_base@DV?$stream_output_adapter@D@__crt_stdio_output@@@2@@__crt_stdio_output@@AAEHHD@Z 10035224 f i libucrt:output.obj
 0001:0003423a       ?type_case_s_compute_narrow_string_length@?$output_processor@DV?$stream_output_adapter@D@__crt_stdio_output@@V?$positional_parameter_base@DV?$stream_output_adapter@D@__crt_stdio_output@@@2@@__crt_stdio_output@@AAEHHD@Z 1003523a f i libucrt:output.obj
 0001:00034250       ?type_case_s_compute_narrow_string_length@?$output_processor@DV?$stream_output_adapter@D@__crt_stdio_output@@V?$standard_base@DV?$stream_output_adapter@D@__crt_stdio_output@@@2@@__crt_stdio_output@@AAEHHD@Z 10035250 f i libucrt:output.obj
 0001:00034266       ?type_case_s_compute_narrow_string_length@?$output_processor@DV?$string_output_adapter@D@__crt_stdio_output@@V?$format_validation_base@DV?$string_output_adapter@D@__crt_stdio_output@@@2@@__crt_stdio_output@@AAEHHD@Z 10035266 f i libucrt:output.obj
 0001:0003427c       ?type_case_s_compute_narrow_string_length@?$output_processor@DV?$string_output_adapter@D@__crt_stdio_output@@V?$positional_parameter_base@DV?$string_output_adapter@D@__crt_stdio_output@@@2@@__crt_stdio_output@@AAEHHD@Z 1003527c f i libucrt:output.obj
 0001:00034292       ?type_case_s_compute_narrow_string_length@?$output_processor@DV?$string_output_adapter@D@__crt_stdio_output@@V?$standard_base@DV?$string_output_adapter@D@__crt_stdio_output@@@2@@__crt_stdio_output@@AAEHHD@Z 10035292 f i libucrt:output.obj
 0001:000342a8       ?type_case_s_compute_narrow_string_length@?$output_processor@_WV?$stream_output_adapter@_W@__crt_stdio_output@@V?$format_validation_base@_WV?$stream_output_adapter@_W@__crt_stdio_output@@@2@@__crt_stdio_output@@AAEHH_W@Z 100352a8 f i libucrt:output.obj
 0001:000342fd       ?type_case_s_compute_narrow_string_length@?$output_processor@_WV?$stream_output_adapter@_W@__crt_stdio_output@@V?$positional_parameter_base@_WV?$stream_output_adapter@_W@__crt_stdio_output@@@2@@__crt_stdio_output@@AAEHH_W@Z 100352fd f i libucrt:output.obj
 0001:00034352       ?type_case_s_compute_narrow_string_length@?$output_processor@_WV?$stream_output_adapter@_W@__crt_stdio_output@@V?$standard_base@_WV?$stream_output_adapter@_W@__crt_stdio_output@@@2@@__crt_stdio_output@@AAEHH_W@Z 10035352 f i libucrt:output.obj
 0001:000343a7       ?type_case_s_compute_narrow_string_length@?$output_processor@_WV?$string_output_adapter@_W@__crt_stdio_output@@V?$format_validation_base@_WV?$string_output_adapter@_W@__crt_stdio_output@@@2@@__crt_stdio_output@@AAEHH_W@Z 100353a7 f i libucrt:output.obj
 0001:000343fc       ?type_case_s_compute_narrow_string_length@?$output_processor@_WV?$string_output_adapter@_W@__crt_stdio_output@@V?$positional_parameter_base@_WV?$string_output_adapter@_W@__crt_stdio_output@@@2@@__crt_stdio_output@@AAEHH_W@Z 100353fc f i libucrt:output.obj
 0001:00034451       ?type_case_s_compute_narrow_string_length@?$output_processor@_WV?$string_output_adapter@_W@__crt_stdio_output@@V?$standard_base@_WV?$string_output_adapter@_W@__crt_stdio_output@@@2@@__crt_stdio_output@@AAEHH_W@Z 10035451 f i libucrt:output.obj
 0001:000344a6       ?type_case_u@?$output_processor@DV?$stream_output_adapter@D@__crt_stdio_output@@V?$format_validation_base@DV?$stream_output_adapter@D@__crt_stdio_output@@@2@@__crt_stdio_output@@AAE_NXZ 100354a6 f i libucrt:output.obj
 0001:000344ae       ?type_case_u@?$output_processor@DV?$stream_output_adapter@D@__crt_stdio_output@@V?$positional_parameter_base@DV?$stream_output_adapter@D@__crt_stdio_output@@@2@@__crt_stdio_output@@AAE_NXZ 100354ae f i libucrt:output.obj
 0001:000344b6       ?type_case_u@?$output_processor@DV?$stream_output_adapter@D@__crt_stdio_output@@V?$standard_base@DV?$stream_output_adapter@D@__crt_stdio_output@@@2@@__crt_stdio_output@@AAE_NXZ 100354b6 f i libucrt:output.obj
 0001:000344be       ?type_case_u@?$output_processor@DV?$string_output_adapter@D@__crt_stdio_output@@V?$format_validation_base@DV?$string_output_adapter@D@__crt_stdio_output@@@2@@__crt_stdio_output@@AAE_NXZ 100354be f i libucrt:output.obj
 0001:000344c6       ?type_case_u@?$output_processor@DV?$string_output_adapter@D@__crt_stdio_output@@V?$positional_parameter_base@DV?$string_output_adapter@D@__crt_stdio_output@@@2@@__crt_stdio_output@@AAE_NXZ 100354c6 f i libucrt:output.obj
 0001:000344ce       ?type_case_u@?$output_processor@DV?$string_output_adapter@D@__crt_stdio_output@@V?$standard_base@DV?$string_output_adapter@D@__crt_stdio_output@@@2@@__crt_stdio_output@@AAE_NXZ 100354ce f i libucrt:output.obj
 0001:000344d6       ?type_case_u@?$output_processor@_WV?$stream_output_adapter@_W@__crt_stdio_output@@V?$format_validation_base@_WV?$stream_output_adapter@_W@__crt_stdio_output@@@2@@__crt_stdio_output@@AAE_NXZ 100354d6 f i libucrt:output.obj
 0001:000344de       ?type_case_u@?$output_processor@_WV?$stream_output_adapter@_W@__crt_stdio_output@@V?$positional_parameter_base@_WV?$stream_output_adapter@_W@__crt_stdio_output@@@2@@__crt_stdio_output@@AAE_NXZ 100354de f i libucrt:output.obj
 0001:000344e6       ?type_case_u@?$output_processor@_WV?$stream_output_adapter@_W@__crt_stdio_output@@V?$standard_base@_WV?$stream_output_adapter@_W@__crt_stdio_output@@@2@@__crt_stdio_output@@AAE_NXZ 100354e6 f i libucrt:output.obj
 0001:000344ee       ?type_case_u@?$output_processor@_WV?$string_output_adapter@_W@__crt_stdio_output@@V?$format_validation_base@_WV?$string_output_adapter@_W@__crt_stdio_output@@@2@@__crt_stdio_output@@AAE_NXZ 100354ee f i libucrt:output.obj
 0001:000344f6       ?type_case_u@?$output_processor@_WV?$string_output_adapter@_W@__crt_stdio_output@@V?$positional_parameter_base@_WV?$string_output_adapter@_W@__crt_stdio_output@@@2@@__crt_stdio_output@@AAE_NXZ 100354f6 f i libucrt:output.obj
 0001:000344fe       ?type_case_u@?$output_processor@_WV?$string_output_adapter@_W@__crt_stdio_output@@V?$standard_base@_WV?$string_output_adapter@_W@__crt_stdio_output@@@2@@__crt_stdio_output@@AAE_NXZ 100354fe f i libucrt:output.obj
 0001:00034506       ?type_case_x@?$output_processor@DV?$stream_output_adapter@D@__crt_stdio_output@@V?$format_validation_base@DV?$stream_output_adapter@D@__crt_stdio_output@@@2@@__crt_stdio_output@@AAE_NXZ 10035506 f i libucrt:output.obj
 0001:0003450e       ?type_case_x@?$output_processor@DV?$stream_output_adapter@D@__crt_stdio_output@@V?$positional_parameter_base@DV?$stream_output_adapter@D@__crt_stdio_output@@@2@@__crt_stdio_output@@AAE_NXZ 1003550e f i libucrt:output.obj
 0001:00034516       ?type_case_x@?$output_processor@DV?$stream_output_adapter@D@__crt_stdio_output@@V?$standard_base@DV?$stream_output_adapter@D@__crt_stdio_output@@@2@@__crt_stdio_output@@AAE_NXZ 10035516 f i libucrt:output.obj
 0001:0003451e       ?type_case_x@?$output_processor@DV?$string_output_adapter@D@__crt_stdio_output@@V?$format_validation_base@DV?$string_output_adapter@D@__crt_stdio_output@@@2@@__crt_stdio_output@@AAE_NXZ 1003551e f i libucrt:output.obj
 0001:00034526       ?type_case_x@?$output_processor@DV?$string_output_adapter@D@__crt_stdio_output@@V?$positional_parameter_base@DV?$string_output_adapter@D@__crt_stdio_output@@@2@@__crt_stdio_output@@AAE_NXZ 10035526 f i libucrt:output.obj
 0001:0003452e       ?type_case_x@?$output_processor@DV?$string_output_adapter@D@__crt_stdio_output@@V?$standard_base@DV?$string_output_adapter@D@__crt_stdio_output@@@2@@__crt_stdio_output@@AAE_NXZ 1003552e f i libucrt:output.obj
 0001:00034536       ?type_case_x@?$output_processor@_WV?$stream_output_adapter@_W@__crt_stdio_output@@V?$format_validation_base@_WV?$stream_output_adapter@_W@__crt_stdio_output@@@2@@__crt_stdio_output@@AAE_NXZ 10035536 f i libucrt:output.obj
 0001:0003453e       ?type_case_x@?$output_processor@_WV?$stream_output_adapter@_W@__crt_stdio_output@@V?$positional_parameter_base@_WV?$stream_output_adapter@_W@__crt_stdio_output@@@2@@__crt_stdio_output@@AAE_NXZ 1003553e f i libucrt:output.obj
 0001:00034546       ?type_case_x@?$output_processor@_WV?$stream_output_adapter@_W@__crt_stdio_output@@V?$standard_base@_WV?$stream_output_adapter@_W@__crt_stdio_output@@@2@@__crt_stdio_output@@AAE_NXZ 10035546 f i libucrt:output.obj
 0001:0003454e       ?type_case_x@?$output_processor@_WV?$string_output_adapter@_W@__crt_stdio_output@@V?$format_validation_base@_WV?$string_output_adapter@_W@__crt_stdio_output@@@2@@__crt_stdio_output@@AAE_NXZ 1003554e f i libucrt:output.obj
 0001:00034556       ?type_case_x@?$output_processor@_WV?$string_output_adapter@_W@__crt_stdio_output@@V?$positional_parameter_base@_WV?$string_output_adapter@_W@__crt_stdio_output@@@2@@__crt_stdio_output@@AAE_NXZ 10035556 f i libucrt:output.obj
 0001:0003455e       ?type_case_x@?$output_processor@_WV?$string_output_adapter@_W@__crt_stdio_output@@V?$standard_base@_WV?$string_output_adapter@_W@__crt_stdio_output@@@2@@__crt_stdio_output@@AAE_NXZ 1003555e f i libucrt:output.obj
 0001:00034566       ?unget@?$c_string_character_source@D@__crt_strtox@@QAEXD@Z 10035566 f i libucrt:output.obj
 0001:0003458f       ?unget@?$c_string_character_source@_W@__crt_strtox@@QAEX_W@Z 1003558f f i libucrt:output.obj
 0001:000345bd       ?unset_flag@?$output_processor@DV?$stream_output_adapter@D@__crt_stdio_output@@V?$format_validation_base@DV?$stream_output_adapter@D@__crt_stdio_output@@@2@@__crt_stdio_output@@AAEXI@Z 100355bd f i libucrt:output.obj
 0001:000345ce       ?unset_flag@?$output_processor@DV?$stream_output_adapter@D@__crt_stdio_output@@V?$positional_parameter_base@DV?$stream_output_adapter@D@__crt_stdio_output@@@2@@__crt_stdio_output@@AAEXI@Z 100355ce f i libucrt:output.obj
 0001:000345df       ?unset_flag@?$output_processor@DV?$stream_output_adapter@D@__crt_stdio_output@@V?$standard_base@DV?$stream_output_adapter@D@__crt_stdio_output@@@2@@__crt_stdio_output@@AAEXI@Z 100355df f i libucrt:output.obj
 0001:000345f0       ?unset_flag@?$output_processor@DV?$string_output_adapter@D@__crt_stdio_output@@V?$format_validation_base@DV?$string_output_adapter@D@__crt_stdio_output@@@2@@__crt_stdio_output@@AAEXI@Z 100355f0 f i libucrt:output.obj
 0001:00034601       ?unset_flag@?$output_processor@DV?$string_output_adapter@D@__crt_stdio_output@@V?$positional_parameter_base@DV?$string_output_adapter@D@__crt_stdio_output@@@2@@__crt_stdio_output@@AAEXI@Z 10035601 f i libucrt:output.obj
 0001:00034612       ?unset_flag@?$output_processor@DV?$string_output_adapter@D@__crt_stdio_output@@V?$standard_base@DV?$string_output_adapter@D@__crt_stdio_output@@@2@@__crt_stdio_output@@AAEXI@Z 10035612 f i libucrt:output.obj
 0001:00034623       ?unset_flag@?$output_processor@_WV?$stream_output_adapter@_W@__crt_stdio_output@@V?$format_validation_base@_WV?$stream_output_adapter@_W@__crt_stdio_output@@@2@@__crt_stdio_output@@AAEXI@Z 10035623 f i libucrt:output.obj
 0001:00034634       ?unset_flag@?$output_processor@_WV?$stream_output_adapter@_W@__crt_stdio_output@@V?$positional_parameter_base@_WV?$stream_output_adapter@_W@__crt_stdio_output@@@2@@__crt_stdio_output@@AAEXI@Z 10035634 f i libucrt:output.obj
 0001:00034645       ?unset_flag@?$output_processor@_WV?$stream_output_adapter@_W@__crt_stdio_output@@V?$standard_base@_WV?$stream_output_adapter@_W@__crt_stdio_output@@@2@@__crt_stdio_output@@AAEXI@Z 10035645 f i libucrt:output.obj
 0001:00034656       ?unset_flag@?$output_processor@_WV?$string_output_adapter@_W@__crt_stdio_output@@V?$format_validation_base@_WV?$string_output_adapter@_W@__crt_stdio_output@@@2@@__crt_stdio_output@@AAEXI@Z 10035656 f i libucrt:output.obj
 0001:00034667       ?unset_flag@?$output_processor@_WV?$string_output_adapter@_W@__crt_stdio_output@@V?$positional_parameter_base@_WV?$string_output_adapter@_W@__crt_stdio_output@@@2@@__crt_stdio_output@@AAEXI@Z 10035667 f i libucrt:output.obj
 0001:00034678       ?unset_flag@?$output_processor@_WV?$string_output_adapter@_W@__crt_stdio_output@@V?$standard_base@_WV?$string_output_adapter@_W@__crt_stdio_output@@@2@@__crt_stdio_output@@AAEXI@Z 10035678 f i libucrt:output.obj
 0001:00034689       ?update_field_width@?$positional_parameter_base@DV?$stream_output_adapter@D@__crt_stdio_output@@@__crt_stdio_output@@IAE_NXZ 10035689 f i libucrt:output.obj
 0001:0003475e       ?update_field_width@?$positional_parameter_base@DV?$string_output_adapter@D@__crt_stdio_output@@@__crt_stdio_output@@IAE_NXZ 1003575e f i libucrt:output.obj
 0001:00034833       ?update_field_width@?$positional_parameter_base@_WV?$stream_output_adapter@_W@__crt_stdio_output@@@__crt_stdio_output@@IAE_NXZ 10035833 f i libucrt:output.obj
 0001:00034909       ?update_field_width@?$positional_parameter_base@_WV?$string_output_adapter@_W@__crt_stdio_output@@@__crt_stdio_output@@IAE_NXZ 10035909 f i libucrt:output.obj
 0001:000349df       ?update_field_width@?$standard_base@DV?$stream_output_adapter@D@__crt_stdio_output@@@__crt_stdio_output@@IAE_NXZ 100359df f i libucrt:output.obj
 0001:000349f0       ?update_field_width@?$standard_base@DV?$string_output_adapter@D@__crt_stdio_output@@@__crt_stdio_output@@IAE_NXZ 100359f0 f i libucrt:output.obj
 0001:00034a01       ?update_field_width@?$standard_base@_WV?$stream_output_adapter@_W@__crt_stdio_output@@@__crt_stdio_output@@IAE_NXZ 10035a01 f i libucrt:output.obj
 0001:00034a12       ?update_field_width@?$standard_base@_WV?$string_output_adapter@_W@__crt_stdio_output@@@__crt_stdio_output@@IAE_NXZ 10035a12 f i libucrt:output.obj
 0001:00034a23       ?update_precision@?$positional_parameter_base@DV?$stream_output_adapter@D@__crt_stdio_output@@@__crt_stdio_output@@IAE_NXZ 10035a23 f i libucrt:output.obj
 0001:00034af8       ?update_precision@?$positional_parameter_base@DV?$string_output_adapter@D@__crt_stdio_output@@@__crt_stdio_output@@IAE_NXZ 10035af8 f i libucrt:output.obj
 0001:00034bcd       ?update_precision@?$positional_parameter_base@_WV?$stream_output_adapter@_W@__crt_stdio_output@@@__crt_stdio_output@@IAE_NXZ 10035bcd f i libucrt:output.obj
 0001:00034ca3       ?update_precision@?$positional_parameter_base@_WV?$string_output_adapter@_W@__crt_stdio_output@@@__crt_stdio_output@@IAE_NXZ 10035ca3 f i libucrt:output.obj
 0001:00034d79       ?update_precision@?$standard_base@DV?$stream_output_adapter@D@__crt_stdio_output@@@__crt_stdio_output@@IAE_NXZ 10035d79 f i libucrt:output.obj
 0001:00034d8a       ?update_precision@?$standard_base@DV?$string_output_adapter@D@__crt_stdio_output@@@__crt_stdio_output@@IAE_NXZ 10035d8a f i libucrt:output.obj
 0001:00034d9b       ?update_precision@?$standard_base@_WV?$stream_output_adapter@_W@__crt_stdio_output@@@__crt_stdio_output@@IAE_NXZ 10035d9b f i libucrt:output.obj
 0001:00034dac       ?update_precision@?$standard_base@_WV?$string_output_adapter@_W@__crt_stdio_output@@@__crt_stdio_output@@IAE_NXZ 10035dac f i libucrt:output.obj
 0001:00034dbd       ?valid@__crt_stdio_stream@@QBE_NXZ 10035dbd f i libucrt:output.obj
 0001:00034dc4       ?validate@?$c_string_character_source@D@__crt_strtox@@QBE_NXZ 10035dc4 f i libucrt:output.obj
 0001:00034ddf       ?validate@?$c_string_character_source@_W@__crt_strtox@@QBE_NXZ 10035ddf f i libucrt:output.obj
 0001:00034dfa       ?validate@?$stream_output_adapter@D@__crt_stdio_output@@QBE_NAAV__crt_cached_ptd_host@@@Z 10035dfa f i libucrt:output.obj
 0001:00034e32       ?validate@?$stream_output_adapter@_W@__crt_stdio_output@@QBE_NAAV__crt_cached_ptd_host@@@Z 10035e32 f i libucrt:output.obj
 0001:00034e63       ?validate@?$string_output_adapter@D@__crt_stdio_output@@QBE_NAAV__crt_cached_ptd_host@@@Z 10035e63 f i libucrt:output.obj
 0001:00034e94       ?validate@?$string_output_adapter@_W@__crt_stdio_output@@QBE_NAAV__crt_cached_ptd_host@@@Z 10035e94 f i libucrt:output.obj
 0001:00034ec5       ?validate_and_store_parameter_data@?$positional_parameter_base@DV?$stream_output_adapter@D@__crt_stdio_output@@@__crt_stdio_output@@AAE_NAAUparameter_data@12@W4parameter_type@12@DW4length_modifier@2@@Z 10035ec5 f i libucrt:output.obj
 0001:00034f27       ?validate_and_store_parameter_data@?$positional_parameter_base@DV?$string_output_adapter@D@__crt_stdio_output@@@__crt_stdio_output@@AAE_NAAUparameter_data@12@W4parameter_type@12@DW4length_modifier@2@@Z 10035f27 f i libucrt:output.obj
 0001:00034f89       ?validate_and_store_parameter_data@?$positional_parameter_base@_WV?$stream_output_adapter@_W@__crt_stdio_output@@@__crt_stdio_output@@AAE_NAAUparameter_data@12@W4parameter_type@12@_WW4length_modifier@2@@Z 10035f89 f i libucrt:output.obj
 0001:00034fed       ?validate_and_store_parameter_data@?$positional_parameter_base@_WV?$string_output_adapter@_W@__crt_stdio_output@@@__crt_stdio_output@@AAE_NAAUparameter_data@12@W4parameter_type@12@_WW4length_modifier@2@@Z 10035fed f i libucrt:output.obj
 0001:00035051       ?validate_and_update_state_at_beginning_of_format_character@?$positional_parameter_base@DV?$stream_output_adapter@D@__crt_stdio_output@@@__crt_stdio_output@@IAE_NXZ 10036051 f i libucrt:output.obj
 0001:00035168       ?validate_and_update_state_at_beginning_of_format_character@?$positional_parameter_base@DV?$string_output_adapter@D@__crt_stdio_output@@@__crt_stdio_output@@IAE_NXZ 10036168 f i libucrt:output.obj
 0001:0003527f       ?validate_and_update_state_at_beginning_of_format_character@?$positional_parameter_base@_WV?$stream_output_adapter@_W@__crt_stdio_output@@@__crt_stdio_output@@IAE_NXZ 1003627f f i libucrt:output.obj
 0001:000353a3       ?validate_and_update_state_at_beginning_of_format_character@?$positional_parameter_base@_WV?$string_output_adapter@_W@__crt_stdio_output@@@__crt_stdio_output@@IAE_NXZ 100363a3 f i libucrt:output.obj
 0001:000354c7       ?validate_and_update_state_at_beginning_of_format_character@?$standard_base@DV?$stream_output_adapter@D@__crt_stdio_output@@@__crt_stdio_output@@IAE_NXZ 100364c7 f i libucrt:output.obj
 0001:000354ca       ?validate_and_update_state_at_beginning_of_format_character@?$standard_base@DV?$string_output_adapter@D@__crt_stdio_output@@@__crt_stdio_output@@IAE_NXZ 100364ca f i libucrt:output.obj
 0001:000354cd       ?validate_and_update_state_at_beginning_of_format_character@?$standard_base@_WV?$stream_output_adapter@_W@__crt_stdio_output@@@__crt_stdio_output@@IAE_NXZ 100364cd f i libucrt:output.obj
 0001:000354d0       ?validate_and_update_state_at_beginning_of_format_character@?$standard_base@_WV?$string_output_adapter@_W@__crt_stdio_output@@@__crt_stdio_output@@IAE_NXZ 100364d0 f i libucrt:output.obj
 0001:000354d3       ?validate_and_update_state_at_end_of_format_string@?$format_validation_base@DV?$stream_output_adapter@D@__crt_stdio_output@@@__crt_stdio_output@@IAE_NXZ 100364d3 f i libucrt:output.obj
 0001:00035504       ?validate_and_update_state_at_end_of_format_string@?$format_validation_base@DV?$string_output_adapter@D@__crt_stdio_output@@@__crt_stdio_output@@IAE_NXZ 10036504 f i libucrt:output.obj
 0001:00035535       ?validate_and_update_state_at_end_of_format_string@?$format_validation_base@_WV?$stream_output_adapter@_W@__crt_stdio_output@@@__crt_stdio_output@@IAE_NXZ 10036535 f i libucrt:output.obj
 0001:00035566       ?validate_and_update_state_at_end_of_format_string@?$format_validation_base@_WV?$string_output_adapter@_W@__crt_stdio_output@@@__crt_stdio_output@@IAE_NXZ 10036566 f i libucrt:output.obj
 0001:00035597       ?validate_and_update_state_at_end_of_format_string@?$positional_parameter_base@DV?$stream_output_adapter@D@__crt_stdio_output@@@__crt_stdio_output@@IAE_NXZ 10036597 f i libucrt:output.obj
 0001:00035651       ?validate_and_update_state_at_end_of_format_string@?$positional_parameter_base@DV?$string_output_adapter@D@__crt_stdio_output@@@__crt_stdio_output@@IAE_NXZ 10036651 f i libucrt:output.obj
 0001:0003570b       ?validate_and_update_state_at_end_of_format_string@?$positional_parameter_base@_WV?$stream_output_adapter@_W@__crt_stdio_output@@@__crt_stdio_output@@IAE_NXZ 1003670b f i libucrt:output.obj
 0001:000357c5       ?validate_and_update_state_at_end_of_format_string@?$positional_parameter_base@_WV?$string_output_adapter@_W@__crt_stdio_output@@@__crt_stdio_output@@IAE_NXZ 100367c5 f i libucrt:output.obj
 0001:0003587f       ?validate_and_update_state_at_end_of_format_string@?$standard_base@DV?$stream_output_adapter@D@__crt_stdio_output@@@__crt_stdio_output@@IBE_NXZ 1003687f f i libucrt:output.obj
 0001:00035882       ?validate_and_update_state_at_end_of_format_string@?$standard_base@DV?$string_output_adapter@D@__crt_stdio_output@@@__crt_stdio_output@@IBE_NXZ 10036882 f i libucrt:output.obj
 0001:00035885       ?validate_and_update_state_at_end_of_format_string@?$standard_base@_WV?$stream_output_adapter@_W@__crt_stdio_output@@@__crt_stdio_output@@IBE_NXZ 10036885 f i libucrt:output.obj
 0001:00035888       ?validate_and_update_state_at_end_of_format_string@?$standard_base@_WV?$string_output_adapter@_W@__crt_stdio_output@@@__crt_stdio_output@@IBE_NXZ 10036888 f i libucrt:output.obj
 0001:0003588b       ?validate_state_for_type_case_a@?$positional_parameter_base@DV?$stream_output_adapter@D@__crt_stdio_output@@@__crt_stdio_output@@IAE_NXZ 1003688b f i libucrt:output.obj
 0001:000358ea       ?validate_state_for_type_case_a@?$positional_parameter_base@DV?$string_output_adapter@D@__crt_stdio_output@@@__crt_stdio_output@@IAE_NXZ 100368ea f i libucrt:output.obj
 0001:00035949       ?validate_state_for_type_case_a@?$positional_parameter_base@_WV?$stream_output_adapter@_W@__crt_stdio_output@@@__crt_stdio_output@@IAE_NXZ 10036949 f i libucrt:output.obj
 0001:000359a8       ?validate_state_for_type_case_a@?$positional_parameter_base@_WV?$string_output_adapter@_W@__crt_stdio_output@@@__crt_stdio_output@@IAE_NXZ 100369a8 f i libucrt:output.obj
 0001:00035a07       ?validate_state_for_type_case_a@?$standard_base@DV?$stream_output_adapter@D@__crt_stdio_output@@@__crt_stdio_output@@IBE_NXZ 10036a07 f i libucrt:output.obj
 0001:00035a0a       ?validate_state_for_type_case_a@?$standard_base@DV?$string_output_adapter@D@__crt_stdio_output@@@__crt_stdio_output@@IBE_NXZ 10036a0a f i libucrt:output.obj
 0001:00035a0d       ?validate_state_for_type_case_a@?$standard_base@_WV?$stream_output_adapter@_W@__crt_stdio_output@@@__crt_stdio_output@@IBE_NXZ 10036a0d f i libucrt:output.obj
 0001:00035a10       ?validate_state_for_type_case_a@?$standard_base@_WV?$string_output_adapter@_W@__crt_stdio_output@@@__crt_stdio_output@@IBE_NXZ 10036a10 f i libucrt:output.obj
 0001:00035a13       ?validate_stream_is_ansi_if_required@?$__acrt_stdio_char_traits@D@@SA_NQAU_iobuf@@@Z 10036a13 f i libucrt:output.obj
 0001:00035a9a       ?validate_stream_is_ansi_if_required@?$__acrt_stdio_char_traits@_W@@SA_NQAU_iobuf@@@Z 10036a9a f i libucrt:output.obj
 0001:00035a9d       ?wide_character_to_digit@__crt_strtox@@YAH_W@Z 10036a9d f i libucrt:output.obj
 0001:00035c3e       ?wide_null_string@?$output_processor@DV?$stream_output_adapter@D@__crt_stdio_output@@V?$format_validation_base@DV?$stream_output_adapter@D@__crt_stdio_output@@@2@@__crt_stdio_output@@CAPA_WXZ 10036c3e f i libucrt:output.obj
 0001:00035c44       ?wide_null_string@?$output_processor@DV?$stream_output_adapter@D@__crt_stdio_output@@V?$positional_parameter_base@DV?$stream_output_adapter@D@__crt_stdio_output@@@2@@__crt_stdio_output@@CAPA_WXZ 10036c44 f i libucrt:output.obj
 0001:00035c4a       ?wide_null_string@?$output_processor@DV?$stream_output_adapter@D@__crt_stdio_output@@V?$standard_base@DV?$stream_output_adapter@D@__crt_stdio_output@@@2@@__crt_stdio_output@@CAPA_WXZ 10036c4a f i libucrt:output.obj
 0001:00035c50       ?wide_null_string@?$output_processor@DV?$string_output_adapter@D@__crt_stdio_output@@V?$format_validation_base@DV?$string_output_adapter@D@__crt_stdio_output@@@2@@__crt_stdio_output@@CAPA_WXZ 10036c50 f i libucrt:output.obj
 0001:00035c56       ?wide_null_string@?$output_processor@DV?$string_output_adapter@D@__crt_stdio_output@@V?$positional_parameter_base@DV?$string_output_adapter@D@__crt_stdio_output@@@2@@__crt_stdio_output@@CAPA_WXZ 10036c56 f i libucrt:output.obj
 0001:00035c5c       ?wide_null_string@?$output_processor@DV?$string_output_adapter@D@__crt_stdio_output@@V?$standard_base@DV?$string_output_adapter@D@__crt_stdio_output@@@2@@__crt_stdio_output@@CAPA_WXZ 10036c5c f i libucrt:output.obj
 0001:00035c62       ?wide_null_string@?$output_processor@_WV?$stream_output_adapter@_W@__crt_stdio_output@@V?$format_validation_base@_WV?$stream_output_adapter@_W@__crt_stdio_output@@@2@@__crt_stdio_output@@CAPA_WXZ 10036c62 f i libucrt:output.obj
 0001:00035c68       ?wide_null_string@?$output_processor@_WV?$stream_output_adapter@_W@__crt_stdio_output@@V?$positional_parameter_base@_WV?$stream_output_adapter@_W@__crt_stdio_output@@@2@@__crt_stdio_output@@CAPA_WXZ 10036c68 f i libucrt:output.obj
 0001:00035c6e       ?wide_null_string@?$output_processor@_WV?$stream_output_adapter@_W@__crt_stdio_output@@V?$standard_base@_WV?$stream_output_adapter@_W@__crt_stdio_output@@@2@@__crt_stdio_output@@CAPA_WXZ 10036c6e f i libucrt:output.obj
 0001:00035c74       ?wide_null_string@?$output_processor@_WV?$string_output_adapter@_W@__crt_stdio_output@@V?$format_validation_base@_WV?$string_output_adapter@_W@__crt_stdio_output@@@2@@__crt_stdio_output@@CAPA_WXZ 10036c74 f i libucrt:output.obj
 0001:00035c7a       ?wide_null_string@?$output_processor@_WV?$string_output_adapter@_W@__crt_stdio_output@@V?$positional_parameter_base@_WV?$string_output_adapter@_W@__crt_stdio_output@@@2@@__crt_stdio_output@@CAPA_WXZ 10036c7a f i libucrt:output.obj
 0001:00035c80       ?wide_null_string@?$output_processor@_WV?$string_output_adapter@_W@__crt_stdio_output@@V?$standard_base@_WV?$string_output_adapter@_W@__crt_stdio_output@@@2@@__crt_stdio_output@@CAPA_WXZ 10036c80 f i libucrt:output.obj
 0001:00035c86       ?write_character@?$output_adapter_common@DV?$stream_output_adapter@D@__crt_stdio_output@@@__crt_stdio_output@@QBEXDQAHAAV__crt_cached_ptd_host@@@Z 10036c86 f i libucrt:output.obj
 0001:00035ca8       ?write_character@?$output_adapter_common@_WV?$stream_output_adapter@_W@__crt_stdio_output@@@__crt_stdio_output@@QBEX_WQAHAAV__crt_cached_ptd_host@@@Z 10036ca8 f i libucrt:output.obj
 0001:00035cca       ?write_character@?$string_output_adapter@D@__crt_stdio_output@@QBE_NDQAHAAV__crt_cached_ptd_host@@@Z 10036cca f i libucrt:output.obj
 0001:00035d0c       ?write_character@?$string_output_adapter@_W@__crt_stdio_output@@QBE_N_WQAHAAV__crt_cached_ptd_host@@@Z 10036d0c f i libucrt:output.obj
 0001:00035d51       ?write_character_without_count_update@?$stream_output_adapter@D@__crt_stdio_output@@QBE_NDAAV__crt_cached_ptd_host@@@Z 10036d51 f i libucrt:output.obj
 0001:00035d8b       ?write_character_without_count_update@?$stream_output_adapter@_W@__crt_stdio_output@@QBE_N_WAAV__crt_cached_ptd_host@@@Z 10036d8b f i libucrt:output.obj
 0001:00035dc8       ?write_stored_string_tchar@?$output_processor@DV?$stream_output_adapter@D@__crt_stdio_output@@V?$format_validation_base@DV?$stream_output_adapter@D@__crt_stdio_output@@@2@@__crt_stdio_output@@AAE_ND@Z 10036dc8 f i libucrt:output.obj
 0001:00035e73       ?write_stored_string_tchar@?$output_processor@DV?$stream_output_adapter@D@__crt_stdio_output@@V?$positional_parameter_base@DV?$stream_output_adapter@D@__crt_stdio_output@@@2@@__crt_stdio_output@@AAE_ND@Z 10036e73 f i libucrt:output.obj
 0001:00035f1e       ?write_stored_string_tchar@?$output_processor@DV?$stream_output_adapter@D@__crt_stdio_output@@V?$standard_base@DV?$stream_output_adapter@D@__crt_stdio_output@@@2@@__crt_stdio_output@@AAE_ND@Z 10036f1e f i libucrt:output.obj
 0001:00035fc9       ?write_stored_string_tchar@?$output_processor@DV?$string_output_adapter@D@__crt_stdio_output@@V?$format_validation_base@DV?$string_output_adapter@D@__crt_stdio_output@@@2@@__crt_stdio_output@@AAE_ND@Z 10036fc9 f i libucrt:output.obj
 0001:00036074       ?write_stored_string_tchar@?$output_processor@DV?$string_output_adapter@D@__crt_stdio_output@@V?$positional_parameter_base@DV?$string_output_adapter@D@__crt_stdio_output@@@2@@__crt_stdio_output@@AAE_ND@Z 10037074 f i libucrt:output.obj
 0001:0003611f       ?write_stored_string_tchar@?$output_processor@DV?$string_output_adapter@D@__crt_stdio_output@@V?$standard_base@DV?$string_output_adapter@D@__crt_stdio_output@@@2@@__crt_stdio_output@@AAE_ND@Z 1003711f f i libucrt:output.obj
 0001:000361ca       ?write_stored_string_tchar@?$output_processor@_WV?$stream_output_adapter@_W@__crt_stdio_output@@V?$format_validation_base@_WV?$stream_output_adapter@_W@__crt_stdio_output@@@2@@__crt_stdio_output@@AAE_N_W@Z 100371ca f i libucrt:output.obj
 0001:00036277       ?write_stored_string_tchar@?$output_processor@_WV?$stream_output_adapter@_W@__crt_stdio_output@@V?$positional_parameter_base@_WV?$stream_output_adapter@_W@__crt_stdio_output@@@2@@__crt_stdio_output@@AAE_N_W@Z 10037277 f i libucrt:output.obj
 0001:00036324       ?write_stored_string_tchar@?$output_processor@_WV?$stream_output_adapter@_W@__crt_stdio_output@@V?$standard_base@_WV?$stream_output_adapter@_W@__crt_stdio_output@@@2@@__crt_stdio_output@@AAE_N_W@Z 10037324 f i libucrt:output.obj
 0001:000363d1       ?write_stored_string_tchar@?$output_processor@_WV?$string_output_adapter@_W@__crt_stdio_output@@V?$format_validation_base@_WV?$string_output_adapter@_W@__crt_stdio_output@@@2@@__crt_stdio_output@@AAE_N_W@Z 100373d1 f i libucrt:output.obj
 0001:000364ae       ?write_stored_string_tchar@?$output_processor@_WV?$string_output_adapter@_W@__crt_stdio_output@@V?$positional_parameter_base@_WV?$string_output_adapter@_W@__crt_stdio_output@@@2@@__crt_stdio_output@@AAE_N_W@Z 100374ae f i libucrt:output.obj
 0001:0003658b       ?write_stored_string_tchar@?$output_processor@_WV?$string_output_adapter@_W@__crt_stdio_output@@V?$standard_base@_WV?$string_output_adapter@_W@__crt_stdio_output@@@2@@__crt_stdio_output@@AAE_N_W@Z 1003758b f i libucrt:output.obj
 0001:00036668       ?write_string@?$stream_output_adapter@D@__crt_stdio_output@@QBEXQBDHQAHAAV__crt_cached_ptd_host@@@Z 10037668 f i libucrt:output.obj
 0001:00036694       ?write_string@?$stream_output_adapter@_W@__crt_stdio_output@@QBEXQB_WHQAHAAV__crt_cached_ptd_host@@@Z 10037694 f i libucrt:output.obj
 0001:000366c0       ?write_string@?$string_output_adapter@D@__crt_stdio_output@@QBEXQBDHQAHAAV__crt_cached_ptd_host@@@Z 100376c0 f i libucrt:output.obj
 0001:00036727       ?write_string@?$string_output_adapter@_W@__crt_stdio_output@@QBEXQB_WHQAHAAV__crt_cached_ptd_host@@@Z 10037727 f i libucrt:output.obj
 0001:00036798       ?write_string_impl@?$output_adapter_common@DV?$stream_output_adapter@D@__crt_stdio_output@@@__crt_stdio_output@@IBEXQBDHQAHAAV__crt_cached_ptd_host@@@Z 10037798 f i libucrt:output.obj
 0001:00036817       ?write_string_impl@?$output_adapter_common@_WV?$stream_output_adapter@_W@__crt_stdio_output@@@__crt_stdio_output@@IBEXQB_WHQAHAAV__crt_cached_ptd_host@@@Z 10037817 f i libucrt:output.obj
 0001:00036899       ___acrt_isleadbyte_l_noupdate 10037899 f i libucrt:output.obj
 0001:000368b7       ___acrt_locale_get_ctype_array_value 100378b7 f i libucrt:output.obj
 0001:000368d9       ___ascii_iswalpha          100378d9 f i libucrt:output.obj
 0001:000368fc       ___ascii_toupper           100378fc f i libucrt:output.obj
 0001:00036913       ___ascii_towupper          10037913 f i libucrt:output.obj
 0001:0003692a       ___stdio_common_vfprintf   1003792a f   libucrt:output.obj
 0001:000369ce       ___stdio_common_vfprintf_p 100379ce f   libucrt:output.obj
 0001:00036a72       ___stdio_common_vfprintf_s 10037a72 f   libucrt:output.obj
 0001:00036b16       ___stdio_common_vfwprintf  10037b16 f   libucrt:output.obj
 0001:00036bba       ___stdio_common_vfwprintf_p 10037bba f   libucrt:output.obj
 0001:00036c5e       ___stdio_common_vfwprintf_s 10037c5e f   libucrt:output.obj
 0001:00036d02       ___stdio_common_vsnprintf_s 10037d02 f   libucrt:output.obj
 0001:00036d46       ___stdio_common_vsnwprintf_s 10037d46 f   libucrt:output.obj
 0001:00036d8a       ___stdio_common_vsprintf   10037d8a f   libucrt:output.obj
 0001:00036dcb       ___stdio_common_vsprintf_p 10037dcb f   libucrt:output.obj
 0001:00036e0c       ___stdio_common_vsprintf_s 10037e0c f   libucrt:output.obj
 0001:00036e4d       ___stdio_common_vswprintf  10037e4d f   libucrt:output.obj
 0001:00036e8e       ___stdio_common_vswprintf_p 10037e8e f   libucrt:output.obj
 0001:00036ecf       ___stdio_common_vswprintf_s 10037ecf f   libucrt:output.obj
 0001:00036f10       __ctype_fast_check_internal 10037f10 f i libucrt:output.obj
 0001:00036f2a       __isdigit_fast_internal    10037f2a f i libucrt:output.obj
 0001:00036f44       __tolower_fast_internal    10037f44 f i libucrt:output.obj
 0001:00036f5d       _free                      10037f5d f   libucrt:free.obj
 0001:00036f78       _malloc                    10037f78 f   libucrt:malloc.obj
 0001:000374c1       __read                     100384c1 f   libucrt:read.obj
 0001:000375da       __read_nolock              100385da f   libucrt:read.obj
 0001:00037965       __utf8_no_of_trailbytes    10038965 f i libucrt:read.obj
 0001:00037b23       __close                    10038b23 f   libucrt:close.obj
 0001:00037b53       __close_internal           10038b53 f   libucrt:close.obj
 0001:00037bf6       __close_nolock             10038bf6 f   libucrt:close.obj
 0001:00037c26       __close_nolock_internal    10038c26 f   libucrt:close.obj
 0001:00037cc6       ___acrt_errno_from_os_error 10038cc6 f   libucrt:errno.obj
 0001:00037d09       ___acrt_errno_map_os_error 10038d09 f   libucrt:errno.obj
 0001:00037d2c       ___acrt_errno_map_os_error_ptd 10038d2c f   libucrt:errno.obj
 0001:00037d50       ___doserrno                10038d50 f   libucrt:errno.obj
 0001:00037d63       __errno                    10038d63 f   libucrt:errno.obj
 0001:00037d76       __get_doserrno             10038d76 f   libucrt:errno.obj
 0001:00037d9b       __get_errno                10038d9b f   libucrt:errno.obj
 0001:00037dc0       __set_doserrno             10038dc0 f   libucrt:errno.obj
 0001:00037de1       __set_errno                10038de1 f   libucrt:errno.obj
 0001:00037e02       ??$?R_W@__crt_internal_free_policy@@QBEXQB_W@Z 10038e02 f i libucrt:strerror.obj
 0001:00037fca       ??0?$__crt_unique_heap_ptr@_WU__crt_internal_free_policy@@@@QAE@QA_W@Z 10038fca f i libucrt:strerror.obj
 0001:00037fda       ??1?$__crt_unique_heap_ptr@_WU__crt_internal_free_policy@@@@QAE@XZ 10038fda f i libucrt:strerror.obj
 0001:00038024       ?detach@?$__crt_unique_heap_ptr@DU__crt_internal_free_policy@@@@QAEPADXZ 10039024 f i libucrt:strerror.obj
 0001:0003802a       ?detach@?$__crt_unique_heap_ptr@_WU__crt_internal_free_policy@@@@QAEPA_WXZ 1003902a f i libucrt:strerror.obj
 0001:00038056       ?release@?$__crt_unique_heap_ptr@_WU__crt_internal_free_policy@@@@QAEXXZ 10039056 f i libucrt:strerror.obj
 0001:00038068       __get_sys_err_msg          10039068 f i libucrt:strerror.obj
 0001:000380c0       __invoke_watson_if_oneof   100390c0 f i libucrt:strerror.obj
 0001:000380ed       __wcserror                 100390ed f   libucrt:strerror.obj
 0001:000380f8       __wcserror_s               100390f8 f   libucrt:strerror.obj
 0001:00038164       _strerror                  10039164 f   libucrt:strerror.obj
 0001:0003816f       _strerror_s                1003916f f   libucrt:strerror.obj
 0001:000389c9       __isleadbyte_fast_internal 100399c9 f i libucrt:write.obj
 0001:000389e7       __write                    100399e7 f   libucrt:write.obj
 0001:00038a1e       __write_internal           10039a1e f   libucrt:write.obj
 0001:00038b2f       __write_nolock             10039b2f f   libucrt:write.obj
 0001:0003946b       ?ctrl_z@__crt_stdio_stream@@QBE_NXZ 1003a46b f i libucrt:ftell.obj
 0001:00039477       ?has_all_of@__crt_stdio_stream@@QBE_NJ@Z 1003a477 f i libucrt:ftell.obj
 0001:0003948f       ?has_any_of@__crt_stdio_stream@@QBE_NJ@Z 1003a48f f i libucrt:ftell.obj
 0001:000394a4       ?has_big_buffer@__crt_stdio_stream@@QBE_NXZ 1003a4a4 f i libucrt:ftell.obj
 0001:000394b0       ?has_crt_buffer@__crt_stdio_stream@@QBE_NXZ 1003a4b0 f i libucrt:ftell.obj
 0001:000394bc       ?has_setvbuf_buffer@__crt_stdio_stream@@QBE_NXZ 1003a4bc f i libucrt:ftell.obj
 0001:000394c8       __ftell_nolock             1003a4c8 f   libucrt:ftell.obj
 0001:000394f8       __ftelli64                 1003a4f8 f   libucrt:ftell.obj
 0001:0003952e       __ftelli64_nolock          1003a52e f   libucrt:ftell.obj
 0001:00039564       __ftelli64_nolock_internal 1003a564 f   libucrt:ftell.obj
 0001:0003956f       _ftell                     1003a56f f   libucrt:ftell.obj
 0001:0003959f       ?eof@__crt_stdio_stream@@QBE_NXZ 1003a59f f i libucrt:feoferr.obj
 0001:000395ab       ?error@__crt_stdio_stream@@QBE_NXZ 1003a5ab f i libucrt:feoferr.obj
 0001:000395b7       _feof                      1003a5b7 f   libucrt:feoferr.obj
 0001:000395e3       _ferror                    1003a5e3 f   libucrt:feoferr.obj
 0001:0003980a       ??$open_file@ABQBDABQBDABHPAU_iobuf@@@?$__crt_char_traits@D@@SAPAU_iobuf@@ABQBD0ABH$$QAPAU1@@Z 1003a80a f i libucrt:fopen.obj
 0001:0003982d       ??$open_file@ABQB_WABQB_WABHPAU_iobuf@@@?$__crt_char_traits@_W@@SAPAU_iobuf@@ABQB_W0ABH$$QAPAU1@@Z 1003a82d f i libucrt:fopen.obj
 0001:00039850       ?unlock@__crt_stdio_stream@@QBEXXZ 1003a850 f i libucrt:fopen.obj
 0001:00039859       __fsopen                   1003a859 f   libucrt:fopen.obj
 0001:00039864       __wfopen                   1003a864 f   libucrt:fopen.obj
 0001:0003987b       __wfopen_s                 1003a87b f   libucrt:fopen.obj
 0001:000398c2       __wfsopen                  1003a8c2 f   libucrt:fopen.obj
 0001:000398cd       _fopen                     1003a8cd f   libucrt:fopen.obj
 0001:000398e4       _fopen_s                   1003a8e4 f   libucrt:fopen.obj
 0001:00039a50       ?is_in_use@__crt_stdio_stream@@QBE_NXZ 1003aa50 f i libucrt:fclose.obj
 0001:00039a5c       __fclose_nolock            1003aa5c f   libucrt:fclose.obj
 0001:00039a8c       _fclose                    1003aa8c f   libucrt:fclose.obj
 0001:00039abc       ?LongLongSub@@YAJ_J0PA_J@Z 1003aabc f i libucrt:fseek.obj
 0001:00039b36       ?__acrt_stdio_reset_buffer@@YAXV__crt_stdio_stream@@@Z 1003ab36 f i libucrt:fseek.obj
 0001:00039dbb       ?has_any_buffer@__crt_stdio_stream@@QBE_NXZ 1003adbb f i libucrt:fseek.obj
 0001:00039dca       ?lowio_handle@__crt_stdio_stream@@QBEHXZ 1003adca f i libucrt:fseek.obj
 0001:00039dd1       ?unset_flags@__crt_stdio_stream@@QBE_NJ@Z 1003add1 f i libucrt:fseek.obj
 0001:00039dfa       __fseek_nolock             1003adfa f   libucrt:fseek.obj
 0001:00039e34       __fseeki64                 1003ae34 f   libucrt:fseek.obj
 0001:00039e6e       __fseeki64_nolock          1003ae6e f   libucrt:fseek.obj
 0001:00039ea8       _fseek                     1003aea8 f   libucrt:fseek.obj
 0001:0003a00d       ?set_flags@__crt_stdio_stream@@QBE_NJ@Z 1003b00d f i libucrt:fwrite.obj
 0001:0003a031       __fwrite_internal          1003b031 f   libucrt:fwrite.obj
 0001:0003a0a8       __fwrite_nolock            1003b0a8 f   libucrt:fwrite.obj
 0001:0003a0e2       __fwrite_nolock_internal   1003b0e2 f   libucrt:fwrite.obj
 0001:0003a289       _fwrite                    1003b289 f   libucrt:fwrite.obj
 0001:0003a2c3       __fread_nolock             1003b2c3 f   libucrt:fread.obj
 0001:0003a2e0       __fread_nolock_s           1003b2e0 f   libucrt:fread.obj
 0001:0003a4b9       _fread                     1003b4b9 f   libucrt:fread.obj
 0001:0003a4d6       _fread_s                   1003b4d6 f   libucrt:fread.obj
 0001:0003a5f4       _rand                      1003b5f4 f   libucrt:rand.obj
 0001:0003a615       _srand                     1003b615 f   libucrt:rand.obj
 0001:0003a936       __time32                   1003b936 f   libucrt:time.obj
 0001:0003a995       __time64                   1003b995 f   libucrt:time.obj
 0001:0003a9fd       __timespec32_get           1003b9fd f   libucrt:time.obj
 0001:0003aa08       __timespec64_get           1003ba08 f   libucrt:time.obj
 0001:0003aa13       __initterm                 1003ba13 f   libucrt:initterm.obj
 0001:0003aa3e       __initterm_e               1003ba3e f   libucrt:initterm.obj
 0001:0003aa90       __seh_filter_dll           1003ba90 f   libucrt:exception_filter.obj
 0001:0003aab0       __seh_filter_exe           1003bab0 f   libucrt:exception_filter.obj
 0001:0003abf6       ??$?B$$A6GXPAXK0@Z@__crt_fast_encoded_nullptr_t@@QBEP6GXPAXK0@ZXZ 1003bbf6 f i libucrt:exit.obj
 0001:0003ac9e       ??$__crt_fast_decode_pointer@P6GXPAXK0@Z@@YAP6GXPAXK0@ZQ6GX0K0@Z@Z 1003bc9e f i libucrt:exit.obj
 0001:0003acb9       ??$__crt_fast_encode_pointer@P6GXPAXK0@Z@@YAP6GXPAXK0@ZQ6GX0K0@Z@Z 1003bcb9 f i libucrt:exit.obj
 0001:0003acd8       ??$__crt_get_proc_address@P6GXI@Z@@YAP6GXI@ZQAUHINSTANCE__@@QBD@Z 1003bcd8 f i libucrt:exit.obj
 0001:0003ad2b       ??0?$__crt_unique_handle_t@U__crt_hmodule_traits@@@@QAE@QAUHINSTANCE__@@@Z 1003bd2b f i libucrt:exit.obj
 0001:0003ad3b       ??1?$__crt_unique_handle_t@U__crt_hmodule_traits@@@@QAE@XZ 1003bd3b f i libucrt:exit.obj
 0001:0003ae4c       ?__acrt_select_exit_lock@@YA?AW4__acrt_lock_id@@XZ 1003be4c f i libucrt:exit.obj
 0001:0003ae50       ?__crt_fast_encode_pointer@@YA?AU__crt_fast_encoded_nullptr_t@@$$T@Z 1003be50 f i libucrt:exit.obj
 0001:0003ae5b       ?__crt_rotate_pointer_value@@YAIIH@Z 1003be5b f i libucrt:exit.obj
 0001:0003ae7d       ?close@?$__crt_unique_handle_t@U__crt_hmodule_traits@@@@QAEXXZ 1003be7d f i libucrt:exit.obj
 0001:0003ae94       ?close@__crt_hmodule_traits@@SA_NPAUHINSTANCE__@@@Z 1003be94 f i libucrt:exit.obj
 0001:0003af71       ?get@?$__crt_unique_handle_t@U__crt_hmodule_traits@@@@QBEPAUHINSTANCE__@@XZ 1003bf71 f i libucrt:exit.obj
 0001:0003af74       ?get_address_of@?$__crt_unique_handle_t@U__crt_hmodule_traits@@@@QAEPAPAUHINSTANCE__@@XZ 1003bf74 f i libucrt:exit.obj
 0001:0003af77       ?get_invalid_value@__crt_hmodule_traits@@SAPAUHINSTANCE__@@XZ 1003bf77 f i libucrt:exit.obj
 0001:0003b057       __Exit                     1003c057 f   libucrt:exit.obj
 0001:0003b06d       ___acrt_initialize_thread_local_exit_callback 1003c06d f   libucrt:exit.obj
 0001:0003b07c       __c_exit                   1003c07c f   libucrt:exit.obj
 0001:0003b08b       __cexit                    1003c08b f   libucrt:exit.obj
 0001:0003b09a       __exit                     1003c09a f   libucrt:exit.obj
 0001:0003b0b0       __is_c_termination_complete 1003c0b0 f   libucrt:exit.obj
 0001:0003b0b7       __register_thread_local_exe_atexit_callback 1003c0b7 f   libucrt:exit.obj
 0001:0003b0dd       _exit                      1003c0dd f   libucrt:exit.obj
 0001:0003b0f3       _quick_exit                1003c0f3 f   libucrt:exit.obj
 0001:0003b109       ??$?RE@__crt_internal_free_policy@@QBEXQBE@Z 1003c109 f i libucrt:argv_parsing.obj
 0001:0003b11b       ??$?RPAD@__crt_internal_free_policy@@QBEXQBQAD@Z 1003c11b f i libucrt:argv_parsing.obj
 0001:0003b12d       ??$?RPA_W@__crt_internal_free_policy@@QBEXQBQA_W@Z 1003c12d f i libucrt:argv_parsing.obj
 0001:0003b3b2       ??$get_module_file_name@$$TAAY0BAF@DH@?$__crt_char_traits@D@@SAK$$QA$$TAAY0BAF@D$$QAH@Z 1003c3b2 f i libucrt:argv_parsing.obj
 0001:0003b3ce       ??$get_module_file_name@$$TAAY0BAF@_WH@?$__crt_char_traits@_W@@SAK$$QA$$TAAY0BAF@_W$$QAH@Z 1003c3ce f i libucrt:argv_parsing.obj
 0001:0003b6fd       ??$set_program_name@PAD@?$__crt_char_traits@D@@SAX$$QAPAD@Z 1003c6fd f i libucrt:argv_parsing.obj
 0001:0003b70e       ??$set_program_name@PA_W@?$__crt_char_traits@_W@@SAX$$QAPA_W@Z 1003c70e f i libucrt:argv_parsing.obj
 0001:0003b73f       ??0?$__crt_unique_heap_ptr@EU__crt_internal_free_policy@@@@QAE@QAE@Z 1003c73f f i libucrt:argv_parsing.obj
 0001:0003b74f       ??0?$__crt_unique_heap_ptr@PADU__crt_internal_free_policy@@@@QAE@QAPAD@Z 1003c74f f i libucrt:argv_parsing.obj
 0001:0003b75f       ??0?$__crt_unique_heap_ptr@PA_WU__crt_internal_free_policy@@@@QAE@QAPA_W@Z 1003c75f f i libucrt:argv_parsing.obj
 0001:0003b76f       ??1?$__crt_unique_heap_ptr@EU__crt_internal_free_policy@@@@QAE@XZ 1003c76f f i libucrt:argv_parsing.obj
 0001:0003b781       ??1?$__crt_unique_heap_ptr@PADU__crt_internal_free_policy@@@@QAE@XZ 1003c781 f i libucrt:argv_parsing.obj
 0001:0003b793       ??1?$__crt_unique_heap_ptr@PA_WU__crt_internal_free_policy@@@@QAE@XZ 1003c793 f i libucrt:argv_parsing.obj
 0001:0003b7a5       ??B?$__crt_unique_heap_ptr@EU__crt_internal_free_policy@@@@QBE_NXZ 1003c7a5 f i libucrt:argv_parsing.obj
 0001:0003b7d8       ?detach@?$__crt_unique_heap_ptr@EU__crt_internal_free_policy@@@@QAEPAEXZ 1003c7d8 f i libucrt:argv_parsing.obj
 0001:0003b7de       ?detach@?$__crt_unique_heap_ptr@PADU__crt_internal_free_policy@@@@QAEPAPADXZ 1003c7de f i libucrt:argv_parsing.obj
 0001:0003b7e4       ?detach@?$__crt_unique_heap_ptr@PA_WU__crt_internal_free_policy@@@@QAEPAPA_WXZ 1003c7e4 f i libucrt:argv_parsing.obj
 0001:0003b808       ?get@?$__crt_unique_heap_ptr@EU__crt_internal_free_policy@@@@QBEPAEXZ 1003c808 f i libucrt:argv_parsing.obj
 0001:0003b80b       ?get@?$__crt_unique_heap_ptr@PADU__crt_internal_free_policy@@@@QBEPAPADXZ 1003c80b f i libucrt:argv_parsing.obj
 0001:0003b80e       ?get@?$__crt_unique_heap_ptr@PA_WU__crt_internal_free_policy@@@@QBEPAPA_WXZ 1003c80e f i libucrt:argv_parsing.obj
 0001:0003b811       ?get_address_of@?$__crt_unique_heap_ptr@PADU__crt_internal_free_policy@@@@QAEPAPAPADXZ 1003c811 f i libucrt:argv_parsing.obj
 0001:0003b814       ?get_address_of@?$__crt_unique_heap_ptr@PA_WU__crt_internal_free_policy@@@@QAEPAPAPA_WXZ 1003c814 f i libucrt:argv_parsing.obj
 0001:0003b82f       ?is_valid@?$__crt_unique_heap_ptr@EU__crt_internal_free_policy@@@@QBE_NXZ 1003c82f f i libucrt:argv_parsing.obj
 0001:0003b836       ?release@?$__crt_unique_heap_ptr@EU__crt_internal_free_policy@@@@QAEXXZ 1003c836 f i libucrt:argv_parsing.obj
 0001:0003b848       ?release@?$__crt_unique_heap_ptr@PADU__crt_internal_free_policy@@@@QAEXXZ 1003c848 f i libucrt:argv_parsing.obj
 0001:0003b85a       ?release@?$__crt_unique_heap_ptr@PA_WU__crt_internal_free_policy@@@@QAEXXZ 1003c85a f i libucrt:argv_parsing.obj
 0001:0003b886       ___acrt_allocate_buffer_for_argv 1003c886 f   libucrt:argv_parsing.obj
 0001:0003b8d5       __configure_narrow_argv    1003c8d5 f   libucrt:argv_parsing.obj
 0001:0003b8e0       __configure_wide_argv      1003c8e0 f   libucrt:argv_parsing.obj
 0001:0003b8eb       __set_pgmptr               1003c8eb f i libucrt:argv_parsing.obj
 0001:0003b8fa       __set_wpgmptr              1003c8fa f i libucrt:argv_parsing.obj
 0001:0003bd13       ??$get_environment_from_os@$$V@?$__crt_char_traits@D@@SAPADXZ 1003cd13 f i libucrt:environment_initialization.obj
 0001:0003bd18       ??$get_environment_from_os@$$V@?$__crt_char_traits@_W@@SAPA_WXZ 1003cd18 f i libucrt:environment_initialization.obj
 0001:0003be21       ??$set_variable_in_environment_nolock@PADH@?$__crt_char_traits@D@@SAH$$QAPAD$$QAH@Z 1003ce21 f i libucrt:environment_initialization.obj
 0001:0003be39       ??$set_variable_in_environment_nolock@PA_WH@?$__crt_char_traits@_W@@SAH$$QAPA_W$$QAH@Z 1003ce39 f i libucrt:environment_initialization.obj
 0001:0003be51       ??$tcscpy_s@PADABIAAPAD@?$__crt_char_traits@D@@SAH$$QAPADABIAAPAD@Z 1003ce51 f i libucrt:environment_initialization.obj
 0001:0003be6f       ??$tcscpy_s@PA_WABIAAPA_W@?$__crt_char_traits@_W@@SAH$$QAPA_WABIAAPA_W@Z 1003ce6f f i libucrt:environment_initialization.obj
 0001:0003be8d       ??$tcslen@AAPAD@?$__crt_char_traits@D@@SAIAAPAD@Z 1003ce8d f i libucrt:environment_initialization.obj
 0001:0003bea5       ??$tcslen@AAPA_W@?$__crt_char_traits@_W@@SAIAAPA_W@Z 1003cea5 f i libucrt:environment_initialization.obj
 0001:0003bec3       ??$uninitialize@A6AXAAPAPAD@_E@?$dual_state_global@PAPAD@__crt_state_management@@QAEXA6AXAAPAPAD@_E@Z 1003cec3 f i libucrt:environment_initialization.obj
 0001:0003bf1b       ??$uninitialize@A6AXAAPAPA_W@_E@?$dual_state_global@PAPA_W@__crt_state_management@@QAEXA6AXAAPAPA_W@_E@Z 1003cf1b f i libucrt:environment_initialization.obj
 0001:0003bfa9       ??B?$__crt_unique_heap_ptr@PADU__crt_internal_free_policy@@@@QBE_NXZ 1003cfa9 f i libucrt:environment_initialization.obj
 0001:0003bfb0       ??B?$__crt_unique_heap_ptr@PA_WU__crt_internal_free_policy@@@@QBE_NXZ 1003cfb0 f i libucrt:environment_initialization.obj
 0001:0003bfb7       ??B?$__crt_unique_heap_ptr@_WU__crt_internal_free_policy@@@@QBE_NXZ 1003cfb7 f i libucrt:environment_initialization.obj
 0001:0003bfbe       ?__crt_compute_required_transform_buffer_count@@YAIIQBD@Z 1003cfbe f i libucrt:environment_initialization.obj
 0001:0003bfda       ?__crt_compute_required_transform_buffer_count@@YAIIQB_W@Z 1003cfda f i libucrt:environment_initialization.obj
 0001:0003bff8       ?__crt_transform_string@@YAIIQBDQA_WI@Z 1003cff8 f i libucrt:environment_initialization.obj
 0001:0003c017       ?__crt_transform_string@@YAIIQB_WQADI@Z 1003d017 f i libucrt:environment_initialization.obj
 0001:0003c039       ?get@?$__crt_unique_heap_ptr@_WU__crt_internal_free_policy@@@@QBEPA_WXZ 1003d039 f i libucrt:environment_initialization.obj
 0001:0003c03c       ?get_current_state_index@__crt_state_management@@YAIXZ 1003d03c f i libucrt:environment_initialization.obj
 0001:0003c063       ?initialize@?$dual_state_global@PAPAD@__crt_state_management@@QAEXQAPAD@Z 1003d063 f i libucrt:environment_initialization.obj
 0001:0003c07f       ?initialize@?$dual_state_global@PAPA_W@__crt_state_management@@QAEXQAPA_W@Z 1003d07f f i libucrt:environment_initialization.obj
 0001:0003c09b       ?is_valid@?$__crt_unique_heap_ptr@PADU__crt_internal_free_policy@@@@QBE_NXZ 1003d09b f i libucrt:environment_initialization.obj
 0001:0003c0a2       ?is_valid@?$__crt_unique_heap_ptr@PA_WU__crt_internal_free_policy@@@@QBE_NXZ 1003d0a2 f i libucrt:environment_initialization.obj
 0001:0003c0a9       ?is_valid@?$__crt_unique_heap_ptr@_WU__crt_internal_free_policy@@@@QBE_NXZ 1003d0a9 f i libucrt:environment_initialization.obj
 0001:0003c0b8       ?value@?$dual_state_global@PAPAD@__crt_state_management@@QAEAAPAPADXZ 1003d0b8 f i libucrt:environment_initialization.obj
 0001:0003c0bb       ?value@?$dual_state_global@PAPA_W@__crt_state_management@@QAEAAPAPA_WXZ 1003d0bb f i libucrt:environment_initialization.obj
 0001:0003c0be       ___dcrt_get_or_create_narrow_environment_nolock 1003d0be f   libucrt:environment_initialization.obj
 0001:0003c0c3       ___dcrt_get_or_create_wide_environment_nolock 1003d0c3 f   libucrt:environment_initialization.obj
 0001:0003c0c8       ___dcrt_uninitialize_environments_nolock 1003d0c8 f   libucrt:environment_initialization.obj
 0001:0003c119       ___p__environ              1003d119 f   libucrt:environment_initialization.obj
 0001:0003c11f       ___p__wenviron             1003d11f f   libucrt:environment_initialization.obj
 0001:0003c125       __get_initial_narrow_environment 1003d125 f   libucrt:environment_initialization.obj
 0001:0003c139       __get_initial_wide_environment 1003d139 f   libucrt:environment_initialization.obj
 0001:0003c14d       __initialize_narrow_environment 1003d14d f   libucrt:environment_initialization.obj
 0001:0003c152       __initialize_wide_environment 1003d152 f   libucrt:environment_initialization.obj
 0001:0003c157       ??$?B$$A6AXXZ@__crt_fast_encoded_nullptr_t@@QBEP6AXXZXZ 1003d157 f i libucrt:onexit.obj
 0001:0003c15d       ??$?BP6AXXZ@__crt_fast_encoded_nullptr_t@@QBEPAP6AXXZXZ 1003d15d f i libucrt:onexit.obj
 0001:0003c163       ??$?RP6AXXZ@__crt_internal_free_policy@@QBEXQBQ6AXXZ@Z 1003d163 f i libucrt:onexit.obj
 0001:0003c2a6       ??$__crt_fast_decode_pointer@P6AXXZ@@YAP6AXXZQ6AXXZ@Z 1003d2a6 f i libucrt:onexit.obj
 0001:0003c2c1       ??$__crt_fast_decode_pointer@PAP6AXXZ@@YAPAP6AXXZQAP6AXXZ@Z 1003d2c1 f i libucrt:onexit.obj
 0001:0003c2dc       ??$__crt_fast_encode_pointer@P6AHXZ@@YAP6AHXZQ6AHXZ@Z 1003d2dc f i libucrt:onexit.obj
 0001:0003c2fb       ??$__crt_fast_encode_pointer@P6AXXZ@@YAP6AXXZQ6AXXZ@Z 1003d2fb f i libucrt:onexit.obj
 0001:0003c31a       ??$__crt_fast_encode_pointer@PAP6AXXZ@@YAPAP6AXXZQAP6AXXZ@Z 1003d31a f i libucrt:onexit.obj
 0001:0003c3a7       ??0?$__crt_unique_heap_ptr@P6AXXZU__crt_internal_free_policy@@@@QAE@QAP6AXXZ@Z 1003d3a7 f i libucrt:onexit.obj
 0001:0003c3b7       ??1?$__crt_unique_heap_ptr@P6AXXZU__crt_internal_free_policy@@@@QAE@XZ 1003d3b7 f i libucrt:onexit.obj
 0001:0003c3c9       ??1scoped_global_state_reset@__crt_state_management@@QAE@XZ 1003d3c9 f i libucrt:onexit.obj
 0001:0003c5cc       ?detach@?$__crt_unique_heap_ptr@P6AXXZU__crt_internal_free_policy@@@@QAEPAP6AXXZXZ 1003d5cc f i libucrt:onexit.obj
 0001:0003c5d2       ?release@?$__crt_unique_heap_ptr@P6AXXZU__crt_internal_free_policy@@@@QAEXXZ 1003d5d2 f i libucrt:onexit.obj
 0001:0003c5e4       __crt_at_quick_exit        1003d5e4 f   libucrt:onexit.obj
 0001:0003c5fa       __crt_atexit               1003d5fa f   libucrt:onexit.obj
 0001:0003c610       __execute_onexit_table     1003d610 f   libucrt:onexit.obj
 0001:0003c64e       __initialize_onexit_table  1003d64e f   libucrt:onexit.obj
 0001:0003c677       __register_onexit_function 1003d677 f   libucrt:onexit.obj
 0001:0003c786       ??$?BX@__crt_fast_encoded_nullptr_t@@QBEPAXXZ 1003d786 f i libucrt:initialization.obj
 0001:0003c78c       ??$__crt_fast_encode_pointer@PAX@@YAPAXQAX@Z 1003d78c f i libucrt:initialization.obj
 0001:0003c7fd       ?__acrt_stdio_is_initialized@@YA_NXZ 1003d7fd f i libucrt:initialization.obj
 0001:0003c808       ?initialize@?$dual_state_global@PAU__crt_locale_data@@@__crt_state_management@@QAEXQAU__crt_locale_data@@@Z 1003d808 f i libucrt:initialization.obj
 0001:0003c824       ___acrt_initialize         1003d824 f   libucrt:initialization.obj
 0001:0003c836       ___acrt_thread_attach      1003d836 f   libucrt:initialization.obj
 0001:0003c841       ___acrt_thread_detach      1003d841 f   libucrt:initialization.obj
 0001:0003c849       ___acrt_uninitialize       1003d849 f   libucrt:initialization.obj
 0001:0003c879       ___acrt_uninitialize_critical 1003d879 f   libucrt:initialization.obj
 0001:0003c8a1       __get_terminate            1003d8a1 f   libucrt:terminate.obj
 0001:0003c8b3       _set_terminate             1003d8b3 f   libucrt:terminate.obj
 0001:0003c8d3       _terminate                 1003d8d3 f   libucrt:terminate.obj
 0001:0003c969       _strcpy_s                  1003d969 f   libucrt:strcpy_s.obj
 0001:0003c9c3       __set_abort_behavior       1003d9c3 f   libucrt:abort.obj
 0001:0003c9e4       _abort                     1003d9e4 f   libucrt:abort.obj
 0001:0003ca28       ??$is_overflow_condition@_K@__crt_strtox@@YA_NI_K@Z 1003da28 f i libucrt:atox.obj
 0001:0003ca69       ??$make_c_string_character_source@D$$T@__crt_strtox@@YA?AV?$c_string_character_source@D@0@QBD$$T@Z 1003da69 f i libucrt:atox.obj
 0001:0003ca84       ??$make_c_string_character_source@_W$$T@__crt_strtox@@YA?AV?$c_string_character_source@_W@0@QB_W$$T@Z 1003da84 f i libucrt:atox.obj
 0001:0003ca9f       ??$parse_integer@KV?$c_string_character_source@D@__crt_strtox@@$00@__crt_strtox@@YAKAAV__crt_cached_ptd_host@@V?$c_string_character_source@D@0@H_N@Z 1003da9f f i libucrt:atox.obj
 0001:0003cce6       ??$parse_integer@KV?$c_string_character_source@_W@__crt_strtox@@$00@__crt_strtox@@YAKAAV__crt_cached_ptd_host@@V?$c_string_character_source@_W@0@H_N@Z 1003dce6 f i libucrt:atox.obj
 0001:0003d2f4       ??$parse_integer@_KV?$c_string_character_source@D@__crt_strtox@@$00@__crt_strtox@@YA_KAAV__crt_cached_ptd_host@@V?$c_string_character_source@D@0@H_N@Z 1003e2f4 f i libucrt:atox.obj
 0001:0003d5bc       ??$parse_integer@_KV?$c_string_character_source@_W@__crt_strtox@@$00@__crt_strtox@@YA_KAAV__crt_cached_ptd_host@@V?$c_string_character_source@_W@0@H_N@Z 1003e5bc f i libucrt:atox.obj
 0001:0003dc42       ??$parse_integer_from_string@JD$$T@__crt_strtox@@YAJQBD$$THQAU__crt_locale_pointers@@@Z 1003ec42 f i libucrt:atox.obj
 0001:0003dc89       ??$parse_integer_from_string@J_W$$T@__crt_strtox@@YAJQB_W$$THQAU__crt_locale_pointers@@@Z 1003ec89 f i libucrt:atox.obj
 0001:0003dcd0       ??$parse_integer_from_string@_JD$$T@__crt_strtox@@YA_JQBD$$THQAU__crt_locale_pointers@@@Z 1003ecd0 f i libucrt:atox.obj
 0001:0003dd1d       ??$parse_integer_from_string@_J_W$$T@__crt_strtox@@YA_JQB_W$$THQAU__crt_locale_pointers@@@Z 1003ed1d f i libucrt:atox.obj
 0001:0003dd6a       ?is_space@__crt_strtox@@YA_NDQAU__crt_locale_pointers@@@Z 1003ed6a f i libucrt:atox.obj
 0001:0003dd88       ?is_space@__crt_strtox@@YA_N_WPAU__crt_locale_pointers@@@Z 1003ed88 f i libucrt:atox.obj
 0001:0003dda0       ?maximum_signed_value@__crt_strtox@@YA_J_K@Z 1003eda0 f i libucrt:atox.obj
 0001:0003dda9       ?minimum_signed_value@__crt_strtox@@YA_J_K@Z 1003eda9 f i libucrt:atox.obj
 0001:0003ddb1       ___acrt_get_locale_data_prefix 1003edb1 f i libucrt:atox.obj
 0001:0003ddbd       __atoi64                   1003edbd f   libucrt:atox.obj
 0001:0003de02       __atoi64_l                 1003ee02 f   libucrt:atox.obj
 0001:0003de48       __atoi_l                   1003ee48 f   libucrt:atox.obj
 0001:0003de88       __atol_l                   1003ee88 f   libucrt:atox.obj
 0001:0003dec8       __atoll_l                  1003eec8 f   libucrt:atox.obj
 0001:0003df0e       __chvalidchk_l             1003ef0e f i libucrt:atox.obj
 0001:0003df36       __ischartype_l             1003ef36 f i libucrt:atox.obj
 0001:0003df8d       __wtoi                     1003ef8d f   libucrt:atox.obj
 0001:0003dfcc       __wtoi64                   1003efcc f   libucrt:atox.obj
 0001:0003e011       __wtoi64_l                 1003f011 f   libucrt:atox.obj
 0001:0003e057       __wtoi_l                   1003f057 f   libucrt:atox.obj
 0001:0003e097       __wtol                     1003f097 f   libucrt:atox.obj
 0001:0003e0d6       __wtol_l                   1003f0d6 f   libucrt:atox.obj
 0001:0003e116       __wtoll                    1003f116 f   libucrt:atox.obj
 0001:0003e15b       __wtoll_l                  1003f15b f   libucrt:atox.obj
 0001:0003e1a1       _atoi                      1003f1a1 f   libucrt:atox.obj
 0001:0003e1e0       _atol                      1003f1e0 f   libucrt:atox.obj
 0001:0003e21f       _atoll                     1003f21f f   libucrt:atox.obj
 0001:0003e270       _strncmp                   1003f270 f   libucrt:strncmp.obj
 0001:0003e2e8       _calloc                    1003f2e8 f   libucrt:calloc.obj
 0001:0003e2f3       _wcsncmp                   1003f2f3 f   libucrt:wcsncmp.obj
 0001:0003e32d       ??$?RU__crt_lowio_handle_data@@@__crt_internal_free_policy@@QBEXQBU__crt_lowio_handle_data@@@Z 1003f32d f i libucrt:osfinfo.obj
 0001:0003e33f       ??0?$__crt_unique_heap_ptr@U__crt_lowio_handle_data@@U__crt_internal_free_policy@@@@QAE@QAU__crt_lowio_handle_data@@@Z 1003f33f f i libucrt:osfinfo.obj
 0001:0003e34f       ??1?$__crt_unique_heap_ptr@U__crt_lowio_handle_data@@U__crt_internal_free_policy@@@@QAE@XZ 1003f34f f i libucrt:osfinfo.obj
 0001:0003e361       ??B?$__crt_unique_heap_ptr@U__crt_lowio_handle_data@@U__crt_internal_free_policy@@@@QBE_NXZ 1003f361 f i libucrt:osfinfo.obj
 0001:0003e368       ?detach@?$__crt_unique_heap_ptr@U__crt_lowio_handle_data@@U__crt_internal_free_policy@@@@QAEPAU__crt_lowio_handle_data@@XZ 1003f368 f i libucrt:osfinfo.obj
 0001:0003e36e       ?get@?$__crt_unique_heap_ptr@U__crt_lowio_handle_data@@U__crt_internal_free_policy@@@@QBEPAU__crt_lowio_handle_data@@XZ 1003f36e f i libucrt:osfinfo.obj
 0001:0003e371       ?is_valid@?$__crt_unique_heap_ptr@U__crt_lowio_handle_data@@U__crt_internal_free_policy@@@@QBE_NXZ 1003f371 f i libucrt:osfinfo.obj
 0001:0003e378       ?release@?$__crt_unique_heap_ptr@U__crt_lowio_handle_data@@U__crt_internal_free_policy@@@@QAEXXZ 1003f378 f i libucrt:osfinfo.obj
 0001:0003e38a       ___acrt_lowio_create_handle_array 1003f38a f   libucrt:osfinfo.obj
 0001:0003e405       ___acrt_lowio_destroy_handle_array 1003f405 f   libucrt:osfinfo.obj
 0001:0003e43a       ___acrt_lowio_ensure_fh_exists 1003f43a f   libucrt:osfinfo.obj
 0001:0003e4d8       ___acrt_lowio_lock_fh      1003f4d8 f   libucrt:osfinfo.obj
 0001:0003e4fb       ___acrt_lowio_set_os_handle 1003f4fb f   libucrt:osfinfo.obj
 0001:0003e58d       ___acrt_lowio_unlock_fh    1003f58d f   libucrt:osfinfo.obj
 0001:0003e5b0       __alloc_osfhnd             1003f5b0 f   libucrt:osfinfo.obj
 0001:0003e6c3       __free_osfhnd              1003f6c3 f   libucrt:osfinfo.obj
 0001:0003e754       __get_osfhandle            1003f754 f   libucrt:osfinfo.obj
 0001:0003e7be       __open_osfhandle           1003f7be f   libucrt:osfinfo.obj
 0001:0003e8ee       ??$__crt_fast_decode_pointer@P6AXPB_W00II@Z@@YAP6AXPB_W00II@ZQ6AX000II@Z@Z 1003f8ee f i libucrt:invalid_parameter.obj
 0001:0003e909       ??$__crt_fast_encode_pointer@P6AXPB_W00II@Z@@YAP6AXPB_W00II@ZQ6AX000II@Z@Z 1003f909 f i libucrt:invalid_parameter.obj
 0001:0003e928       ??$initialize_from_array@$$BY00Q6AXPB_W00II@Z@?$dual_state_global@P6AXPB_W00II@Z@__crt_state_management@@QAAXAAY00Q6AXPB_W00II@Z@Z 1003f928 f i libucrt:invalid_parameter.obj
 0001:0003e939       ?check_synchronize_global_state_index@__crt_cached_ptd_host@@AAEIXZ 1003f939 f i libucrt:invalid_parameter.obj
 0001:0003e962       ?dangerous_get_state_array@?$dual_state_global@P6AXPB_W00II@Z@__crt_state_management@@QAEPAP6AXPB_W00II@ZXZ 1003f962 f i libucrt:invalid_parameter.obj
 0001:0003e965       ?get_current_global_state_index@__crt_cached_ptd_host@@QAEIXZ 1003f965 f i libucrt:invalid_parameter.obj
 0001:0003e96a       ?get_raw_ptd_noexit@__crt_cached_ptd_host@@QAEPAU__acrt_ptd@@XZ 1003f96a f i libucrt:invalid_parameter.obj
 0001:0003e975       ?try_synchronize_per_thread_data@__crt_cached_ptd_host@@AAEPAU__acrt_ptd@@XZ 1003f975 f i libucrt:invalid_parameter.obj
 0001:0003e980       ?value@?$dual_state_global@P6AXPB_W00II@Z@__crt_state_management@@QAEAAP6AXPB_W00II@ZAAV__crt_cached_ptd_host@@@Z 1003f980 f i libucrt:invalid_parameter.obj
 0001:0003e998       ?value@?$dual_state_global@P6AXPB_W00II@Z@__crt_state_management@@QAEAAP6AXPB_W00II@ZXZ 1003f998 f i libucrt:invalid_parameter.obj
 0001:0003e99b       ___acrt_call_reportfault   1003f99b f   libucrt:invalid_parameter.obj
 0001:0003ead4       ___acrt_initialize_invalid_parameter_handler 1003fad4 f   libucrt:invalid_parameter.obj
 0001:0003eae3       __get_invalid_parameter_handler 1003fae3 f   libucrt:invalid_parameter.obj
 0001:0003eafa       __get_thread_local_invalid_parameter_handler 1003fafa f   libucrt:invalid_parameter.obj
 0001:0003eb0b       __invalid_parameter        1003fb0b f   libucrt:invalid_parameter.obj
 0001:0003eb42       __invalid_parameter_internal 1003fb42 f   libucrt:invalid_parameter.obj
 0001:0003ebbf       __invalid_parameter_noinfo 1003fbbf f   libucrt:invalid_parameter.obj
 0001:0003ebcf       __invalid_parameter_noinfo_noreturn 1003fbcf f   libucrt:invalid_parameter.obj
 0001:0003ebec       __invoke_watson            1003fbec f   libucrt:invalid_parameter.obj
 0001:0003ec20       __set_invalid_parameter_handler 1003fc20 f   libucrt:invalid_parameter.obj
 0001:0003ec50       __set_thread_local_invalid_parameter_handler 1003fc50 f   libucrt:invalid_parameter.obj
 0001:0003ec6d       ??$?RU__acrt_ptd@@@__crt_internal_free_policy@@QBEXQBU__acrt_ptd@@@Z 1003fc6d f i libucrt:per_thread_data.obj
 0001:0003ef59       ??0?$__crt_unique_heap_ptr@U__acrt_ptd@@U__crt_internal_free_policy@@@@QAE@QAU__acrt_ptd@@@Z 1003ff59 f i libucrt:per_thread_data.obj
 0001:0003ef69       ??1?$__crt_unique_heap_ptr@U__acrt_ptd@@U__crt_internal_free_policy@@@@QAE@XZ 1003ff69 f i libucrt:per_thread_data.obj
 0001:0003ef7b       ??B?$__crt_unique_heap_ptr@U__acrt_ptd@@U__crt_internal_free_policy@@@@QBE_NXZ 1003ff7b f i libucrt:per_thread_data.obj
 0001:0003f0c9       ?dangerous_get_state_array@?$dual_state_global@PAU__crt_locale_data@@@__crt_state_management@@QAEPAPAU__crt_locale_data@@XZ 100400c9 f i libucrt:per_thread_data.obj
 0001:0003f1bf       ?detach@?$__crt_unique_heap_ptr@U__acrt_ptd@@U__crt_internal_free_policy@@@@QAEPAU__acrt_ptd@@XZ 100401bf f i libucrt:per_thread_data.obj
 0001:0003f1c5       ?get@?$__crt_unique_heap_ptr@U__acrt_ptd@@U__crt_internal_free_policy@@@@QBEPAU__acrt_ptd@@XZ 100401c5 f i libucrt:per_thread_data.obj
 0001:0003f3aa       ?is_valid@?$__crt_unique_heap_ptr@U__acrt_ptd@@U__crt_internal_free_policy@@@@QBE_NXZ 100403aa f i libucrt:per_thread_data.obj
 0001:0003f3b1       ?release@?$__crt_unique_heap_ptr@U__acrt_ptd@@U__crt_internal_free_policy@@@@QAEXXZ 100403b1 f i libucrt:per_thread_data.obj
 0001:0003f422       ?value@?$dual_state_global@PAU__crt_locale_data@@@__crt_state_management@@QAEAAPAU__crt_locale_data@@XZ 10040422 f i libucrt:per_thread_data.obj
 0001:0003f425       ___acrt_freeptd            10040425 f   libucrt:per_thread_data.obj
 0001:0003f451       ___acrt_getptd             10040451 f   libucrt:per_thread_data.obj
 0001:0003f50c       ___acrt_getptd_head        1004050c f   libucrt:per_thread_data.obj
 0001:0003f5a2       ___acrt_getptd_noexit      100405a2 f   libucrt:per_thread_data.obj
 0001:0003f653       ___acrt_getptd_noexit_explicit 10040653 f   libucrt:per_thread_data.obj
 0001:0003f6f6       ___acrt_initialize_ptd     100406f6 f   libucrt:per_thread_data.obj
 0001:0003f722       ___acrt_uninitialize_ptd   10040722 f   libucrt:per_thread_data.obj
 0001:0003f73c       ___threadhandle            1004073c f   libucrt:per_thread_data.obj
 0001:0003f742       ___threadid                10040742 f   libucrt:per_thread_data.obj
 0001:0003f74b       ??$?RU__crt_locale_data@@@__crt_internal_free_policy@@QBEXQBU__crt_locale_data@@@Z 1004074b f i libucrt:wsetlocale.obj
 0001:0003f75d       ??$?RU__crt_locale_pointers@@@__crt_internal_free_policy@@QBEXQBU__crt_locale_pointers@@@Z 1004075d f i libucrt:wsetlocale.obj
 0001:0003f76f       ??$?RU__crt_multibyte_data@@@__crt_internal_free_policy@@QBEXQBU__crt_multibyte_data@@@Z 1004076f f i libucrt:wsetlocale.obj
 0001:0003fb18       ??0?$__crt_unique_heap_ptr@U__crt_locale_data@@U__crt_internal_free_policy@@@@QAE@QAU__crt_locale_data@@@Z 10040b18 f i libucrt:wsetlocale.obj
 0001:0003fb28       ??0?$__crt_unique_heap_ptr@U__crt_locale_pointers@@U__crt_internal_free_policy@@@@QAE@QAU__crt_locale_pointers@@@Z 10040b28 f i libucrt:wsetlocale.obj
 0001:0003fb38       ??0?$__crt_unique_heap_ptr@U__crt_multibyte_data@@U__crt_internal_free_policy@@@@QAE@QAU__crt_multibyte_data@@@Z 10040b38 f i libucrt:wsetlocale.obj
 0001:0003fb48       ??0_expandlocale_locale_name_cache@@QAE@QA_WIQAU__crt_qualified_locale_data@@@Z 10040b48 f i libucrt:wsetlocale.obj
 0001:0003fb92       ??1?$__crt_unique_heap_ptr@U__crt_locale_data@@U__crt_internal_free_policy@@@@QAE@XZ 10040b92 f i libucrt:wsetlocale.obj
 0001:0003fba4       ??1?$__crt_unique_heap_ptr@U__crt_locale_pointers@@U__crt_internal_free_policy@@@@QAE@XZ 10040ba4 f i libucrt:wsetlocale.obj
 0001:0003fbb6       ??1?$__crt_unique_heap_ptr@U__crt_multibyte_data@@U__crt_internal_free_policy@@@@QAE@XZ 10040bb6 f i libucrt:wsetlocale.obj
 0001:0003fbc8       ??1_expandlocale_locale_name_cache@@QAE@XZ 10040bc8 f i libucrt:wsetlocale.obj
 0001:0003fbf8       ??B?$__crt_unique_heap_ptr@U__crt_locale_data@@U__crt_internal_free_policy@@@@QBE_NXZ 10040bf8 f i libucrt:wsetlocale.obj
 0001:0003fbff       ??B?$__crt_unique_heap_ptr@U__crt_locale_pointers@@U__crt_internal_free_policy@@@@QBE_NXZ 10040bff f i libucrt:wsetlocale.obj
 0001:0003fc06       ??B?$__crt_unique_heap_ptr@U__crt_multibyte_data@@U__crt_internal_free_policy@@@@QBE_NXZ 10040c06 f i libucrt:wsetlocale.obj
 0001:0003fe26       ?commit_locale_name@_expandlocale_locale_name_cache@@QAEXQB_WI@Z 10040e26 f i libucrt:wsetlocale.obj
 0001:0003fe6a       ?commit_locale_name_cache_already_updated@_expandlocale_locale_name_cache@@QAEXQB_WI@Z 10040e6a f i libucrt:wsetlocale.obj
 0001:0003fe9f       ?detach@?$__crt_unique_heap_ptr@U__crt_locale_data@@U__crt_internal_free_policy@@@@QAEPAU__crt_locale_data@@XZ 10040e9f f i libucrt:wsetlocale.obj
 0001:0003fea5       ?detach@?$__crt_unique_heap_ptr@U__crt_locale_pointers@@U__crt_internal_free_policy@@@@QAEPAU__crt_locale_pointers@@XZ 10040ea5 f i libucrt:wsetlocale.obj
 0001:0003feab       ?detach@?$__crt_unique_heap_ptr@U__crt_multibyte_data@@U__crt_internal_free_policy@@@@QAEPAU__crt_multibyte_data@@XZ 10040eab f i libucrt:wsetlocale.obj
 0001:0003feb1       ?get@?$__crt_unique_heap_ptr@U__crt_locale_data@@U__crt_internal_free_policy@@@@QBEPAU__crt_locale_data@@XZ 10040eb1 f i libucrt:wsetlocale.obj
 0001:0003feb4       ?get@?$__crt_unique_heap_ptr@U__crt_locale_pointers@@U__crt_internal_free_policy@@@@QBEPAU__crt_locale_pointers@@XZ 10040eb4 f i libucrt:wsetlocale.obj
 0001:0003feb7       ?get@?$__crt_unique_heap_ptr@U__crt_multibyte_data@@U__crt_internal_free_policy@@@@QBEPAU__crt_multibyte_data@@XZ 10040eb7 f i libucrt:wsetlocale.obj
 0001:0003feba       ?is_valid@?$__crt_unique_heap_ptr@U__crt_locale_data@@U__crt_internal_free_policy@@@@QBE_NXZ 10040eba f i libucrt:wsetlocale.obj
 0001:0003fec1       ?is_valid@?$__crt_unique_heap_ptr@U__crt_locale_pointers@@U__crt_internal_free_policy@@@@QBE_NXZ 10040ec1 f i libucrt:wsetlocale.obj
 0001:0003fec8       ?is_valid@?$__crt_unique_heap_ptr@U__crt_multibyte_data@@U__crt_internal_free_policy@@@@QBE_NXZ 10040ec8 f i libucrt:wsetlocale.obj
 0001:0003fecf       ?release@?$__crt_unique_heap_ptr@U__crt_locale_data@@U__crt_internal_free_policy@@@@QAEXXZ 10040ecf f i libucrt:wsetlocale.obj
 0001:0003fee1       ?release@?$__crt_unique_heap_ptr@U__crt_locale_pointers@@U__crt_internal_free_policy@@@@QAEXXZ 10040ee1 f i libucrt:wsetlocale.obj
 0001:0003fef3       ?release@?$__crt_unique_heap_ptr@U__crt_multibyte_data@@U__crt_internal_free_policy@@@@QAEXXZ 10040ef3 f i libucrt:wsetlocale.obj
 0001:0003ff05       ___acrt_copy_locale_name   10040f05 f   libucrt:wsetlocale.obj
 0001:0003ff65       ___acrt_set_locale_changed 10040f65 f   libucrt:wsetlocale.obj
 0001:0003ff70       ___acrt_uninitialize_locale 10040f70 f   libucrt:wsetlocale.obj
 0001:0003ff97       ___ascii_tolower           10040f97 f i libucrt:wsetlocale.obj
 0001:0003ffae       ___ascii_towlower          10040fae f i libucrt:wsetlocale.obj
 0001:0003ffc5       ___lc_lctowcs              10040fc5 f   libucrt:wsetlocale.obj
 0001:00040035       ___lc_wcstolc              10041035 f   libucrt:wsetlocale.obj
 0001:00040172       __configthreadlocale       10041172 f   libucrt:wsetlocale.obj
 0001:00040203       __create_locale            10041203 f   libucrt:wsetlocale.obj
 0001:0004062d       __free_locale              1004162d f   libucrt:wsetlocale.obj
 0001:000406ef       __get_current_locale       100416ef f   libucrt:wsetlocale.obj
 0001:0004078a       __wcreate_locale           1004178a f   libucrt:wsetlocale.obj
 0001:00040891       __wcscats                  10041891 f   libucrt:wsetlocale.obj
 0001:000408d2       __wsetlocale               100418d2 f   libucrt:wsetlocale.obj
 0001:00041650       ___p___mb_cur_max          10042650 f   libucrt:nlsdata.obj
 0001:000417fd       ___acrt_initialize_lowio   100427fd f   libucrt:ioinit.obj
 0001:0004185d       ___acrt_uninitialize_lowio 1004285d f   libucrt:ioinit.obj
 0001:0004188f       __free_base                1004288f f   libucrt:free_base.obj
 0001:000418c9       __malloc_base              100428c9 f   libucrt:malloc_base.obj
 0001:00041917       ??$__crt_interlocked_read@H@@YAHPDH@Z 10042917 f i libucrt:setmode.obj
 0001:00041924       ?value@?$dual_state_global@H@__crt_state_management@@QAEAAHXZ 10042924 f i libucrt:setmode.obj
 0001:00041927       __get_fmode                10042927 f   libucrt:setmode.obj
 0001:00041954       __set_fmode                10042954 f   libucrt:setmode.obj
 0001:00041991       __setmode                  10042991 f   libucrt:setmode.obj
 0001:00041ab1       __setmode_nolock           10042ab1 f   libucrt:setmode.obj
 0001:00041c18       ___acrt_MultiByteToWideChar 10042c18 f   libucrt:multibytetowidechar.obj
 0001:00041c4f       ??$?B$$A6GHPA_WKJ@Z@__crt_fast_encoded_nullptr_t@@QBEP6GHPA_WKJ@ZXZ 10042c4f f i libucrt:winapi_thunks.obj
 0001:00041cf7       ??$__crt_fast_decode_pointer@P6GHPA_WKJ@Z@@YAP6GHPA_WKJ@ZQ6GH0KJ@Z@Z 10042cf7 f i libucrt:winapi_thunks.obj
 0001:00041d12       ??$__crt_fast_decode_pointer@PAX@@YAPAXQAX@Z 10042d12 f i libucrt:winapi_thunks.obj
 0001:00041d2d       ??$__crt_fast_encode_pointer@P6GHPA_WKJ@Z@@YAP6GHPA_WKJ@ZQ6GH0KJ@Z@Z 10042d2d f i libucrt:winapi_thunks.obj
 0001:000423dd       _GetCurrentThreadEffectiveToken 100433dd f i libucrt:winapi_thunks.obj
 0001:000423e1       ___acrt_AppPolicyGetProcessTerminationMethodInternal@4 100433e1 f   libucrt:winapi_thunks.obj
 0001:00042421       ___acrt_AppPolicyGetShowDeveloperDiagnosticInternal@4 10043421 f   libucrt:winapi_thunks.obj
 0001:00042461       ___acrt_AppPolicyGetThreadInitializationTypeInternal@4 10043461 f   libucrt:winapi_thunks.obj
 0001:000424a1       ___acrt_AppPolicyGetWindowingModelInternal@4 100434a1 f   libucrt:winapi_thunks.obj
 0001:000424e1       ___acrt_AreFileApisANSI@0  100434e1 f   libucrt:winapi_thunks.obj
 0001:00042500       ___acrt_CompareStringEx@36 10043500 f   libucrt:winapi_thunks.obj
 0001:0004255d       ___acrt_EnumSystemLocalesEx@16 1004355d f   libucrt:winapi_thunks.obj
 0001:000425b1       ___acrt_FlsAlloc@4         100435b1 f   libucrt:winapi_thunks.obj
 0001:000425f0       ___acrt_FlsFree@4          100435f0 f   libucrt:winapi_thunks.obj
 0001:0004262f       ___acrt_FlsGetValue@4      1004362f f   libucrt:winapi_thunks.obj
 0001:0004266e       ___acrt_FlsSetValue@8      1004366e f   libucrt:winapi_thunks.obj
 0001:000426b0       ___acrt_GetDateFormatEx@28 100436b0 f   libucrt:winapi_thunks.obj
 0001:00042707       ___acrt_GetEnabledXStateFeatures@0 10043707 f   libucrt:winapi_thunks.obj
 0001:0004273b       ___acrt_GetLocaleInfoEx@16 1004373b f   libucrt:winapi_thunks.obj
 0001:0004277a       ___acrt_GetSystemTimePreciseAsFileTime@4 1004377a f   libucrt:winapi_thunks.obj
 0001:000427b9       ___acrt_GetTempPath2W@8    100437b9 f   libucrt:winapi_thunks.obj
 0001:000427fb       ___acrt_GetTimeFormatEx@24 100437fb f   libucrt:winapi_thunks.obj
 0001:00042840       ___acrt_GetUserDefaultLocaleName@8 10043840 f   libucrt:winapi_thunks.obj
 0001:0004287c       ___acrt_GetXStateFeaturesMask@8 1004387c f   libucrt:winapi_thunks.obj
 0001:000428bc       ___acrt_InitializeCriticalSectionEx@12 100438bc f   libucrt:winapi_thunks.obj
 0001:00042907       ___acrt_IsValidLocaleName@4 10043907 f   libucrt:winapi_thunks.obj
 0001:0004293f       ___acrt_LCIDToLocaleName@16 1004393f f   libucrt:winapi_thunks.obj
 0001:0004297e       ___acrt_LCMapStringEx@36   1004397e f   libucrt:winapi_thunks.obj
 0001:000429db       ___acrt_LocaleNameToLCID@8 100439db f   libucrt:winapi_thunks.obj
 0001:00042a0c       ___acrt_LocateXStateFeature@12 10043a0c f   libucrt:winapi_thunks.obj
 0001:00042a3b       ___acrt_MessageBoxA@16     10043a3b f   libucrt:winapi_thunks.obj
 0001:00042a6d       ___acrt_MessageBoxW@16     10043a6d f   libucrt:winapi_thunks.obj
 0001:00042a9f       ___acrt_RoInitialize@4     10043a9f f   libucrt:winapi_thunks.obj
 0001:00042ada       ___acrt_RoUninitialize@0   10043ada f   libucrt:winapi_thunks.obj
 0001:00042b08       ___acrt_RtlGenRandom@8     10043b08 f   libucrt:winapi_thunks.obj
 0001:00042b48       ___acrt_SetThreadStackGuarantee@4 10043b48 f   libucrt:winapi_thunks.obj
 0001:00042b83       ___acrt_can_show_message_box 10043b83 f   libucrt:winapi_thunks.obj
 0001:00042baa       ___acrt_can_use_vista_locale_apis 10043baa f   libucrt:winapi_thunks.obj
 0001:00042bb5       ___acrt_can_use_xstate_apis 10043bb5 f   libucrt:winapi_thunks.obj
 0001:00042bc0       ___acrt_eagerly_load_locale_apis 10043bc0 f   libucrt:winapi_thunks.obj
 0001:00042bf7       ___acrt_get_parent_window  10043bf7 f   libucrt:winapi_thunks.obj
 0001:00042c5f       ___acrt_initialize_winapi_thunks 10043c5f f   libucrt:winapi_thunks.obj
 0001:00042c73       ___acrt_is_interactive     10043c73 f   libucrt:winapi_thunks.obj
 0001:00042d13       ___acrt_uninitialize_winapi_thunks 10043d13 f   libucrt:winapi_thunks.obj
 0001:00042d49       ?value@?$dual_state_global@PAU__crt_multibyte_data@@@__crt_state_management@@QAEAAPAU__crt_multibyte_data@@XZ 10043d49 f i libucrt:locale_update.obj
 0001:00042d4c       ?value_explicit@?$dual_state_global@PAU__crt_locale_data@@@__crt_state_management@@QAEAAPAU__crt_locale_data@@I@Z 10043d4c f i libucrt:locale_update.obj
 0001:00042d5b       ?value_explicit@?$dual_state_global@PAU__crt_multibyte_data@@@__crt_state_management@@QAEAAPAU__crt_multibyte_data@@I@Z 10043d5b f i libucrt:locale_update.obj
 0001:00042d6a       ___acrt_should_sync_with_global_locale 10043d6a f i libucrt:locale_update.obj
 0001:00042d86       ___acrt_update_locale_info 10043d86 f   libucrt:locale_update.obj
 0001:00042db3       ___acrt_update_locale_info_explicit 10043db3 f   libucrt:locale_update.obj
 0001:00042de4       ___acrt_update_multibyte_info 10043de4 f   libucrt:locale_update.obj
 0001:00042e11       ___acrt_update_multibyte_info_explicit 10043e11 f   libucrt:locale_update.obj
 0001:00042f3e       ??0__crt_seek_guard@@QAE@H_J@Z 10043f3e f i libucrt:chsize.obj
 0001:00042f8b       ??1__crt_seek_guard@@QAE@XZ 10043f8b f i libucrt:chsize.obj
 0001:000430ab       ?check@?$cached@K@__crt_cached_ptd_host@@QBE_NK@Z 100440ab f i libucrt:chsize.obj
 0001:000430c7       __chsize                   100440c7 f   libucrt:chsize.obj
 0001:000430e3       __chsize_nolock            100440e3 f   libucrt:chsize.obj
 0001:0004311a       __chsize_nolock_internal   1004411a f   libucrt:chsize.obj
 0001:000432b1       __chsize_s                 100442b1 f   libucrt:chsize.obj
 0001:000432e8       __umask                    100442e8 f   libucrt:umask.obj
 0001:0004330b       __umask_s                  1004430b f   libucrt:umask.obj
 0001:000433d6       ___acrt_WideCharToMultiByte 100443d6 f   libucrt:widechartomultibyte.obj
 0001:00043442       ?__wcsrtombs_utf8@__crt_mbstring@@YAIPADPAPB_WIPAU_Mbstatet@@AAV__crt_cached_ptd_host@@@Z 10044442 f   libucrt:wcrtomb.obj
 0001:000438d6       _wcrtomb                   100448d6 f   libucrt:wcrtomb.obj
 0001:00043905       _wcrtomb_s                 10044905 f   libucrt:wcrtomb.obj
 0001:000439a1       _wcsrtombs                 100449a1 f   libucrt:wcrtomb.obj
 0001:000439db       _wcsrtombs_s               100449db f   libucrt:wcrtomb.obj
 0001:00043a93       _wctob                     10044a93 f   libucrt:wcrtomb.obj
 0001:00044306       ??1?$__crt_simd_cleanup_guard@$00@@QAE@XZ 10045306 f i libucrt:strnlen.obj
 0001:0004430a       ??1?$__crt_simd_cleanup_guard@$0A@@@QAE@XZ 1004530a f i libucrt:strnlen.obj
 0001:0004430d       ?compare_equals@?$__crt_simd_traits@$00E@@SA?AT__m256i@@T2@0@Z 1004530d f i libucrt:strnlen.obj
 0001:00044312       ?compare_equals@?$__crt_simd_traits@$00G@@SA?AT__m256i@@T2@0@Z 10045312 f i libucrt:strnlen.obj
 0001:00044317       ?compare_equals@?$__crt_simd_traits@$0A@E@@SA?AT__m128i@@T2@0@Z 10045317 f i libucrt:strnlen.obj
 0001:0004431c       ?compare_equals@?$__crt_simd_traits@$0A@G@@SA?AT__m128i@@T2@0@Z 1004531c f i libucrt:strnlen.obj
 0001:00044321       ?compute_byte_mask@?$__crt_simd_pack_traits@$00@@SAHT__m256i@@@Z 10045321 f i libucrt:strnlen.obj
 0001:00044326       ?compute_byte_mask@?$__crt_simd_pack_traits@$0A@@@SAHT__m128i@@@Z 10045326 f i libucrt:strnlen.obj
 0001:0004432b       ?get_zero_pack@?$__crt_simd_pack_traits@$00@@SA?AT__m256i@@XZ 1004532b f i libucrt:strnlen.obj
 0001:00044330       ?get_zero_pack@?$__crt_simd_pack_traits@$0A@@@SA?AT__m128i@@XZ 10045330 f i libucrt:strnlen.obj
 0001:00044334       _strnlen                   10045334 f   libucrt:strnlen.obj
 0001:00044456       _wcslen                    10045456 f   libucrt:strnlen.obj
 0001:0004457e       _wcsnlen                   1004557e f   libucrt:strnlen.obj
 0001:0004472e       ?__acrt_fp_classify@@YA?AW4__acrt_fp_class@@ABN@Z 1004572e f i libucrt:cvt.obj
 0001:00044790       ?__acrt_fp_is_negative@@YA_NABN@Z 10045790 f i libucrt:cvt.obj
 0001:0004511f       ?strrchr@@YAPADQADH@Z      1004611f f i libucrt:cvt.obj
 0001:0004512a       ___acrt_fp_format          1004612a f   libucrt:cvt.obj
 0001:000452ab       __wctomb_internal          100462ab f   libucrt:wctomb.obj
 0001:00045415       __wctomb_l                 10046415 f   libucrt:wctomb.obj
 0001:00045470       __wctomb_s_l               10046470 f   libucrt:wctomb.obj
 0001:000454ab       _wctomb                    100464ab f   libucrt:wctomb.obj
 0001:000454f7       _wctomb_s                  100464f7 f   libucrt:wctomb.obj
 0001:00045531       __mbtowc_internal          10046531 f   libucrt:mbtowc.obj
 0001:00045664       __mbtowc_l                 10046664 f   libucrt:mbtowc.obj
 0001:0004569c       _mbtowc                    1004669c f   libucrt:mbtowc.obj
 0001:000456d3       __fileno                   100466d3 f   libucrt:fileno.obj
 0001:000456fa       ??$?RPAU__crt_stdio_stream_data@@@__crt_internal_free_policy@@QBEXQBQAU__crt_stdio_stream_data@@@Z 100466fa f i libucrt:_file.obj
 0001:0004570c       ??0?$__crt_unique_heap_ptr@PAU__crt_stdio_stream_data@@U__crt_internal_free_policy@@@@QAE@QAPAU__crt_stdio_stream_data@@@Z 1004670c f i libucrt:_file.obj
 0001:0004571c       ??1?$__crt_unique_heap_ptr@PAU__crt_stdio_stream_data@@U__crt_internal_free_policy@@@@QAE@XZ 1004671c f i libucrt:_file.obj
 0001:0004572e       ?detach@?$__crt_unique_heap_ptr@PAU__crt_stdio_stream_data@@U__crt_internal_free_policy@@@@QAEPAPAU__crt_stdio_stream_data@@XZ 1004672e f i libucrt:_file.obj
 0001:00045734       ?release@?$__crt_unique_heap_ptr@PAU__crt_stdio_stream_data@@U__crt_internal_free_policy@@@@QAEXXZ 10046734 f i libucrt:_file.obj
 0001:00045746       ___acrt_initialize_stdio   10046746 f   libucrt:_file.obj
 0001:0004580e       ___acrt_iob_func           1004680e f   libucrt:_file.obj
 0001:0004581e       ___acrt_uninitialize_stdio 1004681e f   libucrt:_file.obj
 0001:0004586a       __get_stream_buffer_pointers 1004686a f   libucrt:_file.obj
 0001:000458b0       __lock_file                100468b0 f   libucrt:_file.obj
 0001:000458c4       __unlock_file              100468c4 f   libucrt:_file.obj
 0001:000458d8       __get_printf_count_output  100468d8 f   libucrt:printf_count_output.obj
 0001:000458ed       __set_printf_count_output  100468ed f   libucrt:printf_count_output.obj
 0001:000459db       __fputwc_nolock            100469db f   libucrt:fputwc.obj
 0001:00045a11       __fputwc_nolock_internal   10046a11 f   libucrt:fputwc.obj
 0001:00045b49       __fputwchar                10046b49 f   libucrt:fputwc.obj
 0001:00045b63       __putwc_nolock             10046b63 f   libucrt:fputwc.obj
 0001:00045b6e       _fputwc                    10046b6e f   libucrt:fputwc.obj
 0001:00045ba4       _putwc                     10046ba4 f   libucrt:fputwc.obj
 0001:00045baf       _putwchar                  10046baf f   libucrt:fputwc.obj
 0001:00045cee       __fputc_nolock             10046cee f   libucrt:fputc.obj
 0001:00045d22       __fputc_nolock_internal    10046d22 f   libucrt:fputc.obj
 0001:00045d4f       __fputchar                 10046d4f f   libucrt:fputc.obj
 0001:00045d69       __putc_nolock              10046d69 f   libucrt:fputc.obj
 0001:00045d74       _fputc                     10046d74 f   libucrt:fputc.obj
 0001:00045da8       _putc                      10046da8 f   libucrt:fputc.obj
 0001:00045db3       _putchar                   10046db3 f   libucrt:fputc.obj
 0001:00045dbe       ?has_temporary_buffer@__crt_stdio_stream@@QBE_NXZ 10046dbe f i libucrt:_sftbuf.obj
 0001:00045dca       ___acrt_should_use_temporary_buffer 10046dca f   libucrt:_sftbuf.obj
 0001:00045e08       ___acrt_stdio_begin_temporary_buffering_nolock 10046e08 f   libucrt:_sftbuf.obj
 0001:00045eb3       ___acrt_stdio_end_temporary_buffering_nolock 10046eb3 f   libucrt:_sftbuf.obj
 0001:00045ef1       __isatty                   10046ef1 f   libucrt:isatty.obj
 0001:00045f47       __calloc_base              10046f47 f   libucrt:calloc_base.obj
 0001:00045fa4       ___sys_errlist             10046fa4 f   libucrt:syserr.obj
 0001:00045faa       ___sys_nerr                10046faa f   libucrt:syserr.obj
 0001:00046253       __mbstowcs_l               10047253 f   libucrt:mbstowcs.obj
 0001:0004628b       __mbstowcs_s_l             1004728b f   libucrt:mbstowcs.obj
 0001:000462c9       _mbstowcs                  100472c9 f   libucrt:mbstowcs.obj
 0001:00046300       _mbstowcs_s                10047300 f   libucrt:mbstowcs.obj
 0001:000463f4       _strncpy_s                 100473f4 f   libucrt:strncpy_s.obj
 0001:0004642b       ?__mbrtowc_utf8@__crt_mbstring@@YAIPA_WPBDIPAU_Mbstatet@@AAV__crt_cached_ptd_host@@@Z 1004742b f   libucrt:mbrtowc.obj
 0001:0004646e       ?__mbsrtowcs_utf8@__crt_mbstring@@YAIPA_WPAPBDIPAU_Mbstatet@@AAV__crt_cached_ptd_host@@@Z 1004746e f   libucrt:mbrtowc.obj
 0001:000469a8       _btowc                     100479a8 f   libucrt:mbrtowc.obj
 0001:00046a19       _mbrlen                    10047a19 f   libucrt:mbrtowc.obj
 0001:00046a61       _mbrtowc                   10047a61 f   libucrt:mbrtowc.obj
 0001:00046ac8       _mbsrtowcs                 10047ac8 f   libucrt:mbrtowc.obj
 0001:00046b02       _mbsrtowcs_s               10047b02 f   libucrt:mbrtowc.obj
 0001:00046c23       __putwch                   10047c23 f   libucrt:putwch.obj
 0001:00046c50       __putwch_nolock            10047c50 f   libucrt:putwch.obj
 0001:00046c82       __putwch_nolock_internal   10047c82 f   libucrt:putwch.obj
 0001:00046c92       ??$?RU__crt_stdio_stream_data@@@__crt_internal_free_policy@@QBEXQBU__crt_stdio_stream_data@@@Z 10047c92 f i libucrt:stream.obj
 0001:00046ca4       ??0?$__crt_unique_heap_ptr@U__crt_stdio_stream_data@@U__crt_internal_free_policy@@@@QAE@QAU__crt_stdio_stream_data@@@Z 10047ca4 f i libucrt:stream.obj
 0001:00046cb4       ??0__crt_stdio_stream@@QAE@QAU__crt_stdio_stream_data@@@Z 10047cb4 f i libucrt:stream.obj
 0001:00046cc4       ??0__crt_stdio_stream@@QAE@XZ 10047cc4 f i libucrt:stream.obj
 0001:00046cca       ??1?$__crt_unique_heap_ptr@U__crt_stdio_stream_data@@U__crt_internal_free_policy@@@@QAE@XZ 10047cca f i libucrt:stream.obj
 0001:00046cdc       ?__acrt_stdio_allocate_stream@@YA?AV__crt_stdio_stream@@XZ 10047cdc f   libucrt:stream.obj
 0001:00046d45       ?__acrt_stdio_free_stream@@YAXV__crt_stdio_stream@@@Z 10047d45 f   libucrt:stream.obj
 0001:00046d80       ?deallocate@__crt_stdio_stream@@QAEXXZ 10047d80 f i libucrt:stream.obj
 0001:00046d8a       ?detach@?$__crt_unique_heap_ptr@U__crt_stdio_stream_data@@U__crt_internal_free_policy@@@@QAEPAU__crt_stdio_stream_data@@XZ 10047d8a f i libucrt:stream.obj
 0001:00046e52       ?lock@__crt_stdio_stream@@QBEXXZ 10047e52 f i libucrt:stream.obj
 0001:00046e5b       ?release@?$__crt_unique_heap_ptr@U__crt_stdio_stream_data@@U__crt_internal_free_policy@@@@QAEXXZ 10047e5b f i libucrt:stream.obj
 0001:00046e6d       ?try_allocate@__crt_stdio_stream@@QAE_NXZ 10047e6d f i libucrt:stream.obj
 0001:00046e8d       ??$__acrt_stdio_parse_mode@D@@YA?AU__acrt_stdio_stream_mode@@QBD@Z 10047e8d f i libucrt:openfile.obj
 0001:000470b7       ??$__acrt_stdio_parse_mode@_W@@YA?AU__acrt_stdio_stream_mode@@QB_W@Z 100480b7 f i libucrt:openfile.obj
 0001:00047428       ??$tcsncmp@AAPBDAAY02$$CBDI@?$__crt_char_traits@D@@SAHAAPBDAAY02$$CBD$$QAI@Z 10048428 f i libucrt:openfile.obj
 0001:00047444       ??$tcsncmp@AAPB_WAAY02$$CB_WI@?$__crt_char_traits@_W@@SAHAAPB_WAAY02$$CB_W$$QAI@Z 10048444 f i libucrt:openfile.obj
 0001:00047460       ??$tcsnicmp@AAPBDAAY04$$CBDI@?$__crt_char_traits@D@@SAHAAPBDAAY04$$CBD$$QAI@Z 10048460 f i libucrt:openfile.obj
 0001:0004747c       ??$tcsnicmp@AAPBDAAY06$$CBDI@?$__crt_char_traits@D@@SAHAAPBDAAY06$$CBD$$QAI@Z 1004847c f i libucrt:openfile.obj
 0001:00047498       ??$tcsnicmp@AAPBDAAY07$$CBDI@?$__crt_char_traits@D@@SAHAAPBDAAY07$$CBD$$QAI@Z 10048498 f i libucrt:openfile.obj
 0001:000474b4       ??$tcsnicmp@AAPB_WAAY04$$CB_WI@?$__crt_char_traits@_W@@SAHAAPB_WAAY04$$CB_W$$QAI@Z 100484b4 f i libucrt:openfile.obj
 0001:000474d0       ??$tcsnicmp@AAPB_WAAY06$$CB_WI@?$__crt_char_traits@_W@@SAHAAPB_WAAY06$$CB_W$$QAI@Z 100484d0 f i libucrt:openfile.obj
 0001:000474ec       ??$tcsnicmp@AAPB_WAAY07$$CB_WI@?$__crt_char_traits@_W@@SAHAAPB_WAAY07$$CB_W$$QAI@Z 100484ec f i libucrt:openfile.obj
 0001:00047508       ??$tsopen_s@PAHABQBDABHABHH@?$__crt_char_traits@D@@SAH$$QAPAHABQBDABH2$$QAH@Z 10048508 f i libucrt:openfile.obj
 0001:00047530       ??$tsopen_s@PAHABQB_WABHABHH@?$__crt_char_traits@_W@@SAH$$QAPAHABQB_WABH2$$QAH@Z 10048530 f i libucrt:openfile.obj
 0001:00047558       ?__acrt_stdio_parse_mode_D@@YA_NAAU__acrt_stdio_stream_mode@@@Z 10048558 f i libucrt:openfile.obj
 0001:00047573       ?__acrt_stdio_parse_mode_N@@YA_NAAU__acrt_stdio_stream_mode@@@Z 10048573 f i libucrt:openfile.obj
 0001:00047585       ?__acrt_stdio_parse_mode_R@@YA_NAAU__acrt_stdio_stream_mode@@AA_N@Z 10048585 f i libucrt:openfile.obj
 0001:000475a3       ?__acrt_stdio_parse_mode_S@@YA_NAAU__acrt_stdio_stream_mode@@AA_N@Z 100485a3 f i libucrt:openfile.obj
 0001:000475c1       ?__acrt_stdio_parse_mode_T@@YA_NAAU__acrt_stdio_stream_mode@@@Z 100485c1 f i libucrt:openfile.obj
 0001:000475e0       ?__acrt_stdio_parse_mode_b@@YA_NAAU__acrt_stdio_stream_mode@@@Z 100485e0 f i libucrt:openfile.obj
 0001:00047600       ?__acrt_stdio_parse_mode_c@@YA_NAAU__acrt_stdio_stream_mode@@AA_N@Z 10048600 f i libucrt:openfile.obj
 0001:00047622       ?__acrt_stdio_parse_mode_n@@YA_NAAU__acrt_stdio_stream_mode@@AA_N@Z 10048622 f i libucrt:openfile.obj
 0001:00047644       ?__acrt_stdio_parse_mode_plus@@YA_NAAU__acrt_stdio_stream_mode@@AA_N@Z 10048644 f i libucrt:openfile.obj
 0001:0004767a       ?__acrt_stdio_parse_mode_t@@YA_NAAU__acrt_stdio_stream_mode@@@Z 1004867a f i libucrt:openfile.obj
 0001:0004769a       ?__acrt_stdio_parse_mode_x@@YA_NAAU__acrt_stdio_stream_mode@@@Z 1004869a f i libucrt:openfile.obj
 0001:000476ba       __openfile                 100486ba f   libucrt:openfile.obj
 0001:000476c5       __wopenfile                100486c5 f   libucrt:openfile.obj
 0001:000476d0       ___acrt_stdio_free_buffer_nolock 100486d0 f   libucrt:_freebuf.obj
 0001:00047be9       ___acrt_stdio_flush_nolock 10048be9 f   libucrt:fflush.obj
 0001:00047c52       __fflush_nolock            10048c52 f   libucrt:fflush.obj
 0001:00047cb7       __flushall                 10048cb7 f   libucrt:fflush.obj
 0001:00047cc0       _fflush                    10048cc0 f   libucrt:fflush.obj
 0001:0004812e       ___acrt_stdio_flush_and_write_narrow_nolock 1004912e f   libucrt:_flsbuf.obj
 0001:00048139       ___acrt_stdio_flush_and_write_wide_nolock 10049139 f   libucrt:_flsbuf.obj
 0001:0004855d       ___acrt_stdio_refill_and_read_narrow_nolock 1004955d f   libucrt:_filbuf.obj
 0001:00048568       ___acrt_stdio_refill_and_read_wide_nolock 10049568 f   libucrt:_filbuf.obj
 0001:00048573       ___acrt_initialize_locks   10049573 f   libucrt:locks.obj
 0001:000485b4       ___acrt_lock               100495b4 f   libucrt:locks.obj
 0001:000485cb       ___acrt_uninitialize_locks 100495cb f   libucrt:locks.obj
 0001:000485fc       ___acrt_unlock             100495fc f   libucrt:locks.obj
 0001:00048613       __lock_locales             10049613 f   libucrt:locks.obj
 0001:00048621       __unlock_locales           10049621 f   libucrt:locks.obj
 0001:0004862a       ___acrt_app_verifier_enabled 1004962a f   libucrt:peb_access.obj
 0001:0004863c       ___acrt_is_secure_process  1004963c f   libucrt:peb_access.obj
 0001:000487e8       ___acrt_get_begin_thread_init_policy 100497e8 f   libucrt:win_policies.obj
 0001:00048822       ___acrt_get_developer_information_policy 10049822 f   libucrt:win_policies.obj
 0001:00048860       ___acrt_get_process_end_policy 10049860 f   libucrt:win_policies.obj
 0001:00048887       ___acrt_get_windowing_model_policy 10049887 f   libucrt:win_policies.obj
 0001:00048912       ??$__acrt_convert_wcs_mbs_cp@_WDV<lambda_28bda7af82a03b66c1cb3803a755f95d>@@U__crt_win32_buffer_internal_dynamic_resizing@@@@YAHQB_WAAV?$__crt_win32_buffer@DU__crt_win32_buffer_internal_dynamic_resizing@@@@ABV<lambda_28bda7af82a03b66c1cb3803a755f95d>@@I@Z 10049912 f i libucrt:argv_wildcards.obj
 0001:000489d8       ??$__acrt_wcs_to_mbs_cp@U__crt_win32_buffer_internal_dynamic_resizing@@@@YAHQB_WAAV?$__crt_win32_buffer@DU__crt_win32_buffer_internal_dynamic_resizing@@@@I@Z 100499d8 f i libucrt:argv_wildcards.obj
 0001:0004928a       ??$tcslen@ABQBD@?$__crt_char_traits@D@@SAIABQBD@Z 1004a28a f i libucrt:argv_wildcards.obj
 0001:000492a2       ??$tcslen@ABQB_W@?$__crt_char_traits@_W@@SAIABQB_W@Z 1004a2a2 f i libucrt:argv_wildcards.obj
 0001:000492c0       ??$tcsncpy_s@AAPADIAAPADABI@?$__crt_char_traits@D@@SAHAAPAD$$QAI0ABI@Z 1004a2c0 f i libucrt:argv_wildcards.obj
 0001:000492e3       ??$tcsncpy_s@AAPA_WIAAPA_WABI@?$__crt_char_traits@_W@@SAHAAPA_W$$QAI0ABI@Z 1004a2e3 f i libucrt:argv_wildcards.obj
 0001:00049306       ??$tcsncpy_s@PADABIABQBDABI@?$__crt_char_traits@D@@SAH$$QAPADABIABQBD1@Z 1004a306 f i libucrt:argv_wildcards.obj
 0001:00049329       ??$tcsncpy_s@PADIABQBDABI@?$__crt_char_traits@D@@SAH$$QAPAD$$QAIABQBDABI@Z 1004a329 f i libucrt:argv_wildcards.obj
 0001:0004934c       ??$tcsncpy_s@PA_WABIABQB_WABI@?$__crt_char_traits@_W@@SAH$$QAPA_WABIABQB_W1@Z 1004a34c f i libucrt:argv_wildcards.obj
 0001:0004936f       ??$tcsncpy_s@PA_WIABQB_WABI@?$__crt_char_traits@_W@@SAH$$QAPA_W$$QAIABQB_WABI@Z 1004a36f f i libucrt:argv_wildcards.obj
 0001:00049392       ??$tcspbrk@AAPADAAY02$$CBD@?$__crt_char_traits@D@@SAPADAAPADAAY02$$CBD@Z 1004a392 f i libucrt:argv_wildcards.obj
 0001:000493a8       ??$tcspbrk@AAPA_WAAY02$$CB_W@?$__crt_char_traits@_W@@SAPA_WAAPA_WAAY02$$CB_W@Z 1004a3a8 f i libucrt:argv_wildcards.obj
 0001:000493be       ??0?$__crt_unique_handle_t@U__crt_findfile_traits@@@@QAE@QAX@Z 1004a3be f i libucrt:argv_wildcards.obj
 0001:000493ce       ??0?$__crt_win32_buffer@DU__crt_win32_buffer_internal_dynamic_resizing@@@@QAE@XZ 1004a3ce f i libucrt:argv_wildcards.obj
 0001:000493fe       ??1?$__crt_unique_handle_t@U__crt_findfile_traits@@@@QAE@XZ 1004a3fe f i libucrt:argv_wildcards.obj
 0001:00049415       ??1?$__crt_win32_buffer@DU__crt_win32_buffer_internal_dynamic_resizing@@@@QAE@XZ 1004a415 f i libucrt:argv_wildcards.obj
 0001:00049470       ??R<lambda_28bda7af82a03b66c1cb3803a755f95d>@@QBE@IQB_WQADI@Z 1004a470 f i libucrt:argv_wildcards.obj
 0001:0004950a       ?_deallocate@?$__crt_win32_buffer@DU__crt_win32_buffer_internal_dynamic_resizing@@@@AAEXXZ 1004a50a f i libucrt:argv_wildcards.obj
 0001:00049524       ?allocate@?$__crt_win32_buffer@DU__crt_win32_buffer_internal_dynamic_resizing@@@@QAEHI@Z 1004a524 f i libucrt:argv_wildcards.obj
 0001:000495d0       ?capacity@?$__crt_win32_buffer@DU__crt_win32_buffer_internal_dynamic_resizing@@@@QBEIXZ 1004a5d0 f i libucrt:argv_wildcards.obj
 0001:000495d4       ?close@?$__crt_unique_handle_t@U__crt_findfile_traits@@@@QAEXXZ 1004a5d4 f i libucrt:argv_wildcards.obj
 0001:000495eb       ?close@__crt_findfile_traits@@SA_NPAX@Z 1004a5eb f i libucrt:argv_wildcards.obj
 0001:00049600       ?data@?$__crt_win32_buffer@DU__crt_win32_buffer_internal_dynamic_resizing@@@@QAEPADXZ 1004a600 f i libucrt:argv_wildcards.obj
 0001:00049604       ?debug_info@?$__crt_win32_buffer@DU__crt_win32_buffer_internal_dynamic_resizing@@@@QBEABV__crt_win32_buffer_empty_debug_info@@XZ 1004a604 f i libucrt:argv_wildcards.obj
 0001:0004971d       ?get@?$__crt_unique_handle_t@U__crt_findfile_traits@@@@QBEPAXXZ 1004a71d f i libucrt:argv_wildcards.obj
 0001:00049753       ?get_invalid_value@__crt_findfile_traits@@SAPAXXZ 1004a753 f i libucrt:argv_wildcards.obj
 0001:000497a2       ?set_to_nullptr@?$__crt_win32_buffer@DU__crt_win32_buffer_internal_dynamic_resizing@@@@QAEXXZ 1004a7a2 f i libucrt:argv_wildcards.obj
 0001:000497b9       ?size@?$__crt_win32_buffer@DU__crt_win32_buffer_internal_dynamic_resizing@@@@QAEXI@Z 1004a7b9 f i libucrt:argv_wildcards.obj
 0001:000497da       ?strpbrk@@YAPADQADQBD@Z    1004a7da f i libucrt:argv_wildcards.obj
 0001:000497e5       ?wcspbrk@@YAPA_WPA_WPB_W@Z 1004a7e5 f i libucrt:argv_wildcards.obj
 0001:000497f0       ___acrt_expand_narrow_argv_wildcards 1004a7f0 f   libucrt:argv_wildcards.obj
 0001:000497fb       ___acrt_expand_wide_argv_wildcards 1004a7fb f   libucrt:argv_wildcards.obj
 0001:00049806       ??$__acrt_convert_wcs_mbs_cp@_WDV<lambda_0fec1a7b3f42a53036604e18c2d5e07e>@@U__crt_win32_buffer_no_resizing@@@@YAHQB_WAAV?$__crt_win32_buffer@DU__crt_win32_buffer_no_resizing@@@@ABV<lambda_0fec1a7b3f42a53036604e18c2d5e07e>@@I@Z 1004a806 f i libucrt:getmodulefilenamea.obj
 0001:000498c8       ??$__acrt_wcs_to_mbs_cp@U__crt_win32_buffer_no_resizing@@@@YAHQB_WAAV?$__crt_win32_buffer@DU__crt_win32_buffer_no_resizing@@@@I@Z 1004a8c8 f i libucrt:getmodulefilenamea.obj
 0001:000498e5       ??0?$__crt_win32_buffer@DU__crt_win32_buffer_no_resizing@@@@QAE@QADI@Z 1004a8e5 f i libucrt:getmodulefilenamea.obj
 0001:00049909       ??1?$__crt_win32_buffer@DU__crt_win32_buffer_no_resizing@@@@QAE@XZ 1004a909 f i libucrt:getmodulefilenamea.obj
 0001:00049914       ??R<lambda_0fec1a7b3f42a53036604e18c2d5e07e>@@QBE@IQB_WQADI@Z 1004a914 f i libucrt:getmodulefilenamea.obj
 0001:00049938       ?_deallocate@?$__crt_win32_buffer@DU__crt_win32_buffer_no_resizing@@@@AAEXXZ 1004a938 f i libucrt:getmodulefilenamea.obj
 0001:00049943       ?allocate@?$__crt_win32_buffer@DU__crt_win32_buffer_no_resizing@@@@QAEHI@Z 1004a943 f i libucrt:getmodulefilenamea.obj
 0001:0004996a       ?allocate@__crt_win32_buffer_no_resizing@@SAHQAPAXIABV__crt_win32_buffer_empty_debug_info@@@Z 1004a96a f i libucrt:getmodulefilenamea.obj
 0001:00049977       ?capacity@?$__crt_win32_buffer@DU__crt_win32_buffer_no_resizing@@@@QBEIXZ 1004a977 f i libucrt:getmodulefilenamea.obj
 0001:0004997b       ?data@?$__crt_win32_buffer@DU__crt_win32_buffer_no_resizing@@@@QAEPADXZ 1004a97b f i libucrt:getmodulefilenamea.obj
 0001:0004997f       ?deallocate@__crt_win32_buffer_no_resizing@@SAXQAXABV__crt_win32_buffer_empty_debug_info@@@Z 1004a97f f i libucrt:getmodulefilenamea.obj
 0001:00049982       ?debug_info@?$__crt_win32_buffer@DU__crt_win32_buffer_no_resizing@@@@QBEABV__crt_win32_buffer_empty_debug_info@@XZ 1004a982 f i libucrt:getmodulefilenamea.obj
 0001:00049985       ?set_to_nullptr@?$__crt_win32_buffer@DU__crt_win32_buffer_no_resizing@@@@QAEXXZ 1004a985 f i libucrt:getmodulefilenamea.obj
 0001:00049999       ?size@?$__crt_win32_buffer@DU__crt_win32_buffer_no_resizing@@@@QAEXI@Z 1004a999 f i libucrt:getmodulefilenamea.obj
 0001:000499a8       ?size@?$__crt_win32_buffer@DU__crt_win32_buffer_no_resizing@@@@QBEIXZ 1004a9a8 f i libucrt:getmodulefilenamea.obj
 0001:000499ac       ___acrt_GetModuleFileNameA 1004a9ac f   libucrt:getmodulefilenamea.obj
 0001:00049ac0       ??$initialize_from_array@$$BY10BAA@E@?$dual_state_global@PAE@__crt_state_management@@QAAXAAY10BAA@E@Z 1004aac0 f i libucrt:mbctype.obj
 0001:00049acf       ??$initialize_from_array@$$BY10BAB@E@?$dual_state_global@PAE@__crt_state_management@@QAAXAAY10BAB@E@Z 1004aacf f i libucrt:mbctype.obj
 0001:00049beb       ?dangerous_get_state_array@?$dual_state_global@PAE@__crt_state_management@@QAEPAPAEXZ 1004abeb f i libucrt:mbctype.obj
 0001:00049bee       ?dangerous_get_state_array@?$dual_state_global@PAU__crt_multibyte_data@@@__crt_state_management@@QAEPAPAU__crt_multibyte_data@@XZ 1004abee f i libucrt:mbctype.obj
 0001:00049c62       ?initialize@?$dual_state_global@PAU__crt_multibyte_data@@@__crt_state_management@@QAEXQAU__crt_multibyte_data@@@Z 1004ac62 f i libucrt:mbctype.obj
 0001:0004a07b       ?value@?$dual_state_global@PAE@__crt_state_management@@QAEAAPAEXZ 1004b07b f i libucrt:mbctype.obj
 0001:0004a07e       ___acrt_initialize_multibyte 1004b07e f   libucrt:mbctype.obj
 0001:0004a0c6       ___acrt_update_thread_multibyte_data 1004b0c6 f   libucrt:mbctype.obj
 0001:0004a0d9       ___p__mbcasemap            1004b0d9 f   libucrt:mbctype.obj
 0001:0004a0df       ___p__mbctype              1004b0df f   libucrt:mbctype.obj
 0001:0004a0e5       __getmbcp                  1004b0e5 f   libucrt:mbctype.obj
 0001:0004a119       __setmbcp                  1004b119 f   libucrt:mbctype.obj
 0001:0004a138       __setmbcp_nolock           1004b138 f   libucrt:mbctype.obj
 0001:0004a40e       __ismbbalnum               1004b40e f   libucrt:ismbbyte.obj
 0001:0004a429       __ismbbalnum_l             1004b429 f   libucrt:ismbbyte.obj
 0001:0004a445       __ismbbalpha               1004b445 f   libucrt:ismbbyte.obj
 0001:0004a460       __ismbbalpha_l             1004b460 f   libucrt:ismbbyte.obj
 0001:0004a47c       __ismbbblank               1004b47c f   libucrt:ismbbyte.obj
 0001:0004a49f       __ismbbblank_l             1004b49f f   libucrt:ismbbyte.obj
 0001:0004a4c3       __ismbbgraph               1004b4c3 f   libucrt:ismbbyte.obj
 0001:0004a4de       __ismbbgraph_l             1004b4de f   libucrt:ismbbyte.obj
 0001:0004a4fa       __ismbbkalnum              1004b4fa f   libucrt:ismbbyte.obj
 0001:0004a512       __ismbbkalnum_l            1004b512 f   libucrt:ismbbyte.obj
 0001:0004a52b       __ismbbkana                1004b52b f   libucrt:ismbbyte.obj
 0001:0004a53e       __ismbbkana_l              1004b53e f   libucrt:ismbbyte.obj
 0001:0004a58d       __ismbbkprint              1004b58d f   libucrt:ismbbyte.obj
 0001:0004a5a5       __ismbbkprint_l            1004b5a5 f   libucrt:ismbbyte.obj
 0001:0004a5be       __ismbbkpunct              1004b5be f   libucrt:ismbbyte.obj
 0001:0004a5d6       __ismbbkpunct_l            1004b5d6 f   libucrt:ismbbyte.obj
 0001:0004a5ef       __ismbblead                1004b5ef f   libucrt:ismbbyte.obj
 0001:0004a607       __ismbblead_l              1004b607 f   libucrt:ismbbyte.obj
 0001:0004a620       __ismbbprint               1004b620 f   libucrt:ismbbyte.obj
 0001:0004a63b       __ismbbprint_l             1004b63b f   libucrt:ismbbyte.obj
 0001:0004a657       __ismbbpunct               1004b657 f   libucrt:ismbbyte.obj
 0001:0004a66f       __ismbbpunct_l             1004b66f f   libucrt:ismbbyte.obj
 0001:0004a688       __ismbbtrail               1004b688 f   libucrt:ismbbyte.obj
 0001:0004a6a0       __ismbbtrail_l             1004b6a0 f   libucrt:ismbbyte.obj
 0001:0004a6b9       ___acrt_initialize_command_line 1004b6b9 f   libucrt:argv_data.obj
 0001:0004a6d2       ___acrt_uninitialize_command_line 1004b6d2 f   libucrt:argv_data.obj
 0001:0004a6d5       ___p___argc                1004b6d5 f   libucrt:argv_data.obj
 0001:0004a6db       ___p___argv                1004b6db f   libucrt:argv_data.obj
 0001:0004a6e1       ___p___wargv               1004b6e1 f   libucrt:argv_data.obj
 0001:0004a6e7       ___p__acmdln               1004b6e7 f   libucrt:argv_data.obj
 0001:0004a6ed       ___p__pgmptr               1004b6ed f   libucrt:argv_data.obj
 0001:0004a6f3       ___p__wcmdln               1004b6f3 f   libucrt:argv_data.obj
 0001:0004a6f9       ___p__wpgmptr              1004b6f9 f   libucrt:argv_data.obj
 0001:0004a6ff       __get_pgmptr               1004b6ff f   libucrt:argv_data.obj
 0001:0004a730       __get_wpgmptr              1004b730 f   libucrt:argv_data.obj
 0001:0004a7c5       _wcscpy_s                  1004b7c5 f   libucrt:wcscpy_s.obj
 0001:0004a8c4       ___dcrt_get_narrow_environment_from_os 1004b8c4 f   libucrt:get_environment_from_os.obj
 0001:0004a964       ___dcrt_get_wide_environment_from_os 1004b964 f   libucrt:get_environment_from_os.obj
 0001:0004b0ec       ??$get_or_create_environment_nolock@$$V@?$__crt_char_traits@D@@SAPAPADXZ 1004c0ec f i libucrt:setenv.obj
 0001:0004b0f1       ??$get_or_create_environment_nolock@$$V@?$__crt_char_traits@_W@@SAPAPA_WXZ 1004c0f1 f i libucrt:setenv.obj
 0001:0004b0f6       ??$set_environment_variable@ABQADQAD@?$__crt_char_traits@D@@SAHABQAD$$QBQAD@Z 1004c0f6 f i libucrt:setenv.obj
 0001:0004b10e       ??$set_environment_variable@ABQA_WQA_W@?$__crt_char_traits@_W@@SAHABQA_W$$QBQA_W@Z 1004c10e f i libucrt:setenv.obj
 0001:0004b125       ??$tcschr@ABQADD@?$__crt_char_traits@D@@SAPADABQAD$$QAD@Z 1004c125 f i libucrt:setenv.obj
 0001:0004b13f       ??$tcschr@ABQA_WD@?$__crt_char_traits@_W@@SAPA_WABQA_W$$QAD@Z 1004c13f f i libucrt:setenv.obj
 0001:0004b15d       ??$tcscpy_s@AAPADABIAAPAD@?$__crt_char_traits@D@@SAHAAPADABI0@Z 1004c15d f i libucrt:setenv.obj
 0001:0004b17b       ??$tcscpy_s@AAPA_WABIAAPA_W@?$__crt_char_traits@_W@@SAHAAPA_WABI0@Z 1004c17b f i libucrt:setenv.obj
 0001:0004b199       ??$tcscpy_s@ABQADABIABQAD@?$__crt_char_traits@D@@SAHABQADABI0@Z 1004c199 f i libucrt:setenv.obj
 0001:0004b1b7       ??$tcscpy_s@ABQA_WABIABQA_W@?$__crt_char_traits@_W@@SAHABQA_WABI0@Z 1004c1b7 f i libucrt:setenv.obj
 0001:0004b1d5       ??$tcslen@ABQAD@?$__crt_char_traits@D@@SAIABQAD@Z 1004c1d5 f i libucrt:setenv.obj
 0001:0004b1ed       ??$tcslen@ABQA_W@?$__crt_char_traits@_W@@SAIABQA_W@Z 1004c1ed f i libucrt:setenv.obj
 0001:0004b20b       ??$tcsnicoll@ABQBDAAPADABI@?$__crt_char_traits@D@@SAHABQBDAAPADABI@Z 1004c20b f i libucrt:setenv.obj
 0001:0004b229       ??$tcsnicoll@ABQB_WAAPA_WABI@?$__crt_char_traits@_W@@SAHABQB_WAAPA_WABI@Z 1004c229 f i libucrt:setenv.obj
 0001:0004b26b       ?strchr@@YAPADQADH@Z       1004c26b f i libucrt:setenv.obj
 0001:0004b276       ?wcschr@@YAPA_WPA_W_W@Z    1004c276 f i libucrt:setenv.obj
 0001:0004b281       ___dcrt_set_variable_in_narrow_environment_nolock 1004c281 f   libucrt:setenv.obj
 0001:0004b28c       ___dcrt_set_variable_in_wide_environment_nolock 1004c28c f   libucrt:setenv.obj
 0001:0004b297       __recalloc                 1004c297 f   libucrt:recalloc.obj
 0001:0004b2a2       __recalloc_base            1004c2a2 f   libucrt:recalloc.obj
 0001:0004b30f       ___acrt_getheap            1004c30f f   libucrt:heap_handle.obj
 0001:0004b315       ___acrt_initialize_heap    1004c315 f   libucrt:heap_handle.obj
 0001:0004b326       ___acrt_uninitialize_heap  1004c326 f   libucrt:heap_handle.obj
 0001:0004b330       __get_heap_handle          1004c330 f   libucrt:heap_handle.obj
 0001:0004b336       ___acrt_execute_initializers 1004c336 f   libucrt:shared_initialization.obj
 0001:0004b39e       ___acrt_execute_uninitializers 1004c39e f   libucrt:shared_initialization.obj
 0001:0004b3cf       ??$?B$$A6AHI@Z@__crt_fast_encoded_nullptr_t@@QBEP6AHI@ZXZ 1004c3cf f i libucrt:new_handler.obj
 0001:0004b3d5       ??$__crt_fast_decode_pointer@P6AHI@Z@@YAP6AHI@ZQ6AHI@Z@Z 1004c3d5 f i libucrt:new_handler.obj
 0001:0004b3f0       ??$__crt_fast_encode_pointer@P6AHI@Z@@YAP6AHI@ZQ6AHI@Z@Z 1004c3f0 f i libucrt:new_handler.obj
 0001:0004b40f       ?_set_new_handler@@YAP6AHI@ZH@Z 1004c40f f   libucrt:new_handler.obj
 0001:0004b41c       ?initialize@?$dual_state_global@P6AHI@Z@__crt_state_management@@QAEXQ6AHI@Z@Z 1004c41c f i libucrt:new_handler.obj
 0001:0004b438       ?value@?$dual_state_global@P6AHI@Z@__crt_state_management@@QAEAAP6AHI@ZXZ 1004c438 f i libucrt:new_handler.obj
 0001:0004b43b       ___acrt_initialize_new_handler 1004c43b f   libucrt:new_handler.obj
 0001:0004b44a       __callnewh                 1004c44a f   libucrt:new_handler.obj
 0001:0004b476       __query_new_handler        1004c476 f   libucrt:new_handler.obj
 0001:0004b4cd       __set_new_handler          1004c4cd f   libucrt:new_handler.obj
 0001:0004b532       ??$?B$$A6AXH@Z@__crt_fast_encoded_nullptr_t@@QBEP6AXH@ZXZ 1004c532 f i libucrt:signal.obj
 0001:0004b5c6       ??$__crt_fast_decode_pointer@P6AXH@Z@@YAP6AXH@ZQ6AXH@Z@Z 1004c5c6 f i libucrt:signal.obj
 0001:0004b5e1       ??$__crt_fast_encode_pointer@P6AXH@Z@@YAP6AXH@ZQ6AXH@Z@Z 1004c5e1 f i libucrt:signal.obj
 0001:0004b73d       ?initialize@?$dual_state_global@P6AXH@Z@__crt_state_management@@QAEXQ6AXH@Z@Z 1004c73d f i libucrt:signal.obj
 0001:0004b7e7       ?value@?$dual_state_global@P6AXH@Z@__crt_state_management@@QAEAAP6AXH@ZXZ 1004c7e7 f i libucrt:signal.obj
 0001:0004b7ea       ___acrt_get_sigabrt_handler 1004c7ea f   libucrt:signal.obj
 0001:0004b811       ___acrt_initialize_signal_handlers 1004c811 f   libucrt:signal.obj
 0001:0004b82f       ___fpecode                 1004c82f f   libucrt:signal.obj
 0001:0004b838       ___pxcptinfoptrs           1004c838 f   libucrt:signal.obj
 0001:0004b841       _raise                     1004c841 f   libucrt:signal.obj
 0001:0004ba33       _signal                    1004ca33 f   libucrt:signal.obj
 0001:0004bbf7       ??$__crt_fast_decode_pointer@P6AHPAU_exception@@@Z@@YAP6AHPAU_exception@@@ZQ6AH0@Z@Z 1004cbf7 f i libucrt:matherr.obj
 0001:0004bc12       ??$__crt_fast_encode_pointer@P6AHPAU_exception@@@Z@@YAP6AHPAU_exception@@@ZQ6AH0@Z@Z 1004cc12 f i libucrt:matherr.obj
 0001:0004bc31       ?initialize@?$dual_state_global@P6AHPAU_exception@@@Z@__crt_state_management@@QAEXQ6AHPAU_exception@@@Z@Z 1004cc31 f i libucrt:matherr.obj
 0001:0004bc4d       ?value@?$dual_state_global@P6AHPAU_exception@@@Z@__crt_state_management@@QAEAAP6AHPAU_exception@@@ZXZ 1004cc4d f i libucrt:matherr.obj
 0001:0004bc50       ___acrt_has_user_matherr   1004cc50 f   libucrt:matherr.obj
 0001:0004bc6d       ___acrt_initialize_user_matherr 1004cc6d f   libucrt:matherr.obj
 0001:0004bc7c       ___acrt_invoke_user_matherr 1004cc7c f   libucrt:matherr.obj
 0001:0004bcb2       ___setusermatherr          1004ccb2 f   libucrt:matherr.obj
 0001:0004bcc7       ___pctype_func             1004ccc7 f   libucrt:ctype.obj
 0001:0004bceb       ___pwctype_func            1004cceb f   libucrt:ctype.obj
 0001:0004bcf1       __iswctype_l               1004ccf1 f   libucrt:iswctype.obj
 0001:0004bd05       _iswctype                  1004cd05 f   libucrt:iswctype.obj
 0001:0004bd6e       __isctype                  1004cd6e f   libucrt:isctype.obj
 0001:0004bda1       __isctype_l                1004cda1 f   libucrt:isctype.obj
 0001:0004bf0c       ___acrt_report_runtime_error 1004cf0c f   libucrt:report_runtime_error.obj
 0001:0004c021       __query_app_type           1004d021 f   libucrt:report_runtime_error.obj
 0001:0004c027       __set_app_type             1004d027 f   libucrt:report_runtime_error.obj
 0001:0004c036       ___acrt_add_locale_ref     1004d036 f   libucrt:locale_refcounting.obj
 0001:0004c0b3       ___acrt_free_locale        1004d0b3 f   libucrt:locale_refcounting.obj
 0001:0004c1fb       ___acrt_locale_add_lc_time_reference 1004d1fb f   libucrt:locale_refcounting.obj
 0001:0004c224       ___acrt_locale_free_lc_time_if_unreferenced 1004d224 f   libucrt:locale_refcounting.obj
 0001:0004c255       ___acrt_locale_release_lc_time_reference 1004d255 f   libucrt:locale_refcounting.obj
 0001:0004c27e       ___acrt_release_locale_ref 1004d27e f   libucrt:locale_refcounting.obj
 0001:0004c2ff       ___acrt_update_thread_locale_data 1004d2ff f   libucrt:locale_refcounting.obj
 0001:0004c380       __updatetlocinfoEx_nolock  1004d380 f   libucrt:locale_refcounting.obj
 0001:0004c3d0       ??$?RG@__crt_internal_free_policy@@QBEXQBG@Z 1004d3d0 f i libucrt:initctype.obj
 0001:0004c3e2       ??$?RJ@__crt_internal_free_policy@@QBEXQBJ@Z 1004d3e2 f i libucrt:initctype.obj
 0001:0004c3f4       ??0?$__crt_unique_heap_ptr@GU__crt_internal_free_policy@@@@QAE@QAG@Z 1004d3f4 f i libucrt:initctype.obj
 0001:0004c404       ??0?$__crt_unique_heap_ptr@JU__crt_internal_free_policy@@@@QAE@QAJ@Z 1004d404 f i libucrt:initctype.obj
 0001:0004c414       ??1?$__crt_unique_heap_ptr@GU__crt_internal_free_policy@@@@QAE@XZ 1004d414 f i libucrt:initctype.obj
 0001:0004c426       ??1?$__crt_unique_heap_ptr@JU__crt_internal_free_policy@@@@QAE@XZ 1004d426 f i libucrt:initctype.obj
 0001:0004c438       ?detach@?$__crt_unique_heap_ptr@GU__crt_internal_free_policy@@@@QAEPAGXZ 1004d438 f i libucrt:initctype.obj
 0001:0004c43e       ?detach@?$__crt_unique_heap_ptr@JU__crt_internal_free_policy@@@@QAEPAJXZ 1004d43e f i libucrt:initctype.obj
 0001:0004c444       ?release@?$__crt_unique_heap_ptr@GU__crt_internal_free_policy@@@@QAEXXZ 1004d444 f i libucrt:initctype.obj
 0001:0004c456       ?release@?$__crt_unique_heap_ptr@JU__crt_internal_free_policy@@@@QAEXXZ 1004d456 f i libucrt:initctype.obj
 0001:0004c468       ____lc_codepage_func       1004d468 f   libucrt:initctype.obj
 0001:0004c48d       ____lc_collate_cp_func     1004d48d f   libucrt:initctype.obj
 0001:0004c4b2       ____lc_locale_name_func    1004d4b2 f   libucrt:initctype.obj
 0001:0004c4d9       ____mb_cur_max_func        1004d4d9 f   libucrt:initctype.obj
 0001:0004c4fe       ____mb_cur_max_l_func      1004d4fe f   libucrt:initctype.obj
 0001:0004c517       ___acrt_locale_initialize_ctype 1004d517 f   libucrt:initctype.obj
 0001:0004c974       ??$?RUlconv@@@__crt_internal_free_policy@@QBEXQBUlconv@@@Z 1004d974 f i libucrt:initmon.obj
 0001:0004c986       ??0?$__crt_unique_heap_ptr@Ulconv@@U__crt_internal_free_policy@@@@QAE@QAUlconv@@@Z 1004d986 f i libucrt:initmon.obj
 0001:0004c996       ??1?$__crt_unique_heap_ptr@Ulconv@@U__crt_internal_free_policy@@@@QAE@XZ 1004d996 f i libucrt:initmon.obj
 0001:0004c9a8       ?detach@?$__crt_unique_heap_ptr@Ulconv@@U__crt_internal_free_policy@@@@QAEPAUlconv@@XZ 1004d9a8 f i libucrt:initmon.obj
 0001:0004c9ae       ?release@?$__crt_unique_heap_ptr@Ulconv@@U__crt_internal_free_policy@@@@QAEXXZ 1004d9ae f i libucrt:initmon.obj
 0001:0004c9c0       ___acrt_locale_free_monetary 1004d9c0 f   libucrt:initmon.obj
 0001:0004cabe       ___acrt_locale_initialize_monetary 1004dabe f   libucrt:initmon.obj
 0001:0004ce56       ___acrt_locale_free_numeric 1004de56 f   libucrt:initnum.obj
 0001:0004cebf       ___acrt_locale_initialize_numeric 1004debf f   libucrt:initnum.obj
 0001:0004d113       ??$?RU__crt_lc_time_data@@@__crt_internal_free_policy@@QBEXQBU__crt_lc_time_data@@@Z 1004e113 f i libucrt:inittime.obj
 0001:0004d197       ??0?$__crt_unique_heap_ptr@U__crt_lc_time_data@@U__crt_internal_free_policy@@@@QAE@QAU__crt_lc_time_data@@@Z 1004e197 f i libucrt:inittime.obj
 0001:0004d1a7       ??1?$__crt_unique_heap_ptr@U__crt_lc_time_data@@U__crt_internal_free_policy@@@@QAE@XZ 1004e1a7 f i libucrt:inittime.obj
 0001:0004d1b9       ??B?$__crt_unique_heap_ptr@U__crt_lc_time_data@@U__crt_internal_free_policy@@@@QBE_NXZ 1004e1b9 f i libucrt:inittime.obj
 0001:0004d1c0       ?detach@?$__crt_unique_heap_ptr@U__crt_lc_time_data@@U__crt_internal_free_policy@@@@QAEPAU__crt_lc_time_data@@XZ 1004e1c0 f i libucrt:inittime.obj
 0001:0004d1eb       ?get@?$__crt_unique_heap_ptr@U__crt_lc_time_data@@U__crt_internal_free_policy@@@@QBEPAU__crt_lc_time_data@@XZ 1004e1eb f i libucrt:inittime.obj
 0001:0004d4d6       ?is_valid@?$__crt_unique_heap_ptr@U__crt_lc_time_data@@U__crt_internal_free_policy@@@@QBE_NXZ 1004e4d6 f i libucrt:inittime.obj
 0001:0004d4dd       ?release@?$__crt_unique_heap_ptr@U__crt_lc_time_data@@U__crt_internal_free_policy@@@@QAEXXZ 1004e4dd f i libucrt:inittime.obj
 0001:0004d4ef       ___acrt_locale_free_time   1004e4ef f   libucrt:inittime.obj
 0001:0004d5d3       ___acrt_locale_initialize_time 1004e5d3 f   libucrt:inittime.obj
 0001:0004d6be       _wcscat_s                  1004e6be f   libucrt:wcscat_s.obj
 0001:0004d815       _wcsncat_s                 1004e815 f   libucrt:wcsncat_s.obj
 0001:0004d8ee       _wcsncpy_s                 1004e8ee f   libucrt:wcsncpy_s.obj
 0001:0004d8f9       _wcscspn                   1004e8f9 f   libucrt:wcscspn.obj
 0001:0004d952       _wcspbrk                   1004e952 f   libucrt:wcspbrk.obj
 0001:0004d9a0       ??0?$__crt_scoped_stack_ptr@_W@@QAE@U?$__crt_scoped_stack_ptr_tag@_W@@@Z 1004e9a0 f i libucrt:getstringtypea.obj
 0001:0004d9b0       ??0?$__crt_scoped_stack_ptr_tag@_W@@QAE@QA_W@Z 1004e9b0 f i libucrt:getstringtypea.obj
 0001:0004d9c0       ??1?$__crt_scoped_stack_ptr@_W@@QAE@XZ 1004e9c0 f i libucrt:getstringtypea.obj
 0001:0004d9c9       ?get@?$__crt_scoped_stack_ptr@_W@@QBEPA_WXZ 1004e9c9 f i libucrt:getstringtypea.obj
 0001:0004d9cc       __MallocaComputeSize       1004e9cc f i libucrt:getstringtypea.obj
 0001:0004d9df       __MarkAllocaS              1004e9df f i libucrt:getstringtypea.obj
 0001:0004d9f5       ___acrt_GetStringTypeA     1004e9f5 f   libucrt:getstringtypea.obj
 0001:0004daf6       __freea_crt                1004eaf6 f i libucrt:getstringtypea.obj
 0001:0004e256       ___acrt_get_qualified_locale 1004f256 f   libucrt:get_qualified_locale.obj
 0001:0004ebe9       ___acrt_get_qualified_locale_downlevel 1004fbe9 f   libucrt:getqloc_downlevel.obj
 0001:0004edd9       _localeconv                1004fdd9 f   libucrt:localeconv.obj
 0001:0004ee01       ?value@?$dual_state_global@J@__crt_state_management@@QAEAAJXZ 1004fe01 f i libucrt:new_mode.obj
 0001:0004ee04       __query_new_mode           1004fe04 f   libucrt:new_mode.obj
 0001:0004ee0b       __set_new_mode             1004fe0b f   libucrt:new_mode.obj
 0001:0004ee3a       ?dangerous_get_state_array@?$dual_state_global@H@__crt_state_management@@QAEPAHXZ 1004fe3a f i libucrt:txtmode.obj
 0001:0004ee3d       ___acrt_initialize_fmode   1004fe3d f   libucrt:txtmode.obj
 0001:0004ee53       ___p__fmode                1004fe53 f   libucrt:txtmode.obj
 0001:0004eee0       ___acrt_DownlevelLCIDToLocaleName 1004fee0 f   libucrt:lcidtoname_downlevel.obj
 0001:0004ef83       ___acrt_DownlevelLocaleNameToLCID 1004ff83 f   libucrt:lcidtoname_downlevel.obj
 0001:0004efaf       ?__c16rtomb_utf8@__crt_mbstring@@YAIPAD_SPAU_Mbstatet@@AAV__crt_cached_ptd_host@@@Z 1004ffaf f   libucrt:c16rtomb.obj
 0001:0004f0d0       _c16rtomb                  100500d0 f   libucrt:c16rtomb.obj
 0001:0004f107       ?__c32rtomb_utf8@__crt_mbstring@@YAIPAD_UPAU_Mbstatet@@AAV__crt_cached_ptd_host@@@Z 10050107 f   libucrt:c32rtomb.obj
 0001:0004f1b7       _c32rtomb                  100501b7 f   libucrt:c32rtomb.obj
 0001:0004f29f       ___acrt_fp_strflt_to_string 1005029f f   libucrt:_fptostr.obj
 0001:00050660       ??0big_integer@__crt_strtox@@QAE@ABU01@@Z 10051660 f i libucrt:cfout.obj
 0001:000506a0       ??0big_integer@__crt_strtox@@QAE@XZ 100516a0 f i libucrt:cfout.obj
 0001:00050730       ??4big_integer@__crt_strtox@@QAEAAU01@ABU01@@Z 10051730 f i libucrt:cfout.obj
 0001:00050770       ??8__crt_strtox@@YA_NABUbig_integer@0@0@Z 10051770 f i libucrt:cfout.obj
 0001:000507b0       ??9__crt_strtox@@YA_NABUbig_integer@0@0@Z 100517b0 f i libucrt:cfout.obj
 0001:000507f0       ?add_carry@__crt_strtox@@YAIAAIII@Z 100517f0 f i libucrt:cfout.obj
 0001:00050810       ?add_multiply_carry@__crt_strtox@@YAIAAIIII@Z 10051810 f i libucrt:cfout.obj
 0001:00050840       ?bit_scan_reverse@__crt_strtox@@YAII@Z 10051840 f i libucrt:cfout.obj
 0001:00050860       ?count_sequential_high_zeroes@__crt_strtox@@YAII@Z 10051860 f i libucrt:cfout.obj
 0001:00050880       ?divide@__crt_strtox@@YA_KAAUbig_integer@1@ABU21@@Z 10051880 f i libucrt:cfout.obj
 0001:00050d30       ?is_zero@__crt_strtox@@YA_NABUbig_integer@1@@Z 10051d30 f i libucrt:cfout.obj
 0001:00050d40       ?make_big_integer@__crt_strtox@@YA?AUbig_integer@1@_K@Z 10051d40 f i libucrt:cfout.obj
 0001:00050d60       ?make_big_integer_power_of_two@__crt_strtox@@YA?AUbig_integer@1@I@Z 10051d60 f i libucrt:cfout.obj
 0001:00050db0       ?multiply@__crt_strtox@@YA_NAAUbig_integer@1@ABU21@@Z 10051db0 f i libucrt:cfout.obj
 0001:00051110       ?multiply@__crt_strtox@@YA_NAAUbig_integer@1@I@Z 10052110 f i libucrt:cfout.obj
 0001:000511e0       ?multiply_64_32@__crt_strtox@@YA_K_KI@Z 100521e0 f i libucrt:cfout.obj
 0001:00051200       ?multiply_by_power_of_ten@__crt_strtox@@YA_NAAUbig_integer@1@I@Z 10052200 f i libucrt:cfout.obj
 0001:00051790       ?multiply_core@__crt_strtox@@YAIQAIII@Z 10052790 f i libucrt:cfout.obj
 0001:000517d0       ?shift_left@__crt_strtox@@YA_NAAUbig_integer@1@I@Z 100527d0 f i libucrt:cfout.obj
 0001:000518ff       ___acrt_fltout             100528ff f   libucrt:cfout.obj
 0001:00052f68       ___fpe_flt_rounds          10053f68 f   libucrt:fegetround.obj
 0001:00052f9c       _fegetround                10053f9c f   libucrt:fegetround.obj
 0001:00052fa9       __fcloseall                10053fa9 f   libucrt:closeall.obj
 0001:00053054       ?__mbrtoc32_utf8@__crt_mbstring@@YAIPA_UPBDIPAU_Mbstatet@@AAV__crt_cached_ptd_host@@@Z 10054054 f   libucrt:mbrtoc32.obj
 0001:00053205       _mbrtoc32                  10054205 f   libucrt:mbrtoc32.obj
 0001:000532ef       ___dcrt_lowio_ensure_console_output_initialized 100542ef f   libucrt:initcon.obj
 0001:0005330e       ___dcrt_terminate_console_output 1005430e f   libucrt:initcon.obj
 0001:00053325       ___dcrt_write_console      10054325 f   libucrt:initcon.obj
 0001:0005337a       ___ascii_wcsnicmp          1005437a f   libucrt:wcsnicmp.obj
 0001:000533c9       __towlower_fast_internal   100543c9 f i libucrt:wcsnicmp.obj
 0001:000533f4       __towlower_internal        100543f4 f i libucrt:wcsnicmp.obj
 0001:00053433       __wcsnicmp                 10054433 f   libucrt:wcsnicmp.obj
 0001:0005347f       __wcsnicmp_l               1005447f f   libucrt:wcsnicmp.obj
 0001:00053552       __strnicmp                 10054552 f   libucrt:strnicmp.obj
 0001:000535bf       __strnicmp_l               100545bf f   libucrt:strnicmp.obj
 0001:0005368a       ___p__commode              1005468a f   libucrt:ncommode.obj
 0001:000537f3       __commit                   100547f3 f   libucrt:commit.obj
 0001:00053870       ___acrt_stdio_allocate_buffer_nolock 10054870 f   libucrt:_getbuf.obj
 0001:00053990       _qsort                     10054990 f   libucrt:qsort.obj
 0001:00053e80       _strpbrk                   10054e80 f   libucrt:strpbrk.obj
 0001:00053ec0       __mbsdec                   10054ec0 f   libucrt:mbsdec.obj
 0001:00053ed7       __mbsdec_l                 10054ed7 f   libucrt:mbsdec.obj
 0001:00053f64       ??B?$__crt_scoped_stack_ptr@_W@@QBE_NXZ 10054f64 f i libucrt:lcmapstringa.obj
 0001:0005415a       ___acrt_LCMapStringA       1005515a f   libucrt:lcmapstringa.obj
 0001:000541b2       __wcsnicoll                100551b2 f   libucrt:wcsnicol.obj
 0001:0005421f       __wcsnicoll_l              1005521f f   libucrt:wcsnicol.obj
 0001:000542df       __strnicoll                100552df f   libucrt:strnicol.obj
 0001:00054308       __strnicoll_l              10055308 f   libucrt:strnicol.obj
 0001:000543d0       ___acrt_SetEnvironmentVariableA 100553d0 f   libucrt:setenvironmentvariablea.obj
 0001:00054465       __msize                    10055465 f   libucrt:msize.obj
 0001:00054470       __msize_base               10055470 f   libucrt:msize.obj
 0001:000544a3       __realloc_base             100554a3 f   libucrt:realloc_base.obj
 0001:0005450c       ___acrt_GetStringTypeW     1005550c f   libucrt:getstringtypew.obj
 0001:00054525       __set_error_mode           10055525 f   libucrt:set_error_mode.obj
 0001:00054667       ??$message_box@$$TABQBDABQBDK@?$__crt_char_traits@D@@SAH$$QA$$TABQBD1$$QAK@Z 10055667 f i libucrt:crtmbox.obj
 0001:00054687       ??$message_box@$$TABQB_WABQB_WK@?$__crt_char_traits@_W@@SAH$$QA$$TABQB_W1$$QAK@Z 10055687 f i libucrt:crtmbox.obj
 0001:000546a7       ??$message_box@PAUHWND__@@ABQBDABQBDABI@?$__crt_char_traits@D@@SAH$$QAPAUHWND__@@ABQBD1ABI@Z 100556a7 f i libucrt:crtmbox.obj
 0001:000546c7       ??$message_box@PAUHWND__@@ABQB_WABQB_WABI@?$__crt_char_traits@_W@@SAH$$QAPAUHWND__@@ABQB_W1ABI@Z 100556c7 f i libucrt:crtmbox.obj
 0001:000546e7       ??$output_debug_string@ABQBD@?$__crt_char_traits@D@@SAXABQBD@Z 100556e7 f i libucrt:crtmbox.obj
 0001:000546f8       ??$output_debug_string@ABQB_W@?$__crt_char_traits@_W@@SAXABQB_W@Z 100556f8 f i libucrt:crtmbox.obj
 0001:0005470a       ___acrt_show_narrow_message_box 1005570a f   libucrt:crtmbox.obj
 0001:00054715       ___acrt_show_wide_message_box 10055715 f   libucrt:crtmbox.obj
 0001:000547ff       ___acrt_GetLocaleInfoA     100557ff f   libucrt:getlocaleinfoa.obj
 0001:00054eb1       __i64toa                   10055eb1 f   libucrt:xtoa.obj
 0001:00054ef2       __i64toa_s                 10055ef2 f   libucrt:xtoa.obj
 0001:00054f31       __i64tow                   10055f31 f   libucrt:xtoa.obj
 0001:00054f72       __i64tow_s                 10055f72 f   libucrt:xtoa.obj
 0001:00054fb1       __itoa                     10055fb1 f   libucrt:xtoa.obj
 0001:00054fe6       __itoa_s                   10055fe6 f   libucrt:xtoa.obj
 0001:00055019       __itow                     10056019 f   libucrt:xtoa.obj
 0001:0005504e       __itow_s                   1005604e f   libucrt:xtoa.obj
 0001:00055081       __ltoa                     10056081 f   libucrt:xtoa.obj
 0001:000550b6       __ltoa_s                   100560b6 f   libucrt:xtoa.obj
 0001:000550e9       __ltow                     100560e9 f   libucrt:xtoa.obj
 0001:0005511e       __ltow_s                   1005611e f   libucrt:xtoa.obj
 0001:00055151       __ui64toa                  10056151 f   libucrt:xtoa.obj
 0001:00055173       __ui64toa_s                10056173 f   libucrt:xtoa.obj
 0001:00055193       __ui64tow                  10056193 f   libucrt:xtoa.obj
 0001:000551b5       __ui64tow_s                100561b5 f   libucrt:xtoa.obj
 0001:000551d5       __ultoa                    100561d5 f   libucrt:xtoa.obj
 0001:000551f4       __ultoa_s                  100561f4 f   libucrt:xtoa.obj
 0001:00055211       __ultow                    10056211 f   libucrt:xtoa.obj
 0001:00055230       __ultow_s                  10056230 f   libucrt:xtoa.obj
 0001:0005524d       ___ascii_wcsicmp           1005624d f   libucrt:wcsicmp.obj
 0001:0005528a       __wcsicmp                  1005628a f   libucrt:wcsicmp.obj
 0001:000552d3       __wcsicmp_l                100562d3 f   libucrt:wcsicmp.obj
 0001:0005538b       ?reset_and_return@__crt_mbstring@@YAIIPAU_Mbstatet@@@Z 1005638b f   libucrt:common_utf8.obj
 0001:0005539f       ?return_illegal_sequence@__crt_mbstring@@YAIPAU_Mbstatet@@AAV__crt_cached_ptd_host@@@Z 1005639f f   libucrt:common_utf8.obj
 0001:000553c1       __controlfp_s              100563c1 f   libucrt:contrlfp.obj
 0001:00055420       _fegetenv                  10056420 f   libucrt:fegetenv.obj
 0001:0005543d       _fesetenv                  1005643d f   libucrt:fesetenv.obj
 0001:00055489       _feholdexcept              10056489 f   libucrt:feholdexcept.obj
 0001:000554e0       __CIlog10                  100564e0 f   libucrt:log10_impl.obj
 0001:0005551b       __CIlog10_default          1005651b f   libucrt:log10_impl.obj
 0001:0005552f       __log10_default            1005652f     libucrt:log10_impl.obj
 0001:000555f0       _ceil                      100565f0 f   libucrt:ceil_pentium4.obj
 0001:00055630       __ceil_pentium4            10056630 f   libucrt:ceil_pentium4.obj
 0001:0005570d       ??$__acrt_fenv_shift_bits@W4__acrt_fenv_abstract_control@@@@YA?AW4__acrt_fenv_abstract_control@@W40@0I@Z 1005670d f i libucrt:_fenvutils.obj
 0001:0005571f       ??$__acrt_fenv_shift_bits@W4__acrt_fenv_abstract_status@@@@YA?AW4__acrt_fenv_abstract_status@@W40@0I@Z 1005671f f i libucrt:_fenvutils.obj
 0001:00055731       ??$__acrt_fenv_translate_bit@W4__acrt_fenv_abstract_control@@W4__acrt_fenv_machine_sse_control@@@@YA?AW4__acrt_fenv_abstract_control@@W4__acrt_fenv_machine_sse_control@@0W40@1@Z 10056731 f i libucrt:_fenvutils.obj
 0001:00055749       ??$__acrt_fenv_translate_bit@W4__acrt_fenv_abstract_control@@W4__acrt_fenv_machine_x87_control@@@@YA?AW4__acrt_fenv_abstract_control@@W4__acrt_fenv_machine_x87_control@@0W40@1@Z 10056749 f i libucrt:_fenvutils.obj
 0001:00055761       ??$__acrt_fenv_translate_bit@W4__acrt_fenv_abstract_status@@W4__acrt_fenv_machine_sse_status@@@@YA?AW4__acrt_fenv_abstract_status@@W4__acrt_fenv_machine_sse_status@@0W40@1@Z 10056761 f i libucrt:_fenvutils.obj
 0001:00055776       ??$__acrt_fenv_translate_bit@W4__acrt_fenv_abstract_status@@W4__acrt_fenv_machine_x87_status@@@@YA?AW4__acrt_fenv_abstract_status@@W4__acrt_fenv_machine_x87_status@@0W40@1@Z 10056776 f i libucrt:_fenvutils.obj
 0001:0005578b       ??$__acrt_fenv_translate_bit@W4__acrt_fenv_machine_sse_control@@W4__acrt_fenv_abstract_control@@@@YA?AW4__acrt_fenv_machine_sse_control@@W4__acrt_fenv_abstract_control@@0W40@1@Z 1005678b f i libucrt:_fenvutils.obj
 0001:000557a2       ??$__acrt_fenv_translate_bit@W4__acrt_fenv_machine_sse_status@@W4__acrt_fenv_abstract_status@@@@YA?AW4__acrt_fenv_machine_sse_status@@W4__acrt_fenv_abstract_status@@0W40@1@Z 100567a2 f i libucrt:_fenvutils.obj
 0001:000557b7       ??$__acrt_fenv_translate_bit@W4__acrt_fenv_machine_x87_control@@W4__acrt_fenv_abstract_control@@@@YA?AW4__acrt_fenv_machine_x87_control@@W4__acrt_fenv_abstract_control@@0W40@1@Z 100567b7 f i libucrt:_fenvutils.obj
 0001:000557ce       ??$__acrt_fenv_translate_bit@W4__acrt_fenv_machine_x87_status@@W4__acrt_fenv_abstract_status@@@@YA?AW4__acrt_fenv_machine_x87_status@@W4__acrt_fenv_abstract_status@@0W40@1@Z 100567ce f i libucrt:_fenvutils.obj
 0001:000557e3       ??$__acrt_fenv_unshift_bits@W4__acrt_fenv_abstract_control@@@@YA?AW4__acrt_fenv_abstract_control@@W40@0I@Z 100567e3 f i libucrt:_fenvutils.obj
 0001:000557f5       ??$__acrt_fenv_unshift_bits@W4__acrt_fenv_abstract_status@@@@YA?AW4__acrt_fenv_abstract_status@@W40@0I@Z 100567f5 f i libucrt:_fenvutils.obj
 0001:00055bea       ??I@YA?AW4__acrt_fenv_abstract_control@@W40@0@Z 10056bea f i libucrt:_fenvutils.obj
 0001:00055bf7       ??I@YA?AW4__acrt_fenv_abstract_status@@W40@0@Z 10056bf7 f i libucrt:_fenvutils.obj
 0001:00055c04       ??I@YA?AW4__acrt_fenv_machine_sse_control@@W40@0@Z 10056c04 f i libucrt:_fenvutils.obj
 0001:00055c11       ??I@YA?AW4__acrt_fenv_machine_sse_status@@W40@0@Z 10056c11 f i libucrt:_fenvutils.obj
 0001:00055c1e       ??I@YA?AW4__acrt_fenv_machine_x87_control@@W40@0@Z 10056c1e f i libucrt:_fenvutils.obj
 0001:00055c2b       ??I@YA?AW4__acrt_fenv_machine_x87_status@@W40@0@Z 10056c2b f i libucrt:_fenvutils.obj
 0001:00055c38       ??U@YA?AW4__acrt_fenv_abstract_control@@W40@0@Z 10056c38 f i libucrt:_fenvutils.obj
 0001:00055c45       ??U@YA?AW4__acrt_fenv_abstract_status@@W40@0@Z 10056c45 f i libucrt:_fenvutils.obj
 0001:00055c52       ??U@YA?AW4__acrt_fenv_machine_sse_control@@W40@0@Z 10056c52 f i libucrt:_fenvutils.obj
 0001:00055c5f       ??U@YA?AW4__acrt_fenv_machine_x87_control@@W40@0@Z 10056c5f f i libucrt:_fenvutils.obj
 0001:00055c6c       ??_5@YAAAW4__acrt_fenv_abstract_control@@AAW40@W40@@Z 10056c6c f i libucrt:_fenvutils.obj
 0001:00055c7b       ??_5@YAAAW4__acrt_fenv_abstract_status@@AAW40@W40@@Z 10056c7b f i libucrt:_fenvutils.obj
 0001:00055c8a       ??_5@YAAAW4__acrt_fenv_machine_sse_control@@AAW40@W40@@Z 10056c8a f i libucrt:_fenvutils.obj
 0001:00055c9b       ??_5@YAAAW4__acrt_fenv_machine_sse_status@@AAW40@W40@@Z 10056c9b f i libucrt:_fenvutils.obj
 0001:00055caa       ??_5@YAAAW4__acrt_fenv_machine_x87_control@@AAW40@W40@@Z 10056caa f i libucrt:_fenvutils.obj
 0001:00055cbb       ??_5@YAAAW4__acrt_fenv_machine_x87_status@@AAW40@W40@@Z 10056cbb f i libucrt:_fenvutils.obj
 0001:00055cca       ?__acrt_fenv_shift_abstract_sse_control@@YA?AW4__acrt_fenv_abstract_control@@W41@@Z 10056cca f i libucrt:_fenvutils.obj
 0001:00055ce7       ?__acrt_fenv_shift_abstract_sse_status@@YA?AW4__acrt_fenv_abstract_status@@W41@@Z 10056ce7 f i libucrt:_fenvutils.obj
 0001:00055cf7       ?__acrt_fenv_shift_abstract_x87_control@@YA?AW4__acrt_fenv_abstract_control@@W41@@Z 10056cf7 f i libucrt:_fenvutils.obj
 0001:00055d14       ?__acrt_fenv_shift_abstract_x87_status@@YA?AW4__acrt_fenv_abstract_status@@W41@@Z 10056d14 f i libucrt:_fenvutils.obj
 0001:00055d24       ?__acrt_fenv_unshift_abstract_sse_control@@YA?AW4__acrt_fenv_abstract_control@@W41@@Z 10056d24 f i libucrt:_fenvutils.obj
 0001:00055d43       ?__acrt_fenv_unshift_abstract_sse_status@@YA?AW4__acrt_fenv_abstract_status@@W41@@Z 10056d43 f i libucrt:_fenvutils.obj
 0001:00055d53       ?__acrt_fenv_unshift_abstract_x87_control@@YA?AW4__acrt_fenv_abstract_control@@W41@@Z 10056d53 f i libucrt:_fenvutils.obj
 0001:00055d72       ?__acrt_fenv_unshift_abstract_x87_status@@YA?AW4__acrt_fenv_abstract_status@@W41@@Z 10056d72 f i libucrt:_fenvutils.obj
 0001:00056285       ___acrt_fenv_expand_round_control 10057285 f   libucrt:_fenvutils.obj
 0001:000562bb       ___acrt_fenv_get_common_round_control 100572bb f   libucrt:_fenvutils.obj
 0001:000562dd       ___acrt_fenv_get_control   100572dd f   libucrt:_fenvutils.obj
 0001:0005635d       ___acrt_fenv_get_fp_status_word_from_exception_mask 1005735d f   libucrt:_fenvutils.obj
 0001:00056377       ___acrt_fenv_get_status    10057377 f   libucrt:_fenvutils.obj
 0001:00056421       ___acrt_fenv_set_control   10057421 f   libucrt:_fenvutils.obj
 0001:0005649c       ___acrt_fenv_set_status    1005749c f   libucrt:_fenvutils.obj
 0001:00056598       __towlower_l               10057598 f   libucrt:towlower.obj
 0001:0005666c       _towlower                  1005766c f   libucrt:towlower.obj
 0001:00056680       ___ascii_strnicmp          10057680 f   libucrt:_strnicm.obj
 0001:000566e1       ___strncnt                 100576e1 f   libucrt:strncnt.obj
 0001:000566fd       ___acrt_CompareStringW     100576fd f   libucrt:comparestringw.obj
 0001:00056a01       ___acrt_CompareStringA     10057a01 f   libucrt:comparestringa.obj
 0001:00056a47       ___acrt_OutputDebugStringA@4 10057a47 f   libucrt:outputdebugstringa.obj
 0001:00056bf9       ___control87_2             10057bf9 f   libucrt:ieee87.obj
 0001:00057091       ___fpreset_sse2            10058091 f   libucrt:ieee87.obj
 0001:00057267       __clearfp                  10058267 f   libucrt:ieee87.obj
 0001:00057345       __control87                10058345 f   libucrt:ieee87.obj
 0001:00057646       __controlfp                10058646 f   libucrt:ieee87.obj
 0001:00057660       __fpreset                  10058660 f   libucrt:ieee87.obj
 0001:00057736       __set_controlfp            10058736 f   libucrt:ieee87.obj
 0001:000577a9       __statusfp                 100587a9 f   libucrt:ieee87.obj
 0001:00057844       __statusfp2                10058844 f   libucrt:ieee87.obj
 0001:000578a7       ___acrt_initialize_sse2    100588a7 f   libucrt:mathfcns.obj
 0001:000578b7       __set_SSE2_enable          100588b7 f   libucrt:mathfcns.obj
 0001:000578e0       __CIlog10_pentium4         100588e0 f   libucrt:log10_pentium4.obj
 0001:000578f8       __log10_pentium4           100588f8     libucrt:log10_pentium4.obj
 0001:00057b90       __fFEXP                    10058b90 f   libucrt:87tran.obj
 0001:00057be7       __rtinfpopse               10058be7     libucrt:87tran.obj
 0001:00057be9       __rtinfnpopse              10058be9     libucrt:87tran.obj
 0001:00057bf9       __fFLN                     10058bf9     libucrt:87tran.obj
 0001:00057cae       __rtinfpop                 10058cae     libucrt:87tran.obj
 0001:00057cb0       __rtinfnpop                10058cb0     libucrt:87tran.obj
 0001:00057cc0       __rtforexpinf              10058cc0 f   libucrt:87tran.obj
 0001:00057ccd       __ffexpm1                  10058ccd     libucrt:87tran.obj
 0001:00057d80       __trandisp1                10058d80 f   libucrt:87disp.obj
 0001:00057df5       __trandisp2                10058df5 f   libucrt:87disp.obj
 0001:00057e8f       __rttospopde               10058e8f     libucrt:87disp.obj
 0001:00057e94       __rttospop                 10058e94     libucrt:87disp.obj
 0001:00057ea0       __rtnospop                 10058ea0 f   libucrt:87disp.obj
 0001:00057eb0       __rttosnpop                10058eb0 f   libucrt:87disp.obj
 0001:00057eb1       __rtnospopde               10058eb1     libucrt:87disp.obj
 0001:00057eb8       __rtzeropop                10058eb8     libucrt:87disp.obj
 0001:00057eba       __rtzeronpop               10058eba     libucrt:87disp.obj
 0001:00057ec0       __rtzerospop               10058ec0 f   libucrt:87disp.obj
 0001:00057ecd       __rtonepop                 10058ecd     libucrt:87disp.obj
 0001:00057ed0       __rtonenpop                10058ed0 f   libucrt:87disp.obj
 0001:00057ee0       __tosnan1                  10058ee0 f   libucrt:87disp.obj
 0001:00057f10       __nosnan2                  10058f10 f   libucrt:87disp.obj
 0001:00057f20       __tosnan2                  10058f20 f   libucrt:87disp.obj
 0001:00057f50       __nan2                     10058f50 f   libucrt:87disp.obj
 0001:00057f90       __rtindfpop                10058f90 f   libucrt:87disp.obj
 0001:00057f92       __rtindfnpop               10058f92     libucrt:87disp.obj
 0001:00057fa3       __rttosnpopde              10058fa3     libucrt:87disp.obj
 0001:00057fb0       __rtatan2inf               10058fb0 f   libucrt:87disp.obj
 0001:00057fcd       __rtchsifneg               10058fcd     libucrt:87disp.obj
 0001:00057fd4       ___setfflag                10058fd4 f   libucrt:fp_flags.obj
 0001:00057ff0       __twoToTOS                 10058ff0 f   libucrt:common.obj
 0001:00058005       __load_CW                  10059005 f   libucrt:common.obj
 0001:0005801c       __convertTOStoQNaN         1005901c f   libucrt:common.obj
 0001:00058035       __fload_withFB             10059035 f   libucrt:common.obj
 0001:00058078       __checkTOS_withFB          10059078 f   libucrt:common.obj
 0001:0005808e       __fast_exit                1005908e f   libucrt:common.obj
 0001:0005809b       __math_exit                1005909b f   libucrt:common.obj
 0001:000580c5       __check_overflow_exit      100590c5 f   libucrt:common.obj
 0001:000580d9       __check_range_exit         100590d9 f   libucrt:common.obj
 0001:00058180       __startTwoArgErrorHandling 10059180 f   libucrt:genexcep.obj
 0001:00058197       __startOneArgErrorHandling 10059197 f   libucrt:genexcep.obj
 0001:000581d3       ___libm_error_support      100591d3 f   libucrt:libm_error.obj
 0001:000583c7       ___libm_setusermatherr     100593c7 f   libucrt:libm_error.obj
 0001:000583ee       __ceil_default             100593ee f   libucrt:ceil.obj
 0001:000584ac       ___acrt_LCMapStringW       100594ac f   libucrt:lcmapstringw.obj
 0001:000584ea       ___clrfp_sse2              100594ea f   libucrt:fpctrl.obj
 0001:0005851c       ___ctrlfp_sse2             1005951c f   libucrt:fpctrl.obj
 0001:00058557       ___fclrf_sse2              10059557 f   libucrt:fpctrl.obj
 0001:00058574       ___get_fpsr_sse2           10059574 f   libucrt:fpctrl.obj
 0001:00058590       ___set_fpsr_sse2           10059590 f   libucrt:fpctrl.obj
 0001:00058610       ___set_statfp_sse2         10059610 f   libucrt:fpctrl.obj
 0001:0005862b       ___statfp_sse2             1005962b f   libucrt:fpctrl.obj
 0001:00058640       __clrfp                    10059640 f   libucrt:fpctrl.obj
 0001:00058651       __ctrlfp                   10059651 f   libucrt:fpctrl.obj
 0001:0005867b       __set_statfp               1005967b f   libucrt:fpctrl.obj
 0001:000586d4       __statfp                   100596d4 f   libucrt:fpctrl.obj
 0001:000586e4       __d_inttype                100596e4 f   libucrt:powhlp.obj
 0001:0005874c       __powhlp                   1005974c f   libucrt:powhlp.obj
 0001:00058877       __87except                 10059877 f   libucrt:87except.obj
 0001:00058987       __frnd                     10059987 f   libucrt:frnd.obj
 0001:0005899b       ?should_round_up@__crt_strtox@@YA_N_N000@Z 1005999b f i libucrt:fpexcept.obj
 0001:000589e8       __errcode                  100599e8 f   libucrt:fpexcept.obj
 0001:00058a1c       __except1                  10059a1c f   libucrt:fpexcept.obj
 0001:00058aea       __except2                  10059aea f   libucrt:fpexcept.obj
 0001:00058bf2       __handle_exc               10059bf2 f   libucrt:fpexcept.obj
 0001:00058e72       __handle_qnan2             10059e72 f   libucrt:fpexcept.obj
 0001:00058e7f       __raise_exc                10059e7f f   libucrt:fpexcept.obj
 0001:00058ea2       __raise_exc_ex             10059ea2 f   libucrt:fpexcept.obj
 0001:00059193       __raise_excf               1005a193 f   libucrt:fpexcept.obj
 0001:000591b6       __set_errno_from_matherr   1005a1b6 f   libucrt:fpexcept.obj
 0001:000591e7       __umatherr                 1005a1e7 f   libucrt:fpexcept.obj
 0001:00059287       __add_exp                  1005a287 f   libucrt:util.obj
 0001:000592b6       __decomp                   1005a2b6 f   libucrt:util.obj
 0001:00059388       __get_exp                  1005a388 f   libucrt:util.obj
 0001:000593a0       __set_bexp                 1005a3a0 f   libucrt:util.obj
 0001:000593c7       __set_exp                  1005a3c7 f   libucrt:util.obj
 0001:000593f4       __sptype                   1005a3f4 f   libucrt:util.obj
 0001:00059457       __chgsign                  1005a457 f   libucrt:ieeemisc.obj
 0001:0005947f       __chgsignf                 1005a47f f   libucrt:ieeemisc.obj
 0001:000594a0       __copysign                 1005a4a0 f   libucrt:ieeemisc.obj
 0001:000594c3       __copysignf                1005a4c3 f   libucrt:ieeemisc.obj
 0001:000594df       __finite                   1005a4df f   libucrt:ieeemisc.obj
 0001:000594f9       __fpclass                  1005a4f9 f   libucrt:ieeemisc.obj
 0001:0005959d       __isnan                    1005a59d f   libucrt:ieeemisc.obj
 0001:000595d4       __logb                     1005a5d4 f   libucrt:ieeemisc.obj
 0001:000596a4       __nextafter                1005a6a4 f   libucrt:ieeemisc.obj
 0001:000596c3       __scalb                    1005a6c3 f   libucrt:ieeemisc.obj
 0001:000596dd       _ldexp                     1005a6dd f   libucrt:ldexp.obj
 0001:000598d0       _nextafter                 1005a8d0 f   libucrt:nextafter.obj
 0001:000598ef       _nexttoward                1005a8ef f   libucrt:nexttoward.obj
 0001:00059ada       __d_int                    1005aada f   libucrt:_test.obj
 0001:00059be0       __dtest                    1005abe0 f   libucrt:_test.obj
 0001:00059c44       __fd_int                   1005ac44 f   libucrt:_test.obj
 0001:00059d11       __fdtest                   1005ad11 f   libucrt:_test.obj
 0001:00059d5f       __fperrraise               1005ad5f f   libucrt:_test.obj
 0001:00059d80       __ld_int                   1005ad80 f   libucrt:_test.obj
 0001:00059d8b       __ldtest                   1005ad8b f   libucrt:_test.obj
 0001:00059d96       __dclass                   1005ad96 f   libucrt:nan.obj
 0001:00059da7       __dpcomp                   1005ada7 f   libucrt:nan.obj
 0001:00059dfd       __dsign                    1005adfd f   libucrt:nan.obj
 0001:00059e0d       _nan                       1005ae0d f   libucrt:nan.obj
 0001:00059e14       __ldclass                  1005ae14 f   libucrt:nanl.obj
 0001:00059e25       __ldpcomp                  1005ae25 f   libucrt:nanl.obj
 0001:00059e7b       __ldsign                   1005ae7b f   libucrt:nanl.obj
 0001:00059e8b       _nanl                      1005ae8b f   libucrt:nanl.obj
 0001:00059e92       ??_4@YAAAW4__acrt_fenv_abstract_status@@AAW40@W40@@Z 1005ae92 f i libucrt:fegetexceptflag.obj
 0001:00059ea1       _fegetexceptflag           1005aea1 f   libucrt:fegetexceptflag.obj
 0001:00059ed2       ??S@YA?AW4__acrt_fenv_abstract_status@@W40@@Z 1005aed2 f i libucrt:fesetexceptflag.obj
 0001:00059ede       _fesetexceptflag           1005aede f   libucrt:fesetexceptflag.obj
 0001:00059f40       _fetestexcept              1005af40 f   libucrt:fetestexcept.obj
 0001:00059f60       _QueryPerformanceCounter@4 1005af60 f   kernel32:KERNEL32.dll
 0001:00059f66       _GetCurrentProcessId@0     1005af66 f   kernel32:KERNEL32.dll
 0001:00059f6c       _GetCurrentThreadId@0      1005af6c f   kernel32:KERNEL32.dll
 0001:00059f72       _GetSystemTimeAsFileTime@4 1005af72 f   kernel32:KERNEL32.dll
 0001:00059f78       _InitializeSListHead@4     1005af78 f   kernel32:KERNEL32.dll
 0001:00059f7e       _IsDebuggerPresent@0       1005af7e f   kernel32:KERNEL32.dll
 0001:00059f84       _UnhandledExceptionFilter@4 1005af84 f   kernel32:KERNEL32.dll
 0001:00059f8a       _SetUnhandledExceptionFilter@4 1005af8a f   kernel32:KERNEL32.dll
 0001:00059f90       _GetStartupInfoW@4         1005af90 f   kernel32:KERNEL32.dll
 0001:00059f96       _IsProcessorFeaturePresent@4 1005af96 f   kernel32:KERNEL32.dll
 0001:00059f9c       _GetModuleHandleW@4        1005af9c f   kernel32:KERNEL32.dll
 0001:00059fa2       _GetCurrentProcess@0       1005afa2 f   kernel32:KERNEL32.dll
 0001:00059fa8       _TerminateProcess@8        1005afa8 f   kernel32:KERNEL32.dll
 0001:00059fae       _InterlockedPushEntrySList@8 1005afae f   kernel32:KERNEL32.dll
 0001:00059fb4       _InterlockedFlushSList@4   1005afb4 f   kernel32:KERNEL32.dll
 0001:00059fba       _RtlUnwind@16              1005afba f   kernel32:KERNEL32.dll
 0001:00059fc0       _SetLastError@4            1005afc0 f   kernel32:KERNEL32.dll
 0001:00059fc6       _EnterCriticalSection@4    1005afc6 f   kernel32:KERNEL32.dll
 0001:00059fcc       _LeaveCriticalSection@4    1005afcc f   kernel32:KERNEL32.dll
 0001:00059fd2       _DeleteCriticalSection@4   1005afd2 f   kernel32:KERNEL32.dll
 0001:00059fd8       _InitializeCriticalSectionAndSpinCount@8 1005afd8 f   kernel32:KERNEL32.dll
 0001:00059fde       _TlsAlloc@0                1005afde f   kernel32:KERNEL32.dll
 0001:00059fe4       _TlsGetValue@4             1005afe4 f   kernel32:KERNEL32.dll
 0001:00059fea       _TlsSetValue@8             1005afea f   kernel32:KERNEL32.dll
 0001:00059ff0       _TlsFree@4                 1005aff0 f   kernel32:KERNEL32.dll
 0001:00059ff6       _FreeLibrary@4             1005aff6 f   kernel32:KERNEL32.dll
 0001:00059ffc       _GetProcAddress@8          1005affc f   kernel32:KERNEL32.dll
 0001:0005a002       _LoadLibraryExW@12         1005b002 f   kernel32:KERNEL32.dll
 0001:0005a008       _EncodePointer@4           1005b008 f   kernel32:KERNEL32.dll
 0001:0005a00e       _RaiseException@16         1005b00e f   kernel32:KERNEL32.dll
 0001:0005a014       _SetFilePointerEx@20       1005b014 f   kernel32:KERNEL32.dll
 0001:0005a01a       _GetFileType@4             1005b01a f   kernel32:KERNEL32.dll
 0001:0005a020       _GetConsoleMode@8          1005b020 f   kernel32:KERNEL32.dll
 0001:0005a026       _ReadConsoleW@20           1005b026 f   kernel32:KERNEL32.dll
 0001:0005a02c       _GetConsoleOutputCP@0      1005b02c f   kernel32:KERNEL32.dll
 0001:0005a032       _ExitProcess@4             1005b032 f   kernel32:KERNEL32.dll
 0001:0005a038       _GetModuleHandleExW@12     1005b038 f   kernel32:KERNEL32.dll
 0001:0005a03e       _GetModuleFileNameW@12     1005b03e f   kernel32:KERNEL32.dll
 0001:0005a044       _SetStdHandle@8            1005b044 f   kernel32:KERNEL32.dll
 0001:0005a04a       _GetCurrentThread@0        1005b04a f   kernel32:KERNEL32.dll
 0001:0005a050       _GetStdHandle@4            1005b050 f   kernel32:KERNEL32.dll
 0001:0005a056       _HeapFree@12               1005b056 f   kernel32:KERNEL32.dll
 0001:0005a05c       _HeapAlloc@12              1005b05c f   kernel32:KERNEL32.dll
 0001:0005a062       _MultiByteToWideChar@24    1005b062 f   kernel32:KERNEL32.dll
 0001:0005a068       _GetTempPathW@8            1005b068 f   kernel32:KERNEL32.dll
 0001:0005a06e       _GetDateFormatW@24         1005b06e f   kernel32:KERNEL32.dll
 0001:0005a074       _GetTimeFormatW@24         1005b074 f   kernel32:KERNEL32.dll
 0001:0005a07a       _CompareStringW@24         1005b07a f   kernel32:KERNEL32.dll
 0001:0005a080       _LCMapStringW@24           1005b080 f   kernel32:KERNEL32.dll
 0001:0005a086       _GetLocaleInfoW@16         1005b086 f   kernel32:KERNEL32.dll
 0001:0005a08c       _IsValidLocale@8           1005b08c f   kernel32:KERNEL32.dll
 0001:0005a092       _GetUserDefaultLCID@0      1005b092 f   kernel32:KERNEL32.dll
 0001:0005a098       _EnumSystemLocalesW@8      1005b098 f   kernel32:KERNEL32.dll
 0001:0005a09e       _SetEndOfFile@4            1005b09e f   kernel32:KERNEL32.dll
 0001:0005a0a4       _WideCharToMultiByte@32    1005b0a4 f   kernel32:KERNEL32.dll
 0001:0005a0aa       _GetFileSizeEx@8           1005b0aa f   kernel32:KERNEL32.dll
 0001:0005a0b0       _FindClose@4               1005b0b0 f   kernel32:KERNEL32.dll
 0001:0005a0b6       _FindFirstFileExW@24       1005b0b6 f   kernel32:KERNEL32.dll
 0001:0005a0bc       _FindNextFileW@8           1005b0bc f   kernel32:KERNEL32.dll
 0001:0005a0c2       _IsValidCodePage@4         1005b0c2 f   kernel32:KERNEL32.dll
 0001:0005a0c8       _GetACP@0                  1005b0c8 f   kernel32:KERNEL32.dll
 0001:0005a0ce       _GetOEMCP@0                1005b0ce f   kernel32:KERNEL32.dll
 0001:0005a0d4       _GetCPInfo@8               1005b0d4 f   kernel32:KERNEL32.dll
 0001:0005a0da       _GetCommandLineA@0         1005b0da f   kernel32:KERNEL32.dll
 0001:0005a0e0       _GetCommandLineW@0         1005b0e0 f   kernel32:KERNEL32.dll
 0001:0005a0e6       _GetEnvironmentStringsW@0  1005b0e6 f   kernel32:KERNEL32.dll
 0001:0005a0ec       _FreeEnvironmentStringsW@4 1005b0ec f   kernel32:KERNEL32.dll
 0001:0005a0f2       _SetEnvironmentVariableW@8 1005b0f2 f   kernel32:KERNEL32.dll
 0001:0005a0f8       _GetProcessHeap@0          1005b0f8 f   kernel32:KERNEL32.dll
 0001:0005a0fe       _SetConsoleCtrlHandler@8   1005b0fe f   kernel32:KERNEL32.dll
 0001:0005a104       _GetStringTypeW@16         1005b104 f   kernel32:KERNEL32.dll
 0001:0005a10a       _WriteConsoleW@20          1005b10a f   kernel32:KERNEL32.dll
 0001:0005a110       _FlushFileBuffers@4        1005b110 f   kernel32:KERNEL32.dll
 0001:0005a116       _HeapSize@12               1005b116 f   kernel32:KERNEL32.dll
 0001:0005a11c       _HeapReAlloc@16            1005b11c f   kernel32:KERNEL32.dll
 0001:0005a122       _OutputDebugStringW@4      1005b122 f   kernel32:KERNEL32.dll
 0001:0005a128       _DecodePointer@4           1005b128 f   kernel32:KERNEL32.dll
 0001:0005a130       __FindPESection            1005b130 f   LIBCMT:pesect.obj
 0001:0005a180       __IsNonwritableInCurrentImage 1005b180 f   LIBCMT:pesect.obj
 0001:0005a240       __ValidateImageBase        1005b240 f   LIBCMT:pesect.obj
 0001:0005a271       ??1type_info@@UAE@XZ       1005b271 f   LIBCMT:std_type_info_static.obj
 0001:0005a278       ??_Etype_info@@UAEPAXI@Z   1005b278 f i LIBCMT:std_type_info_static.obj
 0001:0005a278       ??_Gtype_info@@UAEPAXI@Z   1005b278 f i LIBCMT:std_type_info_static.obj
 0001:0005a29b       __EH_epilog3               1005b29b f   LIBCMT:ehprolg3.obj
 0001:0005a2af       __EH_epilog3_GS            1005b2af f   LIBCMT:ehprolg3.obj
 0001:0005a2be       __EH_epilog3_catch_GS      1005b2be f   LIBCMT:ehprolg3.obj
 0001:0005a2cd       __EH_prolog3               1005b2cd f   LIBCMT:ehprolg3.obj
 0001:0005a300       __EH_prolog3_GS            1005b300 f   LIBCMT:ehprolg3.obj
 0001:0005a336       __EH_prolog3_catch         1005b336 f   LIBCMT:ehprolg3.obj
 0001:0005a36c       __EH_prolog3_catch_GS      1005b36c f   LIBCMT:ehprolg3.obj
 0001:0005a3b0       __aulldvrm                 1005b3b0 f   LIBCMT:ulldvrm.obj
 0001:0005a445       ??3@YAXPAXI@Z              1005b445 f   LIBCMT:delete_scalar_size.obj
 0001:0005a453       __except_handler4_noexcept 1005b453 f   LIBCMT:chandler4_noexcept.obj
 0001:0005a4a0       __aulldiv                  1005b4a0 f   LIBCMT:ulldiv.obj
 0001:0005a510       __aullrem                  1005b510 f   LIBCMT:ullrem.obj
 0001:0005a590       __alloca_probe             1005b590 f   LIBCMT:chkstk.obj
 0001:0005a590       __chkstk                   1005b590 f   LIBCMT:chkstk.obj
 0001:0005a5c0       __alldiv                   1005b5c0 f   LIBCMT:lldiv.obj
 0001:0005a670       __allrem                   1005b670 f   LIBCMT:llrem.obj
 0001:0005a730       __allmul                   1005b730 f   LIBCMT:llmul.obj
 0001:0005a770       __allshl                   1005b770 f   LIBCMT:llshl.obj
 0001:0005a790       __aullshr                  1005b790 f   LIBCMT:ullshr.obj
 0001:0005a7b0       __alloca_probe_16          1005b7b0 f   LIBCMT:alloca16.obj
 0001:0005a7c6       __alloca_probe_8           1005b7c6     LIBCMT:alloca16.obj
 0001:0005a7e0       __ftol2_sse_excpt          1005b7e0 f   LIBCMT:ftol2.obj
 0001:0005a7f0       __ftol2_sse                1005b7f0 f   LIBCMT:ftol2.obj
 0001:0005a800       __ftoi2                    1005b800 f   LIBCMT:ftol2.obj
 0001:0005a880       __ftoui2                   1005b880 f   LIBCMT:ftol2.obj
 0001:0005a930       __ftol2                    1005b930 f   LIBCMT:ftol2.obj
 0001:0005a9e0       __ftoul2                   1005b9e0 f   LIBCMT:ftol2.obj
 0001:0005aaa0       __ftoul2_legacy            1005baa0 f   LIBCMT:ftol2.obj
 0001:0005aab6       __initialize_default_precision 1005bab6 f   LIBCMT:default_precision.obj
 0001:0005aad7       ??3@YAXPAX@Z               1005bad7 f   LIBCMT:delete_scalar.obj
 0001:0005abf9       _memcmp                    1005bbf9 f   libvcruntime:memcmp.obj
 0001:0005d860       _strrchr                   1005e860 f   libvcruntime:strrchr.obj
 0001:0005d9a0       _strchr                    1005e9a0 f   libvcruntime:strchr.obj
 0001:0005da0e       ___from_strstr_to_strchr   1005ea0e     libvcruntime:strchr.obj
 0001:0005dacb       _wcschr                    1005eacb f   libvcruntime:wcschr.obj
 0001:0005db7b       __filter_x86_sse2_floating_point_exception 1005eb7b f   LIBCMT:x86_exception_filter.obj
 0001:0005db7b       __filter_x86_sse2_floating_point_exception_default 1005eb7b f   LIBCMT:x86_exception_filter.obj
 0001:0005dc00       _memchr                    1005ec00 f   libvcruntime:memchr.obj
 0002:00000000       __imp__ReadFile@20         1005f000     kernel32:KERNEL32.dll
 0002:00000004       __imp__WriteFile@20        1005f004     kernel32:KERNEL32.dll
 0002:00000008       __imp__SetFilePointer@16   1005f008     kernel32:KERNEL32.dll
 0002:0000000c       __imp__CreateFileW@28      1005f00c     kernel32:KERNEL32.dll
 0002:00000010       __imp__GetLastError@0      1005f010     kernel32:KERNEL32.dll
 0002:00000014       __imp__CreateFileA@28      1005f014     kernel32:KERNEL32.dll
 0002:00000018       __imp__CloseHandle@4       1005f018     kernel32:KERNEL32.dll
 0002:0000001c       __imp__OutputDebugStringW@4 1005f01c     kernel32:KERNEL32.dll
 0002:00000020       __imp__QueryPerformanceCounter@4 1005f020     kernel32:KERNEL32.dll
 0002:00000024       __imp__GetCurrentProcessId@0 1005f024     kernel32:KERNEL32.dll
 0002:00000028       __imp__GetCurrentThreadId@0 1005f028     kernel32:KERNEL32.dll
 0002:0000002c       __imp__GetSystemTimeAsFileTime@4 1005f02c     kernel32:KERNEL32.dll
 0002:00000030       __imp__InitializeSListHead@4 1005f030     kernel32:KERNEL32.dll
 0002:00000034       __imp__IsDebuggerPresent@0 1005f034     kernel32:KERNEL32.dll
 0002:00000038       __imp__UnhandledExceptionFilter@4 1005f038     kernel32:KERNEL32.dll
 0002:0000003c       __imp__SetUnhandledExceptionFilter@4 1005f03c     kernel32:KERNEL32.dll
 0002:00000040       __imp__GetStartupInfoW@4   1005f040     kernel32:KERNEL32.dll
 0002:00000044       __imp__IsProcessorFeaturePresent@4 1005f044     kernel32:KERNEL32.dll
 0002:00000048       __imp__GetModuleHandleW@4  1005f048     kernel32:KERNEL32.dll
 0002:0000004c       __imp__GetCurrentProcess@0 1005f04c     kernel32:KERNEL32.dll
 0002:00000050       __imp__TerminateProcess@8  1005f050     kernel32:KERNEL32.dll
 0002:00000054       __imp__InterlockedPushEntrySList@8 1005f054     kernel32:KERNEL32.dll
 0002:00000058       __imp__InterlockedFlushSList@4 1005f058     kernel32:KERNEL32.dll
 0002:0000005c       __imp__RtlUnwind@16        1005f05c     kernel32:KERNEL32.dll
 0002:00000060       __imp__SetLastError@4      1005f060     kernel32:KERNEL32.dll
 0002:00000064       __imp__EnterCriticalSection@4 1005f064     kernel32:KERNEL32.dll
 0002:00000068       __imp__LeaveCriticalSection@4 1005f068     kernel32:KERNEL32.dll
 0002:0000006c       __imp__DeleteCriticalSection@4 1005f06c     kernel32:KERNEL32.dll
 0002:00000070       __imp__InitializeCriticalSectionAndSpinCount@8 1005f070     kernel32:KERNEL32.dll
 0002:00000074       __imp__TlsAlloc@0          1005f074     kernel32:KERNEL32.dll
 0002:00000078       __imp__TlsGetValue@4       1005f078     kernel32:KERNEL32.dll
 0002:0000007c       __imp__TlsSetValue@8       1005f07c     kernel32:KERNEL32.dll
 0002:00000080       __imp__TlsFree@4           1005f080     kernel32:KERNEL32.dll
 0002:00000084       __imp__FreeLibrary@4       1005f084     kernel32:KERNEL32.dll
 0002:00000088       __imp__GetProcAddress@8    1005f088     kernel32:KERNEL32.dll
 0002:0000008c       __imp__LoadLibraryExW@12   1005f08c     kernel32:KERNEL32.dll
 0002:00000090       __imp__EncodePointer@4     1005f090     kernel32:KERNEL32.dll
 0002:00000094       __imp__RaiseException@16   1005f094     kernel32:KERNEL32.dll
 0002:00000098       __imp__SetFilePointerEx@20 1005f098     kernel32:KERNEL32.dll
 0002:0000009c       __imp__GetFileType@4       1005f09c     kernel32:KERNEL32.dll
 0002:000000a0       __imp__GetConsoleMode@8    1005f0a0     kernel32:KERNEL32.dll
 0002:000000a4       __imp__ReadConsoleW@20     1005f0a4     kernel32:KERNEL32.dll
 0002:000000a8       __imp__GetConsoleOutputCP@0 1005f0a8     kernel32:KERNEL32.dll
 0002:000000ac       __imp__ExitProcess@4       1005f0ac     kernel32:KERNEL32.dll
 0002:000000b0       __imp__GetModuleHandleExW@12 1005f0b0     kernel32:KERNEL32.dll
 0002:000000b4       __imp__GetModuleFileNameW@12 1005f0b4     kernel32:KERNEL32.dll
 0002:000000b8       __imp__SetStdHandle@8      1005f0b8     kernel32:KERNEL32.dll
 0002:000000bc       __imp__GetCurrentThread@0  1005f0bc     kernel32:KERNEL32.dll
 0002:000000c0       __imp__GetStdHandle@4      1005f0c0     kernel32:KERNEL32.dll
 0002:000000c4       __imp__HeapFree@12         1005f0c4     kernel32:KERNEL32.dll
 0002:000000c8       __imp__HeapAlloc@12        1005f0c8     kernel32:KERNEL32.dll
 0002:000000cc       __imp__MultiByteToWideChar@24 1005f0cc     kernel32:KERNEL32.dll
 0002:000000d0       __imp__GetTempPathW@8      1005f0d0     kernel32:KERNEL32.dll
 0002:000000d4       __imp__GetDateFormatW@24   1005f0d4     kernel32:KERNEL32.dll
 0002:000000d8       __imp__GetTimeFormatW@24   1005f0d8     kernel32:KERNEL32.dll
 0002:000000dc       __imp__CompareStringW@24   1005f0dc     kernel32:KERNEL32.dll
 0002:000000e0       __imp__LCMapStringW@24     1005f0e0     kernel32:KERNEL32.dll
 0002:000000e4       __imp__GetLocaleInfoW@16   1005f0e4     kernel32:KERNEL32.dll
 0002:000000e8       __imp__IsValidLocale@8     1005f0e8     kernel32:KERNEL32.dll
 0002:000000ec       __imp__GetUserDefaultLCID@0 1005f0ec     kernel32:KERNEL32.dll
 0002:000000f0       __imp__EnumSystemLocalesW@8 1005f0f0     kernel32:KERNEL32.dll
 0002:000000f4       __imp__SetEndOfFile@4      1005f0f4     kernel32:KERNEL32.dll
 0002:000000f8       __imp__WideCharToMultiByte@32 1005f0f8     kernel32:KERNEL32.dll
 0002:000000fc       __imp__GetFileSizeEx@8     1005f0fc     kernel32:KERNEL32.dll
 0002:00000100       __imp__FindClose@4         1005f100     kernel32:KERNEL32.dll
 0002:00000104       __imp__FindFirstFileExW@24 1005f104     kernel32:KERNEL32.dll
 0002:00000108       __imp__FindNextFileW@8     1005f108     kernel32:KERNEL32.dll
 0002:0000010c       __imp__IsValidCodePage@4   1005f10c     kernel32:KERNEL32.dll
 0002:00000110       __imp__GetACP@0            1005f110     kernel32:KERNEL32.dll
 0002:00000114       __imp__GetOEMCP@0          1005f114     kernel32:KERNEL32.dll
 0002:00000118       __imp__GetCPInfo@8         1005f118     kernel32:KERNEL32.dll
 0002:0000011c       __imp__GetCommandLineA@0   1005f11c     kernel32:KERNEL32.dll
 0002:00000120       __imp__GetCommandLineW@0   1005f120     kernel32:KERNEL32.dll
 0002:00000124       __imp__GetEnvironmentStringsW@0 1005f124     kernel32:KERNEL32.dll
 0002:00000128       __imp__FreeEnvironmentStringsW@4 1005f128     kernel32:KERNEL32.dll
 0002:0000012c       __imp__SetEnvironmentVariableW@8 1005f12c     kernel32:KERNEL32.dll
 0002:00000130       __imp__GetProcessHeap@0    1005f130     kernel32:KERNEL32.dll
 0002:00000134       __imp__SetConsoleCtrlHandler@8 1005f134     kernel32:KERNEL32.dll
 0002:00000138       __imp__GetStringTypeW@16   1005f138     kernel32:KERNEL32.dll
 0002:0000013c       __imp__WriteConsoleW@20    1005f13c     kernel32:KERNEL32.dll
 0002:00000140       __imp__FlushFileBuffers@4  1005f140     kernel32:KERNEL32.dll
 0002:00000144       __imp__HeapSize@12         1005f144     kernel32:KERNEL32.dll
 0002:00000148       __imp__HeapReAlloc@16      1005f148     kernel32:KERNEL32.dll
 0002:0000014c       __imp__DecodePointer@4     1005f14c     kernel32:KERNEL32.dll
 0002:00000150       \177KERNEL32_NULL_THUNK_DATA 1005f150     kernel32:KERNEL32.dll
 0002:00000154       ___guard_check_icall_fptr  1005f154     LIBCMT:guard_support.obj
 0002:00000158       ___guard_xfg_check_icall_fptr 1005f158     LIBCMT:guard_support.obj
 0002:0000015c       ___castguard_check_failure_os_handled_fptr 1005f15c     LIBCMT:guard_support.obj
 0002:00000160       ___xc_a                    1005f160     LIBCMT:initializers.obj
 0002:00000164       ___xc_z                    1005f164     LIBCMT:initializers.obj
 0002:00000168       ___xi_a                    1005f168     LIBCMT:initializers.obj
 0002:0000016c       ___acrt_stdio_initializer  1005f16c     libucrt:stdio_initializer.obj
 0002:00000170       ___acrt_multibyte_initializer 1005f170     libucrt:multibyte_initializer.obj
 0002:00000174       ___acrt_fmode_initializer  1005f174     libucrt:fmode_initializer.obj
 0002:00000178       ___acrt_tran_sse2_initializer 1005f178     libucrt:sse2_initializer.obj
 0002:0000017c       ___xi_z                    1005f17c     LIBCMT:initializers.obj
 0002:00000180       ___xp_a                    1005f180     LIBCMT:initializers.obj
 0002:00000184       ___acrt_locale_terminator  1005f184     libucrt:locale_initializer.obj
 0002:00000188       ___dcrt_console_output_terminator 1005f188     libucrt:console_output_initializer.obj
 0002:0000018c       ___acrt_stdio_terminator   1005f18c     libucrt:stdio_initializer.obj
 0002:00000190       ___xp_z                    1005f190     LIBCMT:initializers.obj
 0002:00000194       ___xt_a                    1005f194     LIBCMT:initializers.obj
 0002:00000198       ___xt_z                    1005f198     LIBCMT:initializers.obj
 0002:000001a0       __pDefaultRawDllMain       1005f1a0     LIBCMT:dll_dllmain.obj
 0002:000001a0       __pRawDllMain              1005f1a0     LIBCMT:dll_dllmain.obj
 0002:000001ac       __pDestructExceptionObject 1005f1ac     libvcruntime:ehhelpers.obj
 0002:00000538       ??_C@_08EHJDFFNH@__based?$CI@ 1005f538     libvcruntime:undname.obj
 0002:00000544       ??_C@_07KOLFKCDI@__cdecl@  1005f544     libvcruntime:undname.obj
 0002:0000054c       ??_C@_08GHMPAG@__pascal@   1005f54c     libvcruntime:undname.obj
 0002:00000558       ??_C@_09IFJBGAPI@__stdcall@ 1005f558     libvcruntime:undname.obj
 0002:00000564       ??_C@_0L@NPHFGOKO@__thiscall@ 1005f564     libvcruntime:undname.obj
 0002:00000570       ??_C@_0L@JMKHOMEK@__fastcall@ 1005f570     libvcruntime:undname.obj
 0002:0000057c       ??_C@_0N@BCKKPABJ@__vectorcall@ 1005f57c     libvcruntime:undname.obj
 0002:0000058c       ??_C@_09HIJEGCPM@__clrcall@ 1005f58c     libvcruntime:undname.obj
 0002:00000598       ??_C@_06GHPCKEAG@__eabi@   1005f598     libvcruntime:undname.obj
 0002:000005a0       ??_C@_09IOPIDJLG@__swift_1@ 1005f5a0     libvcruntime:undname.obj
 0002:000005ac       ??_C@_09KFNFGKHF@__swift_2@ 1005f5ac     libvcruntime:undname.obj
 0002:000005b8       ??_C@_09LMMOFLDE@__swift_3@ 1005f5b8     libvcruntime:undname.obj
 0002:000005c4       ??_C@_07JOMMBBKO@__ptr64@  1005f5c4     libvcruntime:undname.obj
 0002:000005cc       ??_C@_0L@PILCLIHE@__restrict@ 1005f5cc     libvcruntime:undname.obj
 0002:000005d8       ??_C@_0M@GFIIJFMG@__unaligned@ 1005f5d8     libvcruntime:undname.obj
 0002:000005e4       ??_C@_09DHDLOLLB@restrict?$CI@ 1005f5e4     libvcruntime:undname.obj
 0002:000005f0       ??_C@_04NIHEBCM@?5new@     1005f5f0     libvcruntime:undname.obj
 0002:000005f8       ??_C@_07FPCDHGMM@?5delete@ 1005f5f8     libvcruntime:undname.obj
 0002:00000600       ??_C@_01NEMOKFLO@?$DN@     1005f600     libvcruntime:undname.obj
 0002:00000604       ??_C@_02GPIOPFAK@?$DO?$DO@ 1005f604     libvcruntime:undname.obj
 0002:00000608       ??_C@_02FODMEDOG@?$DM?$DM@ 1005f608     libvcruntime:undname.obj
 0002:0000060c       ??_C@_01DCLJPIOD@?$CB@     1005f60c     libvcruntime:undname.obj
 0002:00000610       ??_C@_02EGOFBIJA@?$DN?$DN@ 1005f610     libvcruntime:undname.obj
 0002:00000614       ??_C@_02FDNJECIE@?$CB?$DN@ 1005f614     libvcruntime:undname.obj
 0002:00000618       ??_C@_02GPECMEKF@?$FL?$FN@ 1005f618     libvcruntime:undname.obj
 0002:0000061c       ??_C@_08LHJFAFGD@operator@ 1005f61c     libvcruntime:undname.obj
 0002:00000628       ??_C@_02HBOOOICD@?9?$DO@   1005f628     libvcruntime:undname.obj
 0002:0000062c       ??_C@_01NBENCBCI@?$CK@     1005f62c     libvcruntime:undname.obj
 0002:00000630       ??_C@_02ECNGHCIF@?$CL?$CL@ 1005f630     libvcruntime:undname.obj
 0002:00000634       ??_C@_02BAABKJLB@?9?9@     1005f634     libvcruntime:undname.obj
 0002:00000638       ??_C@_01MIFGBAGJ@?$CL@     1005f638     libvcruntime:undname.obj
 0002:0000063c       ??_C@_01HNPIGOCE@?$CG@     1005f63c     libvcruntime:undname.obj
 0002:00000640       ??_C@_03MNHNFDLC@?9?$DO?$CK@ 1005f640     libvcruntime:undname.obj
 0002:00000644       ??_C@_01KMDKNFGN@?1@       1005f644     libvcruntime:undname.obj
 0002:00000648       ??_C@_01FGNFDNOH@?$CF@     1005f648     libvcruntime:undname.obj
 0002:0000064c       ??_C@_01MNNFJEPP@?$DM@     1005f64c     libvcruntime:undname.obj
 0002:00000650       ??_C@_02EHCHHCKH@?$DM?$DN@ 1005f650     libvcruntime:undname.obj
 0002:00000654       ??_C@_01PPODPGHN@?$DO@     1005f654     libvcruntime:undname.obj
 0002:00000658       ??_C@_02EEKDKGMJ@?$DO?$DN@ 1005f658     libvcruntime:undname.obj
 0002:0000065c       ??_C@_01IHBHIGKO@?0@       1005f65c     libvcruntime:undname.obj
 0002:00000660       ??_C@_02HCKGKOFO@?$CI?$CJ@ 1005f660     libvcruntime:undname.obj
 0002:00000664       ??_C@_01PJKLJHI@?$HO@      1005f664     libvcruntime:undname.obj
 0002:00000668       ??_C@_01JKBOJNNK@?$FO@     1005f668     libvcruntime:undname.obj
 0002:0000066c       ??_C@_01DNKMNLPK@?$HM@     1005f66c     libvcruntime:undname.obj
 0002:00000670       ??_C@_02PPKAJPJL@?$CG?$CG@ 1005f670     libvcruntime:undname.obj
 0002:00000674       ??_C@_02NONPIBCD@?$HM?$HM@ 1005f674     libvcruntime:undname.obj
 0002:00000678       ??_C@_02FPIMKNGF@?$CK?$DN@ 1005f678     libvcruntime:undname.obj
 0002:0000067c       ??_C@_02FOEOMHFC@?$CL?$DN@ 1005f67c     libvcruntime:undname.obj
 0002:00000680       ??_C@_02FKMDLLOA@?9?$DN@   1005f680     libvcruntime:undname.obj
 0002:00000684       ??_C@_02FJEHGPIO@?1?$DN@   1005f684     libvcruntime:undname.obj
 0002:00000688       ??_C@_02FENAOKFI@?$CF?$DN@ 1005f688     libvcruntime:undname.obj
 0002:0000068c       ??_C@_03IKFCCPFF@?$DO?$DO?$DN@ 1005f68c     libvcruntime:undname.obj
 0002:00000690       ??_C@_03CDNPDDLA@?$DM?$DM?$DN@ 1005f690     libvcruntime:undname.obj
 0002:00000694       ??_C@_02FGJGFEAB@?$CG?$DN@ 1005f694     libvcruntime:undname.obj
 0002:00000698       ??_C@_02DHLNPPGH@?$HM?$DN@ 1005f698     libvcruntime:undname.obj
 0002:0000069c       ??_C@_02MHEGNOJ@?$FO?$DN@  1005f69c     libvcruntime:undname.obj
 0002:000006a0       ??_C@_09IFPLHPGF@?$GAvftable?8@ 1005f6a0     libvcruntime:undname.obj
 0002:000006ac       ??_C@_09BLBHBJP@?$GAvbtable?8@ 1005f6ac     libvcruntime:undname.obj
 0002:000006b8       ??_C@_07FEEIOKP@?$GAvcall?8@ 1005f6b8     libvcruntime:undname.obj
 0002:000006c0       ??_C@_08LLFFHHDJ@?$GAtypeof?8@ 1005f6c0     libvcruntime:undname.obj
 0002:000006cc       ??_C@_0BF@KDPPACIK@?$GAlocal?5static?5guard?8@ 1005f6cc     libvcruntime:undname.obj
 0002:000006e4       ??_C@_08OBABFOLI@?$GAstring?8@ 1005f6e4     libvcruntime:undname.obj
 0002:000006f0       ??_C@_0BD@JDLKDPAB@?$GAvbase?5destructor?8@ 1005f6f0     libvcruntime:undname.obj
 0002:00000704       ??_C@_0BN@DEGPLNFK@?$GAvector?5deleting?5destructor?8@ 1005f704     libvcruntime:undname.obj
 0002:00000724       ??_C@_0BO@OBMKPJIG@?$GAdefault?5constructor?5closure?8@ 1005f724     libvcruntime:undname.obj
 0002:00000744       ??_C@_0BN@IMDCHIKM@?$GAscalar?5deleting?5destructor?8@ 1005f744     libvcruntime:undname.obj
 0002:00000764       ??_C@_0BO@PFGOCPJJ@?$GAvector?5constructor?5iterator?8@ 1005f764     libvcruntime:undname.obj
 0002:00000784       ??_C@_0BN@LFPFMEDL@?$GAvector?5destructor?5iterator?8@ 1005f784     libvcruntime:undname.obj
 0002:000007a4       ??_C@_0CE@IKBNEHA@?$GAvector?5vbase?5constructor?5itera@ 1005f7a4     libvcruntime:undname.obj
 0002:000007c8       ??_C@_0BL@NILFHHPC@?$GAvirtual?5displacement?5map?8@ 1005f7c8     libvcruntime:undname.obj
 0002:000007e4       ??_C@_0CB@JONCMFFK@?$GAeh?5vector?5constructor?5iterator@ 1005f7e4     libvcruntime:undname.obj
 0002:00000808       ??_C@_0CA@GCEOPDGL@?$GAeh?5vector?5destructor?5iterator?8@ 1005f808     libvcruntime:undname.obj
 0002:00000828       ??_C@_0CH@OOJPLCPH@?$GAeh?5vector?5vbase?5constructor?5it@ 1005f828     libvcruntime:undname.obj
 0002:00000850       ??_C@_0BL@LLKPOHJI@?$GAcopy?5constructor?5closure?8@ 1005f850     libvcruntime:undname.obj
 0002:0000086c       ??_C@_0BA@KBCDOMBN@?$GAudt?5returning?8@ 1005f86c     libvcruntime:undname.obj
 0002:0000087c       ??_C@_03KLGMFNMG@?$GAEH@   1005f87c     libvcruntime:undname.obj
 0002:00000880       ??_C@_05KHLCHHI@?$GARTTI@  1005f880     libvcruntime:undname.obj
 0002:00000888       ??_C@_0BA@KKLDJDLB@?$GAlocal?5vftable?8@ 1005f888     libvcruntime:undname.obj
 0002:00000898       ??_C@_0CE@IIHCMGGL@?$GAlocal?5vftable?5constructor?5clos@ 1005f898     libvcruntime:undname.obj
 0002:000008bc       ??_C@_06FHBGPFGH@?5new?$FL?$FN@ 1005f8bc     libvcruntime:undname.obj
 0002:000008c4       ??_C@_09LBNFPBCA@?5delete?$FL?$FN@ 1005f8c4     libvcruntime:undname.obj
 0002:000008d0       ??_C@_0P@HJKNJFNN@?$GAomni?5callsig?8@ 1005f8d0     libvcruntime:undname.obj
 0002:000008e0       ??_C@_0BL@CNOONJFP@?$GAplacement?5delete?5closure?8@ 1005f8e0     libvcruntime:undname.obj
 0002:000008fc       ??_C@_0BN@CKNJLHMB@?$GAplacement?5delete?$FL?$FN?5closure?8@ 1005f8fc     libvcruntime:undname.obj
 0002:0000091c       ??_C@_0CG@CFDHKGGD@?$GAmanaged?5vector?5constructor?5ite@ 1005f91c     libvcruntime:undname.obj
 0002:00000944       ??_C@_0CF@IMGKMJNO@?$GAmanaged?5vector?5destructor?5iter@ 1005f944     libvcruntime:undname.obj
 0002:0000096c       ??_C@_0CG@HLDDJMAG@?$GAeh?5vector?5copy?5constructor?5ite@ 1005f96c     libvcruntime:undname.obj
 0002:00000994       ??_C@_0CM@FCBBDIGB@?$GAeh?5vector?5vbase?5copy?5construct@ 1005f994     libvcruntime:undname.obj
 0002:000009c0       ??_C@_0BL@CLIPGLGB@?$GAdynamic?5initializer?5for?5?8@ 1005f9c0     libvcruntime:undname.obj
 0002:000009dc       ??_C@_0CB@PDBIFEP@?$GAdynamic?5atexit?5destructor?5for?5@ 1005f9dc     libvcruntime:undname.obj
 0002:00000a00       ??_C@_0CD@CGAJBKEJ@?$GAvector?5copy?5constructor?5iterat@ 1005fa00     libvcruntime:undname.obj
 0002:00000a24       ??_C@_0CJ@GJELGAMM@?$GAvector?5vbase?5copy?5constructor?5@ 1005fa24     libvcruntime:undname.obj
 0002:00000a50       ??_C@_0CL@FGIJHLCE@?$GAmanaged?5vector?5copy?5constructo@ 1005fa50     libvcruntime:undname.obj
 0002:00000a7c       ??_C@_0BM@PMGGMLDN@?$GAlocal?5static?5thread?5guard?8@ 1005fa7c     libvcruntime:undname.obj
 0002:00000a98       ??_C@_0N@BDNMDMOL@operator?5?$CC?$CC?5@ 1005fa98     libvcruntime:undname.obj
 0002:00000aa8       ??_C@_0BC@GGEBGALA@operator?5co_await@ 1005faa8     libvcruntime:undname.obj
 0002:00000abc       ??_C@_0M@GAAIMMOH@operator?$DM?$DN?$DO@ 1005fabc     libvcruntime:undname.obj
 0002:00000ac8       ??_C@_0BC@DAFEJGAK@?5Type?5Descriptor?8@ 1005fac8     libvcruntime:undname.obj
 0002:00000adc       ??_C@_0BM@LDKODKLH@?5Base?5Class?5Descriptor?5at?5?$CI@ 1005fadc     libvcruntime:undname.obj
 0002:00000af8       ??_C@_0BD@LGICGFMM@?5Base?5Class?5Array?8@ 1005faf8     libvcruntime:undname.obj
 0002:00000b0c       ??_C@_0BN@MECKDCOJ@?5Class?5Hierarchy?5Descriptor?8@ 1005fb0c     libvcruntime:undname.obj
 0002:00000b2c       ??_C@_0BK@CFCOFLF@?5Complete?5Object?5Locator?8@ 1005fb2c     libvcruntime:undname.obj
 0002:00000b48       ??_C@_0BG@JNJLAMPM@?$GAanonymous?5namespace?8@ 1005fb48     libvcruntime:undname.obj
 0002:00000b60       ??_C@_04HEJADOOB@CV?3?5@   1005fb60     libvcruntime:undname.obj
 0002:00000b68       ??_C@_02MOLJINC@?3?3@      1005fb68     libvcruntime:undname.obj
 0002:00000b6c       ??_C@_0BE@JAEOCHPE@template?9parameter?9@ 1005fb6c     libvcruntime:undname.obj
 0002:00000b80       ??_C@_0BF@LNLGBBNL@?$GAtemplate?9parameter?9@ 1005fb80     libvcruntime:undname.obj
 0002:00000b98       ??_C@_0O@KHGCOMHP@generic?9type?9@ 1005fb98     libvcruntime:undname.obj
 0002:00000ba8       ??_C@_0P@ODDENDLM@?$GAgeneric?9type?9@ 1005fba8     libvcruntime:undname.obj
 0002:00000bb8       ??_C@_02OHHJMEON@?8?8@     1005fbb8     libvcruntime:undname.obj
 0002:00000bbc       ??_C@_0BN@IBLMMFAP@?$GAnon?9type?9template?9parameter@ 1005fbbc     libvcruntime:undname.obj
 0002:00000bdc       ??_C@_03DLDNIBIK@?$CFlf@   1005fbdc     libvcruntime:undname.obj
 0002:00000be0       ??_C@_04OFALKAJ@?$DP?$DP_C@ 1005fbe0     libvcruntime:undname.obj
 0002:00000be8       ??_C@_03KHICJKCI@?4?4?4@   1005fbe8     libvcruntime:undname.obj
 0002:00000bec       ??_C@_04HIBGFPH@NULL@      1005fbec     libvcruntime:undname.obj
 0002:00000bf4       ??_C@_02DPKJAMEF@?$CFd@    1005fbf4     libvcruntime:undname.obj
 0002:00000bf8       ??_C@_0BK@IHCCFNEL@?$GAtemplate?9type?9parameter?9@ 1005fbf8     libvcruntime:undname.obj
 0002:00000c14       ??_C@_0BK@OFCNNNKO@?$GAgeneric?9class?9parameter?9@ 1005fc14     libvcruntime:undname.obj
 0002:00000c30       ??_C@_0BL@NGJBLFIL@?$GAgeneric?9method?9parameter?9@ 1005fc30     libvcruntime:undname.obj
 0002:00000c4c       ??_C@_07OHNGEDJK@nullptr@  1005fc4c     libvcruntime:undname.obj
 0002:00000c54       ??_C@_06COJIGPIB@lambda@   1005fc54     libvcruntime:undname.obj
 0002:00000c5c       ??_C@_04GKJNKENE@void@     1005fc5c     libvcruntime:undname.obj
 0002:00000c64       ??_C@_0BE@EODMJLIF@?$GAtemplate?9parameter@ 1005fc64     libvcruntime:undname.obj
 0002:00000c78       ??_C@_03OPGICMGF@?$HN?8?5@ 1005fc78     libvcruntime:undname.obj
 0002:00000c7c       ??_C@_02IGFCGPIL@?$HN?8@   1005fc7c     libvcruntime:undname.obj
 0002:00000c80       ??_C@_0N@CBHHHENL@?$GAvtordispex?$HL@ 1005fc80     libvcruntime:undname.obj
 0002:00000c90       ??_C@_0L@GHPFDFH@?$GAvtordisp?$HL@ 1005fc90     libvcruntime:undname.obj
 0002:00000c9c       ??_C@_0L@HNGCOGAE@?$GAadjustor?$HL@ 1005fc9c     libvcruntime:undname.obj
 0002:00000ca8       ??_C@_0CB@KJDOOODE@?$GAlocal?5static?5destructor?5helper@ 1005fca8     libvcruntime:undname.obj
 0002:00000ccc       ??_C@_0DB@ILEFOCIJ@?$GAtemplate?5static?5data?5member?5co@ 1005fccc     libvcruntime:undname.obj
 0002:00000d00       ??_C@_0DA@HGFJFBBE@?$GAtemplate?5static?5data?5member?5de@ 1005fd00     libvcruntime:undname.obj
 0002:00000d30       ??_C@_07PGOEDBHP@static?5@ 1005fd30     libvcruntime:undname.obj
 0002:00000d38       ??_C@_08NIEOINHE@virtual?5@ 1005fd38     libvcruntime:undname.obj
 0002:00000d44       ??_C@_09LAPHOOG@private?3?5@ 1005fd44     libvcruntime:undname.obj
 0002:00000d50       ??_C@_0M@GAIFPFIP@protected?3?5@ 1005fd50     libvcruntime:undname.obj
 0002:00000d5c       ??_C@_08GPDDCMKI@public?3?5@ 1005fd5c     libvcruntime:undname.obj
 0002:00000d68       ??_C@_08KJLFOPNE@?$FLthunk?$FN?3@ 1005fd68     libvcruntime:undname.obj
 0002:00000d74       ??_C@_0M@DHNBOJMP@extern?5?$CCC?$CC?5@ 1005fd74     libvcruntime:undname.obj
 0002:00000d80       ??_C@_02KCKGHPCA@?$CJ?5@   1005fd80     libvcruntime:undname.obj
 0002:00000d84       ??_C@_05CIHEBHNO@char?5@   1005fd84     libvcruntime:undname.obj
 0002:00000d8c       ??_C@_06EHJMALKF@short?5@  1005fd8c     libvcruntime:undname.obj
 0002:00000d94       ??_C@_04LAHKHJMA@int?5@    1005fd94     libvcruntime:undname.obj
 0002:00000d9c       ??_C@_05CJIMAING@long?5@   1005fd9c     libvcruntime:undname.obj
 0002:00000da4       ??_C@_09EBBEKKIH@unsigned?5@ 1005fda4     libvcruntime:undname.obj
 0002:00000db0       ??_C@_05BEFAKPML@void?5@   1005fdb0     libvcruntime:undname.obj
 0002:00000db8       ??_C@_09GAIEOBLP@volatile?5@ 1005fdb8     libvcruntime:undname.obj
 0002:00000dc4       ??_C@_08PABEKFH@volatile@  1005fdc4     libvcruntime:undname.obj
 0002:00000dd0       ??_C@_0BA@LKIJLKPP@std?3?3nullptr_t?5@ 1005fdd0     libvcruntime:undname.obj
 0002:00000de0       ??_C@_0P@GCOCNKDM@std?3?3nullptr_t@ 1005fde0     libvcruntime:undname.obj
 0002:00000df0       ??_C@_0L@EGPHHEKN@?$DMellipsis?$DO@ 1005fdf0     libvcruntime:undname.obj
 0002:00000dfc       ??_C@_04EENFHACM@?0?4?4?4@ 1005fdfc     libvcruntime:undname.obj
 0002:00000e04       ??_C@_0M@ELJOJFFH@?0?$DMellipsis?$DO@ 1005fe04     libvcruntime:undname.obj
 0002:00000e10       ??_C@_09DNHFEOJI@?5noexcept@ 1005fe10     libvcruntime:undname.obj
 0002:00000e1c       ??_C@_03PBJBJNON@cpu@      1005fe1c     libvcruntime:undname.obj
 0002:00000e20       ??_C@_03DCBBJBAA@amp@      1005fe20     libvcruntime:undname.obj
 0002:00000e24       ??_C@_02KEGNLNML@?0?5@     1005fe24     libvcruntime:undname.obj
 0002:00000e28       ??_C@_04ENMBGAPA@char@     1005fe28     libvcruntime:undname.obj
 0002:00000e30       ??_C@_05BFKKPKCG@short@    1005fe30     libvcruntime:undname.obj
 0002:00000e38       ??_C@_03JBIPMCLC@int@      1005fe38     libvcruntime:undname.obj
 0002:00000e3c       ??_C@_04GOKPGOLB@long@     1005fe3c     libvcruntime:undname.obj
 0002:00000e44       ??_C@_05KNFBNCOH@float@    1005fe44     libvcruntime:undname.obj
 0002:00000e4c       ??_C@_06BNJCAIGJ@double@   1005fe4c     libvcruntime:undname.obj
 0002:00000e54       ??_C@_04DDKJGDCM@bool@     1005fe54     libvcruntime:undname.obj
 0002:00000e5c       ??_C@_06EBGKOKIG@__int8@   1005fe5c     libvcruntime:undname.obj
 0002:00000e64       ??_C@_07ICFHOGAF@__int16@  1005fe64     libvcruntime:undname.obj
 0002:00000e6c       ??_C@_07OFLPPHGP@__int32@  1005fe6c     libvcruntime:undname.obj
 0002:00000e74       ??_C@_07LFCOJCAC@__int64@  1005fe74     libvcruntime:undname.obj
 0002:00000e7c       ??_C@_08GAHOLHEO@__int128@ 1005fe7c     libvcruntime:undname.obj
 0002:00000e88       ??_C@_09EEKGDCPH@?$DMunknown?$DO@ 1005fe88     libvcruntime:undname.obj
 0002:00000e94       ??_C@_07CFHGOPCN@char8_t@  1005fe94     libvcruntime:undname.obj
 0002:00000e9c       ??_C@_08HBIPOFJB@char16_t@ 1005fe9c     libvcruntime:undname.obj
 0002:00000ea8       ??_C@_08IECNCBKG@char32_t@ 1005fea8     libvcruntime:undname.obj
 0002:00000eb4       ??_C@_07CLGGIAMF@wchar_t@  1005feb4     libvcruntime:undname.obj
 0002:00000ebc       ??_C@_04HAPDLBFF@auto@     1005febc     libvcruntime:undname.obj
 0002:00000ec4       ??_C@_0P@LHCGKIGK@decltype?$CIauto?$CJ@ 1005fec4     libvcruntime:undname.obj
 0002:00000ed4       ??_C@_05PCNBGHCF@this?5@   1005fed4     libvcruntime:undname.obj
 0002:00000edc       ??_C@_06GCICPBLB@__w64?5@  1005fedc     libvcruntime:undname.obj
 0002:00000ee4       ??_C@_07NFANNNEC@UNKNOWN@  1005fee4     libvcruntime:undname.obj
 0002:00000eec       ??_C@_07EDHNAJHC@signed?5@ 1005feec     libvcruntime:undname.obj
 0002:00000ef4       ??_C@_05BNCCCJPP@const@    1005fef4     libvcruntime:undname.obj
 0002:00000efc       ??_C@_09EFNPDFFP@?5volatile@ 1005fefc     libvcruntime:undname.obj
 0002:00000f08       ??_C@_0P@GCIFDJCJ@?$GAunknown?5ecsu?8@ 1005ff08     libvcruntime:undname.obj
 0002:00000f18       ??_C@_06MOJHIBMG@union?5@  1005ff18     libvcruntime:undname.obj
 0002:00000f20       ??_C@_07DIBCDNGL@struct?5@ 1005ff20     libvcruntime:undname.obj
 0002:00000f28       ??_C@_06LJBABKPM@class?5@  1005ff28     libvcruntime:undname.obj
 0002:00000f30       ??_C@_08KOFANOFK@coclass?5@ 1005ff30     libvcruntime:undname.obj
 0002:00000f3c       ??_C@_0N@DLIEFKNA@cointerface?5@ 1005ff3c     libvcruntime:undname.obj
 0002:00000f4c       ??_C@_05LJGMCFOG@enum?5@   1005ff4c     libvcruntime:undname.obj
 0002:00000f54       ??_C@_06LIJLOJAG@const?5@  1005ff54     libvcruntime:undname.obj
 0002:00000f5c       ??_C@_02KJPKDIBN@?$CG?5@   1005ff5c     libvcruntime:undname.obj
 0002:00000f60       ??_C@_03PCKGMOPB@?$CG?$CG?5@ 1005ff60     libvcruntime:undname.obj
 0002:00000f64       ??_C@_0M@EALIELKG@cli?3?3array?$DM@ 1005ff64     libvcruntime:undname.obj
 0002:00000f70       ??_C@_0O@GKABPPIF@cli?3?3pin_ptr?$DM@ 1005ff70     libvcruntime:undname.obj
 0002:00000f80       ??_C@_02GOGNNPBN@?$CJ?$FL@ 1005ff80     libvcruntime:undname.obj
 0002:00000f84       ??_C@_06EEGAIFAK@?$HLflat?$HN@ 1005ff84     libvcruntime:undname.obj
 0002:00000f8c       ??_C@_05JIBOFOHK@?$HLfor?5@ 1005ff8c     libvcruntime:undname.obj
 0002:00000f94       ??_C@_02MDINNEEG@s?5@      1005ff94     libvcruntime:undname.obj
 0002:00000f9c       ??_7DNameNode@@6B@         1005ff9c     libvcruntime:undname.obj
 0002:00000fb0       ??_7charNode@@6B@          1005ffb0     libvcruntime:undname.obj
 0002:00000fc4       ??_7pcharNode@@6B@         1005ffc4     libvcruntime:undname.obj
 0002:00000fd8       ??_7pDNameNode@@6B@        1005ffd8     libvcruntime:undname.obj
 0002:00000fec       ??_7DNameStatusNode@@6B@   1005ffec     libvcruntime:undname.obj
 0002:00001000       ??_7pairNode@@6B@          10060000     libvcruntime:undname.obj
 0002:00001110       ??_C@_04OKOHEJBO@?5?$DP?$DP?5@ 10060110     libvcruntime:undname.obj
 0002:00001118       ?nodes@?1??make@DNameStatusNode@@SAPBV2@W4DNameStatus@@@Z@4QBV2@B 10060118     libvcruntime:undname.obj
 0002:00001154       ??_C@_1DM@KHCHBNEB@?$AAa?$AAp?$AAi?$AA?9?$AAm?$AAs?$AA?9?$AAw?$AAi?$AAn?$AA?9?$AAc?$AAo?$AAr?$AAe@ 10060154     libvcruntime:winapi_downlevel.obj
 0002:00001190       ??_C@_1DK@LPPGFMPP@?$AAa?$AAp?$AAi?$AA?9?$AAm?$AAs?$AA?9?$AAw?$AAi?$AAn?$AA?9?$AAc?$AAo?$AAr?$AAe@ 10060190     libvcruntime:winapi_downlevel.obj
 0002:000011cc       ??_C@_1BC@GDMECMAK@?$AAk?$AAe?$AAr?$AAn?$AAe?$AAl?$AA3?$AA2@ 100601cc     libvcruntime:winapi_downlevel.obj
 0002:000011e0       ??_C@_1BA@PFFKHIOG@?$AAa?$AAp?$AAi?$AA?9?$AAm?$AAs?$AA?9@ 100601e0     libvcruntime:winapi_downlevel.obj
 0002:000011f8       ??_C@_08KNHFBNJ@FlsAlloc@  100601f8     libvcruntime:winapi_downlevel.obj
 0002:0000120c       ??_C@_07PEJMOBNF@FlsFree@  1006020c     libvcruntime:winapi_downlevel.obj
 0002:0000121c       ??_C@_0M@GDNOONDI@FlsGetValue@ 1006021c     libvcruntime:winapi_downlevel.obj
 0002:00001230       ??_C@_0M@JCPCPOEF@FlsSetValue@ 10060230     libvcruntime:winapi_downlevel.obj
 0002:00001244       ??_C@_0BM@HCFOFFN@InitializeCriticalSectionEx@ 10060244     libvcruntime:winapi_downlevel.obj
 0002:00001264       ??_7exception@std@@6B@     10060264     libvcruntime:frame.obj
 0002:0000126c       ??_C@_0BC@EOODALEL@Unknown?5exception@ 1006026c     libvcruntime:frame.obj
 0002:00001284       ??_7bad_exception@std@@6B@ 10060284     libvcruntime:frame.obj
 0002:0000128c       ??_C@_0O@DPKOEFFH@bad?5exception@ 1006028c     libvcruntime:frame.obj
 0002:0000129c       __Fenv1                    1006029c     libucrt:output.obj
 0002:000012a8       ?standard_lookup_table_spectre@__crt_stdio_output@@3V?$spectre_mitigated_lookup_table@Ustate_transition_pair@__crt_stdio_output@@$0IA@@1@B 100602a8     libucrt:output.obj
 0002:000013a8       ?format_validation_lookup_table_spectre@__crt_stdio_output@@3V?$spectre_mitigated_lookup_table@Ustate_transition_pair@__crt_stdio_output@@$0IA@@1@B 100603a8     libucrt:output.obj
 0002:000014a8       ??_C@_1O@CEDCILHN@?$AA?$CI?$AAn?$AAu?$AAl?$AAl?$AA?$CJ@ 100604a8     libucrt:output.obj
 0002:000014b8       ??_C@_06OJHGLDPL@?$CInull?$CJ@ 100604b8     libucrt:output.obj
 0002:00001628       ??_C@_0EA@FCLIIPNN@Visual?5C?$CL?$CL?5CRT?3?5Not?5enough?5memo@ 10060628     libucrt:strerror.obj
 0002:00001668       ??_C@_1IA@JENHHBGD@?$AAV?$AAi?$AAs?$AAu?$AAa?$AAl?$AA?5?$AAC?$AA?$CL?$AA?$CL?$AA?5?$AAC?$AAR?$AAT?$AA?3@ 10060668     libucrt:strerror.obj
 0002:000016e8       ___acrt_exception_action_table 100606e8     libucrt:exception_filter.obj
 0002:00001778       ___acrt_signal_action_table_count 10060778     libucrt:exception_filter.obj
 0002:0000177c       ___acrt_signal_action_table_size 1006077c     libucrt:exception_filter.obj
 0002:00001780       ___acrt_signal_action_first_fpe_index 10060780     libucrt:exception_filter.obj
 0002:00001784       ___acrt_signal_action_fpe_count 10060784     libucrt:exception_filter.obj
 0002:00001788       ??_C@_1BI@BGOHAHKC@?$AAm?$AAs?$AAc?$AAo?$AAr?$AAe?$AAe?$AA?4?$AAd?$AAl?$AAl@ 10060788     libucrt:exit.obj
 0002:000017a0       ??_C@_0P@MIGLKIOC@CorExitProcess@ 100607a0     libucrt:exit.obj
 0002:000018b0       ___lc_category             100608b0     libucrt:wsetlocale.obj
 0002:000018f8       ??_C@_1O@GIFLHMA@?$AAL?$AAC?$AA_?$AAA?$AAL?$AAL@ 100608f8     libucrt:wsetlocale.obj
 0002:00001908       ??_C@_1BG@PPOMIBNJ@?$AAL?$AAC?$AA_?$AAC?$AAO?$AAL?$AAL?$AAA?$AAT?$AAE@ 10060908     libucrt:wsetlocale.obj
 0002:00001920       ??_C@_1BC@FFJGAPJM@?$AAL?$AAC?$AA_?$AAC?$AAT?$AAY?$AAP?$AAE@ 10060920     libucrt:wsetlocale.obj
 0002:00001934       ??_C@_1BI@PCKFNJFB@?$AAL?$AAC?$AA_?$AAM?$AAO?$AAN?$AAE?$AAT?$AAA?$AAR?$AAY@ 10060934     libucrt:wsetlocale.obj
 0002:0000194c       ??_C@_1BG@ENIEDKID@?$AAL?$AAC?$AA_?$AAN?$AAU?$AAM?$AAE?$AAR?$AAI?$AAC@ 1006094c     libucrt:wsetlocale.obj
 0002:00001964       ??_C@_1BA@HAAOMIIG@?$AAL?$AAC?$AA_?$AAT?$AAI?$AAM?$AAE@ 10060964     libucrt:wsetlocale.obj
 0002:00001974       ??_C@_15NBPDDFIP@?$AA?$DN?$AA?$DL@ 10060974     libucrt:wsetlocale.obj
 0002:0000197c       ??_C@_13PJJBFPED@?$AA?$DL@ 1006097c     libucrt:wsetlocale.obj
 0002:00001980       ??_C@_13NMPKAAJP@?$AA?$DN@ 10060980     libucrt:wsetlocale.obj
 0002:00001984       ??_C@_13IMODFHAA@?$AA?9@   10060984     libucrt:wsetlocale.obj
 0002:00001988       ??_C@_17EFJLDFDO@?$AA?9?$AA_?$AA?4@ 10060988     libucrt:wsetlocale.obj
 0002:00001990       ??_C@_13FHBKNHDA@?$AAC@    10060990     libucrt:wsetlocale.obj
 0002:00001994       ??_C@_17MBJJLFDM@?$AA_?$AA?4?$AA?0@ 10060994     libucrt:wsetlocale.obj
 0002:0000199c       ??_C@_13ENNFDPBH@?$AA_@    1006099c     libucrt:wsetlocale.obj
 0002:000019a0       ??_C@_13JOFGPIOO@?$AA?4@   100609a0     libucrt:wsetlocale.obj
 0002:000019a8       ___lc_time_c               100609a8     libucrt:nlsdata.obj
 0002:00001b0c       ??_C@_03KOEHGMDN@Sun@      10060b0c     libucrt:nlsdata.obj
 0002:00001b10       ??_C@_03PDAGKDH@Mon@       10060b10     libucrt:nlsdata.obj
 0002:00001b14       ??_C@_03NAGEINEP@Tue@      10060b14     libucrt:nlsdata.obj
 0002:00001b18       ??_C@_03MHOMLAJA@Wed@      10060b18     libucrt:nlsdata.obj
 0002:00001b1c       ??_C@_03IOFIKPDN@Thu@      10060b1c     libucrt:nlsdata.obj
 0002:00001b20       ??_C@_03IDIOELNC@Fri@      10060b20     libucrt:nlsdata.obj
 0002:00001b24       ??_C@_03FEFJNEK@Sat@       10060b24     libucrt:nlsdata.obj
 0002:00001b28       ??_C@_06OOPIFAJ@Sunday@    10060b28     libucrt:nlsdata.obj
 0002:00001b30       ??_C@_06JLEDEDGH@Monday@   10060b30     libucrt:nlsdata.obj
 0002:00001b38       ??_C@_07BAAGCFCM@Tuesday@  10060b38     libucrt:nlsdata.obj
 0002:00001b40       ??_C@_09DLIGFAKA@Wednesday@ 10060b40     libucrt:nlsdata.obj
 0002:00001b4c       ??_C@_08HACCIKIA@Thursday@ 10060b4c     libucrt:nlsdata.obj
 0002:00001b58       ??_C@_06JECMNKMI@Friday@   10060b58     libucrt:nlsdata.obj
 0002:00001b60       ??_C@_08INBOOONO@Saturday@ 10060b60     libucrt:nlsdata.obj
 0002:00001b6c       ??_C@_03JIHJHPIE@Jan@      10060b6c     libucrt:nlsdata.obj
 0002:00001b70       ??_C@_03HJBDCHOM@Feb@      10060b70     libucrt:nlsdata.obj
 0002:00001b74       ??_C@_03ODNJBKGA@Mar@      10060b74     libucrt:nlsdata.obj
 0002:00001b78       ??_C@_03LEOLGMJP@Apr@      10060b78     libucrt:nlsdata.obj
 0002:00001b7c       ??_C@_03CNMDKL@May@        10060b7c     libucrt:nlsdata.obj
 0002:00001b80       ??_C@_03IDFGHECI@Jun@      10060b80     libucrt:nlsdata.obj
 0002:00001b84       ??_C@_03LBGABGKK@Jul@      10060b84     libucrt:nlsdata.obj
 0002:00001b88       ??_C@_03IFJFEIGA@Aug@      10060b88     libucrt:nlsdata.obj
 0002:00001b8c       ??_C@_03GGCAPAJC@Sep@      10060b8c     libucrt:nlsdata.obj
 0002:00001b90       ??_C@_03BMAOKBAD@Oct@      10060b90     libucrt:nlsdata.obj
 0002:00001b94       ??_C@_03JPJOFNIA@Nov@      10060b94     libucrt:nlsdata.obj
 0002:00001b98       ??_C@_03MKABNOCG@Dec@      10060b98     libucrt:nlsdata.obj
 0002:00001b9c       ??_C@_07CGJPFGJA@January@  10060b9c     libucrt:nlsdata.obj
 0002:00001ba4       ??_C@_08GNJGEPFN@February@ 10060ba4     libucrt:nlsdata.obj
 0002:00001bb0       ??_C@_05HPCKOFNC@March@    10060bb0     libucrt:nlsdata.obj
 0002:00001bb8       ??_C@_05DMJDNLEJ@April@    10060bb8     libucrt:nlsdata.obj
 0002:00001bc0       ??_C@_04CNLMGBGM@June@     10060bc0     libucrt:nlsdata.obj
 0002:00001bc8       ??_C@_04MIEPOIFP@July@     10060bc8     libucrt:nlsdata.obj
 0002:00001bd0       ??_C@_06LBBHFDDG@August@   10060bd0     libucrt:nlsdata.obj
 0002:00001bd8       ??_C@_09BHHEALKD@September@ 10060bd8     libucrt:nlsdata.obj
 0002:00001be4       ??_C@_07JJNFCEND@October@  10060be4     libucrt:nlsdata.obj
 0002:00001bec       ??_C@_08HCHEGEOA@November@ 10060bec     libucrt:nlsdata.obj
 0002:00001bf8       ??_C@_08EDHMEBNP@December@ 10060bf8     libucrt:nlsdata.obj
 0002:00001c04       ??_C@_02DEDBPAFC@AM@       10060c04     libucrt:nlsdata.obj
 0002:00001c08       ??_C@_02CJNFDJBF@PM@       10060c08     libucrt:nlsdata.obj
 0002:00001c0c       ??_C@_08BPBNCDIB@MM?1dd?1yy@ 10060c0c     libucrt:nlsdata.obj
 0002:00001c18       ??_C@_0BE@CKGJFCPC@dddd?0?5MMMM?5dd?0?5yyyy@ 10060c18     libucrt:nlsdata.obj
 0002:00001c2c       ??_C@_08JCCMCCIL@HH?3mm?3ss@ 10060c2c     libucrt:nlsdata.obj
 0002:00001c38       ??_C@_17MBGCMIPB@?$AAS?$AAu?$AAn@ 10060c38     libucrt:nlsdata.obj
 0002:00001c40       ??_C@_17KBOMKBF@?$AAM?$AAo?$AAn@ 10060c40     libucrt:nlsdata.obj
 0002:00001c48       ??_C@_17BMKGEGOJ@?$AAT?$AAu?$AAe@ 10060c48     libucrt:nlsdata.obj
 0002:00001c50       ??_C@_17CJEDCEPE@?$AAW?$AAe?$AAd@ 10060c50     libucrt:nlsdata.obj
 0002:00001c58       ??_C@_17PDPHAADD@?$AAT?$AAh?$AAu@ 10060c58     libucrt:nlsdata.obj
 0002:00001c60       ??_C@_17HFOLPPLP@?$AAF?$AAr?$AAi@ 10060c60     libucrt:nlsdata.obj
 0002:00001c68       ??_C@_17GGIBDPIH@?$AAS?$AAa?$AAt@ 10060c68     libucrt:nlsdata.obj
 0002:00001c70       ??_C@_1O@IHNHDHPB@?$AAS?$AAu?$AAn?$AAd?$AAa?$AAy@ 10060c70     libucrt:nlsdata.obj
 0002:00001c80       ??_C@_1O@MMNBFLIA@?$AAM?$AAo?$AAn?$AAd?$AAa?$AAy@ 10060c80     libucrt:nlsdata.obj
 0002:00001c90       ??_C@_1BA@ENFBFFEK@?$AAT?$AAu?$AAe?$AAs?$AAd?$AAa?$AAy@ 10060c90     libucrt:nlsdata.obj
 0002:00001ca0       ??_C@_1BE@EBOGMDOH@?$AAW?$AAe?$AAd?$AAn?$AAe?$AAs?$AAd?$AAa?$AAy@ 10060ca0     libucrt:nlsdata.obj
 0002:00001cb4       ??_C@_1BC@HHMNLIHE@?$AAT?$AAh?$AAu?$AAr?$AAs?$AAd?$AAa?$AAy@ 10060cb4     libucrt:nlsdata.obj
 0002:00001cc8       ??_C@_1O@PDICJHAG@?$AAF?$AAr?$AAi?$AAd?$AAa?$AAy@ 10060cc8     libucrt:nlsdata.obj
 0002:00001cd8       ??_C@_1BC@ENMNNPAJ@?$AAS?$AAa?$AAt?$AAu?$AAr?$AAd?$AAa?$AAy@ 10060cd8     libucrt:nlsdata.obj
 0002:00001cec       ??_C@_17DKNBKCHM@?$AAJ?$AAa?$AAn@ 10060cec     libucrt:nlsdata.obj
 0002:00001cf4       ??_C@_17LMDJEKJN@?$AAF?$AAe?$AAb@ 10060cf4     libucrt:nlsdata.obj
 0002:00001cfc       ??_C@_17CKNLEDEC@?$AAM?$AAa?$AAr@ 10060cfc     libucrt:nlsdata.obj
 0002:00001d04       ??_C@_17LFPOIHDD@?$AAA?$AAp?$AAr@ 10060d04     libucrt:nlsdata.obj
 0002:00001d0c       ??_C@_17PNNKMEED@?$AAM?$AAa?$AAy@ 10060d0c     libucrt:nlsdata.obj
 0002:00001d14       ??_C@_17KCJGOCPB@?$AAJ?$AAu?$AAn@ 10060d14     libucrt:nlsdata.obj
 0002:00001d1c       ??_C@_17IJPCKHK@?$AAJ?$AAu?$AAl@ 10060d1c     libucrt:nlsdata.obj
 0002:00001d24       ??_C@_17ICPELBCN@?$AAA?$AAu?$AAg@ 10060d24     libucrt:nlsdata.obj
 0002:00001d2c       ??_C@_17HCHCOKMG@?$AAS?$AAe?$AAp@ 10060d2c     libucrt:nlsdata.obj
 0002:00001d34       ??_C@_17FNLKOI@?$AAO?$AAc?$AAt@ 10060d34     libucrt:nlsdata.obj
 0002:00001d3c       ??_C@_17BBDMLCIG@?$AAN?$AAo?$AAv@ 10060d3c     libucrt:nlsdata.obj
 0002:00001d44       ??_C@_17EGKACKIF@?$AAD?$AAe?$AAc@ 10060d44     libucrt:nlsdata.obj
 0002:00001d4c       ??_C@_1BA@EFMEIEBA@?$AAJ?$AAa?$AAn?$AAu?$AAa?$AAr?$AAy@ 10060d4c     libucrt:nlsdata.obj
 0002:00001d5c       ??_C@_1BC@JGDDFFAM@?$AAF?$AAe?$AAb?$AAr?$AAu?$AAa?$AAr?$AAy@ 10060d5c     libucrt:nlsdata.obj
 0002:00001d70       ??_C@_1M@IKEENEDF@?$AAM?$AAa?$AAr?$AAc?$AAh@ 10060d70     libucrt:nlsdata.obj
 0002:00001d7c       ??_C@_1M@GJNLMHFD@?$AAA?$AAp?$AAr?$AAi?$AAl@ 10060d7c     libucrt:nlsdata.obj
 0002:00001d88       ??_C@_19EPFLPGAP@?$AAJ?$AAu?$AAn?$AAe@ 10060d88     libucrt:nlsdata.obj
 0002:00001d94       ??_C@_19BIFMLPCD@?$AAJ?$AAu?$AAl?$AAy@ 10060d94     libucrt:nlsdata.obj
 0002:00001da0       ??_C@_1O@PAHLKOAC@?$AAA?$AAu?$AAg?$AAu?$AAs?$AAt@ 10060da0     libucrt:nlsdata.obj
 0002:00001db0       ??_C@_1BE@DKAAMBJL@?$AAS?$AAe?$AAp?$AAt?$AAe?$AAm?$AAb?$AAe?$AAr@ 10060db0     libucrt:nlsdata.obj
 0002:00001dc4       ??_C@_1BA@EPANDLNG@?$AAO?$AAc?$AAt?$AAo?$AAb?$AAe?$AAr@ 10060dc4     libucrt:nlsdata.obj
 0002:00001dd4       ??_C@_1BC@BGLIFPF@?$AAN?$AAo?$AAv?$AAe?$AAm?$AAb?$AAe?$AAr@ 10060dd4     libucrt:nlsdata.obj
 0002:00001de8       ??_C@_1BC@FEMKIFH@?$AAD?$AAe?$AAc?$AAe?$AAm?$AAb?$AAe?$AAr@ 10060de8     libucrt:nlsdata.obj
 0002:00001dfc       ??_C@_15ODEHAHHF@?$AAA?$AAM@ 10060dfc     libucrt:nlsdata.obj
 0002:00001e04       ??_C@_15CLMNNGEL@?$AAP?$AAM@ 10060e04     libucrt:nlsdata.obj
 0002:00001e0c       ??_C@_1BC@IEBCMHCM@?$AAM?$AAM?$AA?1?$AAd?$AAd?$AA?1?$AAy?$AAy@ 10060e0c     libucrt:nlsdata.obj
 0002:00001e20       ??_C@_1CI@KNAKOEBC@?$AAd?$AAd?$AAd?$AAd?$AA?0?$AA?5?$AAM?$AAM?$AAM?$AAM?$AA?5?$AAd?$AAd?$AA?0?$AA?5@ 10060e20     libucrt:nlsdata.obj
 0002:00001e48       ??_C@_1BC@GDGBMEMK@?$AAH?$AAH?$AA?3?$AAm?$AAm?$AA?3?$AAs?$AAs@ 10060e48     libucrt:nlsdata.obj
 0002:00001e5c       ??_C@_1M@BMHNFIME@?$AAe?$AAn?$AA?9?$AAU?$AAS@ 10060e5c     libucrt:nlsdata.obj
 0002:00001e68       _RtlNtPathSeperatorString  10060e68     libucrt:winapi_thunks.obj
 0002:00001e70       ??_C@_13FPGAJAPJ@?$AA?2@   10060e70     libucrt:winapi_thunks.obj
 0002:00001e74       _RtlDosPathSeperatorsString 10060e74     libucrt:winapi_thunks.obj
 0002:00001e7c       ??_C@_15MNCACJLI@?$AA?2?$AA?1@ 10060e7c     libucrt:winapi_thunks.obj
 0002:00001e84       _RtlAlternateDosPathSeperatorString 10060e84     libucrt:winapi_thunks.obj
 0002:00001e8c       ??_C@_13CGOKJPIL@?$AA?1@   10060e8c     libucrt:winapi_thunks.obj
 0002:00001ee8       ??_C@_1EA@JGEFHKEI@?$AAa?$AAp?$AAi?$AA?9?$AAm?$AAs?$AA?9?$AAw?$AAi?$AAn?$AA?9?$AAc?$AAo?$AAr?$AAe@ 10060ee8     libucrt:winapi_thunks.obj
 0002:00001f28       ??_C@_1DI@KMEPCBPN@?$AAa?$AAp?$AAi?$AA?9?$AAm?$AAs?$AA?9?$AAw?$AAi?$AAn?$AA?9?$AAc?$AAo?$AAr?$AAe@ 10060f28     libucrt:winapi_thunks.obj
 0002:00001f60       ??_C@_1DI@IJCEHOCB@?$AAa?$AAp?$AAi?$AA?9?$AAm?$AAs?$AA?9?$AAw?$AAi?$AAn?$AA?9?$AAc?$AAo?$AAr?$AAe@ 10060f60     libucrt:winapi_thunks.obj
 0002:00001f98       ??_C@_1EI@MPIAOHOC@?$AAa?$AAp?$AAi?$AA?9?$AAm?$AAs?$AA?9?$AAw?$AAi?$AAn?$AA?9?$AAc?$AAo?$AAr?$AAe@ 10060f98     libucrt:winapi_thunks.obj
 0002:00001fe0       ??_C@_1FK@FPHCKFIE@?$AAa?$AAp?$AAi?$AA?9?$AAm?$AAs?$AA?9?$AAw?$AAi?$AAn?$AA?9?$AAc?$AAo?$AAr?$AAe@ 10060fe0     libucrt:winapi_thunks.obj
 0002:00002040       ??_C@_1EM@DILCGIIO@?$AAa?$AAp?$AAi?$AA?9?$AAm?$AAs?$AA?9?$AAw?$AAi?$AAn?$AA?9?$AAc?$AAo?$AAr?$AAe@ 10061040     libucrt:winapi_thunks.obj
 0002:0000208c       ??_C@_1DM@LNCGDDPN@?$AAa?$AAp?$AAi?$AA?9?$AAm?$AAs?$AA?9?$AAw?$AAi?$AAn?$AA?9?$AAc?$AAo?$AAr?$AAe@ 1006108c     libucrt:winapi_thunks.obj
 0002:000020c8       ??_C@_1DO@FPAPJEMD@?$AAa?$AAp?$AAi?$AA?9?$AAm?$AAs?$AA?9?$AAw?$AAi?$AAn?$AA?9?$AAc?$AAo?$AAr?$AAe@ 100610c8     libucrt:winapi_thunks.obj
 0002:00002108       ??_C@_1DK@NDHNAHIO@?$AAa?$AAp?$AAi?$AA?9?$AAm?$AAs?$AA?9?$AAw?$AAi?$AAn?$AA?9?$AAc?$AAo?$AAr?$AAe@ 10061108     libucrt:winapi_thunks.obj
 0002:00002144       ??_C@_1DM@KGHDGBCM@?$AAa?$AAp?$AAi?$AA?9?$AAm?$AAs?$AA?9?$AAw?$AAi?$AAn?$AA?9?$AAc?$AAo?$AAr?$AAe@ 10061144     libucrt:winapi_thunks.obj
 0002:00002180       ??_C@_1EO@IJIOEFOH@?$AAa?$AAp?$AAi?$AA?9?$AAm?$AAs?$AA?9?$AAw?$AAi?$AAn?$AA?9?$AAr?$AAt?$AAc?$AAo@ 10061180     libucrt:winapi_thunks.obj
 0002:000021d0       ??_C@_1FG@HHGEKANL@?$AAa?$AAp?$AAi?$AA?9?$AAm?$AAs?$AA?9?$AAw?$AAi?$AAn?$AA?9?$AAs?$AAe?$AAc?$AAu@ 100611d0     libucrt:winapi_thunks.obj
 0002:00002228       ??_C@_1EG@DBIOJECG@?$AAe?$AAx?$AAt?$AA?9?$AAm?$AAs?$AA?9?$AAw?$AAi?$AAn?$AA?9?$AAn?$AAt?$AAu?$AAs@ 10061228     libucrt:winapi_thunks.obj
 0002:00002270       ??_C@_1EO@FIHMJCLF@?$AAe?$AAx?$AAt?$AA?9?$AAm?$AAs?$AA?9?$AAw?$AAi?$AAn?$AA?9?$AAn?$AAt?$AAu?$AAs@ 10061270     libucrt:winapi_thunks.obj
 0002:000022c0       ??_C@_1BC@DNHGCMLG@?$AAa?$AAd?$AAv?$AAa?$AAp?$AAi?$AA3?$AA2@ 100612c0     libucrt:winapi_thunks.obj
 0002:000022d4       ??_C@_1BG@CJPGBMEF@?$AAk?$AAe?$AAr?$AAn?$AAe?$AAl?$AAb?$AAa?$AAs?$AAe@ 100612d4     libucrt:winapi_thunks.obj
 0002:000022ec       ??_C@_1M@OAIMIKLP@?$AAn?$AAt?$AAd?$AAl?$AAl@ 100612ec     libucrt:winapi_thunks.obj
 0002:000022f8       ??_C@_1EG@DPGNFKGC@?$AAa?$AAp?$AAi?$AA?9?$AAm?$AAs?$AA?9?$AAw?$AAi?$AAn?$AA?9?$AAa?$AAp?$AAp?$AAm@ 100612f8     libucrt:winapi_thunks.obj
 0002:00002340       ??_C@_1O@BCCLBEOE@?$AAu?$AAs?$AAe?$AAr?$AA3?$AA2@ 10061340     libucrt:winapi_thunks.obj
 0002:00002350       ??_C@_1DM@BPJLHKCE@?$AAa?$AAp?$AAi?$AA?9?$AAm?$AAs?$AA?9?$AAw?$AAi?$AAn?$AA?9?$AAc?$AAo?$AAr?$AAe@ 10061350     libucrt:winapi_thunks.obj
 0002:0000238c       ??_C@_1BA@IAIFMGEF@?$AAe?$AAx?$AAt?$AA?9?$AAm?$AAs?$AA?9@ 1006138c     libucrt:winapi_thunks.obj
 0002:000023a0       ??_C@_0BA@FHFNEAED@AreFileApisANSI@ 100613a0     libucrt:winapi_thunks.obj
 0002:000023b8       ??_C@_0BA@IHGNDAEB@CompareStringEx@ 100613b8     libucrt:winapi_thunks.obj
 0002:000023d0       ??_C@_0BE@LJANKFHF@EnumSystemLocalesEx@ 100613d0     libucrt:winapi_thunks.obj
 0002:000023ec       ??_C@_0BA@HNOPNCHB@GetActiveWindow@ 100613ec     libucrt:winapi_thunks.obj
 0002:00002404       ??_C@_0BA@EPCJIIPD@GetDateFormatEx@ 10061404     libucrt:winapi_thunks.obj
 0002:0000241c       ??_C@_0O@NNMIPI@GetTempPath2W@ 1006141c     libucrt:winapi_thunks.obj
 0002:00002434       ??_C@_0BJ@DIBIJBHA@GetEnabledXStateFeatures@ 10061434     libucrt:winapi_thunks.obj
 0002:00002458       ??_C@_0BD@HHGDFDBJ@GetLastActivePopup@ 10061458     libucrt:winapi_thunks.obj
 0002:00002474       ??_C@_0BA@ONOKGCMP@GetLocaleInfoEx@ 10061474     libucrt:winapi_thunks.obj
 0002:0000248c       ??_C@_0BI@DFKBFLJE@GetProcessWindowStation@ 1006148c     libucrt:winapi_thunks.obj
 0002:000024a8       ??_C@_0BP@FPNJPEJC@GetSystemTimePreciseAsFileTime@ 100614a8     libucrt:winapi_thunks.obj
 0002:000024d0       ??_C@_0BA@CIJJKCJJ@GetTimeFormatEx@ 100614d0     libucrt:winapi_thunks.obj
 0002:000024e8       ??_C@_0BJ@PBCCBIPI@GetUserDefaultLocaleName@ 100614e8     libucrt:winapi_thunks.obj
 0002:0000250c       ??_C@_0BK@DEKFELLI@GetUserObjectInformationW@ 1006150c     libucrt:winapi_thunks.obj
 0002:00002530       ??_C@_0BG@IKLDMBLM@GetXStateFeaturesMask@ 10061530     libucrt:winapi_thunks.obj
 0002:00002558       ??_C@_0BC@CELBKLLA@IsValidLocaleName@ 10061558     libucrt:winapi_thunks.obj
 0002:00002574       ??_C@_0O@KKBNKAPF@LCMapStringEx@ 10061574     libucrt:winapi_thunks.obj
 0002:0000258c       ??_C@_0BB@CDHDDLLP@LCIDToLocaleName@ 1006158c     libucrt:winapi_thunks.obj
 0002:000025a8       ??_C@_0BB@HBDEELFH@LocaleNameToLCID@ 100615a8     libucrt:winapi_thunks.obj
 0002:000025c4       ??_C@_0BE@KINNKFDA@LocateXStateFeature@ 100615c4     libucrt:winapi_thunks.obj
 0002:000025e0       ??_C@_0M@CHKKJDAI@MessageBoxA@ 100615e0     libucrt:winapi_thunks.obj
 0002:000025f4       ??_C@_0M@DLDCCGNP@MessageBoxW@ 100615f4     libucrt:winapi_thunks.obj
 0002:00002604       ??_C@_0N@PPOMPGGK@RoInitialize@ 10061604     libucrt:winapi_thunks.obj
 0002:00002618       ??_C@_0P@LLFHBIJD@RoUninitialize@ 10061618     libucrt:winapi_thunks.obj
 0002:0000262c       ??_C@_0CF@OJOFEIGO@AppPolicyGetProcessTerminationM@ 1006162c     libucrt:winapi_thunks.obj
 0002:00002658       ??_C@_0CF@NNDFDCOC@AppPolicyGetThreadInitializatio@ 10061658     libucrt:winapi_thunks.obj
 0002:00002684       ??_C@_0CE@OICFMIKE@AppPolicyGetShowDeveloperDiagno@ 10061684     libucrt:winapi_thunks.obj
 0002:000026ac       ??_C@_0BL@ODDJNEDA@AppPolicyGetWindowingModel@ 100616ac     libucrt:winapi_thunks.obj
 0002:000026d0       ??_C@_0BI@BKLFFAPO@SetThreadStackGuarantee@ 100616d0     libucrt:winapi_thunks.obj
 0002:000026f0       ??_C@_0BC@JEAENNKH@SystemFunction036@ 100616f0     libucrt:winapi_thunks.obj
 0002:00002768       ??_C@_03OEIAHPBN@INF@      10061768     libucrt:cvt.obj
 0002:0000276c       ??_C@_03OJHLLCGB@inf@      1006176c     libucrt:cvt.obj
 0002:00002770       ??_C@_03LKNCIKJB@NAN@      10061770     libucrt:cvt.obj
 0002:00002774       ??_C@_03LHCJEHON@nan@      10061774     libucrt:cvt.obj
 0002:00002778       ??_C@_09OFJJIMPC@NAN?$CISNAN?$CJ@ 10061778     libucrt:cvt.obj
 0002:00002784       ??_C@_09IPFBKMDL@nan?$CIsnan?$CJ@ 10061784     libucrt:cvt.obj
 0002:00002790       ??_C@_08IKHNHAJ@NAN?$CIIND?$CJ@ 10061790     libucrt:cvt.obj
 0002:0000279c       ??_C@_08OFCDMILK@nan?$CIind?$CJ@ 1006179c     libucrt:cvt.obj
 0002:000027a8       ??_C@_05KLBDPFGC@e?$CL000@ 100617a8     libucrt:cvt.obj
 0002:000027b0       __sys_first_posix_error    100617b0     libucrt:syserr.obj
 0002:000027b4       __sys_last_posix_error     100617b4     libucrt:syserr.obj
 0002:000027b8       __sys_posix_errlist        100617b8     libucrt:syserr.obj
 0002:00002860       __sys_errlist              10061860     libucrt:syserr.obj
 0002:00002910       ??_C@_08INEPGKHH@No?5error@ 10061910     libucrt:syserr.obj
 0002:0000291c       ??_C@_0BI@BJFCGOHL@Operation?5not?5permitted@ 1006191c     libucrt:syserr.obj
 0002:00002934       ??_C@_0BK@FMDHKPNF@No?5such?5file?5or?5directory@ 10061934     libucrt:syserr.obj
 0002:00002950       ??_C@_0BA@FKIAIBGA@No?5such?5process@ 10061950     libucrt:syserr.obj
 0002:00002960       ??_C@_0BK@FJBOAFDK@Interrupted?5function?5call@ 10061960     libucrt:syserr.obj
 0002:0000297c       ??_C@_0BD@KKNFOBBD@Input?1output?5error@ 1006197c     libucrt:syserr.obj
 0002:00002990       ??_C@_0BK@DPKMCKJ@No?5such?5device?5or?5address@ 10061990     libucrt:syserr.obj
 0002:000029ac       ??_C@_0BC@MFFGCDFL@Arg?5list?5too?5long@ 100619ac     libucrt:syserr.obj
 0002:000029c0       ??_C@_0BC@HKPNECK@Exec?5format?5error@ 100619c0     libucrt:syserr.obj
 0002:000029d4       ??_C@_0BE@NFGDDCEF@Bad?5file?5descriptor@ 100619d4     libucrt:syserr.obj
 0002:000029e8       ??_C@_0BD@LOHELEP@No?5child?5processes@ 100619e8     libucrt:syserr.obj
 0002:000029fc       ??_C@_0CB@EPFKGNAK@Resource?5temporarily?5unavailabl@ 100619fc     libucrt:syserr.obj
 0002:00002a20       ??_C@_0BB@IMDKMPFB@Not?5enough?5space@ 10061a20     libucrt:syserr.obj
 0002:00002a34       ??_C@_0BC@HFNFNKAI@Permission?5denied@ 10061a34     libucrt:syserr.obj
 0002:00002a48       ??_C@_0M@LOEHLCJD@Bad?5address@ 10061a48     libucrt:syserr.obj
 0002:00002a54       ??_C@_0O@NIPGCINC@Unknown?5error@ 10061a54     libucrt:syserr.obj
 0002:00002a64       ??_C@_0BA@BIBLIOEK@Resource?5device@ 10061a64     libucrt:syserr.obj
 0002:00002a74       ??_C@_0M@NAAJNNGH@File?5exists@ 10061a74     libucrt:syserr.obj
 0002:00002a80       ??_C@_0O@OAMDNOCP@Improper?5link@ 10061a80     libucrt:syserr.obj
 0002:00002a90       ??_C@_0P@NLEIANHE@No?5such?5device@ 10061a90     libucrt:syserr.obj
 0002:00002aa0       ??_C@_0BA@CJBACOOL@Not?5a?5directory@ 10061aa0     libucrt:syserr.obj
 0002:00002ab0       ??_C@_0P@NDHGCGKE@Is?5a?5directory@ 10061ab0     libucrt:syserr.obj
 0002:00002ac0       ??_C@_0BB@HMGGCEBG@Invalid?5argument@ 10061ac0     libucrt:syserr.obj
 0002:00002ad4       ??_C@_0BO@IIFBODJE@Too?5many?5open?5files?5in?5system@ 10061ad4     libucrt:syserr.obj
 0002:00002af4       ??_C@_0BE@INBJMKGG@Too?5many?5open?5files@ 10061af4     libucrt:syserr.obj
 0002:00002b08       ??_C@_0CE@ONOKNLPF@Inappropriate?5I?1O?5control?5opera@ 10061b08     libucrt:syserr.obj
 0002:00002b2c       ??_C@_0P@LFMMIPAE@File?5too?5large@ 10061b2c     libucrt:syserr.obj
 0002:00002b3c       ??_C@_0BI@FEALHKLD@No?5space?5left?5on?5device@ 10061b3c     libucrt:syserr.obj
 0002:00002b54       ??_C@_0N@FEHLOILP@Invalid?5seek@ 10061b54     libucrt:syserr.obj
 0002:00002b64       ??_C@_0BG@DDBFNKBH@Read?9only?5file?5system@ 10061b64     libucrt:syserr.obj
 0002:00002b7c       ??_C@_0P@PKCJJLLM@Too?5many?5links@ 10061b7c     libucrt:syserr.obj
 0002:00002b8c       ??_C@_0M@LHEPIIOM@Broken?5pipe@ 10061b8c     libucrt:syserr.obj
 0002:00002b98       ??_C@_0N@MMJPGLJK@Domain?5error@ 10061b98     libucrt:syserr.obj
 0002:00002ba8       ??_C@_0BB@FCBJFCAJ@Result?5too?5large@ 10061ba8     libucrt:syserr.obj
 0002:00002bbc       ??_C@_0BK@JAEBMJJM@Resource?5deadlock?5avoided@ 10061bbc     libucrt:syserr.obj
 0002:00002bd8       ??_C@_0BC@BEDIHIDK@Filename?5too?5long@ 10061bd8     libucrt:syserr.obj
 0002:00002bec       ??_C@_0BD@CLHBCGPB@No?5locks?5available@ 10061bec     libucrt:syserr.obj
 0002:00002c00       ??_C@_0BJ@IHEHINLI@Function?5not?5implemented@ 10061c00     libucrt:syserr.obj
 0002:00002c1c       ??_C@_0BE@ICMCHPHH@Directory?5not?5empty@ 10061c1c     libucrt:syserr.obj
 0002:00002c30       ??_C@_0BG@KLEAJEFJ@Illegal?5byte?5sequence@ 10061c30     libucrt:syserr.obj
 0002:00002c48       ??_C@_0P@LDMLAFHI@address?5in?5use@ 10061c48     libucrt:syserr.obj
 0002:00002c58       ??_C@_0BG@DHPCNBJB@address?5not?5available@ 10061c58     libucrt:syserr.obj
 0002:00002c70       ??_C@_0BN@LKKBCCDB@address?5family?5not?5supported@ 10061c70     libucrt:syserr.obj
 0002:00002c90       ??_C@_0BP@KAIHPOGN@connection?5already?5in?5progress@ 10061c90     libucrt:syserr.obj
 0002:00002cb0       ??_C@_0M@PMMIEFCP@bad?5message@ 10061cb0     libucrt:syserr.obj
 0002:00002cbc       ??_C@_0BD@MOLBPMEA@operation?5canceled@ 10061cbc     libucrt:syserr.obj
 0002:00002cd0       ??_C@_0BD@MGNDDEGM@connection?5aborted@ 10061cd0     libucrt:syserr.obj
 0002:00002ce4       ??_C@_0BD@PJLIIJEL@connection?5refused@ 10061ce4     libucrt:syserr.obj
 0002:00002cf8       ??_C@_0BB@IECNJNOI@connection?5reset@ 10061cf8     libucrt:syserr.obj
 0002:00002d0c       ??_C@_0BN@KDMIFEIP@destination?5address?5required@ 10061d0c     libucrt:syserr.obj
 0002:00002d2c       ??_C@_0BB@DHFDFGDM@host?5unreachable@ 10061d2c     libucrt:syserr.obj
 0002:00002d40       ??_C@_0BD@JPHBMONG@identifier?5removed@ 10061d40     libucrt:syserr.obj
 0002:00002d54       ??_C@_0BG@KDKHOPCO@operation?5in?5progress@ 10061d54     libucrt:syserr.obj
 0002:00002d6c       ??_C@_0BC@DFIBIBIL@already?5connected@ 10061d6c     libucrt:syserr.obj
 0002:00002d80       ??_C@_0BO@EFGOJEF@too?5many?5symbolic?5link?5levels@ 10061d80     libucrt:syserr.obj
 0002:00002da0       ??_C@_0N@IFLPBIOP@message?5size@ 10061da0     libucrt:syserr.obj
 0002:00002db0       ??_C@_0N@KIIEAAIO@network?5down@ 10061db0     libucrt:syserr.obj
 0002:00002dc0       ??_C@_0O@FNPDBHEE@network?5reset@ 10061dc0     libucrt:syserr.obj
 0002:00002dd0       ??_C@_0BE@IFNCKGE@network?5unreachable@ 10061dd0     libucrt:syserr.obj
 0002:00002de4       ??_C@_0BA@PFFCAOFK@no?5buffer?5space@ 10061de4     libucrt:syserr.obj
 0002:00002df4       ??_C@_0BF@PBGGPKKE@no?5message?5available@ 10061df4     libucrt:syserr.obj
 0002:00002e0c       ??_C@_07PLECNNKG@no?5link@ 10061e0c     libucrt:syserr.obj
 0002:00002e14       ??_C@_0L@EDOLMPAK@no?5message@ 10061e14     libucrt:syserr.obj
 0002:00002e20       ??_C@_0BD@EAMBFIDF@no?5protocol?5option@ 10061e20     libucrt:syserr.obj
 0002:00002e34       ??_C@_0BE@MKFDAFMP@no?5stream?5resources@ 10061e34     libucrt:syserr.obj
 0002:00002e48       ??_C@_0N@LGAPMMPI@not?5a?5stream@ 10061e48     libucrt:syserr.obj
 0002:00002e58       ??_C@_0O@GLMIBBEG@not?5connected@ 10061e58     libucrt:syserr.obj
 0002:00002e68       ??_C@_0BG@MPLKFPAE@state?5not?5recoverable@ 10061e68     libucrt:syserr.obj
 0002:00002e80       ??_C@_0N@POEIPGGF@not?5a?5socket@ 10061e80     libucrt:syserr.obj
 0002:00002e90       ??_C@_0O@NHEDABJP@not?5supported@ 10061e90     libucrt:syserr.obj
 0002:00002ea0       ??_C@_0BI@LNEGIFLN@operation?5not?5supported@ 10061ea0     libucrt:syserr.obj
 0002:00002eb8       ??_C@_0BA@KGKGOOJA@value?5too?5large@ 10061eb8     libucrt:syserr.obj
 0002:00002ec8       ??_C@_0L@BLPOFLNJ@owner?5dead@ 10061ec8     libucrt:syserr.obj
 0002:00002ed4       ??_C@_0P@FNPOCJBE@protocol?5error@ 10061ed4     libucrt:syserr.obj
 0002:00002ee4       ??_C@_0BH@JPPPLHJB@protocol?5not?5supported@ 10061ee4     libucrt:syserr.obj
 0002:00002efc       ??_C@_0BE@MIEJDDNH@wrong?5protocol?5type@ 10061efc     libucrt:syserr.obj
 0002:00002f10       ??_C@_0P@DIIFGFCG@stream?5timeout@ 10061f10     libucrt:syserr.obj
 0002:00002f20       ??_C@_09KJPPMAOI@timed?5out@ 10061f20     libucrt:syserr.obj
 0002:00002f2c       ??_C@_0P@IPFDMIFL@text?5file?5busy@ 10061f2c     libucrt:syserr.obj
 0002:00002f3c       ??_C@_0BG@OEMDKMEE@operation?5would?5block@ 10061f3c     libucrt:syserr.obj
 0002:00002f54       __sys_nerr                 10061f54     libucrt:syserr.obj
 0002:00002f58       ?ccs@?1???$__acrt_stdio_parse_mode@D@@YA?AU__acrt_stdio_stream_mode@@QBD@Z@4QBDB 10061f58     libucrt:openfile.obj
 0002:00002f5c       ?utf8_encoding@?1???$__acrt_stdio_parse_mode@D@@YA?AU__acrt_stdio_stream_mode@@QBD@Z@4QBDB 10061f5c     libucrt:openfile.obj
 0002:00002f64       ?utf16_encoding@?1???$__acrt_stdio_parse_mode@D@@YA?AU__acrt_stdio_stream_mode@@QBD@Z@4QBDB 10061f64     libucrt:openfile.obj
 0002:00002f6c       ?unicode_encoding@?1???$__acrt_stdio_parse_mode@D@@YA?AU__acrt_stdio_stream_mode@@QBD@Z@4QBDB 10061f6c     libucrt:openfile.obj
 0002:00002f74       ?ccs@?1???$__acrt_stdio_parse_mode@_W@@YA?AU__acrt_stdio_stream_mode@@QB_W@Z@4QB_WB 10061f74     libucrt:openfile.obj
 0002:00002f7c       ?utf8_encoding@?1???$__acrt_stdio_parse_mode@_W@@YA?AU__acrt_stdio_stream_mode@@QB_W@Z@4QB_WB 10061f7c     libucrt:openfile.obj
 0002:00002f88       ?utf16_encoding@?1???$__acrt_stdio_parse_mode@_W@@YA?AU__acrt_stdio_stream_mode@@QB_W@Z@4QB_WB 10061f88     libucrt:openfile.obj
 0002:00002f98       ?unicode_encoding@?1???$__acrt_stdio_parse_mode@_W@@YA?AU__acrt_stdio_stream_mode@@QB_W@Z@4QB_WB 10061f98     libucrt:openfile.obj
 0002:00002fb8       ??_C@_1M@HPNHIDJI@?$AAj?$AAa?$AA?9?$AAJ?$AAP@ 10061fb8     libucrt:mbctype.obj
 0002:00002fc4       ??_C@_1M@BIBDDEMK@?$AAz?$AAh?$AA?9?$AAC?$AAN@ 10061fc4     libucrt:mbctype.obj
 0002:00002fd0       ??_C@_1M@JLOOOEGK@?$AAk?$AAo?$AA?9?$AAK?$AAR@ 10061fd0     libucrt:mbctype.obj
 0002:00002fdc       ??_C@_1M@CLNBBOPM@?$AAz?$AAh?$AA?9?$AAT?$AAW@ 10061fdc     libucrt:mbctype.obj
 0002:00002fe8       ___newctype                10061fe8     libucrt:ctype.obj
 0002:000032e8       ___newclmap                100622e8     libucrt:ctype.obj
 0002:00003468       ___newcumap                10062468     libucrt:ctype.obj
 0002:000035e8       __wctype                   100625e8     libucrt:ctype.obj
 0002:000037ec       ??_C@_1DE@JNGNBFGO@?$AAR?$AAu?$AAn?$AAt?$AAi?$AAm?$AAe?$AA?5?$AAE?$AAr?$AAr?$AAo?$AAr?$AA?$CB?$AA?6@ 100627ec     libucrt:report_runtime_error.obj
 0002:00003820       ??_C@_1CO@EAEJAADC@?$AA?$DM?$AAp?$AAr?$AAo?$AAg?$AAr?$AAa?$AAm?$AA?5?$AAn?$AAa?$AAm?$AAe?$AA?5?$AAu@ 10062820     libucrt:report_runtime_error.obj
 0002:00003850       ??_C@_17LGKOMLJ@?$AA?4?$AA?4?$AA?4@ 10062850     libucrt:report_runtime_error.obj
 0002:00003858       ??_C@_15IABLJNFO@?$AA?6?$AA?6@ 10062858     libucrt:report_runtime_error.obj
 0002:00003860       ??_C@_1EK@MBDPDCGA@?$AAM?$AAi?$AAc?$AAr?$AAo?$AAs?$AAo?$AAf?$AAt?$AA?5?$AAV?$AAi?$AAs?$AAu?$AAa@ 10062860     libucrt:report_runtime_error.obj
 0002:000038b0       ___acrt_rg_language        100628b0     libucrt:get_qualified_locale.obj
 0002:00003bbc       ___acrt_rg_language_count  10062bbc     libucrt:get_qualified_locale.obj
 0002:00003bc0       ___acrt_rg_country         10062bc0     libucrt:get_qualified_locale.obj
 0002:00003cd4       ___acrt_rg_country_count   10062cd4     libucrt:get_qualified_locale.obj
 0002:00003cd8       ??_C@_1BC@LLOKLNP@?$AAa?$AAm?$AAe?$AAr?$AAi?$AAc?$AAa?$AAn@ 10062cd8     libucrt:get_qualified_locale.obj
 0002:00003cec       ??_C@_1CC@HEIGCDGG@?$AAa?$AAm?$AAe?$AAr?$AAi?$AAc?$AAa?$AAn?$AA?5?$AAe?$AAn?$AAg?$AAl?$AAi?$AAs@ 10062cec     libucrt:get_qualified_locale.obj
 0002:00003d10       ??_C@_1CC@IHCNOMIN@?$AAa?$AAm?$AAe?$AAr?$AAi?$AAc?$AAa?$AAn?$AA?9?$AAe?$AAn?$AAg?$AAl?$AAi?$AAs@ 10062d10     libucrt:get_qualified_locale.obj
 0002:00003d34       ??_C@_1BG@GKAGPCGG@?$AAa?$AAu?$AAs?$AAt?$AAr?$AAa?$AAl?$AAi?$AAa?$AAn@ 10062d34     libucrt:get_qualified_locale.obj
 0002:00003d4c       ??_C@_1BA@GMENCENF@?$AAb?$AAe?$AAl?$AAg?$AAi?$AAa?$AAn@ 10062d4c     libucrt:get_qualified_locale.obj
 0002:00003d5c       ??_C@_1BC@PJMIIAAN@?$AAc?$AAa?$AAn?$AAa?$AAd?$AAi?$AAa?$AAn@ 10062d5c     libucrt:get_qualified_locale.obj
 0002:00003d70       ??_C@_17NOIMNFBF@?$AAc?$AAh?$AAh@ 10062d70     libucrt:get_qualified_locale.obj
 0002:00003d78       ??_C@_17GGDALCHA@?$AAc?$AAh?$AAi@ 10062d78     libucrt:get_qualified_locale.obj
 0002:00003d80       ??_C@_1BA@NPNJKIBL@?$AAc?$AAh?$AAi?$AAn?$AAe?$AAs?$AAe@ 10062d80     libucrt:get_qualified_locale.obj
 0002:00003d90       ??_C@_1CC@DINBAMMJ@?$AAc?$AAh?$AAi?$AAn?$AAe?$AAs?$AAe?$AA?9?$AAh?$AAo?$AAn?$AAg?$AAk?$AAo?$AAn@ 10062d90     libucrt:get_qualified_locale.obj
 0002:00003db4       ??_C@_1CG@IOBJPACO@?$AAc?$AAh?$AAi?$AAn?$AAe?$AAs?$AAe?$AA?9?$AAs?$AAi?$AAm?$AAp?$AAl?$AAi?$AAf@ 10062db4     libucrt:get_qualified_locale.obj
 0002:00003ddc       ??_C@_1CE@GAJNDCKG@?$AAc?$AAh?$AAi?$AAn?$AAe?$AAs?$AAe?$AA?9?$AAs?$AAi?$AAn?$AAg?$AAa?$AAp?$AAo@ 10062ddc     libucrt:get_qualified_locale.obj
 0002:00003e00       ??_C@_1CI@PAJPIOOD@?$AAc?$AAh?$AAi?$AAn?$AAe?$AAs?$AAe?$AA?9?$AAt?$AAr?$AAa?$AAd?$AAi?$AAt?$AAi@ 10062e00     libucrt:get_qualified_locale.obj
 0002:00003e28       ??_C@_1BM@NILJBMMD@?$AAd?$AAu?$AAt?$AAc?$AAh?$AA?9?$AAb?$AAe?$AAl?$AAg?$AAi?$AAa?$AAn@ 10062e28     libucrt:get_qualified_locale.obj
 0002:00003e44       ??_C@_1CC@OOJPJNEJ@?$AAe?$AAn?$AAg?$AAl?$AAi?$AAs?$AAh?$AA?9?$AAa?$AAm?$AAe?$AAr?$AAi?$AAc?$AAa@ 10062e44     libucrt:get_qualified_locale.obj
 0002:00003e68       ??_C@_1BI@IOLFEEM@?$AAe?$AAn?$AAg?$AAl?$AAi?$AAs?$AAh?$AA?9?$AAa?$AAu?$AAs@ 10062e68     libucrt:get_qualified_locale.obj
 0002:00003e80       ??_C@_1BO@HFFNLENJ@?$AAe?$AAn?$AAg?$AAl?$AAi?$AAs?$AAh?$AA?9?$AAb?$AAe?$AAl?$AAi?$AAz?$AAe@ 10062e80     libucrt:get_qualified_locale.obj
 0002:00003ea0       ??_C@_1BI@HAPKJMPO@?$AAe?$AAn?$AAg?$AAl?$AAi?$AAs?$AAh?$AA?9?$AAc?$AAa?$AAn@ 10062ea0     libucrt:get_qualified_locale.obj
 0002:00003eb8       ??_C@_1CE@HLNDMIOJ@?$AAe?$AAn?$AAg?$AAl?$AAi?$AAs?$AAh?$AA?9?$AAc?$AAa?$AAr?$AAi?$AAb?$AAb?$AAe@ 10062eb8     libucrt:get_qualified_locale.obj
 0002:00003edc       ??_C@_1BI@LDHJHHAC@?$AAe?$AAn?$AAg?$AAl?$AAi?$AAs?$AAh?$AA?9?$AAi?$AAr?$AAe@ 10062edc     libucrt:get_qualified_locale.obj
 0002:00003ef4       ??_C@_1CA@NJMMCFOC@?$AAe?$AAn?$AAg?$AAl?$AAi?$AAs?$AAh?$AA?9?$AAj?$AAa?$AAm?$AAa?$AAi?$AAc?$AAa@ 10062ef4     libucrt:get_qualified_locale.obj
 0002:00003f14       ??_C@_1BG@BHJEBBGG@?$AAe?$AAn?$AAg?$AAl?$AAi?$AAs?$AAh?$AA?9?$AAn?$AAz@ 10062f14     libucrt:get_qualified_locale.obj
 0002:00003f2c       ??_C@_1CK@FGOEJJCO@?$AAe?$AAn?$AAg?$AAl?$AAi?$AAs?$AAh?$AA?9?$AAs?$AAo?$AAu?$AAt?$AAh?$AA?5?$AAa@ 10062f2c     libucrt:get_qualified_locale.obj
 0002:00003f58       ??_C@_1DE@PDBJPCJ@?$AAe?$AAn?$AAg?$AAl?$AAi?$AAs?$AAh?$AA?9?$AAt?$AAr?$AAi?$AAn?$AAi?$AAd?$AAa@ 10062f58     libucrt:get_qualified_locale.obj
 0002:00003f8c       ??_C@_1BG@JGCANDME@?$AAe?$AAn?$AAg?$AAl?$AAi?$AAs?$AAh?$AA?9?$AAu?$AAk@ 10062f8c     libucrt:get_qualified_locale.obj
 0002:00003fa4       ??_C@_1BG@DINKMLE@?$AAe?$AAn?$AAg?$AAl?$AAi?$AAs?$AAh?$AA?9?$AAu?$AAs@ 10062fa4     libucrt:get_qualified_locale.obj
 0002:00003fbc       ??_C@_1BI@NMFDBHJE@?$AAe?$AAn?$AAg?$AAl?$AAi?$AAs?$AAh?$AA?9?$AAu?$AAs?$AAa@ 10062fbc     libucrt:get_qualified_locale.obj
 0002:00003fd4       ??_C@_1BO@OIHKJKII@?$AAf?$AAr?$AAe?$AAn?$AAc?$AAh?$AA?9?$AAb?$AAe?$AAl?$AAg?$AAi?$AAa?$AAn@ 10062fd4     libucrt:get_qualified_locale.obj
 0002:00003ff4       ??_C@_1CA@NKAELJKI@?$AAf?$AAr?$AAe?$AAn?$AAc?$AAh?$AA?9?$AAc?$AAa?$AAn?$AAa?$AAd?$AAi?$AAa?$AAn@ 10062ff4     libucrt:get_qualified_locale.obj
 0002:00004014       ??_C@_1CE@MGKCNLGN@?$AAf?$AAr?$AAe?$AAn?$AAc?$AAh?$AA?9?$AAl?$AAu?$AAx?$AAe?$AAm?$AAb?$AAo?$AAu@ 10063014     libucrt:get_qualified_locale.obj
 0002:00004038       ??_C@_1BK@CEGEAILM@?$AAf?$AAr?$AAe?$AAn?$AAc?$AAh?$AA?9?$AAs?$AAw?$AAi?$AAs?$AAs@ 10063038     libucrt:get_qualified_locale.obj
 0002:00004054       ??_C@_1CA@PAFKEOCC@?$AAg?$AAe?$AAr?$AAm?$AAa?$AAn?$AA?9?$AAa?$AAu?$AAs?$AAt?$AAr?$AAi?$AAa?$AAn@ 10063054     libucrt:get_qualified_locale.obj
 0002:00004074       ??_C@_1CI@HCFHGOFD@?$AAg?$AAe?$AAr?$AAm?$AAa?$AAn?$AA?9?$AAl?$AAi?$AAc?$AAh?$AAt?$AAe?$AAn?$AAs@ 10063074     libucrt:get_qualified_locale.obj
 0002:0000409c       ??_C@_1CE@FEDDNPDG@?$AAg?$AAe?$AAr?$AAm?$AAa?$AAn?$AA?9?$AAl?$AAu?$AAx?$AAe?$AAm?$AAb?$AAo?$AAu@ 1006309c     libucrt:get_qualified_locale.obj
 0002:000040c0       ??_C@_1BK@LIMINNMN@?$AAg?$AAe?$AAr?$AAm?$AAa?$AAn?$AA?9?$AAs?$AAw?$AAi?$AAs?$AAs@ 100630c0     libucrt:get_qualified_locale.obj
 0002:000040dc       ??_C@_1BM@LGMDBEPD@?$AAi?$AAr?$AAi?$AAs?$AAh?$AA?9?$AAe?$AAn?$AAg?$AAl?$AAi?$AAs?$AAh@ 100630dc     libucrt:get_qualified_locale.obj
 0002:000040f8       ??_C@_1BM@NNCFBAEE@?$AAi?$AAt?$AAa?$AAl?$AAi?$AAa?$AAn?$AA?9?$AAs?$AAw?$AAi?$AAs?$AAs@ 100630f8     libucrt:get_qualified_locale.obj
 0002:00004114       ??_C@_1BE@FEDJNPIB@?$AAn?$AAo?$AAr?$AAw?$AAe?$AAg?$AAi?$AAa?$AAn@ 10063114     libucrt:get_qualified_locale.obj
 0002:00004128       ??_C@_1CC@CILKDEIE@?$AAn?$AAo?$AAr?$AAw?$AAe?$AAg?$AAi?$AAa?$AAn?$AA?9?$AAb?$AAo?$AAk?$AAm?$AAa@ 10063128     libucrt:get_qualified_locale.obj
 0002:0000414c       ??_C@_1CE@DHMMHEPL@?$AAn?$AAo?$AAr?$AAw?$AAe?$AAg?$AAi?$AAa?$AAn?$AA?9?$AAn?$AAy?$AAn?$AAo?$AAr@ 1006314c     libucrt:get_qualified_locale.obj
 0002:00004170       ??_C@_1CK@OPNMHECD@?$AAp?$AAo?$AAr?$AAt?$AAu?$AAg?$AAu?$AAe?$AAs?$AAe?$AA?9?$AAb?$AAr?$AAa?$AAz@ 10063170     libucrt:get_qualified_locale.obj
 0002:0000419c       ??_C@_1CE@KEEHCDB@?$AAs?$AAp?$AAa?$AAn?$AAi?$AAs?$AAh?$AA?9?$AAa?$AAr?$AAg?$AAe?$AAn?$AAt?$AAi@ 1006319c     libucrt:get_qualified_locale.obj
 0002:000041c0       ??_C@_1CA@GIAOLHJD@?$AAs?$AAp?$AAa?$AAn?$AAi?$AAs?$AAh?$AA?9?$AAb?$AAo?$AAl?$AAi?$AAv?$AAi?$AAa@ 100631c0     libucrt:get_qualified_locale.obj
 0002:000041e0       ??_C@_1BM@OJNDFNPD@?$AAs?$AAp?$AAa?$AAn?$AAi?$AAs?$AAh?$AA?9?$AAc?$AAh?$AAi?$AAl?$AAe@ 100631e0     libucrt:get_qualified_locale.obj
 0002:000041fc       ??_C@_1CC@OCOLPALL@?$AAs?$AAp?$AAa?$AAn?$AAi?$AAs?$AAh?$AA?9?$AAc?$AAo?$AAl?$AAo?$AAm?$AAb?$AAi@ 100631fc     libucrt:get_qualified_locale.obj
 0002:00004220       ??_C@_1CG@BPOFMKBB@?$AAs?$AAp?$AAa?$AAn?$AAi?$AAs?$AAh?$AA?9?$AAc?$AAo?$AAs?$AAt?$AAa?$AA?5?$AAr@ 10063220     libucrt:get_qualified_locale.obj
 0002:00004248       ??_C@_1DG@IGOBAPBB@?$AAs?$AAp?$AAa?$AAn?$AAi?$AAs?$AAh?$AA?9?$AAd?$AAo?$AAm?$AAi?$AAn?$AAi?$AAc@ 10063248     libucrt:get_qualified_locale.obj
 0002:00004280       ??_C@_1CA@JHAPGEGI@?$AAs?$AAp?$AAa?$AAn?$AAi?$AAs?$AAh?$AA?9?$AAe?$AAc?$AAu?$AAa?$AAd?$AAo?$AAr@ 10063280     libucrt:get_qualified_locale.obj
 0002:000042a0       ??_C@_1CI@LAPALJPP@?$AAs?$AAp?$AAa?$AAn?$AAi?$AAs?$AAh?$AA?9?$AAe?$AAl?$AA?5?$AAs?$AAa?$AAl?$AAv@ 100632a0     libucrt:get_qualified_locale.obj
 0002:000042c8       ??_C@_1CE@PDGBOFOM@?$AAs?$AAp?$AAa?$AAn?$AAi?$AAs?$AAh?$AA?9?$AAg?$AAu?$AAa?$AAt?$AAe?$AAm?$AAa@ 100632c8     libucrt:get_qualified_locale.obj
 0002:000042ec       ??_C@_1CC@NBEBAODI@?$AAs?$AAp?$AAa?$AAn?$AAi?$AAs?$AAh?$AA?9?$AAh?$AAo?$AAn?$AAd?$AAu?$AAr?$AAa@ 100632ec     libucrt:get_qualified_locale.obj
 0002:00004310       ??_C@_1CA@LLKGHBMF@?$AAs?$AAp?$AAa?$AAn?$AAi?$AAs?$AAh?$AA?9?$AAm?$AAe?$AAx?$AAi?$AAc?$AAa?$AAn@ 10063310     libucrt:get_qualified_locale.obj
 0002:00004330       ??_C@_1BO@LKNDOIGD@?$AAs?$AAp?$AAa?$AAn?$AAi?$AAs?$AAh?$AA?9?$AAm?$AAo?$AAd?$AAe?$AAr?$AAn@ 10063330     libucrt:get_qualified_locale.obj
 0002:00004350       ??_C@_1CE@NMDMOEEB@?$AAs?$AAp?$AAa?$AAn?$AAi?$AAs?$AAh?$AA?9?$AAn?$AAi?$AAc?$AAa?$AAr?$AAa?$AAg@ 10063350     libucrt:get_qualified_locale.obj
 0002:00004374       ??_C@_1BO@LLCBEJGB@?$AAs?$AAp?$AAa?$AAn?$AAi?$AAs?$AAh?$AA?9?$AAp?$AAa?$AAn?$AAa?$AAm?$AAa@ 10063374     libucrt:get_qualified_locale.obj
 0002:00004394       ??_C@_1CC@FKPGGIHO@?$AAs?$AAp?$AAa?$AAn?$AAi?$AAs?$AAh?$AA?9?$AAp?$AAa?$AAr?$AAa?$AAg?$AAu?$AAa@ 10063394     libucrt:get_qualified_locale.obj
 0002:000043b8       ??_C@_1BK@CDEIHOOP@?$AAs?$AAp?$AAa?$AAn?$AAi?$AAs?$AAh?$AA?9?$AAp?$AAe?$AAr?$AAu@ 100633b8     libucrt:get_qualified_locale.obj
 0002:000043d4       ??_C@_1CI@GAHAKKGP@?$AAs?$AAp?$AAa?$AAn?$AAi?$AAs?$AAh?$AA?9?$AAp?$AAu?$AAe?$AAr?$AAt?$AAo?$AA?5@ 100633d4     libucrt:get_qualified_locale.obj
 0002:000043fc       ??_C@_1CA@NKJBCAGP@?$AAs?$AAp?$AAa?$AAn?$AAi?$AAs?$AAh?$AA?9?$AAu?$AAr?$AAu?$AAg?$AAu?$AAa?$AAy@ 100633fc     libucrt:get_qualified_locale.obj
 0002:0000441c       ??_C@_1CE@ODILCONM@?$AAs?$AAp?$AAa?$AAn?$AAi?$AAs?$AAh?$AA?9?$AAv?$AAe?$AAn?$AAe?$AAz?$AAu?$AAe@ 1006341c     libucrt:get_qualified_locale.obj
 0002:00004440       ??_C@_1CA@OBNMCGFO@?$AAs?$AAw?$AAe?$AAd?$AAi?$AAs?$AAh?$AA?9?$AAf?$AAi?$AAn?$AAl?$AAa?$AAn?$AAd@ 10063440     libucrt:get_qualified_locale.obj
 0002:00004460       ??_C@_1M@PIPDDPPI@?$AAs?$AAw?$AAi?$AAs?$AAs@ 10063460     libucrt:get_qualified_locale.obj
 0002:0000446c       ??_C@_15PJPFLCCM@?$AAu?$AAk@ 1006346c     libucrt:get_qualified_locale.obj
 0002:00004474       ??_C@_15GMFIMNFM@?$AAu?$AAs@ 10063474     libucrt:get_qualified_locale.obj
 0002:0000447c       ??_C@_17HAEBFAGL@?$AAu?$AAs?$AAa@ 1006347c     libucrt:get_qualified_locale.obj
 0002:00004484       ??_C@_1BA@DPFJEPHB@?$AAa?$AAm?$AAe?$AAr?$AAi?$AAc?$AAa@ 10063484     libucrt:get_qualified_locale.obj
 0002:00004494       ??_C@_1BA@ELOGGFK@?$AAb?$AAr?$AAi?$AAt?$AAa?$AAi?$AAn@ 10063494     libucrt:get_qualified_locale.obj
 0002:000044a4       ??_C@_1M@GHBGIGDA@?$AAc?$AAh?$AAi?$AAn?$AAa@ 100634a4     libucrt:get_qualified_locale.obj
 0002:000044b0       ??_C@_1M@NCHEJOPO@?$AAc?$AAz?$AAe?$AAc?$AAh@ 100634b0     libucrt:get_qualified_locale.obj
 0002:000044bc       ??_C@_1BA@BKPAPBLA@?$AAe?$AAn?$AAg?$AAl?$AAa?$AAn?$AAd@ 100634bc     libucrt:get_qualified_locale.obj
 0002:000044cc       ??_C@_1BM@HKBCKIPC@?$AAg?$AAr?$AAe?$AAa?$AAt?$AA?5?$AAb?$AAr?$AAi?$AAt?$AAa?$AAi?$AAn@ 100634cc     libucrt:get_qualified_locale.obj
 0002:000044e8       ??_C@_1BA@PPCHPGJB@?$AAh?$AAo?$AAl?$AAl?$AAa?$AAn?$AAd@ 100634e8     libucrt:get_qualified_locale.obj
 0002:000044f8       ??_C@_1BE@JBMPEGDG@?$AAh?$AAo?$AAn?$AAg?$AA?9?$AAk?$AAo?$AAn?$AAg@ 100634f8     libucrt:get_qualified_locale.obj
 0002:0000450c       ??_C@_1BI@KOELBBPJ@?$AAn?$AAe?$AAw?$AA?9?$AAz?$AAe?$AAa?$AAl?$AAa?$AAn?$AAd@ 1006350c     libucrt:get_qualified_locale.obj
 0002:00004524       ??_C@_15HIEBHAIO@?$AAn?$AAz@ 10063524     libucrt:get_qualified_locale.obj
 0002:0000452c       ??_C@_1BC@CHBCPFPI@?$AAp?$AAr?$AA?5?$AAc?$AAh?$AAi?$AAn?$AAa@ 1006352c     libucrt:get_qualified_locale.obj
 0002:00004540       ??_C@_1BC@JAOIIFKD@?$AAp?$AAr?$AA?9?$AAc?$AAh?$AAi?$AAn?$AAa@ 10063540     libucrt:get_qualified_locale.obj
 0002:00004554       ??_C@_1BI@BEHPPHKC@?$AAp?$AAu?$AAe?$AAr?$AAt?$AAo?$AA?9?$AAr?$AAi?$AAc?$AAo@ 10063554     libucrt:get_qualified_locale.obj
 0002:0000456c       ??_C@_1O@PAEOFKDI@?$AAs?$AAl?$AAo?$AAv?$AAa?$AAk@ 1006356c     libucrt:get_qualified_locale.obj
 0002:0000457c       ??_C@_1BK@FIHMCKAM@?$AAs?$AAo?$AAu?$AAt?$AAh?$AA?5?$AAa?$AAf?$AAr?$AAi?$AAc?$AAa@ 1006357c     libucrt:get_qualified_locale.obj
 0002:00004598       ??_C@_1BI@NAEOODKB@?$AAs?$AAo?$AAu?$AAt?$AAh?$AA?5?$AAk?$AAo?$AAr?$AAe?$AAa@ 10063598     libucrt:get_qualified_locale.obj
 0002:000045b0       ??_C@_1BK@FBDGGIFF@?$AAs?$AAo?$AAu?$AAt?$AAh?$AA?9?$AAa?$AAf?$AAr?$AAi?$AAc?$AAa@ 100635b0     libucrt:get_qualified_locale.obj
 0002:000045cc       ??_C@_1BI@GHLEJDPK@?$AAs?$AAo?$AAu?$AAt?$AAh?$AA?9?$AAk?$AAo?$AAr?$AAe?$AAa@ 100635cc     libucrt:get_qualified_locale.obj
 0002:000045e4       ??_C@_1CE@PLHLOMJF@?$AAt?$AAr?$AAi?$AAn?$AAi?$AAd?$AAa?$AAd?$AA?5?$AA?$CG?$AA?5?$AAt?$AAo?$AAb?$AAa@ 100635e4     libucrt:get_qualified_locale.obj
 0002:00004608       ??_C@_1BO@MODIMHHI@?$AAu?$AAn?$AAi?$AAt?$AAe?$AAd?$AA?9?$AAk?$AAi?$AAn?$AAg?$AAd?$AAo?$AAm@ 10063608     libucrt:get_qualified_locale.obj
 0002:00004628       ??_C@_1BM@FFHJONBJ@?$AAu?$AAn?$AAi?$AAt?$AAe?$AAd?$AA?9?$AAs?$AAt?$AAa?$AAt?$AAe?$AAs@ 10063628     libucrt:get_qualified_locale.obj
 0002:00004644       ??_C@_19MPDNHKDG@?$AAu?$AAt?$AAf?$AA8@ 10063644     libucrt:get_qualified_locale.obj
 0002:00004650       ??_C@_17DNCLJFIF@?$AAA?$AAC?$AAP@ 10063650     libucrt:get_qualified_locale.obj
 0002:00004658       ??_C@_1M@FPEIIFAM@?$AAu?$AAt?$AAf?$AA?9?$AA8@ 10063658     libucrt:get_qualified_locale.obj
 0002:00004664       ??_C@_17CIKBIHLH@?$AAO?$AAC?$AAP@ 10063664     libucrt:get_qualified_locale.obj
 0002:0000466c       ___rglangidNotDefault      1006366c     libucrt:getqloc_downlevel.obj
 0002:00004da0       ??_C@_15EMKDOKLE@?$AAa?$AAr@ 10063da0     libucrt:lcidtoname_downlevel.obj
 0002:00004da8       ??_C@_15KNPADPLH@?$AAb?$AAg@ 10063da8     libucrt:lcidtoname_downlevel.obj
 0002:00004db0       ??_C@_15EDMHLDMO@?$AAc?$AAa@ 10063db0     libucrt:lcidtoname_downlevel.obj
 0002:00004db8       ??_C@_1O@BPEAJADD@?$AAz?$AAh?$AA?9?$AAC?$AAH?$AAS@ 10063db8     libucrt:lcidtoname_downlevel.obj
 0002:00004dc8       ??_C@_15LJNHCMNK@?$AAc?$AAs@ 10063dc8     libucrt:lcidtoname_downlevel.obj
 0002:00004dd0       ??_C@_15FOMCIDHG@?$AAd?$AAa@ 10063dd0     libucrt:lcidtoname_downlevel.obj
 0002:00004dd8       ??_C@_15NBKABECB@?$AAd?$AAe@ 10063dd8     libucrt:lcidtoname_downlevel.obj
 0002:00004de0       ??_C@_15GHPEIIAO@?$AAe?$AAl@ 10063de0     libucrt:lcidtoname_downlevel.obj
 0002:00004de8       ??_C@_15MNPNEAIF@?$AAe?$AAn@ 10063de8     libucrt:lcidtoname_downlevel.obj
 0002:00004df0       ??_C@_15GPIOMPMH@?$AAe?$AAs@ 10063df0     libucrt:lcidtoname_downlevel.obj
 0002:00004df8       ??_C@_15NGLOAKJC@?$AAf?$AAi@ 10063df8     libucrt:lcidtoname_downlevel.obj
 0002:00004e00       ??_C@_15FBKGNKAM@?$AAf?$AAr@ 10063e00     libucrt:lcidtoname_downlevel.obj
 0002:00004e08       ??_C@_15KGGCNEFK@?$AAh?$AAe@ 10063e08     libucrt:lcidtoname_downlevel.obj
 0002:00004e10       ??_C@_15PGHLIDMF@?$AAh?$AAu@ 10063e10     libucrt:lcidtoname_downlevel.obj
 0002:00004e18       ??_C@_15BIEMAPLM@?$AAi?$AAs@ 10063e18     libucrt:lcidtoname_downlevel.obj
 0002:00004e20       ??_C@_15IFJLDHAF@?$AAi?$AAt@ 10063e20     libucrt:lcidtoname_downlevel.obj
 0002:00004e28       ??_C@_15GEMIOCAG@?$AAj?$AAa@ 10063e28     libucrt:lcidtoname_downlevel.obj
 0002:00004e30       ??_C@_15EPELEGJA@?$AAk?$AAo@ 10063e30     libucrt:lcidtoname_downlevel.obj
 0002:00004e38       ??_C@_15NDDHIMN@?$AAn?$AAl@ 10063e38     libucrt:lcidtoname_downlevel.obj
 0002:00004e40       ??_C@_15BPIGNHCD@?$AAn?$AAo@ 10063e40     libucrt:lcidtoname_downlevel.obj
 0002:00004e48       ??_C@_15DEOPBLCG@?$AAp?$AAl@ 10063e48     libucrt:lcidtoname_downlevel.obj
 0002:00004e50       ??_C@_15KBECGEFG@?$AAp?$AAt@ 10063e50     libucrt:lcidtoname_downlevel.obj
 0002:00004e58       ??_C@_15GLJCBFMD@?$AAr?$AAo@ 10063e58     libucrt:lcidtoname_downlevel.obj
 0002:00004e60       ??_C@_15FEDGKCDI@?$AAr?$AAu@ 10063e60     libucrt:lcidtoname_downlevel.obj
 0002:00004e68       ??_C@_15GLKMLLHM@?$AAh?$AAr@ 10063e68     libucrt:lcidtoname_downlevel.obj
 0002:00004e70       ??_C@_15CPKMFBDB@?$AAs?$AAk@ 10063e70     libucrt:lcidtoname_downlevel.obj
 0002:00004e78       ??_C@_15BAAIOGMK@?$AAs?$AAq@ 10063e78     libucrt:lcidtoname_downlevel.obj
 0002:00004e80       ??_C@_15INNPNOHD@?$AAs?$AAv@ 10063e80     libucrt:lcidtoname_downlevel.obj
 0002:00004e88       ??_C@_15CABMMOGH@?$AAt?$AAh@ 10063e88     libucrt:lcidtoname_downlevel.obj
 0002:00004e90       ??_C@_15BPLIHJJM@?$AAt?$AAr@ 10063e90     libucrt:lcidtoname_downlevel.obj
 0002:00004e98       ??_C@_15NEOEKKDJ@?$AAu?$AAr@ 10063e98     libucrt:lcidtoname_downlevel.obj
 0002:00004ea0       ??_C@_15NFICGAJK@?$AAi?$AAd@ 10063ea0     libucrt:lcidtoname_downlevel.obj
 0002:00004ea8       ??_C@_15HPJPHDM@?$AAb?$AAe@ 10063ea8     libucrt:lcidtoname_downlevel.obj
 0002:00004eb0       ??_C@_15LCHLGJII@?$AAs?$AAl@ 10063eb0     libucrt:lcidtoname_downlevel.obj
 0002:00004eb8       ??_C@_15PCFJPHHO@?$AAe?$AAt@ 10063eb8     libucrt:lcidtoname_downlevel.obj
 0002:00004ec0       ??_C@_15HPFPGODN@?$AAl?$AAv@ 10063ec0     libucrt:lcidtoname_downlevel.obj
 0002:00004ec8       ??_C@_15NFFGKGLG@?$AAl?$AAt@ 10063ec8     libucrt:lcidtoname_downlevel.obj
 0002:00004ed0       ??_C@_15BDAKCCHN@?$AAf?$AAa@ 10063ed0     libucrt:lcidtoname_downlevel.obj
 0002:00004ed8       ??_C@_15NFGIAIAJ@?$AAv?$AAi@ 10063ed8     libucrt:lcidtoname_downlevel.obj
 0002:00004ee0       ??_C@_15LMKNDMHN@?$AAh?$AAy@ 10063ee0     libucrt:lcidtoname_downlevel.obj
 0002:00004ee8       ??_C@_15IJBHMCFL@?$AAa?$AAz@ 10063ee8     libucrt:lcidtoname_downlevel.obj
 0002:00004ef0       ??_C@_15EKOFJABL@?$AAe?$AAu@ 10063ef0     libucrt:lcidtoname_downlevel.obj
 0002:00004ef8       ??_C@_15BGHADCNK@?$AAm?$AAk@ 10063ef8     libucrt:lcidtoname_downlevel.obj
 0002:00004f00       ??_C@_15JDNICKHM@?$AAa?$AAf@ 10063f00     libucrt:lcidtoname_downlevel.obj
 0002:00004f08       ??_C@_15KPJEDBKD@?$AAk?$AAa@ 10063f08     libucrt:lcidtoname_downlevel.obj
 0002:00004f10       ??_C@_15PDNFFFEO@?$AAf?$AAo@ 10063f10     libucrt:lcidtoname_downlevel.obj
 0002:00004f18       ??_C@_15OMLEGLOC@?$AAh?$AAi@ 10063f18     libucrt:lcidtoname_downlevel.obj
 0002:00004f20       ??_C@_15IDNNENKK@?$AAm?$AAs@ 10063f20     libucrt:lcidtoname_downlevel.obj
 0002:00004f28       ??_C@_15MACJNBMH@?$AAk?$AAk@ 10063f28     libucrt:lcidtoname_downlevel.obj
 0002:00004f30       ??_C@_15DKDJEOND@?$AAk?$AAy@ 10063f30     libucrt:lcidtoname_downlevel.obj
 0002:00004f38       ??_C@_15DFGDLJBG@?$AAs?$AAw@ 10063f38     libucrt:lcidtoname_downlevel.obj
 0002:00004f40       ??_C@_15BBFAICNG@?$AAu?$AAz@ 10063f40     libucrt:lcidtoname_downlevel.obj
 0002:00004f48       ??_C@_15DKNDCGEA@?$AAt?$AAt@ 10063f48     libucrt:lcidtoname_downlevel.obj
 0002:00004f50       ??_C@_15MGIFMDPL@?$AAp?$AAa@ 10063f50     libucrt:lcidtoname_downlevel.obj
 0002:00004f58       ??_C@_15HCNDBBA@?$AAg?$AAu@ 10063f58     libucrt:lcidtoname_downlevel.obj
 0002:00004f60       ??_C@_15FNBEIBON@?$AAt?$AAa@ 10063f60     libucrt:lcidtoname_downlevel.obj
 0002:00004f68       ??_C@_15NCHGBGLK@?$AAt?$AAe@ 10063f68     libucrt:lcidtoname_downlevel.obj
 0002:00004f70       ??_C@_15PHPHCBPF@?$AAk?$AAn@ 10063f70     libucrt:lcidtoname_downlevel.obj
 0002:00004f78       ??_C@_15DLGBCKMP@?$AAm?$AAr@ 10063f78     libucrt:lcidtoname_downlevel.obj
 0002:00004f80       ??_C@_15EABBLBFF@?$AAs?$AAa@ 10063f80     libucrt:lcidtoname_downlevel.obj
 0002:00004f88       ??_C@_15CBKOMCOI@?$AAm?$AAn@ 10063f88     libucrt:lcidtoname_downlevel.obj
 0002:00004f90       ??_C@_15CKDMCJAF@?$AAg?$AAl@ 10063f90     libucrt:lcidtoname_downlevel.obj
 0002:00004f98       ??_C@_17CNJFBPG@?$AAk?$AAo?$AAk@ 10063f98     libucrt:lcidtoname_downlevel.obj
 0002:00004fa0       ??_C@_17FFBJICPL@?$AAs?$AAy?$AAr@ 10063fa0     libucrt:lcidtoname_downlevel.obj
 0002:00004fa8       ??_C@_17KPNDCPAF@?$AAd?$AAi?$AAv@ 10063fa8     libucrt:lcidtoname_downlevel.obj
 0002:00004fb0       ??_C@_11LOCGONAA@@         10063fb0     libucrt:lcidtoname_downlevel.obj
 0002:00004fb4       ??_C@_1M@OKAHONE@?$AAa?$AAr?$AA?9?$AAS?$AAA@ 10063fb4     libucrt:lcidtoname_downlevel.obj
 0002:00004fc0       ??_C@_1M@FFFIGIGK@?$AAb?$AAg?$AA?9?$AAB?$AAG@ 10063fc0     libucrt:lcidtoname_downlevel.obj
 0002:00004fcc       ??_C@_1M@BJNKEDC@?$AAc?$AAa?$AA?9?$AAE?$AAS@ 10063fcc     libucrt:lcidtoname_downlevel.obj
 0002:00004fd8       ??_C@_1M@IJJHFJHA@?$AAc?$AAs?$AA?9?$AAC?$AAZ@ 10063fd8     libucrt:lcidtoname_downlevel.obj
 0002:00004fe4       ??_C@_1M@CLPEOBGI@?$AAd?$AAa?$AA?9?$AAD?$AAK@ 10063fe4     libucrt:lcidtoname_downlevel.obj
 0002:00004ff0       ??_C@_1M@MCMADGCB@?$AAd?$AAe?$AA?9?$AAD?$AAE@ 10063ff0     libucrt:lcidtoname_downlevel.obj
 0002:00004ffc       ??_C@_1M@OOCKEMAM@?$AAe?$AAl?$AA?9?$AAG?$AAR@ 10063ffc     libucrt:lcidtoname_downlevel.obj
 0002:00005008       ??_C@_1M@DDNJFGID@?$AAf?$AAi?$AA?9?$AAF?$AAI@ 10064008     libucrt:lcidtoname_downlevel.obj
 0002:00005014       ??_C@_1M@GLIPPMAC@?$AAf?$AAr?$AA?9?$AAF?$AAR@ 10064014     libucrt:lcidtoname_downlevel.obj
 0002:00005020       ??_C@_1M@GFMCHPE@?$AAh?$AAe?$AA?9?$AAI?$AAL@ 10064020     libucrt:lcidtoname_downlevel.obj
 0002:0000502c       ??_C@_1M@MHLPGNKM@?$AAh?$AAu?$AA?9?$AAH?$AAU@ 1006402c     libucrt:lcidtoname_downlevel.obj
 0002:00005038       ??_C@_1M@LPDDNNPN@?$AAi?$AAs?$AA?9?$AAI?$AAS@ 10064038     libucrt:lcidtoname_downlevel.obj
 0002:00005044       ??_C@_1M@MADIPODN@?$AAi?$AAt?$AA?9?$AAI?$AAT@ 10064044     libucrt:lcidtoname_downlevel.obj
 0002:00005050       ??_C@_1M@IHBJJGG@?$AAn?$AAl?$AA?9?$AAN?$AAL@ 10064050     libucrt:lcidtoname_downlevel.obj
 0002:0000505c       ??_C@_1M@EANAGDL@?$AAn?$AAb?$AA?9?$AAN?$AAO@ 1006405c     libucrt:lcidtoname_downlevel.obj
 0002:00005068       ??_C@_1M@NEIEMEGP@?$AAp?$AAl?$AA?9?$AAP?$AAL@ 10064068     libucrt:lcidtoname_downlevel.obj
 0002:00005074       ??_C@_1M@BOCFIGEP@?$AAp?$AAt?$AA?9?$AAB?$AAR@ 10064074     libucrt:lcidtoname_downlevel.obj
 0002:00005080       ??_C@_1M@IMPFOPBG@?$AAr?$AAo?$AA?9?$AAR?$AAO@ 10064080     libucrt:lcidtoname_downlevel.obj
 0002:0000508c       ??_C@_1M@IDNNEJMM@?$AAr?$AAu?$AA?9?$AAR?$AAU@ 1006408c     libucrt:lcidtoname_downlevel.obj
 0002:00005098       ??_C@_1M@LILEEOGM@?$AAh?$AAr?$AA?9?$AAH?$AAR@ 10064098     libucrt:lcidtoname_downlevel.obj
 0002:000050a4       ??_C@_1M@FKIFEHPB@?$AAs?$AAk?$AA?9?$AAS?$AAK@ 100640a4     libucrt:lcidtoname_downlevel.obj
 0002:000050b0       ??_C@_1M@LJMAMNPJ@?$AAs?$AAq?$AA?9?$AAA?$AAL@ 100640b0     libucrt:lcidtoname_downlevel.obj
 0002:000050bc       ??_C@_1M@GIAKDKJK@?$AAs?$AAv?$AA?9?$AAS?$AAE@ 100640bc     libucrt:lcidtoname_downlevel.obj
 0002:000050c8       ??_C@_1M@MKJKIKCL@?$AAt?$AAh?$AA?9?$AAT?$AAH@ 100640c8     libucrt:lcidtoname_downlevel.obj
 0002:000050d4       ??_C@_1M@MFLCCMPB@?$AAt?$AAr?$AA?9?$AAT?$AAR@ 100640d4     libucrt:lcidtoname_downlevel.obj
 0002:000050e0       ??_C@_1M@OIJHDKJN@?$AAu?$AAr?$AA?9?$AAP?$AAK@ 100640e0     libucrt:lcidtoname_downlevel.obj
 0002:000050ec       ??_C@_1M@LHIPCIEK@?$AAi?$AAd?$AA?9?$AAI?$AAD@ 100640ec     libucrt:lcidtoname_downlevel.obj
 0002:000050f8       ??_C@_1M@MFMOBGI@?$AAu?$AAk?$AA?9?$AAU?$AAA@ 100640f8     libucrt:lcidtoname_downlevel.obj
 0002:00005104       ??_C@_1M@OBGLJIPL@?$AAb?$AAe?$AA?9?$AAB?$AAY@ 10064104     libucrt:lcidtoname_downlevel.obj
 0002:00005110       ??_C@_1M@BCFAJEAD@?$AAs?$AAl?$AA?9?$AAS?$AAI@ 10064110     libucrt:lcidtoname_downlevel.obj
 0002:0000511c       ??_C@_1M@FKFFEDDN@?$AAe?$AAt?$AA?9?$AAE?$AAE@ 1006411c     libucrt:lcidtoname_downlevel.obj
 0002:00005128       ??_C@_1M@KGKKAACI@?$AAl?$AAv?$AA?9?$AAL?$AAV@ 10064128     libucrt:lcidtoname_downlevel.obj
 0002:00005134       ??_C@_1M@IFGBIJO@?$AAl?$AAt?$AA?9?$AAL?$AAT@ 10064134     libucrt:lcidtoname_downlevel.obj
 0002:00005140       ??_C@_1M@FGEAHEDM@?$AAf?$AAa?$AA?9?$AAI?$AAR@ 10064140     libucrt:lcidtoname_downlevel.obj
 0002:0000514c       ??_C@_1M@KBMAIBFN@?$AAv?$AAi?$AA?9?$AAV?$AAN@ 1006414c     libucrt:lcidtoname_downlevel.obj
 0002:00005158       ??_C@_1M@GPCBKDJK@?$AAh?$AAy?$AA?9?$AAA?$AAM@ 10064158     libucrt:lcidtoname_downlevel.obj
 0002:00005164       ??_C@_1BG@BECMDDJB@?$AAa?$AAz?$AA?9?$AAA?$AAZ?$AA?9?$AAL?$AAa?$AAt?$AAn@ 10064164     libucrt:lcidtoname_downlevel.obj
 0002:0000517c       ??_C@_1M@MAOFCAEA@?$AAe?$AAu?$AA?9?$AAE?$AAS@ 1006417c     libucrt:lcidtoname_downlevel.obj
 0002:00005188       ??_C@_1M@IGHABKPI@?$AAm?$AAk?$AA?9?$AAM?$AAK@ 10064188     libucrt:lcidtoname_downlevel.obj
 0002:00005194       ??_C@_1M@IAIGNEJG@?$AAt?$AAn?$AA?9?$AAZ?$AAA@ 10064194     libucrt:lcidtoname_downlevel.obj
